
resume1.elf:     file format elf32-littlearm


Disassembly of section .text:

00000000 <main>:
       0:	e59f31c0 	ldr	r3, [pc, #448]	; 1c8 <__resume1_start+0x1c8>
       4:	e3a01000 	mov	r1, #0
       8:	e59f21bc 	ldr	r2, [pc, #444]	; 1cc <__resume1_start+0x1cc>
       c:	e92d4070 	push	{r4, r5, r6, lr}
      10:	e5933000 	ldr	r3, [r3]
      14:	e4c31001 	strb	r1, [r3], #1
      18:	e1530002 	cmp	r3, r2
      1c:	9afffffc 	bls	14 <__resume1_start+0x14>
      20:	e59f21a0 	ldr	r2, [pc, #416]	; 1c8 <__resume1_start+0x1c8>
      24:	e3a00a07 	mov	r0, #28672	; 0x7000
      28:	e59f51a0 	ldr	r5, [pc, #416]	; 1d0 <__resume1_start+0x1d0>
      2c:	e3a04000 	mov	r4, #0
      30:	e5823000 	str	r3, [r2]
      34:	eb000bcf 	bl	2f78 <save_sun5i_mem_status_nommu>
      38:	e5850000 	str	r0, [r5]
      3c:	eb000138 	bl	524 <mem_preload_tlb_nommu>
      40:	e3070002 	movw	r0, #28674	; 0x7002
      44:	eb000bcb 	bl	2f78 <save_sun5i_mem_status_nommu>
      48:	e59f1184 	ldr	r1, [pc, #388]	; 1d4 <__resume1_start+0x1d4>
      4c:	e3a02e23 	mov	r2, #560	; 0x230
      50:	e2850004 	add	r0, r5, #4
      54:	eb000061 	bl	1e0 <mem_memcpy>
      58:	e3070003 	movw	r0, #28675	; 0x7003
      5c:	eb000bc5 	bl	2f78 <save_sun5i_mem_status_nommu>
      60:	e2850f53 	add	r0, r5, #332	; 0x14c
      64:	eb000c8c 	bl	329c <restore_mmu_state>
      68:	eb0000be 	bl	368 <disable_dcache>
      6c:	e3070013 	movw	r0, #28691	; 0x7013
      70:	eb000bb7 	bl	2f54 <save_sun5i_mem_status>
      74:	eb000071 	bl	240 <mem_flush_tlb>
      78:	eb0000ec 	bl	430 <mem_preload_tlb>
      7c:	e3070004 	movw	r0, #28676	; 0x7004
      80:	eb000bb3 	bl	2f54 <save_sun5i_mem_status>
      84:	eb0000a3 	bl	318 <flush_icache>
      88:	e3070005 	movw	r0, #28677	; 0x7005
      8c:	eb000bb0 	bl	2f54 <save_sun5i_mem_status>
      90:	eb00038f 	bl	ed4 <mem_clk_init>
      94:	eb0001db 	bl	808 <setup_twi_env>
      98:	e1a00004 	mov	r0, r4
      9c:	eb00019f 	bl	720 <mem_twi_init>
      a0:	e3070007 	movw	r0, #28679	; 0x7007
      a4:	eb000baa 	bl	2f54 <save_sun5i_mem_status>
      a8:	e1a00004 	mov	r0, r4
      ac:	e3a01000 	mov	r1, #0
      b0:	e2844001 	add	r4, r4, #1
      b4:	eb00086f 	bl	2278 <dram_hostport_on_off>
      b8:	e3540006 	cmp	r4, #6
      bc:	1afffff9 	bne	a8 <__resume1_start+0xa8>
      c0:	e284400a 	add	r4, r4, #10
      c4:	e1a00004 	mov	r0, r4
      c8:	e3a01000 	mov	r1, #0
      cc:	e2844001 	add	r4, r4, #1
      d0:	eb000868 	bl	2278 <dram_hostport_on_off>
      d4:	e354001f 	cmp	r4, #31
      d8:	1afffff9 	bne	c4 <__resume1_start+0xc4>
      dc:	e59f30ec 	ldr	r3, [pc, #236]	; 1d0 <__resume1_start+0x1d0>
      e0:	e1a04003 	mov	r4, r3
      e4:	e593100c 	ldr	r1, [r3, #12]
      e8:	e5932010 	ldr	r2, [r3, #16]
      ec:	e5831234 	str	r1, [r3, #564]	; 0x234
      f0:	e5832238 	str	r2, [r3, #568]	; 0x238
      f4:	e3a00001 	mov	r0, #1
      f8:	e5941234 	ldr	r1, [r4, #564]	; 0x234
      fc:	eb000550 	bl	1644 <mem_set_voltage>
     100:	e3500000 	cmp	r0, #0
     104:	1afffffa 	bne	f4 <__resume1_start+0xf4>
     108:	e59f50c0 	ldr	r5, [pc, #192]	; 1d0 <__resume1_start+0x1d0>
     10c:	e3a00002 	mov	r0, #2
     110:	e5951238 	ldr	r1, [r5, #568]	; 0x238
     114:	eb00054a 	bl	1644 <mem_set_voltage>
     118:	e2504000 	subs	r4, r0, #0
     11c:	1afffffa 	bne	10c <__resume1_start+0x10c>
     120:	e2800001 	add	r0, r0, #1
     124:	eb000bbd 	bl	3020 <change_runtime_env>
     128:	e3a0000a 	mov	r0, #10
     12c:	eb000c25 	bl	31c8 <delay_ms>
     130:	e59f00a0 	ldr	r0, [pc, #160]	; 1d8 <__resume1_start+0x1d8>
     134:	eb00039b 	bl	fa8 <mem_clk_setdiv>
     138:	e59f009c 	ldr	r0, [pc, #156]	; 1dc <__resume1_start+0x1dc>
     13c:	eb0003c9 	bl	1068 <mem_clk_set_pll_factor>
     140:	e3a00001 	mov	r0, #1
     144:	eb000bb5 	bl	3020 <change_runtime_env>
     148:	e3a00005 	mov	r0, #5
     14c:	eb000c1d 	bl	31c8 <delay_ms>
     150:	e1a00004 	mov	r0, r4
     154:	e3a01001 	mov	r1, #1
     158:	e2844001 	add	r4, r4, #1
     15c:	eb000845 	bl	2278 <dram_hostport_on_off>
     160:	e3540006 	cmp	r4, #6
     164:	1afffff9 	bne	150 <__resume1_start+0x150>
     168:	e284400a 	add	r4, r4, #10
     16c:	e1a00004 	mov	r0, r4
     170:	e3a01001 	mov	r1, #1
     174:	e2844001 	add	r4, r4, #1
     178:	eb00083e 	bl	2278 <dram_hostport_on_off>
     17c:	e354001f 	cmp	r4, #31
     180:	1afffff9 	bne	16c <__resume1_start+0x16c>
     184:	e59f4044 	ldr	r4, [pc, #68]	; 1d0 <__resume1_start+0x1d0>
     188:	e5940018 	ldr	r0, [r4, #24]
     18c:	eb00043d 	bl	1288 <mem_power_exit>
     190:	e3070008 	movw	r0, #28680	; 0x7008
     194:	eb000b6e 	bl	2f54 <save_sun5i_mem_status>
     198:	eb000802 	bl	21a8 <mem_tmr_init>
     19c:	eb000807 	bl	21c0 <mem_tmr_disable_watchdog>
     1a0:	e3070009 	movw	r0, #28681	; 0x7009
     1a4:	eb000b6a 	bl	2f54 <save_sun5i_mem_status>
     1a8:	eb000024 	bl	240 <mem_flush_tlb>
     1ac:	e307000a 	movw	r0, #28682	; 0x700a
     1b0:	eb000b67 	bl	2f54 <save_sun5i_mem_status>
     1b4:	eb000057 	bl	318 <flush_icache>
     1b8:	e284102c 	add	r1, r4, #44	; 0x2c
     1bc:	e5940004 	ldr	r0, [r4, #4]
     1c0:	e8bd4070 	pop	{r4, r5, r6, lr}
     1c4:	ea000c7d 	b	33c0 <jump_to_resume>
     1c8:	00003ed4 	ldrdeq	r3, [r0], -r4
     1cc:	000042e0 	andeq	r4, r0, r0, ror #5
     1d0:	00004050 	andeq	r4, r0, r0, asr r0
     1d4:	40110000 	andsmi	r0, r1, r0
     1d8:	00004070 	andeq	r4, r0, r0, ror r0
     1dc:	00004074 	andeq	r4, r0, r4, ror r0

000001e0 <mem_memcpy>:
     1e0:	e3a03000 	mov	r3, #0
     1e4:	ea000002 	b	1f4 <mem_memcpy+0x14>
     1e8:	e7d1c003 	ldrb	ip, [r1, r3]
     1ec:	e7c0c003 	strb	ip, [r0, r3]
     1f0:	e2833001 	add	r3, r3, #1
     1f4:	e3520000 	cmp	r2, #0
     1f8:	e2422001 	sub	r2, r2, #1
     1fc:	cafffff9 	bgt	1e8 <mem_memcpy+0x8>
     200:	e12fff1e 	bx	lr
	...

00000220 <save_sp>:
     220:	e1a0000d 	mov	r0, sp
     224:	e59fd468 	ldr	sp, [pc, #1128]	; 694 <__turn_mmu_on+0x14>
     228:	e1a0f00e 	mov	pc, lr

0000022c <save_sp_nommu>:
     22c:	e1a0000d 	mov	r0, sp
     230:	e59fd460 	ldr	sp, [pc, #1120]	; 698 <__turn_mmu_on+0x18>
     234:	e1a0f00e 	mov	pc, lr

00000238 <restore_sp>:
     238:	e1a0d000 	mov	sp, r0
     23c:	e1a0f00e 	mov	pc, lr

00000240 <mem_flush_tlb>:
     240:	e92d000f 	push	{r0, r1, r2, r3}
     244:	f57ff04f 	dsb	sy
     248:	e3a00000 	mov	r0, #0
     24c:	ee080f17 	mcr	15, 0, r0, cr8, cr7, {0}
     250:	ee070fd5 	mcr	15, 0, r0, cr7, cr5, {6}
     254:	f57ff04f 	dsb	sy
     258:	f57ff06f 	isb	sy
     25c:	e3a00000 	mov	r0, #0
     260:	ee0a0f10 	mcr	15, 0, r0, cr10, cr0, {0}
     264:	e3a00000 	mov	r0, #0
     268:	ee0a0f30 	mcr	15, 0, r0, cr10, cr0, {1}
     26c:	f57ff04f 	dsb	sy
     270:	f57ff06f 	isb	sy
     274:	e8bd000f 	pop	{r0, r1, r2, r3}
     278:	e1a0f00e 	mov	pc, lr

0000027c <flush_dcache>:
     27c:	e92d1fff 	push	{r0, r1, r2, r3, r4, r5, r6, r7, r8, r9, sl, fp, ip}
     280:	f57ff05f 	dmb	sy
     284:	ee300f30 	mrc	15, 1, r0, cr0, cr0, {1}
     288:	e2103407 	ands	r3, r0, #117440512	; 0x7000000
     28c:	e1a03ba3 	lsr	r3, r3, #23
     290:	0a00001a 	beq	300 <finished>
     294:	e3a0a000 	mov	sl, #0

00000298 <loop1>:
     298:	e08a20aa 	add	r2, sl, sl, lsr #1
     29c:	e1a01230 	lsr	r1, r0, r2
     2a0:	e2011007 	and	r1, r1, #7
     2a4:	e3510002 	cmp	r1, #2
     2a8:	ba000011 	blt	2f4 <skip>
     2ac:	ee40af10 	mcr	15, 2, sl, cr0, cr0, {0}
     2b0:	f57ff06f 	isb	sy
     2b4:	ee301f10 	mrc	15, 1, r1, cr0, cr0, {0}
     2b8:	e2012007 	and	r2, r1, #7
     2bc:	e2822004 	add	r2, r2, #4
     2c0:	e59f43d4 	ldr	r4, [pc, #980]	; 69c <__turn_mmu_on+0x1c>
     2c4:	e01441a1 	ands	r4, r4, r1, lsr #3
     2c8:	e16f5f14 	clz	r5, r4
     2cc:	e59f73cc 	ldr	r7, [pc, #972]	; 6a0 <__turn_mmu_on+0x20>
     2d0:	e01776a1 	ands	r7, r7, r1, lsr #13

000002d4 <loop2>:
     2d4:	e1a09004 	mov	r9, r4

000002d8 <loop3>:
     2d8:	e18ab519 	orr	fp, sl, r9, lsl r5
     2dc:	e18bb217 	orr	fp, fp, r7, lsl r2
     2e0:	ee07bf5e 	mcr	15, 0, fp, cr7, cr14, {2}
     2e4:	e2599001 	subs	r9, r9, #1
     2e8:	aafffffa 	bge	2d8 <loop3>
     2ec:	e2577001 	subs	r7, r7, #1
     2f0:	aafffff7 	bge	2d4 <loop2>

000002f4 <skip>:
     2f4:	e28aa002 	add	sl, sl, #2
     2f8:	e153000a 	cmp	r3, sl
     2fc:	caffffe5 	bgt	298 <loop1>

00000300 <finished>:
     300:	e3a0a000 	mov	sl, #0
     304:	ee40af10 	mcr	15, 2, sl, cr0, cr0, {0}
     308:	f57ff04f 	dsb	sy
     30c:	f57ff06f 	isb	sy
     310:	e8bd1fff 	pop	{r0, r1, r2, r3, r4, r5, r6, r7, r8, r9, sl, fp, ip}
     314:	e1a0f00e 	mov	pc, lr

00000318 <flush_icache>:
     318:	e92d000f 	push	{r0, r1, r2, r3}
     31c:	e3a00000 	mov	r0, #0
     320:	ee070f15 	mcr	15, 0, r0, cr7, cr5, {0}
     324:	f57ff06f 	isb	sy
     328:	e8bd000f 	pop	{r0, r1, r2, r3}
     32c:	e1a0f00e 	mov	pc, lr

00000330 <invalidate_branch_predictor>:
     330:	e92d000f 	push	{r0, r1, r2, r3}
     334:	e3a00000 	mov	r0, #0
     338:	ee070fd5 	mcr	15, 0, r0, cr7, cr5, {6}
     33c:	f57ff06f 	isb	sy
     340:	e8bd000f 	pop	{r0, r1, r2, r3}
     344:	e1a0f00e 	mov	pc, lr

00000348 <disable_cache>:
     348:	e92d000f 	push	{r0, r1, r2, r3}
     34c:	ee110f10 	mrc	15, 0, r0, cr1, cr0, {0}
     350:	e3c00a01 	bic	r0, r0, #4096	; 0x1000
     354:	e3c00004 	bic	r0, r0, #4
     358:	ee010f10 	mcr	15, 0, r0, cr1, cr0, {0}
     35c:	f57ff06f 	isb	sy
     360:	e8bd000f 	pop	{r0, r1, r2, r3}
     364:	e1a0f00e 	mov	pc, lr

00000368 <disable_dcache>:
     368:	e92d000f 	push	{r0, r1, r2, r3}
     36c:	ee110f10 	mrc	15, 0, r0, cr1, cr0, {0}
     370:	e3c00004 	bic	r0, r0, #4
     374:	ee010f10 	mcr	15, 0, r0, cr1, cr0, {0}
     378:	f57ff06f 	isb	sy
     37c:	e8bd000f 	pop	{r0, r1, r2, r3}
     380:	e1a0f00e 	mov	pc, lr

00000384 <disable_icache>:
     384:	e92d000f 	push	{r0, r1, r2, r3}
     388:	ee110f10 	mrc	15, 0, r0, cr1, cr0, {0}
     38c:	e3c00a01 	bic	r0, r0, #4096	; 0x1000
     390:	ee010f10 	mcr	15, 0, r0, cr1, cr0, {0}
     394:	f57ff06f 	isb	sy
     398:	e8bd000f 	pop	{r0, r1, r2, r3}
     39c:	e1a0f00e 	mov	pc, lr

000003a0 <enable_icache>:
     3a0:	e92d000f 	push	{r0, r1, r2, r3}
     3a4:	ee110f10 	mrc	15, 0, r0, cr1, cr0, {0}
     3a8:	e3800a01 	orr	r0, r0, #4096	; 0x1000
     3ac:	ee010f10 	mcr	15, 0, r0, cr1, cr0, {0}
     3b0:	f57ff06f 	isb	sy
     3b4:	e8bd000f 	pop	{r0, r1, r2, r3}
     3b8:	e1a0f00e 	mov	pc, lr

000003bc <disable_l2cache>:
     3bc:	e92d000f 	push	{r0, r1, r2, r3}
     3c0:	ee110f30 	mrc	15, 0, r0, cr1, cr0, {1}
     3c4:	e3c00002 	bic	r0, r0, #2
     3c8:	ee010f30 	mcr	15, 0, r0, cr1, cr0, {1}
     3cc:	f57ff06f 	isb	sy
     3d0:	e8bd000f 	pop	{r0, r1, r2, r3}
     3d4:	e1a0f00e 	mov	pc, lr

000003d8 <disable_program_flow_prediction>:
     3d8:	e92d000f 	push	{r0, r1, r2, r3}
     3dc:	ee110f10 	mrc	15, 0, r0, cr1, cr0, {0}
     3e0:	e3c00b02 	bic	r0, r0, #2048	; 0x800
     3e4:	ee010f10 	mcr	15, 0, r0, cr1, cr0, {0}
     3e8:	f57ff06f 	isb	sy
     3ec:	e8bd000f 	pop	{r0, r1, r2, r3}
     3f0:	e1a0f00e 	mov	pc, lr

000003f4 <enable_cache>:
     3f4:	e92d000f 	push	{r0, r1, r2, r3}
     3f8:	ee110f10 	mrc	15, 0, r0, cr1, cr0, {0}
     3fc:	e3800a01 	orr	r0, r0, #4096	; 0x1000
     400:	e3800004 	orr	r0, r0, #4
     404:	ee010f10 	mcr	15, 0, r0, cr1, cr0, {0}
     408:	f57ff06f 	isb	sy
     40c:	e8bd000f 	pop	{r0, r1, r2, r3}
     410:	e1a0f00e 	mov	pc, lr

00000414 <enable_program_flow_prediction>:
     414:	e92d000f 	push	{r0, r1, r2, r3}
     418:	ee110f10 	mrc	15, 0, r0, cr1, cr0, {0}
     41c:	e3800b02 	orr	r0, r0, #2048	; 0x800
     420:	ee010f10 	mcr	15, 0, r0, cr1, cr0, {0}
     424:	f57ff06f 	isb	sy
     428:	e8bd000f 	pop	{r0, r1, r2, r3}
     42c:	e1a0f00e 	mov	pc, lr

00000430 <mem_preload_tlb>:
     430:	e92d000f 	push	{r0, r1, r2, r3}
     434:	e3a00000 	mov	r0, #0
     438:	ee0a0f10 	mcr	15, 0, r0, cr10, cr0, {0}
     43c:	f57ff06f 	isb	sy
     440:	e59f025c 	ldr	r0, [pc, #604]	; 6a4 <__turn_mmu_on+0x24>
     444:	ee0a0f11 	mcr	15, 0, r0, cr10, cr1, {0}
     448:	e59f0258 	ldr	r0, [pc, #600]	; 6a8 <__turn_mmu_on+0x28>
     44c:	ee0a0f11 	mcr	15, 0, r0, cr10, cr1, {0}
     450:	e59f0254 	ldr	r0, [pc, #596]	; 6ac <__turn_mmu_on+0x2c>
     454:	ee0a0f11 	mcr	15, 0, r0, cr10, cr1, {0}
     458:	e59f0250 	ldr	r0, [pc, #592]	; 6b0 <__turn_mmu_on+0x30>
     45c:	ee0a0f11 	mcr	15, 0, r0, cr10, cr1, {0}
     460:	e59f024c 	ldr	r0, [pc, #588]	; 6b4 <__turn_mmu_on+0x34>
     464:	ee0a0f11 	mcr	15, 0, r0, cr10, cr1, {0}
     468:	e59f0248 	ldr	r0, [pc, #584]	; 6b8 <__turn_mmu_on+0x38>
     46c:	ee0a0f11 	mcr	15, 0, r0, cr10, cr1, {0}
     470:	e59f0244 	ldr	r0, [pc, #580]	; 6bc <__turn_mmu_on+0x3c>
     474:	ee0a0f11 	mcr	15, 0, r0, cr10, cr1, {0}
     478:	e59f0240 	ldr	r0, [pc, #576]	; 6c0 <__turn_mmu_on+0x40>
     47c:	ee0a0f11 	mcr	15, 0, r0, cr10, cr1, {0}
     480:	e3a0020f 	mov	r0, #-268435456	; 0xf0000000
     484:	ee0a0f11 	mcr	15, 0, r0, cr10, cr1, {0}
     488:	e59f0234 	ldr	r0, [pc, #564]	; 6c4 <__turn_mmu_on+0x44>
     48c:	ee0a0f11 	mcr	15, 0, r0, cr10, cr1, {0}
     490:	e59f0230 	ldr	r0, [pc, #560]	; 6c8 <__turn_mmu_on+0x48>
     494:	ee0a0f11 	mcr	15, 0, r0, cr10, cr1, {0}
     498:	e59f022c 	ldr	r0, [pc, #556]	; 6cc <__turn_mmu_on+0x4c>
     49c:	ee0a0f11 	mcr	15, 0, r0, cr10, cr1, {0}
     4a0:	e59f0228 	ldr	r0, [pc, #552]	; 6d0 <__turn_mmu_on+0x50>
     4a4:	ee0a0f11 	mcr	15, 0, r0, cr10, cr1, {0}
     4a8:	e59f0224 	ldr	r0, [pc, #548]	; 6d4 <__turn_mmu_on+0x54>
     4ac:	ee0a0f11 	mcr	15, 0, r0, cr10, cr1, {0}
     4b0:	e59f0220 	ldr	r0, [pc, #544]	; 6d8 <__turn_mmu_on+0x58>
     4b4:	ee0a0f11 	mcr	15, 0, r0, cr10, cr1, {0}
     4b8:	e59f021c 	ldr	r0, [pc, #540]	; 6dc <__turn_mmu_on+0x5c>
     4bc:	ee0a0f11 	mcr	15, 0, r0, cr10, cr1, {0}
     4c0:	e59f0218 	ldr	r0, [pc, #536]	; 6e0 <__turn_mmu_on+0x60>
     4c4:	ee0a0f11 	mcr	15, 0, r0, cr10, cr1, {0}
     4c8:	e3a00000 	mov	r0, #0
     4cc:	ee0a0f30 	mcr	15, 0, r0, cr10, cr0, {1}
     4d0:	f57ff06f 	isb	sy
     4d4:	e3a0020f 	mov	r0, #-268435456	; 0xf0000000
     4d8:	ee0a0f31 	mcr	15, 0, r0, cr10, cr1, {1}
     4dc:	e59f01e0 	ldr	r0, [pc, #480]	; 6c4 <__turn_mmu_on+0x44>
     4e0:	ee0a0f31 	mcr	15, 0, r0, cr10, cr1, {1}
     4e4:	e59f01dc 	ldr	r0, [pc, #476]	; 6c8 <__turn_mmu_on+0x48>
     4e8:	ee0a0f31 	mcr	15, 0, r0, cr10, cr1, {1}
     4ec:	e59f01d8 	ldr	r0, [pc, #472]	; 6cc <__turn_mmu_on+0x4c>
     4f0:	ee0a0f31 	mcr	15, 0, r0, cr10, cr1, {1}
     4f4:	e59f01d4 	ldr	r0, [pc, #468]	; 6d0 <__turn_mmu_on+0x50>
     4f8:	ee0a0f31 	mcr	15, 0, r0, cr10, cr1, {1}
     4fc:	e59f01d0 	ldr	r0, [pc, #464]	; 6d4 <__turn_mmu_on+0x54>
     500:	ee0a0f31 	mcr	15, 0, r0, cr10, cr1, {1}
     504:	e59f01cc 	ldr	r0, [pc, #460]	; 6d8 <__turn_mmu_on+0x58>
     508:	ee0a0f31 	mcr	15, 0, r0, cr10, cr1, {1}
     50c:	e59f01c8 	ldr	r0, [pc, #456]	; 6dc <__turn_mmu_on+0x5c>
     510:	ee0a0f31 	mcr	15, 0, r0, cr10, cr1, {1}
     514:	e59f01c4 	ldr	r0, [pc, #452]	; 6e0 <__turn_mmu_on+0x60>
     518:	ee0a0f31 	mcr	15, 0, r0, cr10, cr1, {1}
     51c:	e8bd000f 	pop	{r0, r1, r2, r3}
     520:	e1a0f00e 	mov	pc, lr

00000524 <mem_preload_tlb_nommu>:
     524:	e92d000f 	push	{r0, r1, r2, r3}
     528:	e3a00000 	mov	r0, #0
     52c:	ee0a0f10 	mcr	15, 0, r0, cr10, cr0, {0}
     530:	f57ff06f 	isb	sy
     534:	e59f01a8 	ldr	r0, [pc, #424]	; 6e4 <__turn_mmu_on+0x64>
     538:	ee0a0f11 	mcr	15, 0, r0, cr10, cr1, {0}
     53c:	e59f01a4 	ldr	r0, [pc, #420]	; 6e8 <__turn_mmu_on+0x68>
     540:	ee0a0f11 	mcr	15, 0, r0, cr10, cr1, {0}
     544:	e59f01a0 	ldr	r0, [pc, #416]	; 6ec <__turn_mmu_on+0x6c>
     548:	ee0a0f11 	mcr	15, 0, r0, cr10, cr1, {0}
     54c:	e59f019c 	ldr	r0, [pc, #412]	; 6f0 <__turn_mmu_on+0x70>
     550:	ee0a0f11 	mcr	15, 0, r0, cr10, cr1, {0}
     554:	e59f0198 	ldr	r0, [pc, #408]	; 6f4 <__turn_mmu_on+0x74>
     558:	ee0a0f11 	mcr	15, 0, r0, cr10, cr1, {0}
     55c:	e59f0194 	ldr	r0, [pc, #404]	; 6f8 <__turn_mmu_on+0x78>
     560:	ee0a0f11 	mcr	15, 0, r0, cr10, cr1, {0}
     564:	e59f0190 	ldr	r0, [pc, #400]	; 6fc <__turn_mmu_on+0x7c>
     568:	ee0a0f11 	mcr	15, 0, r0, cr10, cr1, {0}
     56c:	e59f018c 	ldr	r0, [pc, #396]	; 700 <__turn_mmu_on+0x80>
     570:	ee0a0f11 	mcr	15, 0, r0, cr10, cr1, {0}
     574:	e3a00000 	mov	r0, #0
     578:	ee0a0f11 	mcr	15, 0, r0, cr10, cr1, {0}
     57c:	e3a00b01 	mov	r0, #1024	; 0x400
     580:	ee0a0f11 	mcr	15, 0, r0, cr10, cr1, {0}
     584:	e3a00b02 	mov	r0, #2048	; 0x800
     588:	ee0a0f11 	mcr	15, 0, r0, cr10, cr1, {0}
     58c:	e3a00b03 	mov	r0, #3072	; 0xc00
     590:	ee0a0f11 	mcr	15, 0, r0, cr10, cr1, {0}
     594:	e3a00a01 	mov	r0, #4096	; 0x1000
     598:	ee0a0f11 	mcr	15, 0, r0, cr10, cr1, {0}
     59c:	e3a00b05 	mov	r0, #5120	; 0x1400
     5a0:	ee0a0f11 	mcr	15, 0, r0, cr10, cr1, {0}
     5a4:	e3a00b06 	mov	r0, #6144	; 0x1800
     5a8:	ee0a0f11 	mcr	15, 0, r0, cr10, cr1, {0}
     5ac:	e3a00b07 	mov	r0, #7168	; 0x1c00
     5b0:	ee0a0f11 	mcr	15, 0, r0, cr10, cr1, {0}
     5b4:	e3a00b1f 	mov	r0, #31744	; 0x7c00
     5b8:	ee0a0f11 	mcr	15, 0, r0, cr10, cr1, {0}
     5bc:	e3a00000 	mov	r0, #0
     5c0:	ee0a0f30 	mcr	15, 0, r0, cr10, cr0, {1}
     5c4:	f57ff06f 	isb	sy
     5c8:	e3a00000 	mov	r0, #0
     5cc:	ee0a0f31 	mcr	15, 0, r0, cr10, cr1, {1}
     5d0:	e3a00b01 	mov	r0, #1024	; 0x400
     5d4:	ee0a0f31 	mcr	15, 0, r0, cr10, cr1, {1}
     5d8:	e3a00b02 	mov	r0, #2048	; 0x800
     5dc:	ee0a0f31 	mcr	15, 0, r0, cr10, cr1, {1}
     5e0:	e3a00b03 	mov	r0, #3072	; 0xc00
     5e4:	ee0a0f31 	mcr	15, 0, r0, cr10, cr1, {1}
     5e8:	e3a00a01 	mov	r0, #4096	; 0x1000
     5ec:	ee0a0f31 	mcr	15, 0, r0, cr10, cr1, {1}
     5f0:	e3a00b05 	mov	r0, #5120	; 0x1400
     5f4:	ee0a0f31 	mcr	15, 0, r0, cr10, cr1, {1}
     5f8:	e3a00b06 	mov	r0, #6144	; 0x1800
     5fc:	ee0a0f31 	mcr	15, 0, r0, cr10, cr1, {1}
     600:	e3a00b07 	mov	r0, #7168	; 0x1c00
     604:	ee0a0f31 	mcr	15, 0, r0, cr10, cr1, {1}
     608:	e3a00b1f 	mov	r0, #31744	; 0x7c00
     60c:	ee0a0f31 	mcr	15, 0, r0, cr10, cr1, {1}
     610:	e8bd000f 	pop	{r0, r1, r2, r3}
     614:	e1a0f00e 	mov	pc, lr

00000618 <disable_mmu>:
     618:	ee111f10 	mrc	15, 0, r1, cr1, cr0, {0}
     61c:	e3c11a01 	bic	r1, r1, #4096	; 0x1000
     620:	e3c11007 	bic	r1, r1, #7
     624:	e3c11000 	bic	r1, r1, #0
     628:	ea000004 	b	640 <__turn_mmu_off>
     62c:	e320f000 	nop	{0}
     630:	e320f000 	nop	{0}
     634:	e320f000 	nop	{0}
     638:	e320f000 	nop	{0}
     63c:	e320f000 	nop	{0}

00000640 <__turn_mmu_off>:
     640:	ee011f10 	mcr	15, 0, r1, cr1, cr0, {0}
     644:	ee103f10 	mrc	15, 0, r3, cr0, cr0, {0}
     648:	e1a03003 	mov	r3, r3
     64c:	e1a03003 	mov	r3, r3
     650:	e1a0f00e 	mov	pc, lr

00000654 <enable_mmu>:
     654:	ee111f10 	mrc	15, 0, r1, cr1, cr0, {0}
     658:	e3811a01 	orr	r1, r1, #4096	; 0x1000
     65c:	e3811007 	orr	r1, r1, #7
     660:	e3811000 	orr	r1, r1, #0
     664:	ea000005 	b	680 <__turn_mmu_on>
     668:	e320f000 	nop	{0}
     66c:	e320f000 	nop	{0}
     670:	e320f000 	nop	{0}
     674:	e320f000 	nop	{0}
     678:	e320f000 	nop	{0}
     67c:	e320f000 	nop	{0}

00000680 <__turn_mmu_on>:
     680:	ee011f10 	mcr	15, 0, r1, cr1, cr0, {0}
     684:	ee103f10 	mrc	15, 0, r3, cr0, cr0, {0}
     688:	e1a03003 	mov	r3, r3
     68c:	e1a03003 	mov	r3, r3
     690:	e1a0f00e 	mov	pc, lr
     694:	f0007ffc 	undefined instruction 0xf0007ffc
     698:	00007ffc 	strdeq	r7, [r0], -ip
     69c:	000003ff 	strdeq	r0, [r0], -pc
     6a0:	00007fff 	strdeq	r7, [r0], -pc
     6a4:	f1c20000 	undefined instruction 0xf1c20000
     6a8:	f1c2ac00 	undefined instruction 0xf1c2ac00
     6ac:	f1c2b000 	undefined instruction 0xf1c2b000
     6b0:	f1c2b400 	undefined instruction 0xf1c2b400
     6b4:	f1c20400 	undefined instruction 0xf1c20400
     6b8:	f1c20c00 	undefined instruction 0xf1c20c00
     6bc:	f1c22800 	undefined instruction 0xf1c22800
     6c0:	f1c01000 	undefined instruction 0xf1c01000
     6c4:	f0000400 	undefined instruction 0xf0000400
     6c8:	f0000800 	undefined instruction 0xf0000800
     6cc:	f0000c00 	undefined instruction 0xf0000c00
     6d0:	f0001000 	undefined instruction 0xf0001000
     6d4:	f0001400 	undefined instruction 0xf0001400
     6d8:	f0001800 	undefined instruction 0xf0001800
     6dc:	f0001c00 	undefined instruction 0xf0001c00
     6e0:	f0007c00 	undefined instruction 0xf0007c00
     6e4:	01c20000 	biceq	r0, r2, r0
     6e8:	01c2ac00 	biceq	sl, r2, r0, lsl #24
     6ec:	01c2b000 	biceq	fp, r2, r0
     6f0:	01c2b400 	biceq	fp, r2, r0, lsl #8
     6f4:	01c20400 	biceq	r0, r2, r0, lsl #8
     6f8:	01c20c00 	biceq	r0, r2, r0, lsl #24
     6fc:	01c22800 	biceq	r2, r2, r0, lsl #16
     700:	01c01000 	biceq	r1, r0, r0
     704:	e320f000 	nop	{0}
     708:	e320f000 	nop	{0}
     70c:	e320f000 	nop	{0}
     710:	e320f000 	nop	{0}
     714:	e320f000 	nop	{0}
     718:	e320f000 	nop	{0}
     71c:	e320f000 	nop	{0}

00000720 <mem_twi_init>:
     720:	e59f2040 	ldr	r2, [pc, #64]	; 768 <mem_twi_init+0x48>
     724:	e59f3040 	ldr	r3, [pc, #64]	; 76c <mem_twi_init+0x4c>
     728:	e7922100 	ldr	r2, [r2, r0, lsl #2]
     72c:	e5920014 	ldr	r0, [r2, #20]
     730:	e592100c 	ldr	r1, [r2, #12]
     734:	e5832000 	str	r2, [r3]
     738:	e5830004 	str	r0, [r3, #4]
     73c:	e2011080 	and	r1, r1, #128	; 0x80
     740:	e5831008 	str	r1, [r3, #8]
     744:	e3a03028 	mov	r3, #40	; 0x28
     748:	e5823014 	str	r3, [r2, #20]
     74c:	e5923018 	ldr	r3, [r2, #24]
     750:	e3833001 	orr	r3, r3, #1
     754:	e5823018 	str	r3, [r2, #24]
     758:	e5920018 	ldr	r0, [r2, #24]
     75c:	e2100001 	ands	r0, r0, #1
     760:	1afffffc 	bne	758 <mem_twi_init+0x38>
     764:	e12fff1e 	bx	lr
     768:	00003e88 	andeq	r3, r0, r8, lsl #29
     76c:	0000428c 	andeq	r4, r0, ip, lsl #5

00000770 <_mem_twi_stop>:
     770:	e59f308c 	ldr	r3, [pc, #140]	; 804 <_mem_twi_stop+0x94>
     774:	e30f22ff 	movw	r2, #62207	; 0xf2ff
     778:	e5933000 	ldr	r3, [r3]
     77c:	e593100c 	ldr	r1, [r3, #12]
     780:	e20110c0 	and	r1, r1, #192	; 0xc0
     784:	e3811010 	orr	r1, r1, #16
     788:	e583100c 	str	r1, [r3, #12]
     78c:	e593100c 	ldr	r1, [r3, #12]
     790:	e593100c 	ldr	r1, [r3, #12]
     794:	e3110010 	tst	r1, #16
     798:	0a000002 	beq	7a8 <_mem_twi_stop+0x38>
     79c:	e2522001 	subs	r2, r2, #1
     7a0:	1afffffa 	bne	790 <_mem_twi_stop+0x20>
     7a4:	ea000014 	b	7fc <_mem_twi_stop+0x8c>
     7a8:	e3520000 	cmp	r2, #0
     7ac:	0a000012 	beq	7fc <_mem_twi_stop+0x8c>
     7b0:	e30f22ff 	movw	r2, #62207	; 0xf2ff
     7b4:	e5931010 	ldr	r1, [r3, #16]
     7b8:	e35100f8 	cmp	r1, #248	; 0xf8
     7bc:	0a000002 	beq	7cc <_mem_twi_stop+0x5c>
     7c0:	e2522001 	subs	r2, r2, #1
     7c4:	1afffffa 	bne	7b4 <_mem_twi_stop+0x44>
     7c8:	ea00000b 	b	7fc <_mem_twi_stop+0x8c>
     7cc:	e3520000 	cmp	r2, #0
     7d0:	0a000009 	beq	7fc <_mem_twi_stop+0x8c>
     7d4:	e30f22ff 	movw	r2, #62207	; 0xf2ff
     7d8:	e5931020 	ldr	r1, [r3, #32]
     7dc:	e351003a 	cmp	r1, #58	; 0x3a
     7e0:	0a000002 	beq	7f0 <_mem_twi_stop+0x80>
     7e4:	e2522001 	subs	r2, r2, #1
     7e8:	1afffffa 	bne	7d8 <_mem_twi_stop+0x68>
     7ec:	ea000002 	b	7fc <_mem_twi_stop+0x8c>
     7f0:	e3520000 	cmp	r2, #0
     7f4:	13a00000 	movne	r0, #0
     7f8:	112fff1e 	bxne	lr
     7fc:	e3e00000 	mvn	r0, #0
     800:	e12fff1e 	bx	lr
     804:	0000428c 	andeq	r4, r0, ip, lsl #5

00000808 <setup_twi_env>:
     808:	e59f1040 	ldr	r1, [pc, #64]	; 850 <setup_twi_env+0x48>
     80c:	e3a0c000 	mov	ip, #0
     810:	e59f003c 	ldr	r0, [pc, #60]	; 854 <setup_twi_env+0x4c>
     814:	e59f303c 	ldr	r3, [pc, #60]	; 858 <setup_twi_env+0x50>
     818:	e59f203c 	ldr	r2, [pc, #60]	; 85c <setup_twi_env+0x54>
     81c:	e580c000 	str	ip, [r0]
     820:	e5910000 	ldr	r0, [r1]
     824:	e3800001 	orr	r0, r0, #1
     828:	e5810000 	str	r0, [r1]
     82c:	e59f002c 	ldr	r0, [pc, #44]	; 860 <setup_twi_env+0x58>
     830:	e5931824 	ldr	r1, [r3, #2084]	; 0x824
     834:	e580300c 	str	r3, [r0, #12]
     838:	e3811022 	orr	r1, r1, #34	; 0x22
     83c:	e5831824 	str	r1, [r3, #2084]	; 0x824
     840:	e5923c0c 	ldr	r3, [r2, #3084]	; 0xc0c
     844:	e3833040 	orr	r3, r3, #64	; 0x40
     848:	e5823c0c 	str	r3, [r2, #3084]	; 0xc0c
     84c:	e12fff1e 	bx	lr
     850:	f1c2006c 	undefined instruction 0xf1c2006c
     854:	f1c20058 	undefined instruction 0xf1c20058
     858:	f1c20000 	undefined instruction 0xf1c20000
     85c:	f1c2a000 	undefined instruction 0xf1c2a000
     860:	0000428c 	andeq	r4, r0, ip, lsl #5

00000864 <twi_byte_rw>:
     864:	e59fc2c4 	ldr	ip, [pc, #708]	; b30 <twi_byte_rw+0x2cc>
     868:	e92d4010 	push	{r4, lr}
     86c:	e59c4000 	ldr	r4, [ip]
     870:	e3a0c000 	mov	ip, #0
     874:	e584c01c 	str	ip, [r4, #28]
     878:	e594c010 	ldr	ip, [r4, #16]
     87c:	e6efc07c 	uxtb	ip, ip
     880:	e35c00f8 	cmp	ip, #248	; 0xf8
     884:	1a00007b 	bne	a78 <twi_byte_rw+0x214>
     888:	e594e00c 	ldr	lr, [r4, #12]
     88c:	e30fc2ff 	movw	ip, #62207	; 0xf2ff
     890:	e38ee020 	orr	lr, lr, #32
     894:	e584e00c 	str	lr, [r4, #12]
     898:	e594e00c 	ldr	lr, [r4, #12]
     89c:	e31e0008 	tst	lr, #8
     8a0:	1a000002 	bne	8b0 <twi_byte_rw+0x4c>
     8a4:	e25cc001 	subs	ip, ip, #1
     8a8:	1afffffa 	bne	898 <twi_byte_rw+0x34>
     8ac:	ea000071 	b	a78 <twi_byte_rw+0x214>
     8b0:	e35c0000 	cmp	ip, #0
     8b4:	0a00006f 	beq	a78 <twi_byte_rw+0x214>
     8b8:	e594c010 	ldr	ip, [r4, #16]
     8bc:	e6efc07c 	uxtb	ip, ip
     8c0:	e35c0008 	cmp	ip, #8
     8c4:	1a00006b 	bne	a78 <twi_byte_rw+0x214>
     8c8:	e1a01081 	lsl	r1, r1, #1
     8cc:	e30fc2ff 	movw	ip, #62207	; 0xf2ff
     8d0:	e5841008 	str	r1, [r4, #8]
     8d4:	e594e00c 	ldr	lr, [r4, #12]
     8d8:	e20ee0f7 	and	lr, lr, #247	; 0xf7
     8dc:	e584e00c 	str	lr, [r4, #12]
     8e0:	e594e00c 	ldr	lr, [r4, #12]
     8e4:	e31e0008 	tst	lr, #8
     8e8:	1a000002 	bne	8f8 <twi_byte_rw+0x94>
     8ec:	e25cc001 	subs	ip, ip, #1
     8f0:	1afffffa 	bne	8e0 <twi_byte_rw+0x7c>
     8f4:	ea00005f 	b	a78 <twi_byte_rw+0x214>
     8f8:	e35c0000 	cmp	ip, #0
     8fc:	0a00005d 	beq	a78 <twi_byte_rw+0x214>
     900:	e594c010 	ldr	ip, [r4, #16]
     904:	e6efc07c 	uxtb	ip, ip
     908:	e35c0018 	cmp	ip, #24
     90c:	1a000059 	bne	a78 <twi_byte_rw+0x214>
     910:	e5842008 	str	r2, [r4, #8]
     914:	e30f22ff 	movw	r2, #62207	; 0xf2ff
     918:	e594c00c 	ldr	ip, [r4, #12]
     91c:	e20cc0f7 	and	ip, ip, #247	; 0xf7
     920:	e584c00c 	str	ip, [r4, #12]
     924:	e594c00c 	ldr	ip, [r4, #12]
     928:	e31c0008 	tst	ip, #8
     92c:	1a000002 	bne	93c <twi_byte_rw+0xd8>
     930:	e2522001 	subs	r2, r2, #1
     934:	1afffffa 	bne	924 <twi_byte_rw+0xc0>
     938:	ea00004e 	b	a78 <twi_byte_rw+0x214>
     93c:	e3520000 	cmp	r2, #0
     940:	0a00004c 	beq	a78 <twi_byte_rw+0x214>
     944:	e5942010 	ldr	r2, [r4, #16]
     948:	e6ef2072 	uxtb	r2, r2
     94c:	e3520028 	cmp	r2, #40	; 0x28
     950:	1a000048 	bne	a78 <twi_byte_rw+0x214>
     954:	e3500001 	cmp	r0, #1
     958:	1a000011 	bne	9a4 <twi_byte_rw+0x140>
     95c:	e5d32000 	ldrb	r2, [r3]
     960:	e30f32ff 	movw	r3, #62207	; 0xf2ff
     964:	e5842008 	str	r2, [r4, #8]
     968:	e594200c 	ldr	r2, [r4, #12]
     96c:	e20220f7 	and	r2, r2, #247	; 0xf7
     970:	e584200c 	str	r2, [r4, #12]
     974:	e594200c 	ldr	r2, [r4, #12]
     978:	e3120008 	tst	r2, #8
     97c:	1a000002 	bne	98c <twi_byte_rw+0x128>
     980:	e2533001 	subs	r3, r3, #1
     984:	1afffffa 	bne	974 <twi_byte_rw+0x110>
     988:	ea00003a 	b	a78 <twi_byte_rw+0x214>
     98c:	e3530000 	cmp	r3, #0
     990:	0a000038 	beq	a78 <twi_byte_rw+0x214>
     994:	e5943010 	ldr	r3, [r4, #16]
     998:	e6ef3073 	uxtb	r3, r3
     99c:	e3530028 	cmp	r3, #40	; 0x28
     9a0:	ea000033 	b	a74 <twi_byte_rw+0x210>
     9a4:	e594000c 	ldr	r0, [r4, #12]
     9a8:	e30f22ff 	movw	r2, #62207	; 0xf2ff
     9ac:	e20000c0 	and	r0, r0, #192	; 0xc0
     9b0:	e3800020 	orr	r0, r0, #32
     9b4:	e584000c 	str	r0, [r4, #12]
     9b8:	e594000c 	ldr	r0, [r4, #12]
     9bc:	e3100008 	tst	r0, #8
     9c0:	1a000002 	bne	9d0 <twi_byte_rw+0x16c>
     9c4:	e2522001 	subs	r2, r2, #1
     9c8:	1afffffa 	bne	9b8 <twi_byte_rw+0x154>
     9cc:	ea000029 	b	a78 <twi_byte_rw+0x214>
     9d0:	e3520000 	cmp	r2, #0
     9d4:	0a000027 	beq	a78 <twi_byte_rw+0x214>
     9d8:	e5942010 	ldr	r2, [r4, #16]
     9dc:	e6ef2072 	uxtb	r2, r2
     9e0:	e3520010 	cmp	r2, #16
     9e4:	1a000023 	bne	a78 <twi_byte_rw+0x214>
     9e8:	e3811001 	orr	r1, r1, #1
     9ec:	e30f22ff 	movw	r2, #62207	; 0xf2ff
     9f0:	e5841008 	str	r1, [r4, #8]
     9f4:	e594100c 	ldr	r1, [r4, #12]
     9f8:	e20110f7 	and	r1, r1, #247	; 0xf7
     9fc:	e584100c 	str	r1, [r4, #12]
     a00:	e594100c 	ldr	r1, [r4, #12]
     a04:	e3110008 	tst	r1, #8
     a08:	1a000002 	bne	a18 <twi_byte_rw+0x1b4>
     a0c:	e2522001 	subs	r2, r2, #1
     a10:	1afffffa 	bne	a00 <twi_byte_rw+0x19c>
     a14:	ea000017 	b	a78 <twi_byte_rw+0x214>
     a18:	e3520000 	cmp	r2, #0
     a1c:	0a000015 	beq	a78 <twi_byte_rw+0x214>
     a20:	e5942010 	ldr	r2, [r4, #16]
     a24:	e6ef2072 	uxtb	r2, r2
     a28:	e3520040 	cmp	r2, #64	; 0x40
     a2c:	1a000011 	bne	a78 <twi_byte_rw+0x214>
     a30:	e594100c 	ldr	r1, [r4, #12]
     a34:	e30f22ff 	movw	r2, #62207	; 0xf2ff
     a38:	e20110f7 	and	r1, r1, #247	; 0xf7
     a3c:	e584100c 	str	r1, [r4, #12]
     a40:	e594100c 	ldr	r1, [r4, #12]
     a44:	e3110008 	tst	r1, #8
     a48:	1a000002 	bne	a58 <twi_byte_rw+0x1f4>
     a4c:	e2522001 	subs	r2, r2, #1
     a50:	1afffffa 	bne	a40 <twi_byte_rw+0x1dc>
     a54:	ea000007 	b	a78 <twi_byte_rw+0x214>
     a58:	e3520000 	cmp	r2, #0
     a5c:	0a000005 	beq	a78 <twi_byte_rw+0x214>
     a60:	e5942008 	ldr	r2, [r4, #8]
     a64:	e5c32000 	strb	r2, [r3]
     a68:	e5943010 	ldr	r3, [r4, #16]
     a6c:	e6ef3073 	uxtb	r3, r3
     a70:	e3530058 	cmp	r3, #88	; 0x58
     a74:	0a000029 	beq	b20 <twi_byte_rw+0x2bc>
     a78:	e59f30b4 	ldr	r3, [pc, #180]	; b34 <twi_byte_rw+0x2d0>
     a7c:	e59f00b4 	ldr	r0, [pc, #180]	; b38 <twi_byte_rw+0x2d4>
     a80:	e59f10a8 	ldr	r1, [pc, #168]	; b30 <twi_byte_rw+0x2cc>
     a84:	e5932000 	ldr	r2, [r3]
     a88:	e3c22001 	bic	r2, r2, #1
     a8c:	e5832000 	str	r2, [r3]
     a90:	e5932000 	ldr	r2, [r3]
     a94:	e581000c 	str	r0, [r1, #12]
     a98:	e3822001 	orr	r2, r2, #1
     a9c:	e5832000 	str	r2, [r3]
     aa0:	e3a03028 	mov	r3, #40	; 0x28
     aa4:	e5843014 	str	r3, [r4, #20]
     aa8:	e5943018 	ldr	r3, [r4, #24]
     aac:	e3833001 	orr	r3, r3, #1
     ab0:	e5843018 	str	r3, [r4, #24]
     ab4:	e5943018 	ldr	r3, [r4, #24]
     ab8:	e3130001 	tst	r3, #1
     abc:	1afffffc 	bne	ab4 <twi_byte_rw+0x250>
     ac0:	e3e04000 	mvn	r4, #0
     ac4:	ea000012 	b	b14 <twi_byte_rw+0x2b0>
     ac8:	e59f3064 	ldr	r3, [pc, #100]	; b34 <twi_byte_rw+0x2d0>
     acc:	e59f0064 	ldr	r0, [pc, #100]	; b38 <twi_byte_rw+0x2d4>
     ad0:	e59f1058 	ldr	r1, [pc, #88]	; b30 <twi_byte_rw+0x2cc>
     ad4:	e5932000 	ldr	r2, [r3]
     ad8:	e3c22001 	bic	r2, r2, #1
     adc:	e5832000 	str	r2, [r3]
     ae0:	e5932000 	ldr	r2, [r3]
     ae4:	e581000c 	str	r0, [r1, #12]
     ae8:	e3822001 	orr	r2, r2, #1
     aec:	e5832000 	str	r2, [r3]
     af0:	e3a03028 	mov	r3, #40	; 0x28
     af4:	e5843014 	str	r3, [r4, #20]
     af8:	e5943018 	ldr	r3, [r4, #24]
     afc:	e3833001 	orr	r3, r3, #1
     b00:	e5843018 	str	r3, [r4, #24]
     b04:	e5943018 	ldr	r3, [r4, #24]
     b08:	e3130001 	tst	r3, #1
     b0c:	1afffffc 	bne	b04 <twi_byte_rw+0x2a0>
     b10:	e3a04000 	mov	r4, #0
     b14:	ebffff15 	bl	770 <_mem_twi_stop>
     b18:	e1a00004 	mov	r0, r4
     b1c:	e8bd8010 	pop	{r4, pc}
     b20:	ebffff12 	bl	770 <_mem_twi_stop>
     b24:	e3500000 	cmp	r0, #0
     b28:	1affffe6 	bne	ac8 <twi_byte_rw+0x264>
     b2c:	eafffff7 	b	b10 <twi_byte_rw+0x2ac>
     b30:	0000428c 	andeq	r4, r0, ip, lsl #5
     b34:	f1c2006c 	undefined instruction 0xf1c2006c
     b38:	f1c20000 	undefined instruction 0xf1c20000

00000b3c <twi_byte_rw_nommu>:
     b3c:	e59fc308 	ldr	ip, [pc, #776]	; e4c <twi_byte_rw_nommu+0x310>
     b40:	e92d4070 	push	{r4, r5, r6, lr}
     b44:	e3a04000 	mov	r4, #0
     b48:	e58c401c 	str	r4, [ip, #28]
     b4c:	e59c4010 	ldr	r4, [ip, #16]
     b50:	e59f52f8 	ldr	r5, [pc, #760]	; e50 <twi_byte_rw_nommu+0x314>
     b54:	e6ef4074 	uxtb	r4, r4
     b58:	e35400f8 	cmp	r4, #248	; 0xf8
     b5c:	e585c000 	str	ip, [r5]
     b60:	1a000089 	bne	d8c <twi_byte_rw_nommu+0x250>
     b64:	e59c500c 	ldr	r5, [ip, #12]
     b68:	e1a0600c 	mov	r6, ip
     b6c:	e30f42ff 	movw	r4, #62207	; 0xf2ff
     b70:	e3855020 	orr	r5, r5, #32
     b74:	e58c500c 	str	r5, [ip, #12]
     b78:	e596500c 	ldr	r5, [r6, #12]
     b7c:	e59fc2c8 	ldr	ip, [pc, #712]	; e4c <twi_byte_rw_nommu+0x310>
     b80:	e3150008 	tst	r5, #8
     b84:	1a000002 	bne	b94 <twi_byte_rw_nommu+0x58>
     b88:	e2544001 	subs	r4, r4, #1
     b8c:	1afffff9 	bne	b78 <twi_byte_rw_nommu+0x3c>
     b90:	ea00007d 	b	d8c <twi_byte_rw_nommu+0x250>
     b94:	e3540000 	cmp	r4, #0
     b98:	0a00007b 	beq	d8c <twi_byte_rw_nommu+0x250>
     b9c:	e59c4010 	ldr	r4, [ip, #16]
     ba0:	e6ef4074 	uxtb	r4, r4
     ba4:	e3540008 	cmp	r4, #8
     ba8:	1a000077 	bne	d8c <twi_byte_rw_nommu+0x250>
     bac:	e1a01081 	lsl	r1, r1, #1
     bb0:	e1a0600c 	mov	r6, ip
     bb4:	e58c1008 	str	r1, [ip, #8]
     bb8:	e30f42ff 	movw	r4, #62207	; 0xf2ff
     bbc:	e59c500c 	ldr	r5, [ip, #12]
     bc0:	e20550f7 	and	r5, r5, #247	; 0xf7
     bc4:	e58c500c 	str	r5, [ip, #12]
     bc8:	e596500c 	ldr	r5, [r6, #12]
     bcc:	e59fc278 	ldr	ip, [pc, #632]	; e4c <twi_byte_rw_nommu+0x310>
     bd0:	e3150008 	tst	r5, #8
     bd4:	1a000002 	bne	be4 <twi_byte_rw_nommu+0xa8>
     bd8:	e2544001 	subs	r4, r4, #1
     bdc:	1afffff9 	bne	bc8 <twi_byte_rw_nommu+0x8c>
     be0:	ea000069 	b	d8c <twi_byte_rw_nommu+0x250>
     be4:	e3540000 	cmp	r4, #0
     be8:	0a000067 	beq	d8c <twi_byte_rw_nommu+0x250>
     bec:	e59c4010 	ldr	r4, [ip, #16]
     bf0:	e6ef4074 	uxtb	r4, r4
     bf4:	e3540018 	cmp	r4, #24
     bf8:	1a000063 	bne	d8c <twi_byte_rw_nommu+0x250>
     bfc:	e58c2008 	str	r2, [ip, #8]
     c00:	e1a0500c 	mov	r5, ip
     c04:	e59c200c 	ldr	r2, [ip, #12]
     c08:	e30f42ff 	movw	r4, #62207	; 0xf2ff
     c0c:	e20220f7 	and	r2, r2, #247	; 0xf7
     c10:	e58c200c 	str	r2, [ip, #12]
     c14:	e595c00c 	ldr	ip, [r5, #12]
     c18:	e59f222c 	ldr	r2, [pc, #556]	; e4c <twi_byte_rw_nommu+0x310>
     c1c:	e31c0008 	tst	ip, #8
     c20:	1a000002 	bne	c30 <twi_byte_rw_nommu+0xf4>
     c24:	e2544001 	subs	r4, r4, #1
     c28:	1afffff9 	bne	c14 <twi_byte_rw_nommu+0xd8>
     c2c:	ea000056 	b	d8c <twi_byte_rw_nommu+0x250>
     c30:	e3540000 	cmp	r4, #0
     c34:	0a000054 	beq	d8c <twi_byte_rw_nommu+0x250>
     c38:	e592c010 	ldr	ip, [r2, #16]
     c3c:	e6efc07c 	uxtb	ip, ip
     c40:	e35c0028 	cmp	ip, #40	; 0x28
     c44:	1a000050 	bne	d8c <twi_byte_rw_nommu+0x250>
     c48:	e3500001 	cmp	r0, #1
     c4c:	1a000013 	bne	ca0 <twi_byte_rw_nommu+0x164>
     c50:	e5d31000 	ldrb	r1, [r3]
     c54:	e1a00002 	mov	r0, r2
     c58:	e30f32ff 	movw	r3, #62207	; 0xf2ff
     c5c:	e5821008 	str	r1, [r2, #8]
     c60:	e592100c 	ldr	r1, [r2, #12]
     c64:	e20110f7 	and	r1, r1, #247	; 0xf7
     c68:	e582100c 	str	r1, [r2, #12]
     c6c:	e590200c 	ldr	r2, [r0, #12]
     c70:	e3120008 	tst	r2, #8
     c74:	1a000002 	bne	c84 <twi_byte_rw_nommu+0x148>
     c78:	e2533001 	subs	r3, r3, #1
     c7c:	1afffffa 	bne	c6c <twi_byte_rw_nommu+0x130>
     c80:	ea000041 	b	d8c <twi_byte_rw_nommu+0x250>
     c84:	e3530000 	cmp	r3, #0
     c88:	0a00003f 	beq	d8c <twi_byte_rw_nommu+0x250>
     c8c:	e59f31b8 	ldr	r3, [pc, #440]	; e4c <twi_byte_rw_nommu+0x310>
     c90:	e5933010 	ldr	r3, [r3, #16]
     c94:	e6ef3073 	uxtb	r3, r3
     c98:	e3530028 	cmp	r3, #40	; 0x28
     c9c:	ea000039 	b	d88 <twi_byte_rw_nommu+0x24c>
     ca0:	e592c00c 	ldr	ip, [r2, #12]
     ca4:	e1a04002 	mov	r4, r2
     ca8:	e30f02ff 	movw	r0, #62207	; 0xf2ff
     cac:	e20cc0c0 	and	ip, ip, #192	; 0xc0
     cb0:	e38cc020 	orr	ip, ip, #32
     cb4:	e582c00c 	str	ip, [r2, #12]
     cb8:	e594c00c 	ldr	ip, [r4, #12]
     cbc:	e59f2188 	ldr	r2, [pc, #392]	; e4c <twi_byte_rw_nommu+0x310>
     cc0:	e31c0008 	tst	ip, #8
     cc4:	1a000002 	bne	cd4 <twi_byte_rw_nommu+0x198>
     cc8:	e2500001 	subs	r0, r0, #1
     ccc:	1afffff9 	bne	cb8 <twi_byte_rw_nommu+0x17c>
     cd0:	ea00002d 	b	d8c <twi_byte_rw_nommu+0x250>
     cd4:	e3500000 	cmp	r0, #0
     cd8:	0a00002b 	beq	d8c <twi_byte_rw_nommu+0x250>
     cdc:	e5920010 	ldr	r0, [r2, #16]
     ce0:	e6ef0070 	uxtb	r0, r0
     ce4:	e3500010 	cmp	r0, #16
     ce8:	1a000027 	bne	d8c <twi_byte_rw_nommu+0x250>
     cec:	e3811001 	orr	r1, r1, #1
     cf0:	e1a0c002 	mov	ip, r2
     cf4:	e5821008 	str	r1, [r2, #8]
     cf8:	e30f02ff 	movw	r0, #62207	; 0xf2ff
     cfc:	e592100c 	ldr	r1, [r2, #12]
     d00:	e20110f7 	and	r1, r1, #247	; 0xf7
     d04:	e582100c 	str	r1, [r2, #12]
     d08:	e59c200c 	ldr	r2, [ip, #12]
     d0c:	e59f1138 	ldr	r1, [pc, #312]	; e4c <twi_byte_rw_nommu+0x310>
     d10:	e3120008 	tst	r2, #8
     d14:	1a000002 	bne	d24 <twi_byte_rw_nommu+0x1e8>
     d18:	e2500001 	subs	r0, r0, #1
     d1c:	1afffff9 	bne	d08 <twi_byte_rw_nommu+0x1cc>
     d20:	ea000019 	b	d8c <twi_byte_rw_nommu+0x250>
     d24:	e3500000 	cmp	r0, #0
     d28:	0a000017 	beq	d8c <twi_byte_rw_nommu+0x250>
     d2c:	e5912010 	ldr	r2, [r1, #16]
     d30:	e6ef2072 	uxtb	r2, r2
     d34:	e3520040 	cmp	r2, #64	; 0x40
     d38:	1a000013 	bne	d8c <twi_byte_rw_nommu+0x250>
     d3c:	e591000c 	ldr	r0, [r1, #12]
     d40:	e1a0c001 	mov	ip, r1
     d44:	e30f22ff 	movw	r2, #62207	; 0xf2ff
     d48:	e20000f7 	and	r0, r0, #247	; 0xf7
     d4c:	e581000c 	str	r0, [r1, #12]
     d50:	e59c000c 	ldr	r0, [ip, #12]
     d54:	e59f10f0 	ldr	r1, [pc, #240]	; e4c <twi_byte_rw_nommu+0x310>
     d58:	e3100008 	tst	r0, #8
     d5c:	1a000002 	bne	d6c <twi_byte_rw_nommu+0x230>
     d60:	e2522001 	subs	r2, r2, #1
     d64:	1afffff9 	bne	d50 <twi_byte_rw_nommu+0x214>
     d68:	ea000007 	b	d8c <twi_byte_rw_nommu+0x250>
     d6c:	e3520000 	cmp	r2, #0
     d70:	0a000005 	beq	d8c <twi_byte_rw_nommu+0x250>
     d74:	e5912008 	ldr	r2, [r1, #8]
     d78:	e5c32000 	strb	r2, [r3]
     d7c:	e5913010 	ldr	r3, [r1, #16]
     d80:	e6ef3073 	uxtb	r3, r3
     d84:	e3530058 	cmp	r3, #88	; 0x58
     d88:	0a00002b 	beq	e3c <twi_byte_rw_nommu+0x300>
     d8c:	e59f20c0 	ldr	r2, [pc, #192]	; e54 <twi_byte_rw_nommu+0x318>
     d90:	e59f30b4 	ldr	r3, [pc, #180]	; e4c <twi_byte_rw_nommu+0x310>
     d94:	e59fc0bc 	ldr	ip, [pc, #188]	; e58 <twi_byte_rw_nommu+0x31c>
     d98:	e5921000 	ldr	r1, [r2]
     d9c:	e1a04003 	mov	r4, r3
     da0:	e59f00a8 	ldr	r0, [pc, #168]	; e50 <twi_byte_rw_nommu+0x314>
     da4:	e3c11001 	bic	r1, r1, #1
     da8:	e5821000 	str	r1, [r2]
     dac:	e5921000 	ldr	r1, [r2]
     db0:	e580c00c 	str	ip, [r0, #12]
     db4:	e3811001 	orr	r1, r1, #1
     db8:	e5821000 	str	r1, [r2]
     dbc:	e3a02028 	mov	r2, #40	; 0x28
     dc0:	e5832014 	str	r2, [r3, #20]
     dc4:	e5932018 	ldr	r2, [r3, #24]
     dc8:	e3822001 	orr	r2, r2, #1
     dcc:	e5832018 	str	r2, [r3, #24]
     dd0:	e5943018 	ldr	r3, [r4, #24]
     dd4:	e3130001 	tst	r3, #1
     dd8:	1afffffc 	bne	dd0 <twi_byte_rw_nommu+0x294>
     ddc:	e3e00000 	mvn	r0, #0
     de0:	e8bd8070 	pop	{r4, r5, r6, pc}
     de4:	e59f2068 	ldr	r2, [pc, #104]	; e54 <twi_byte_rw_nommu+0x318>
     de8:	e59f305c 	ldr	r3, [pc, #92]	; e4c <twi_byte_rw_nommu+0x310>
     dec:	e59fc064 	ldr	ip, [pc, #100]	; e58 <twi_byte_rw_nommu+0x31c>
     df0:	e5921000 	ldr	r1, [r2]
     df4:	e1a04003 	mov	r4, r3
     df8:	e59f0050 	ldr	r0, [pc, #80]	; e50 <twi_byte_rw_nommu+0x314>
     dfc:	e3c11001 	bic	r1, r1, #1
     e00:	e5821000 	str	r1, [r2]
     e04:	e5921000 	ldr	r1, [r2]
     e08:	e580c00c 	str	ip, [r0, #12]
     e0c:	e3811001 	orr	r1, r1, #1
     e10:	e5821000 	str	r1, [r2]
     e14:	e3a02028 	mov	r2, #40	; 0x28
     e18:	e5832014 	str	r2, [r3, #20]
     e1c:	e5932018 	ldr	r2, [r3, #24]
     e20:	e3822001 	orr	r2, r2, #1
     e24:	e5832018 	str	r2, [r3, #24]
     e28:	e5943018 	ldr	r3, [r4, #24]
     e2c:	e3130001 	tst	r3, #1
     e30:	1afffffc 	bne	e28 <twi_byte_rw_nommu+0x2ec>
     e34:	e3a00000 	mov	r0, #0
     e38:	e8bd8070 	pop	{r4, r5, r6, pc}
     e3c:	ebfffe4b 	bl	770 <_mem_twi_stop>
     e40:	e3500000 	cmp	r0, #0
     e44:	1affffe6 	bne	de4 <twi_byte_rw_nommu+0x2a8>
     e48:	eafffff9 	b	e34 <twi_byte_rw_nommu+0x2f8>
     e4c:	01c2ac00 	biceq	sl, r2, r0, lsl #24
     e50:	0000428c 	andeq	r4, r0, ip, lsl #5
     e54:	01c2006c 	biceq	r0, r2, ip, rrx
     e58:	01c20000 	biceq	r0, r2, r0

00000e5c <mem_twi_exit>:
     e5c:	e92d4010 	push	{r4, lr}
     e60:	e59f4040 	ldr	r4, [pc, #64]	; ea8 <mem_twi_exit+0x4c>
     e64:	e3a00001 	mov	r0, #1
     e68:	e5943000 	ldr	r3, [r4]
     e6c:	e5932018 	ldr	r2, [r3, #24]
     e70:	e1822000 	orr	r2, r2, r0
     e74:	e5832018 	str	r2, [r3, #24]
     e78:	eb000868 	bl	3020 <change_runtime_env>
     e7c:	e3a0000a 	mov	r0, #10
     e80:	eb0008d0 	bl	31c8 <delay_ms>
     e84:	e5943000 	ldr	r3, [r4]
     e88:	e5941004 	ldr	r1, [r4, #4]
     e8c:	e3a00000 	mov	r0, #0
     e90:	e5942008 	ldr	r2, [r4, #8]
     e94:	e5831014 	str	r1, [r3, #20]
     e98:	e593100c 	ldr	r1, [r3, #12]
     e9c:	e1812002 	orr	r2, r1, r2
     ea0:	e583200c 	str	r2, [r3, #12]
     ea4:	e8bd8010 	pop	{r4, pc}
     ea8:	0000428c 	andeq	r4, r0, ip, lsl #5

00000eac <mem_delay>:
     eac:	e92d000f 	push	{r0, r1, r2, r3}
     eb0:	e3a01011 	mov	r1, #17
     eb4:	e1a03000 	mov	r3, r0

00000eb8 <loop2>:
     eb8:	e2500001 	subs	r0, r0, #1
     ebc:	8afffffd 	bhi	eb8 <loop2>
     ec0:	e1a00003 	mov	r0, r3
     ec4:	e2511001 	subs	r1, r1, #1
     ec8:	8afffffa 	bhi	eb8 <loop2>
     ecc:	e8bd000f 	pop	{r0, r1, r2, r3}
     ed0:	e1a0f00e 	mov	pc, lr

00000ed4 <mem_clk_init>:
     ed4:	e59f200c 	ldr	r2, [pc, #12]	; ee8 <mem_clk_init+0x14>
     ed8:	e3a00000 	mov	r0, #0
     edc:	e59f3008 	ldr	r3, [pc, #8]	; eec <mem_clk_init+0x18>
     ee0:	e5832000 	str	r2, [r3]
     ee4:	e12fff1e 	bx	lr
     ee8:	f1c20000 	undefined instruction 0xf1c20000
     eec:	0000429c 	muleq	r0, ip, r2

00000ef0 <mem_clk_plldisable>:
     ef0:	e59f3050 	ldr	r3, [pc, #80]	; f48 <mem_clk_plldisable+0x58>
     ef4:	e3a00000 	mov	r0, #0
     ef8:	e5933000 	ldr	r3, [r3]
     efc:	e5932000 	ldr	r2, [r3]
     f00:	e7df2f9f 	bfc	r2, #31, #1
     f04:	e5832000 	str	r2, [r3]
     f08:	e5932008 	ldr	r2, [r3, #8]
     f0c:	e7df2f9f 	bfc	r2, #31, #1
     f10:	e5832008 	str	r2, [r3, #8]
     f14:	e5932010 	ldr	r2, [r3, #16]
     f18:	e7df2f9f 	bfc	r2, #31, #1
     f1c:	e5832010 	str	r2, [r3, #16]
     f20:	e5932018 	ldr	r2, [r3, #24]
     f24:	e7df2f9f 	bfc	r2, #31, #1
     f28:	e5832018 	str	r2, [r3, #24]
     f2c:	e5932028 	ldr	r2, [r3, #40]	; 0x28
     f30:	e7df2f9f 	bfc	r2, #31, #1
     f34:	e5832028 	str	r2, [r3, #40]	; 0x28
     f38:	e5932030 	ldr	r2, [r3, #48]	; 0x30
     f3c:	e7df2f9f 	bfc	r2, #31, #1
     f40:	e5832030 	str	r2, [r3, #48]	; 0x30
     f44:	e12fff1e 	bx	lr
     f48:	0000429c 	muleq	r0, ip, r2

00000f4c <mem_clk_pllenable>:
     f4c:	e59f3050 	ldr	r3, [pc, #80]	; fa4 <mem_clk_pllenable+0x58>
     f50:	e3a00000 	mov	r0, #0
     f54:	e5933000 	ldr	r3, [r3]
     f58:	e5932000 	ldr	r2, [r3]
     f5c:	e3822102 	orr	r2, r2, #-2147483648	; 0x80000000
     f60:	e5832000 	str	r2, [r3]
     f64:	e5932008 	ldr	r2, [r3, #8]
     f68:	e3822102 	orr	r2, r2, #-2147483648	; 0x80000000
     f6c:	e5832008 	str	r2, [r3, #8]
     f70:	e5932010 	ldr	r2, [r3, #16]
     f74:	e3822102 	orr	r2, r2, #-2147483648	; 0x80000000
     f78:	e5832010 	str	r2, [r3, #16]
     f7c:	e5932018 	ldr	r2, [r3, #24]
     f80:	e3822102 	orr	r2, r2, #-2147483648	; 0x80000000
     f84:	e5832018 	str	r2, [r3, #24]
     f88:	e5932028 	ldr	r2, [r3, #40]	; 0x28
     f8c:	e3822102 	orr	r2, r2, #-2147483648	; 0x80000000
     f90:	e5832028 	str	r2, [r3, #40]	; 0x28
     f94:	e5932030 	ldr	r2, [r3, #48]	; 0x30
     f98:	e3822102 	orr	r2, r2, #-2147483648	; 0x80000000
     f9c:	e5832030 	str	r2, [r3, #48]	; 0x30
     fa0:	e12fff1e 	bx	lr
     fa4:	0000429c 	muleq	r0, ip, r2

00000fa8 <mem_clk_setdiv>:
     fa8:	e2502000 	subs	r2, r0, #0
     fac:	03e00000 	mvneq	r0, #0
     fb0:	012fff1e 	bxeq	lr
     fb4:	e59f3048 	ldr	r3, [pc, #72]	; 1004 <mem_clk_setdiv+0x5c>
     fb8:	e3a00000 	mov	r0, #0
     fbc:	e59fc044 	ldr	ip, [pc, #68]	; 1008 <mem_clk_setdiv+0x60>
     fc0:	e5931054 	ldr	r1, [r3, #84]	; 0x54
     fc4:	e58c3000 	str	r3, [ip]
     fc8:	e592c000 	ldr	ip, [r2]
     fcc:	e7e1c25c 	ubfx	ip, ip, #4, #2
     fd0:	e7c1101c 	bfi	r1, ip, #0, #2
     fd4:	e5831054 	str	r1, [r3, #84]	; 0x54
     fd8:	e592c000 	ldr	ip, [r2]
     fdc:	e5931054 	ldr	r1, [r3, #84]	; 0x54
     fe0:	e7e1c45c 	ubfx	ip, ip, #8, #2
     fe4:	e7c5121c 	bfi	r1, ip, #4, #2
     fe8:	e5831054 	str	r1, [r3, #84]	; 0x54
     fec:	e5921000 	ldr	r1, [r2]
     ff0:	e5932054 	ldr	r2, [r3, #84]	; 0x54
     ff4:	e7e11651 	ubfx	r1, r1, #12, #2
     ff8:	e7c92411 	bfi	r2, r1, #8, #2
     ffc:	e5832054 	str	r2, [r3, #84]	; 0x54
    1000:	e12fff1e 	bx	lr
    1004:	f1c20000 	undefined instruction 0xf1c20000
    1008:	0000429c 	muleq	r0, ip, r2

0000100c <mem_clk_getdiv>:
    100c:	e2503000 	subs	r3, r0, #0
    1010:	03e00000 	mvneq	r0, #0
    1014:	012fff1e 	bxeq	lr
    1018:	e59f2040 	ldr	r2, [pc, #64]	; 1060 <mem_clk_getdiv+0x54>
    101c:	e3a00000 	mov	r0, #0
    1020:	e59f103c 	ldr	r1, [pc, #60]	; 1064 <mem_clk_getdiv+0x58>
    1024:	e592c054 	ldr	ip, [r2, #84]	; 0x54
    1028:	e5812000 	str	r2, [r1]
    102c:	e5931000 	ldr	r1, [r3]
    1030:	e20cc003 	and	ip, ip, #3
    1034:	e7c7121c 	bfi	r1, ip, #4, #4
    1038:	e5831000 	str	r1, [r3]
    103c:	e592c054 	ldr	ip, [r2, #84]	; 0x54
    1040:	e7e1c25c 	ubfx	ip, ip, #4, #2
    1044:	e7cb141c 	bfi	r1, ip, #8, #4
    1048:	e5831000 	str	r1, [r3]
    104c:	e5922054 	ldr	r2, [r2, #84]	; 0x54
    1050:	e7e12452 	ubfx	r2, r2, #8, #2
    1054:	e7cf1612 	bfi	r1, r2, #12, #4
    1058:	e5831000 	str	r1, [r3]
    105c:	e12fff1e 	bx	lr
    1060:	f1c20000 	undefined instruction 0xf1c20000
    1064:	0000429c 	muleq	r0, ip, r2

00001068 <mem_clk_set_pll_factor>:
    1068:	e59f3050 	ldr	r3, [pc, #80]	; 10c0 <mem_clk_set_pll_factor+0x58>
    106c:	e1a02000 	mov	r2, r0
    1070:	e59fc04c 	ldr	ip, [pc, #76]	; 10c4 <mem_clk_set_pll_factor+0x5c>
    1074:	e3a00000 	mov	r0, #0
    1078:	e5931000 	ldr	r1, [r3]
    107c:	e58c3000 	str	r3, [ip]
    1080:	e5d2c000 	ldrb	ip, [r2]
    1084:	e7cc141c 	bfi	r1, ip, #8, #5
    1088:	e5831000 	str	r1, [r3]
    108c:	e5931000 	ldr	r1, [r3]
    1090:	e5d2c001 	ldrb	ip, [r2, #1]
    1094:	e7c5121c 	bfi	r1, ip, #4, #2
    1098:	e5831000 	str	r1, [r3]
    109c:	e5931000 	ldr	r1, [r3]
    10a0:	e5d2c002 	ldrb	ip, [r2, #2]
    10a4:	e7c1101c 	bfi	r1, ip, #0, #2
    10a8:	e5831000 	str	r1, [r3]
    10ac:	e5d21003 	ldrb	r1, [r2, #3]
    10b0:	e5932000 	ldr	r2, [r3]
    10b4:	e7d12811 	bfi	r2, r1, #16, #2
    10b8:	e5832000 	str	r2, [r3]
    10bc:	e12fff1e 	bx	lr
    10c0:	f1c20000 	undefined instruction 0xf1c20000
    10c4:	0000429c 	muleq	r0, ip, r2

000010c8 <mem_clk_get_pll_factor>:
    10c8:	e59f3040 	ldr	r3, [pc, #64]	; 1110 <mem_clk_get_pll_factor+0x48>
    10cc:	e1a02000 	mov	r2, r0
    10d0:	e59fc03c 	ldr	ip, [pc, #60]	; 1114 <mem_clk_get_pll_factor+0x4c>
    10d4:	e3a00000 	mov	r0, #0
    10d8:	e5931000 	ldr	r1, [r3]
    10dc:	e58c3000 	str	r3, [ip]
    10e0:	e7e41451 	ubfx	r1, r1, #8, #5
    10e4:	e5c21000 	strb	r1, [r2]
    10e8:	e5931000 	ldr	r1, [r3]
    10ec:	e7e11251 	ubfx	r1, r1, #4, #2
    10f0:	e5c21001 	strb	r1, [r2, #1]
    10f4:	e5931000 	ldr	r1, [r3]
    10f8:	e2011003 	and	r1, r1, #3
    10fc:	e5c21002 	strb	r1, [r2, #2]
    1100:	e5933000 	ldr	r3, [r3]
    1104:	e7e13853 	ubfx	r3, r3, #16, #2
    1108:	e5c23003 	strb	r3, [r2, #3]
    110c:	e12fff1e 	bx	lr
    1110:	f1c20000 	undefined instruction 0xf1c20000
    1114:	0000429c 	muleq	r0, ip, r2

00001118 <mem_clk_dramgating>:
    1118:	e59f3024 	ldr	r3, [pc, #36]	; 1144 <mem_clk_dramgating+0x2c>
    111c:	e3500000 	cmp	r0, #0
    1120:	15932000 	ldrne	r2, [r3]
    1124:	05933000 	ldreq	r3, [r3]
    1128:	15923020 	ldrne	r3, [r2, #32]
    112c:	05932020 	ldreq	r2, [r3, #32]
    1130:	13833202 	orrne	r3, r3, #536870912	; 0x20000000
    1134:	07dd2e90 	bfieq	r2, r0, #29, #1
    1138:	15823020 	strne	r3, [r2, #32]
    113c:	05832020 	streq	r2, [r3, #32]
    1140:	e12fff1e 	bx	lr
    1144:	0000429c 	muleq	r0, ip, r2

00001148 <mem_power_off_nommu>:
    1148:	e92d4013 	push	{r0, r1, r4, lr}
    114c:	e28d4008 	add	r4, sp, #8
    1150:	e3a03000 	mov	r3, #0
    1154:	e3a01034 	mov	r1, #52	; 0x34
    1158:	e1a00003 	mov	r0, r3
    115c:	e5643001 	strb	r3, [r4, #-1]!
    1160:	e3a02031 	mov	r2, #49	; 0x31
    1164:	e1a03004 	mov	r3, r4
    1168:	ebfffe73 	bl	b3c <twi_byte_rw_nommu>
    116c:	e3500000 	cmp	r0, #0
    1170:	1a00001a 	bne	11e0 <mem_power_off_nommu+0x98>
    1174:	e5ddc007 	ldrb	ip, [sp, #7]
    1178:	e2800001 	add	r0, r0, #1
    117c:	e3a01034 	mov	r1, #52	; 0x34
    1180:	e3a02031 	mov	r2, #49	; 0x31
    1184:	e1a03004 	mov	r3, r4
    1188:	e38cc008 	orr	ip, ip, #8
    118c:	e5cdc007 	strb	ip, [sp, #7]
    1190:	ebfffe69 	bl	b3c <twi_byte_rw_nommu>
    1194:	e3500000 	cmp	r0, #0
    1198:	1a000010 	bne	11e0 <mem_power_off_nommu+0x98>
    119c:	e3a01034 	mov	r1, #52	; 0x34
    11a0:	e3a02012 	mov	r2, #18
    11a4:	e1a03004 	mov	r3, r4
    11a8:	ebfffe63 	bl	b3c <twi_byte_rw_nommu>
    11ac:	e3500000 	cmp	r0, #0
    11b0:	1a00000a 	bne	11e0 <mem_power_off_nommu+0x98>
    11b4:	e5ddc007 	ldrb	ip, [sp, #7]
    11b8:	e1a03004 	mov	r3, r4
    11bc:	e2800001 	add	r0, r0, #1
    11c0:	e3a01034 	mov	r1, #52	; 0x34
    11c4:	e3a02012 	mov	r2, #18
    11c8:	e3ccc05b 	bic	ip, ip, #91	; 0x5b
    11cc:	e5cdc007 	strb	ip, [sp, #7]
    11d0:	ebfffe59 	bl	b3c <twi_byte_rw_nommu>
    11d4:	e3500000 	cmp	r0, #0
    11d8:	1a000000 	bne	11e0 <mem_power_off_nommu+0x98>
    11dc:	e320f003 	wfi
    11e0:	e3e00000 	mvn	r0, #0
    11e4:	e8bd801c 	pop	{r2, r3, r4, pc}

000011e8 <mem_power_off>:
    11e8:	e92d4013 	push	{r0, r1, r4, lr}
    11ec:	e28d4008 	add	r4, sp, #8
    11f0:	e3a03000 	mov	r3, #0
    11f4:	e3a01034 	mov	r1, #52	; 0x34
    11f8:	e1a00003 	mov	r0, r3
    11fc:	e5643001 	strb	r3, [r4, #-1]!
    1200:	e3a02031 	mov	r2, #49	; 0x31
    1204:	e1a03004 	mov	r3, r4
    1208:	ebfffd95 	bl	864 <twi_byte_rw>
    120c:	e3500000 	cmp	r0, #0
    1210:	1a00001a 	bne	1280 <mem_power_off+0x98>
    1214:	e5ddc007 	ldrb	ip, [sp, #7]
    1218:	e2800001 	add	r0, r0, #1
    121c:	e3a01034 	mov	r1, #52	; 0x34
    1220:	e3a02031 	mov	r2, #49	; 0x31
    1224:	e1a03004 	mov	r3, r4
    1228:	e38cc008 	orr	ip, ip, #8
    122c:	e5cdc007 	strb	ip, [sp, #7]
    1230:	ebfffd8b 	bl	864 <twi_byte_rw>
    1234:	e3500000 	cmp	r0, #0
    1238:	1a000010 	bne	1280 <mem_power_off+0x98>
    123c:	e3a01034 	mov	r1, #52	; 0x34
    1240:	e3a02012 	mov	r2, #18
    1244:	e1a03004 	mov	r3, r4
    1248:	ebfffd85 	bl	864 <twi_byte_rw>
    124c:	e3500000 	cmp	r0, #0
    1250:	1a00000a 	bne	1280 <mem_power_off+0x98>
    1254:	e5ddc007 	ldrb	ip, [sp, #7]
    1258:	e1a03004 	mov	r3, r4
    125c:	e2800001 	add	r0, r0, #1
    1260:	e3a01034 	mov	r1, #52	; 0x34
    1264:	e3a02012 	mov	r2, #18
    1268:	e3ccc05b 	bic	ip, ip, #91	; 0x5b
    126c:	e5cdc007 	strb	ip, [sp, #7]
    1270:	ebfffd7b 	bl	864 <twi_byte_rw>
    1274:	e3500000 	cmp	r0, #0
    1278:	1a000000 	bne	1280 <mem_power_off+0x98>
    127c:	e320f003 	wfi
    1280:	e3e00000 	mvn	r0, #0
    1284:	e8bd801c 	pop	{r2, r3, r4, pc}

00001288 <mem_power_exit>:
    1288:	e3100001 	tst	r0, #1
    128c:	e92d4037 	push	{r0, r1, r2, r4, r5, lr}
    1290:	e1a04000 	mov	r4, r0
    1294:	0a000011 	beq	12e0 <mem_power_exit+0x58>
    1298:	e28d5007 	add	r5, sp, #7
    129c:	e3a00000 	mov	r0, #0
    12a0:	e3a01034 	mov	r1, #52	; 0x34
    12a4:	e3a02042 	mov	r2, #66	; 0x42
    12a8:	e1a03005 	mov	r3, r5
    12ac:	ebfffd6c 	bl	864 <twi_byte_rw>
    12b0:	e3500000 	cmp	r0, #0
    12b4:	1a0000b4 	bne	158c <mem_power_exit+0x304>
    12b8:	e5ddc007 	ldrb	ip, [sp, #7]
    12bc:	e1a03005 	mov	r3, r5
    12c0:	e2800001 	add	r0, r0, #1
    12c4:	e3a01034 	mov	r1, #52	; 0x34
    12c8:	e3a02042 	mov	r2, #66	; 0x42
    12cc:	e3ccc003 	bic	ip, ip, #3
    12d0:	e5cdc007 	strb	ip, [sp, #7]
    12d4:	ebfffd62 	bl	864 <twi_byte_rw>
    12d8:	e3500000 	cmp	r0, #0
    12dc:	1a0000aa 	bne	158c <mem_power_exit+0x304>
    12e0:	e3140040 	tst	r4, #64	; 0x40
    12e4:	0a000011 	beq	1330 <mem_power_exit+0xa8>
    12e8:	e28d5007 	add	r5, sp, #7
    12ec:	e3a00000 	mov	r0, #0
    12f0:	e3a01034 	mov	r1, #52	; 0x34
    12f4:	e3a02042 	mov	r2, #66	; 0x42
    12f8:	e1a03005 	mov	r3, r5
    12fc:	ebfffd58 	bl	864 <twi_byte_rw>
    1300:	e3500000 	cmp	r0, #0
    1304:	1a0000a0 	bne	158c <mem_power_exit+0x304>
    1308:	e5ddc007 	ldrb	ip, [sp, #7]
    130c:	e1a03005 	mov	r3, r5
    1310:	e2800001 	add	r0, r0, #1
    1314:	e3a01034 	mov	r1, #52	; 0x34
    1318:	e3a02042 	mov	r2, #66	; 0x42
    131c:	e3ccc002 	bic	ip, ip, #2
    1320:	e5cdc007 	strb	ip, [sp, #7]
    1324:	ebfffd4e 	bl	864 <twi_byte_rw>
    1328:	e3500000 	cmp	r0, #0
    132c:	1a000096 	bne	158c <mem_power_exit+0x304>
    1330:	e3140080 	tst	r4, #128	; 0x80
    1334:	0a000011 	beq	1380 <mem_power_exit+0xf8>
    1338:	e28d5007 	add	r5, sp, #7
    133c:	e3a00000 	mov	r0, #0
    1340:	e3a01034 	mov	r1, #52	; 0x34
    1344:	e3a02042 	mov	r2, #66	; 0x42
    1348:	e1a03005 	mov	r3, r5
    134c:	ebfffd44 	bl	864 <twi_byte_rw>
    1350:	e3500000 	cmp	r0, #0
    1354:	1a00008c 	bne	158c <mem_power_exit+0x304>
    1358:	e5ddc007 	ldrb	ip, [sp, #7]
    135c:	e1a03005 	mov	r3, r5
    1360:	e2800001 	add	r0, r0, #1
    1364:	e3a01034 	mov	r1, #52	; 0x34
    1368:	e3a02042 	mov	r2, #66	; 0x42
    136c:	e3ccc001 	bic	ip, ip, #1
    1370:	e5cdc007 	strb	ip, [sp, #7]
    1374:	ebfffd3a 	bl	864 <twi_byte_rw>
    1378:	e3500000 	cmp	r0, #0
    137c:	1a000082 	bne	158c <mem_power_exit+0x304>
    1380:	e3140010 	tst	r4, #16
    1384:	0a000011 	beq	13d0 <mem_power_exit+0x148>
    1388:	e28d5007 	add	r5, sp, #7
    138c:	e3a00000 	mov	r0, #0
    1390:	e3a01034 	mov	r1, #52	; 0x34
    1394:	e3a02044 	mov	r2, #68	; 0x44
    1398:	e1a03005 	mov	r3, r5
    139c:	ebfffd30 	bl	864 <twi_byte_rw>
    13a0:	e3500000 	cmp	r0, #0
    13a4:	1a000078 	bne	158c <mem_power_exit+0x304>
    13a8:	e5ddc007 	ldrb	ip, [sp, #7]
    13ac:	e1a03005 	mov	r3, r5
    13b0:	e2800001 	add	r0, r0, #1
    13b4:	e3a01034 	mov	r1, #52	; 0x34
    13b8:	e3a02044 	mov	r2, #68	; 0x44
    13bc:	e3ccc040 	bic	ip, ip, #64	; 0x40
    13c0:	e5cdc007 	strb	ip, [sp, #7]
    13c4:	ebfffd26 	bl	864 <twi_byte_rw>
    13c8:	e3500000 	cmp	r0, #0
    13cc:	1a00006e 	bne	158c <mem_power_exit+0x304>
    13d0:	e3140020 	tst	r4, #32
    13d4:	0a000011 	beq	1420 <mem_power_exit+0x198>
    13d8:	e28d5007 	add	r5, sp, #7
    13dc:	e3a00000 	mov	r0, #0
    13e0:	e3a01034 	mov	r1, #52	; 0x34
    13e4:	e3a02044 	mov	r2, #68	; 0x44
    13e8:	e1a03005 	mov	r3, r5
    13ec:	ebfffd1c 	bl	864 <twi_byte_rw>
    13f0:	e3500000 	cmp	r0, #0
    13f4:	1a000064 	bne	158c <mem_power_exit+0x304>
    13f8:	e5ddc007 	ldrb	ip, [sp, #7]
    13fc:	e1a03005 	mov	r3, r5
    1400:	e2800001 	add	r0, r0, #1
    1404:	e3a01034 	mov	r1, #52	; 0x34
    1408:	e3a02044 	mov	r2, #68	; 0x44
    140c:	e3ccc020 	bic	ip, ip, #32
    1410:	e5cdc007 	strb	ip, [sp, #7]
    1414:	ebfffd12 	bl	864 <twi_byte_rw>
    1418:	e3500000 	cmp	r0, #0
    141c:	1a00005a 	bne	158c <mem_power_exit+0x304>
    1420:	e3140002 	tst	r4, #2
    1424:	0a000011 	beq	1470 <mem_power_exit+0x1e8>
    1428:	e28d5007 	add	r5, sp, #7
    142c:	e3a00000 	mov	r0, #0
    1430:	e3a01034 	mov	r1, #52	; 0x34
    1434:	e3a02043 	mov	r2, #67	; 0x43
    1438:	e1a03005 	mov	r3, r5
    143c:	ebfffd08 	bl	864 <twi_byte_rw>
    1440:	e3500000 	cmp	r0, #0
    1444:	1a000050 	bne	158c <mem_power_exit+0x304>
    1448:	e5ddc007 	ldrb	ip, [sp, #7]
    144c:	e1a03005 	mov	r3, r5
    1450:	e2800001 	add	r0, r0, #1
    1454:	e3a01034 	mov	r1, #52	; 0x34
    1458:	e3a02043 	mov	r2, #67	; 0x43
    145c:	e3ccc003 	bic	ip, ip, #3
    1460:	e5cdc007 	strb	ip, [sp, #7]
    1464:	ebfffcfe 	bl	864 <twi_byte_rw>
    1468:	e3500000 	cmp	r0, #0
    146c:	1a000046 	bne	158c <mem_power_exit+0x304>
    1470:	e3140004 	tst	r4, #4
    1474:	0a000030 	beq	153c <mem_power_exit+0x2b4>
    1478:	e28d5007 	add	r5, sp, #7
    147c:	e3a00000 	mov	r0, #0
    1480:	e3a01034 	mov	r1, #52	; 0x34
    1484:	e3a02040 	mov	r2, #64	; 0x40
    1488:	e1a03005 	mov	r3, r5
    148c:	ebfffcf4 	bl	864 <twi_byte_rw>
    1490:	e3500000 	cmp	r0, #0
    1494:	1a00003c 	bne	158c <mem_power_exit+0x304>
    1498:	e5ddc007 	ldrb	ip, [sp, #7]
    149c:	e2800001 	add	r0, r0, #1
    14a0:	e3a01034 	mov	r1, #52	; 0x34
    14a4:	e3a02040 	mov	r2, #64	; 0x40
    14a8:	e1a03005 	mov	r3, r5
    14ac:	e3ccc00c 	bic	ip, ip, #12
    14b0:	e5cdc007 	strb	ip, [sp, #7]
    14b4:	ebfffcea 	bl	864 <twi_byte_rw>
    14b8:	e3500000 	cmp	r0, #0
    14bc:	1a000032 	bne	158c <mem_power_exit+0x304>
    14c0:	e3a01034 	mov	r1, #52	; 0x34
    14c4:	e3a02092 	mov	r2, #146	; 0x92
    14c8:	e1a03005 	mov	r3, r5
    14cc:	ebfffce4 	bl	864 <twi_byte_rw>
    14d0:	e3500000 	cmp	r0, #0
    14d4:	1a00002c 	bne	158c <mem_power_exit+0x304>
    14d8:	e2800001 	add	r0, r0, #1
    14dc:	e3a01034 	mov	r1, #52	; 0x34
    14e0:	e3a02092 	mov	r2, #146	; 0x92
    14e4:	e1a03005 	mov	r3, r5
    14e8:	e3a0c007 	mov	ip, #7
    14ec:	e5cdc007 	strb	ip, [sp, #7]
    14f0:	ebfffcdb 	bl	864 <twi_byte_rw>
    14f4:	e3500000 	cmp	r0, #0
    14f8:	1a000023 	bne	158c <mem_power_exit+0x304>
    14fc:	e3a01034 	mov	r1, #52	; 0x34
    1500:	e3a02044 	mov	r2, #68	; 0x44
    1504:	e1a03005 	mov	r3, r5
    1508:	ebfffcd5 	bl	864 <twi_byte_rw>
    150c:	e3500000 	cmp	r0, #0
    1510:	1a00001d 	bne	158c <mem_power_exit+0x304>
    1514:	e5ddc007 	ldrb	ip, [sp, #7]
    1518:	e1a03005 	mov	r3, r5
    151c:	e2800001 	add	r0, r0, #1
    1520:	e3a01034 	mov	r1, #52	; 0x34
    1524:	e3a02044 	mov	r2, #68	; 0x44
    1528:	e3ccc002 	bic	ip, ip, #2
    152c:	e5cdc007 	strb	ip, [sp, #7]
    1530:	ebfffccb 	bl	864 <twi_byte_rw>
    1534:	e3500000 	cmp	r0, #0
    1538:	1a000013 	bne	158c <mem_power_exit+0x304>
    153c:	e3140008 	tst	r4, #8
    1540:	0a000013 	beq	1594 <mem_power_exit+0x30c>
    1544:	e28d4007 	add	r4, sp, #7
    1548:	e3a00000 	mov	r0, #0
    154c:	e3a01034 	mov	r1, #52	; 0x34
    1550:	e3a02040 	mov	r2, #64	; 0x40
    1554:	e1a03004 	mov	r3, r4
    1558:	ebfffcc1 	bl	864 <twi_byte_rw>
    155c:	e3500000 	cmp	r0, #0
    1560:	1a000009 	bne	158c <mem_power_exit+0x304>
    1564:	e5ddc007 	ldrb	ip, [sp, #7]
    1568:	e1a03004 	mov	r3, r4
    156c:	e2800001 	add	r0, r0, #1
    1570:	e3a01034 	mov	r1, #52	; 0x34
    1574:	e3a02040 	mov	r2, #64	; 0x40
    1578:	e3ccc060 	bic	ip, ip, #96	; 0x60
    157c:	e5cdc007 	strb	ip, [sp, #7]
    1580:	ebfffcb7 	bl	864 <twi_byte_rw>
    1584:	e3500000 	cmp	r0, #0
    1588:	0a000001 	beq	1594 <mem_power_exit+0x30c>
    158c:	e3e00000 	mvn	r0, #0
    1590:	ea000000 	b	1598 <mem_power_exit+0x310>
    1594:	e3a00000 	mov	r0, #0
    1598:	e8bd803e 	pop	{r1, r2, r3, r4, r5, pc}

0000159c <mem_get_voltage>:
    159c:	e59f3098 	ldr	r3, [pc, #152]	; 163c <mem_get_voltage+0xa0>
    15a0:	e92d4037 	push	{r0, r1, r2, r4, r5, lr}
    15a4:	e1a05000 	mov	r5, r0
    15a8:	e28320a8 	add	r2, r3, #168	; 0xa8
    15ac:	ea000002 	b	15bc <mem_get_voltage+0x20>
    15b0:	e493101c 	ldr	r1, [r3], #28
    15b4:	e1510005 	cmp	r1, r5
    15b8:	0a000003 	beq	15cc <mem_get_voltage+0x30>
    15bc:	e1530002 	cmp	r3, r2
    15c0:	e1a04003 	mov	r4, r3
    15c4:	1afffff9 	bne	15b0 <mem_get_voltage+0x14>
    15c8:	ea000019 	b	1634 <mem_get_voltage+0x98>
    15cc:	e3540000 	cmp	r4, #0
    15d0:	0a000017 	beq	1634 <mem_get_voltage+0x98>
    15d4:	e3a00000 	mov	r0, #0
    15d8:	e3a01034 	mov	r1, #52	; 0x34
    15dc:	e5d42010 	ldrb	r2, [r4, #16]
    15e0:	e28d3007 	add	r3, sp, #7
    15e4:	ebfffc9e 	bl	864 <twi_byte_rw>
    15e8:	e3500000 	cmp	r0, #0
    15ec:	1a000010 	bne	1634 <mem_get_voltage+0x98>
    15f0:	e3e01000 	mvn	r1, #0
    15f4:	e5943018 	ldr	r3, [r4, #24]
    15f8:	e5942014 	ldr	r2, [r4, #20]
    15fc:	e3550006 	cmp	r5, #6
    1600:	e1e03311 	mvn	r3, r1, lsl r3
    1604:	e5dd1007 	ldrb	r1, [sp, #7]
    1608:	1594000c 	ldrne	r0, [r4, #12]
    160c:	03a00ffa 	moveq	r0, #1000	; 0x3e8
    1610:	e0013213 	and	r3, r1, r3, lsl r2
    1614:	e1a03253 	asr	r3, r3, r2
    1618:	059f2020 	ldreq	r2, [pc, #32]	; 1640 <mem_get_voltage+0xa4>
    161c:	15942004 	ldrne	r2, [r4, #4]
    1620:	e6ef3073 	uxtb	r3, r3
    1624:	07923103 	ldreq	r3, [r2, r3, lsl #2]
    1628:	10202390 	mlane	r0, r0, r3, r2
    162c:	00000390 	muleq	r0, r0, r3
    1630:	ea000000 	b	1638 <mem_get_voltage+0x9c>
    1634:	e3e00000 	mvn	r0, #0
    1638:	e8bd803e 	pop	{r1, r2, r3, r4, r5, pc}
    163c:	00003ed8 	ldrdeq	r3, [r0], -r8
    1640:	00003e94 	muleq	r0, r4, lr

00001644 <mem_set_voltage>:
    1644:	e59f31e0 	ldr	r3, [pc, #480]	; 182c <mem_set_voltage+0x1e8>
    1648:	e92d41f3 	push	{r0, r1, r4, r5, r6, r7, r8, lr}
    164c:	e28320a8 	add	r2, r3, #168	; 0xa8
    1650:	ea000002 	b	1660 <mem_set_voltage+0x1c>
    1654:	e594c000 	ldr	ip, [r4]
    1658:	e15c0000 	cmp	ip, r0
    165c:	0a000004 	beq	1674 <mem_set_voltage+0x30>
    1660:	e1530002 	cmp	r3, r2
    1664:	e1a04003 	mov	r4, r3
    1668:	e283301c 	add	r3, r3, #28
    166c:	1afffff8 	bne	1654 <mem_set_voltage+0x10>
    1670:	ea000066 	b	1810 <mem_set_voltage+0x1cc>
    1674:	e3540000 	cmp	r4, #0
    1678:	0a000064 	beq	1810 <mem_set_voltage+0x1cc>
    167c:	e5943004 	ldr	r3, [r4, #4]
    1680:	e1510003 	cmp	r1, r3
    1684:	ba000061 	blt	1810 <mem_set_voltage+0x1cc>
    1688:	e5942008 	ldr	r2, [r4, #8]
    168c:	e1510002 	cmp	r1, r2
    1690:	ca00005e 	bgt	1810 <mem_set_voltage+0x1cc>
    1694:	ea000061 	b	1820 <mem_set_voltage+0x1dc>
    1698:	e594500c 	ldr	r5, [r4, #12]
    169c:	e3550000 	cmp	r5, #0
    16a0:	e1a02005 	mov	r2, r5
    16a4:	13a00000 	movne	r0, #0
    16a8:	1a000002 	bne	16b8 <mem_set_voltage+0x74>
    16ac:	ea000030 	b	1774 <mem_set_voltage+0x130>
    16b0:	e1a02082 	lsl	r2, r2, #1
    16b4:	e2800001 	add	r0, r0, #1
    16b8:	e3520000 	cmp	r2, #0
    16bc:	aafffffb 	bge	16b0 <mem_set_voltage+0x6c>
    16c0:	e245c001 	sub	ip, r5, #1
    16c4:	e3a05000 	mov	r5, #0
    16c8:	e063300c 	rsb	r3, r3, ip
    16cc:	e0831001 	add	r1, r3, r1
    16d0:	e1510002 	cmp	r1, r2
    16d4:	e1a03085 	lsl	r3, r5, #1
    16d8:	20621001 	rsbcs	r1, r2, r1
    16dc:	e3835001 	orr	r5, r3, #1
    16e0:	31a05003 	movcc	r5, r3
    16e4:	e2500001 	subs	r0, r0, #1
    16e8:	e1a020a2 	lsr	r2, r2, #1
    16ec:	5afffff7 	bpl	16d0 <mem_set_voltage+0x8c>
    16f0:	ea00001f 	b	1774 <mem_set_voltage+0x130>
    16f4:	e59f3134 	ldr	r3, [pc, #308]	; 1830 <mem_set_voltage+0x1ec>
    16f8:	e1510003 	cmp	r1, r3
    16fc:	03a05000 	moveq	r5, #0
    1700:	0a000024 	beq	1798 <mem_set_voltage+0x154>
    1704:	e594000c 	ldr	r0, [r4, #12]
    1708:	e3500000 	cmp	r0, #0
    170c:	e1a03000 	mov	r3, r0
    1710:	13a02000 	movne	r2, #0
    1714:	1a000002 	bne	1724 <mem_set_voltage+0xe0>
    1718:	ea000010 	b	1760 <mem_set_voltage+0x11c>
    171c:	e1a03083 	lsl	r3, r3, #1
    1720:	e2822001 	add	r2, r2, #1
    1724:	e3530000 	cmp	r3, #0
    1728:	aafffffb 	bge	171c <mem_set_voltage+0xd8>
    172c:	e59fc100 	ldr	ip, [pc, #256]	; 1834 <mem_set_voltage+0x1f0>
    1730:	e3a05000 	mov	r5, #0
    1734:	e080c00c 	add	ip, r0, ip
    1738:	e08c1001 	add	r1, ip, r1
    173c:	e1510003 	cmp	r1, r3
    1740:	e1a00085 	lsl	r0, r5, #1
    1744:	20631001 	rsbcs	r1, r3, r1
    1748:	e3805001 	orr	r5, r0, #1
    174c:	31a05000 	movcc	r5, r0
    1750:	e2522001 	subs	r2, r2, #1
    1754:	e1a030a3 	lsr	r3, r3, #1
    1758:	5afffff7 	bpl	173c <mem_set_voltage+0xf8>
    175c:	ea000000 	b	1764 <mem_set_voltage+0x120>
    1760:	e1a05000 	mov	r5, r0
    1764:	e6ef5075 	uxtb	r5, r5
    1768:	e3550010 	cmp	r5, #16
    176c:	9a000002 	bls	177c <mem_set_voltage+0x138>
    1770:	e2455006 	sub	r5, r5, #6
    1774:	e6ef5075 	uxtb	r5, r5
    1778:	ea000006 	b	1798 <mem_set_voltage+0x154>
    177c:	e355000d 	cmp	r5, #13
    1780:	82455005 	subhi	r5, r5, #5
    1784:	8afffffa 	bhi	1774 <mem_set_voltage+0x130>
    1788:	03a05009 	moveq	r5, #9
    178c:	0a000001 	beq	1798 <mem_set_voltage+0x154>
    1790:	e3550008 	cmp	r5, #8
    1794:	23a05008 	movcs	r5, #8
    1798:	e28d6007 	add	r6, sp, #7
    179c:	e3a00000 	mov	r0, #0
    17a0:	e3a01034 	mov	r1, #52	; 0x34
    17a4:	e5d42010 	ldrb	r2, [r4, #16]
    17a8:	e1a03006 	mov	r3, r6
    17ac:	e5947014 	ldr	r7, [r4, #20]
    17b0:	e5948018 	ldr	r8, [r4, #24]
    17b4:	ebfffc2a 	bl	864 <twi_byte_rw>
    17b8:	e3500000 	cmp	r0, #0
    17bc:	1a000013 	bne	1810 <mem_set_voltage+0x1cc>
    17c0:	e2800001 	add	r0, r0, #1
    17c4:	e1a05715 	lsl	r5, r5, r7
    17c8:	e5dd3007 	ldrb	r3, [sp, #7]
    17cc:	e1a08810 	lsl	r8, r0, r8
    17d0:	e6ef5075 	uxtb	r5, r5
    17d4:	e2488001 	sub	r8, r8, #1
    17d8:	e1a07718 	lsl	r7, r8, r7
    17dc:	e6ef7077 	uxtb	r7, r7
    17e0:	e0072003 	and	r2, r7, r3
    17e4:	e1520005 	cmp	r2, r5
    17e8:	0a00000a 	beq	1818 <mem_set_voltage+0x1d4>
    17ec:	e1c33007 	bic	r3, r3, r7
    17f0:	e3a01034 	mov	r1, #52	; 0x34
    17f4:	e1855003 	orr	r5, r5, r3
    17f8:	e1a03006 	mov	r3, r6
    17fc:	e5cd5007 	strb	r5, [sp, #7]
    1800:	e5d42010 	ldrb	r2, [r4, #16]
    1804:	ebfffc16 	bl	864 <twi_byte_rw>
    1808:	e3500000 	cmp	r0, #0
    180c:	0a000001 	beq	1818 <mem_set_voltage+0x1d4>
    1810:	e3e00000 	mvn	r0, #0
    1814:	ea000000 	b	181c <mem_set_voltage+0x1d8>
    1818:	e3a00000 	mov	r0, #0
    181c:	e8bd81fc 	pop	{r2, r3, r4, r5, r6, r7, r8, pc}
    1820:	e3500006 	cmp	r0, #6
    1824:	1affff9b 	bne	1698 <mem_set_voltage+0x54>
    1828:	eaffffb1 	b	16f4 <mem_set_voltage+0xb0>
    182c:	00003ed8 	ldrdeq	r3, [r0], -r8
    1830:	001312d0 	undefined instruction 0x001312d0
    1834:	ffedb07f 	undefined instruction 0xffedb07f

00001838 <mem_power_init>:
    1838:	e92d4037 	push	{r0, r1, r2, r4, r5, lr}
    183c:	e1a04000 	mov	r4, r0
    1840:	e3a00901 	mov	r0, #16384	; 0x4000
    1844:	eb0005b6 	bl	2f24 <save_mem_status>
    1848:	e3140001 	tst	r4, #1
    184c:	0a000011 	beq	1898 <mem_power_init+0x60>
    1850:	e28d5007 	add	r5, sp, #7
    1854:	e3a00000 	mov	r0, #0
    1858:	e3a01034 	mov	r1, #52	; 0x34
    185c:	e3a02042 	mov	r2, #66	; 0x42
    1860:	e1a03005 	mov	r3, r5
    1864:	ebfffbfe 	bl	864 <twi_byte_rw>
    1868:	e3500000 	cmp	r0, #0
    186c:	1a0001ed 	bne	2028 <mem_power_init+0x7f0>
    1870:	e5ddc007 	ldrb	ip, [sp, #7]
    1874:	e1a03005 	mov	r3, r5
    1878:	e2800001 	add	r0, r0, #1
    187c:	e3a01034 	mov	r1, #52	; 0x34
    1880:	e3a02042 	mov	r2, #66	; 0x42
    1884:	e38cc003 	orr	ip, ip, #3
    1888:	e5cdc007 	strb	ip, [sp, #7]
    188c:	ebfffbf4 	bl	864 <twi_byte_rw>
    1890:	e3500000 	cmp	r0, #0
    1894:	1a0001e3 	bne	2028 <mem_power_init+0x7f0>
    1898:	e3140040 	tst	r4, #64	; 0x40
    189c:	0a000011 	beq	18e8 <mem_power_init+0xb0>
    18a0:	e28d5007 	add	r5, sp, #7
    18a4:	e3a00000 	mov	r0, #0
    18a8:	e3a01034 	mov	r1, #52	; 0x34
    18ac:	e3a02042 	mov	r2, #66	; 0x42
    18b0:	e1a03005 	mov	r3, r5
    18b4:	ebfffbea 	bl	864 <twi_byte_rw>
    18b8:	e3500000 	cmp	r0, #0
    18bc:	1a0001d9 	bne	2028 <mem_power_init+0x7f0>
    18c0:	e5ddc007 	ldrb	ip, [sp, #7]
    18c4:	e1a03005 	mov	r3, r5
    18c8:	e2800001 	add	r0, r0, #1
    18cc:	e3a01034 	mov	r1, #52	; 0x34
    18d0:	e3a02042 	mov	r2, #66	; 0x42
    18d4:	e38cc002 	orr	ip, ip, #2
    18d8:	e5cdc007 	strb	ip, [sp, #7]
    18dc:	ebfffbe0 	bl	864 <twi_byte_rw>
    18e0:	e3500000 	cmp	r0, #0
    18e4:	1a0001cf 	bne	2028 <mem_power_init+0x7f0>
    18e8:	e3140080 	tst	r4, #128	; 0x80
    18ec:	0a000011 	beq	1938 <mem_power_init+0x100>
    18f0:	e28d5007 	add	r5, sp, #7
    18f4:	e3a00000 	mov	r0, #0
    18f8:	e3a01034 	mov	r1, #52	; 0x34
    18fc:	e3a02042 	mov	r2, #66	; 0x42
    1900:	e1a03005 	mov	r3, r5
    1904:	ebfffbd6 	bl	864 <twi_byte_rw>
    1908:	e3500000 	cmp	r0, #0
    190c:	1a0001c5 	bne	2028 <mem_power_init+0x7f0>
    1910:	e5ddc007 	ldrb	ip, [sp, #7]
    1914:	e2800001 	add	r0, r0, #1
    1918:	e1a03005 	mov	r3, r5
    191c:	e3a01034 	mov	r1, #52	; 0x34
    1920:	e3a02042 	mov	r2, #66	; 0x42
    1924:	e18cc000 	orr	ip, ip, r0
    1928:	e5cdc007 	strb	ip, [sp, #7]
    192c:	ebfffbcc 	bl	864 <twi_byte_rw>
    1930:	e3500000 	cmp	r0, #0
    1934:	1a0001bb 	bne	2028 <mem_power_init+0x7f0>
    1938:	e3140010 	tst	r4, #16
    193c:	0a000011 	beq	1988 <mem_power_init+0x150>
    1940:	e28d5007 	add	r5, sp, #7
    1944:	e3a00000 	mov	r0, #0
    1948:	e3a01034 	mov	r1, #52	; 0x34
    194c:	e3a02044 	mov	r2, #68	; 0x44
    1950:	e1a03005 	mov	r3, r5
    1954:	ebfffbc2 	bl	864 <twi_byte_rw>
    1958:	e3500000 	cmp	r0, #0
    195c:	1a0001b1 	bne	2028 <mem_power_init+0x7f0>
    1960:	e5ddc007 	ldrb	ip, [sp, #7]
    1964:	e1a03005 	mov	r3, r5
    1968:	e2800001 	add	r0, r0, #1
    196c:	e3a01034 	mov	r1, #52	; 0x34
    1970:	e3a02044 	mov	r2, #68	; 0x44
    1974:	e38cc040 	orr	ip, ip, #64	; 0x40
    1978:	e5cdc007 	strb	ip, [sp, #7]
    197c:	ebfffbb8 	bl	864 <twi_byte_rw>
    1980:	e3500000 	cmp	r0, #0
    1984:	1a0001a7 	bne	2028 <mem_power_init+0x7f0>
    1988:	e3140020 	tst	r4, #32
    198c:	0a000011 	beq	19d8 <mem_power_init+0x1a0>
    1990:	e28d5007 	add	r5, sp, #7
    1994:	e3a00000 	mov	r0, #0
    1998:	e3a01034 	mov	r1, #52	; 0x34
    199c:	e3a02044 	mov	r2, #68	; 0x44
    19a0:	e1a03005 	mov	r3, r5
    19a4:	ebfffbae 	bl	864 <twi_byte_rw>
    19a8:	e3500000 	cmp	r0, #0
    19ac:	1a00019d 	bne	2028 <mem_power_init+0x7f0>
    19b0:	e5ddc007 	ldrb	ip, [sp, #7]
    19b4:	e1a03005 	mov	r3, r5
    19b8:	e2800001 	add	r0, r0, #1
    19bc:	e3a01034 	mov	r1, #52	; 0x34
    19c0:	e3a02044 	mov	r2, #68	; 0x44
    19c4:	e38cc020 	orr	ip, ip, #32
    19c8:	e5cdc007 	strb	ip, [sp, #7]
    19cc:	ebfffba4 	bl	864 <twi_byte_rw>
    19d0:	e3500000 	cmp	r0, #0
    19d4:	1a000193 	bne	2028 <mem_power_init+0x7f0>
    19d8:	e3140002 	tst	r4, #2
    19dc:	0a00001a 	beq	1a4c <mem_power_init+0x214>
    19e0:	e28d5007 	add	r5, sp, #7
    19e4:	e3a00000 	mov	r0, #0
    19e8:	e3a01034 	mov	r1, #52	; 0x34
    19ec:	e3a02043 	mov	r2, #67	; 0x43
    19f0:	e1a03005 	mov	r3, r5
    19f4:	ebfffb9a 	bl	864 <twi_byte_rw>
    19f8:	e3500000 	cmp	r0, #0
    19fc:	1a000189 	bne	2028 <mem_power_init+0x7f0>
    1a00:	e5ddc007 	ldrb	ip, [sp, #7]
    1a04:	e2800001 	add	r0, r0, #1
    1a08:	e3a01034 	mov	r1, #52	; 0x34
    1a0c:	e3a02043 	mov	r2, #67	; 0x43
    1a10:	e1a03005 	mov	r3, r5
    1a14:	e38cc003 	orr	ip, ip, #3
    1a18:	e5cdc007 	strb	ip, [sp, #7]
    1a1c:	ebfffb90 	bl	864 <twi_byte_rw>
    1a20:	e3500000 	cmp	r0, #0
    1a24:	1a00017f 	bne	2028 <mem_power_init+0x7f0>
    1a28:	e1a03005 	mov	r3, r5
    1a2c:	e2800001 	add	r0, r0, #1
    1a30:	e3a01034 	mov	r1, #52	; 0x34
    1a34:	e3a0204b 	mov	r2, #75	; 0x4b
    1a38:	e3a0c003 	mov	ip, #3
    1a3c:	e5cdc007 	strb	ip, [sp, #7]
    1a40:	ebfffb87 	bl	864 <twi_byte_rw>
    1a44:	e3500000 	cmp	r0, #0
    1a48:	1a000176 	bne	2028 <mem_power_init+0x7f0>
    1a4c:	e3140004 	tst	r4, #4
    1a50:	0a000030 	beq	1b18 <mem_power_init+0x2e0>
    1a54:	e28d5007 	add	r5, sp, #7
    1a58:	e3a00000 	mov	r0, #0
    1a5c:	e3a01034 	mov	r1, #52	; 0x34
    1a60:	e3a02040 	mov	r2, #64	; 0x40
    1a64:	e1a03005 	mov	r3, r5
    1a68:	ebfffb7d 	bl	864 <twi_byte_rw>
    1a6c:	e3500000 	cmp	r0, #0
    1a70:	1a00016c 	bne	2028 <mem_power_init+0x7f0>
    1a74:	e5ddc007 	ldrb	ip, [sp, #7]
    1a78:	e2800001 	add	r0, r0, #1
    1a7c:	e3a01034 	mov	r1, #52	; 0x34
    1a80:	e3a02040 	mov	r2, #64	; 0x40
    1a84:	e1a03005 	mov	r3, r5
    1a88:	e38cc00c 	orr	ip, ip, #12
    1a8c:	e5cdc007 	strb	ip, [sp, #7]
    1a90:	ebfffb73 	bl	864 <twi_byte_rw>
    1a94:	e3500000 	cmp	r0, #0
    1a98:	1a000162 	bne	2028 <mem_power_init+0x7f0>
    1a9c:	e3a01034 	mov	r1, #52	; 0x34
    1aa0:	e3a02092 	mov	r2, #146	; 0x92
    1aa4:	e1a03005 	mov	r3, r5
    1aa8:	ebfffb6d 	bl	864 <twi_byte_rw>
    1aac:	e3500000 	cmp	r0, #0
    1ab0:	1a00015c 	bne	2028 <mem_power_init+0x7f0>
    1ab4:	e2800001 	add	r0, r0, #1
    1ab8:	e3a01034 	mov	r1, #52	; 0x34
    1abc:	e3a02092 	mov	r2, #146	; 0x92
    1ac0:	e1a03005 	mov	r3, r5
    1ac4:	e3e0c07d 	mvn	ip, #125	; 0x7d
    1ac8:	e5cdc007 	strb	ip, [sp, #7]
    1acc:	ebfffb64 	bl	864 <twi_byte_rw>
    1ad0:	e3500000 	cmp	r0, #0
    1ad4:	1a000153 	bne	2028 <mem_power_init+0x7f0>
    1ad8:	e3a01034 	mov	r1, #52	; 0x34
    1adc:	e3a02044 	mov	r2, #68	; 0x44
    1ae0:	e1a03005 	mov	r3, r5
    1ae4:	ebfffb5e 	bl	864 <twi_byte_rw>
    1ae8:	e3500000 	cmp	r0, #0
    1aec:	1a00014d 	bne	2028 <mem_power_init+0x7f0>
    1af0:	e5ddc007 	ldrb	ip, [sp, #7]
    1af4:	e1a03005 	mov	r3, r5
    1af8:	e2800001 	add	r0, r0, #1
    1afc:	e3a01034 	mov	r1, #52	; 0x34
    1b00:	e3a02044 	mov	r2, #68	; 0x44
    1b04:	e38cc002 	orr	ip, ip, #2
    1b08:	e5cdc007 	strb	ip, [sp, #7]
    1b0c:	ebfffb54 	bl	864 <twi_byte_rw>
    1b10:	e3500000 	cmp	r0, #0
    1b14:	1a000143 	bne	2028 <mem_power_init+0x7f0>
    1b18:	e3140008 	tst	r4, #8
    1b1c:	0a000011 	beq	1b68 <mem_power_init+0x330>
    1b20:	e28d5007 	add	r5, sp, #7
    1b24:	e3a00000 	mov	r0, #0
    1b28:	e3a01034 	mov	r1, #52	; 0x34
    1b2c:	e3a02040 	mov	r2, #64	; 0x40
    1b30:	e1a03005 	mov	r3, r5
    1b34:	ebfffb4a 	bl	864 <twi_byte_rw>
    1b38:	e3500000 	cmp	r0, #0
    1b3c:	1a000139 	bne	2028 <mem_power_init+0x7f0>
    1b40:	e5ddc007 	ldrb	ip, [sp, #7]
    1b44:	e1a03005 	mov	r3, r5
    1b48:	e2800001 	add	r0, r0, #1
    1b4c:	e3a01034 	mov	r1, #52	; 0x34
    1b50:	e3a02040 	mov	r2, #64	; 0x40
    1b54:	e38cc060 	orr	ip, ip, #96	; 0x60
    1b58:	e5cdc007 	strb	ip, [sp, #7]
    1b5c:	ebfffb40 	bl	864 <twi_byte_rw>
    1b60:	e3500000 	cmp	r0, #0
    1b64:	1a00012f 	bne	2028 <mem_power_init+0x7f0>
    1b68:	e3140c01 	tst	r4, #256	; 0x100
    1b6c:	0a000022 	beq	1bfc <mem_power_init+0x3c4>
    1b70:	e28d5007 	add	r5, sp, #7
    1b74:	e3a00000 	mov	r0, #0
    1b78:	e3a01034 	mov	r1, #52	; 0x34
    1b7c:	e3a02044 	mov	r2, #68	; 0x44
    1b80:	e1a03005 	mov	r3, r5
    1b84:	ebfffb36 	bl	864 <twi_byte_rw>
    1b88:	e3500000 	cmp	r0, #0
    1b8c:	1a000125 	bne	2028 <mem_power_init+0x7f0>
    1b90:	e5ddc007 	ldrb	ip, [sp, #7]
    1b94:	e2800001 	add	r0, r0, #1
    1b98:	e3a01034 	mov	r1, #52	; 0x34
    1b9c:	e3a02044 	mov	r2, #68	; 0x44
    1ba0:	e1a03005 	mov	r3, r5
    1ba4:	e18cc000 	orr	ip, ip, r0
    1ba8:	e5cdc007 	strb	ip, [sp, #7]
    1bac:	ebfffb2c 	bl	864 <twi_byte_rw>
    1bb0:	e3500000 	cmp	r0, #0
    1bb4:	1a00011b 	bne	2028 <mem_power_init+0x7f0>
    1bb8:	e3a01034 	mov	r1, #52	; 0x34
    1bbc:	e3a02090 	mov	r2, #144	; 0x90
    1bc0:	e1a03005 	mov	r3, r5
    1bc4:	ebfffb26 	bl	864 <twi_byte_rw>
    1bc8:	e3500000 	cmp	r0, #0
    1bcc:	1a000115 	bne	2028 <mem_power_init+0x7f0>
    1bd0:	e5ddc007 	ldrb	ip, [sp, #7]
    1bd4:	e1a03005 	mov	r3, r5
    1bd8:	e2800001 	add	r0, r0, #1
    1bdc:	e3a01034 	mov	r1, #52	; 0x34
    1be0:	e3ccc007 	bic	ip, ip, #7
    1be4:	e3a02090 	mov	r2, #144	; 0x90
    1be8:	e38cc042 	orr	ip, ip, #66	; 0x42
    1bec:	e5cdc007 	strb	ip, [sp, #7]
    1bf0:	ebfffb1b 	bl	864 <twi_byte_rw>
    1bf4:	e3500000 	cmp	r0, #0
    1bf8:	1a00010a 	bne	2028 <mem_power_init+0x7f0>
    1bfc:	e3140c02 	tst	r4, #512	; 0x200
    1c00:	0a000024 	beq	1c98 <mem_power_init+0x460>
    1c04:	e28d5007 	add	r5, sp, #7
    1c08:	e3a00000 	mov	r0, #0
    1c0c:	e3a01034 	mov	r1, #52	; 0x34
    1c10:	e3a02044 	mov	r2, #68	; 0x44
    1c14:	e1a03005 	mov	r3, r5
    1c18:	ebfffb11 	bl	864 <twi_byte_rw>
    1c1c:	e3500000 	cmp	r0, #0
    1c20:	1a000100 	bne	2028 <mem_power_init+0x7f0>
    1c24:	e5ddc007 	ldrb	ip, [sp, #7]
    1c28:	e2800001 	add	r0, r0, #1
    1c2c:	e3a01034 	mov	r1, #52	; 0x34
    1c30:	e3a02044 	mov	r2, #68	; 0x44
    1c34:	e1a03005 	mov	r3, r5
    1c38:	e18cc000 	orr	ip, ip, r0
    1c3c:	e5cdc007 	strb	ip, [sp, #7]
    1c40:	ebfffb07 	bl	864 <twi_byte_rw>
    1c44:	e3500000 	cmp	r0, #0
    1c48:	1a0000f6 	bne	2028 <mem_power_init+0x7f0>
    1c4c:	e3a01034 	mov	r1, #52	; 0x34
    1c50:	e3a02090 	mov	r2, #144	; 0x90
    1c54:	e1a03005 	mov	r3, r5
    1c58:	ebfffb01 	bl	864 <twi_byte_rw>
    1c5c:	e3500000 	cmp	r0, #0
    1c60:	1a0000f0 	bne	2028 <mem_power_init+0x7f0>
    1c64:	e5ddc007 	ldrb	ip, [sp, #7]
    1c68:	e1a03005 	mov	r3, r5
    1c6c:	e2800001 	add	r0, r0, #1
    1c70:	e3a01034 	mov	r1, #52	; 0x34
    1c74:	e3ccc007 	bic	ip, ip, #7
    1c78:	e3a02090 	mov	r2, #144	; 0x90
    1c7c:	e1e0c00c 	mvn	ip, ip
    1c80:	e20cc07d 	and	ip, ip, #125	; 0x7d
    1c84:	e1e0c00c 	mvn	ip, ip
    1c88:	e5cdc007 	strb	ip, [sp, #7]
    1c8c:	ebfffaf4 	bl	864 <twi_byte_rw>
    1c90:	e3500000 	cmp	r0, #0
    1c94:	1a0000e3 	bne	2028 <mem_power_init+0x7f0>
    1c98:	e3140b01 	tst	r4, #1024	; 0x400
    1c9c:	0a000022 	beq	1d2c <mem_power_init+0x4f4>
    1ca0:	e28d5007 	add	r5, sp, #7
    1ca4:	e3a00000 	mov	r0, #0
    1ca8:	e3a01034 	mov	r1, #52	; 0x34
    1cac:	e3a02044 	mov	r2, #68	; 0x44
    1cb0:	e1a03005 	mov	r3, r5
    1cb4:	ebfffaea 	bl	864 <twi_byte_rw>
    1cb8:	e3500000 	cmp	r0, #0
    1cbc:	1a0000d9 	bne	2028 <mem_power_init+0x7f0>
    1cc0:	e5ddc007 	ldrb	ip, [sp, #7]
    1cc4:	e2800001 	add	r0, r0, #1
    1cc8:	e3a01034 	mov	r1, #52	; 0x34
    1ccc:	e3a02044 	mov	r2, #68	; 0x44
    1cd0:	e1a03005 	mov	r3, r5
    1cd4:	e38cc002 	orr	ip, ip, #2
    1cd8:	e5cdc007 	strb	ip, [sp, #7]
    1cdc:	ebfffae0 	bl	864 <twi_byte_rw>
    1ce0:	e3500000 	cmp	r0, #0
    1ce4:	1a0000cf 	bne	2028 <mem_power_init+0x7f0>
    1ce8:	e3a01034 	mov	r1, #52	; 0x34
    1cec:	e3a02092 	mov	r2, #146	; 0x92
    1cf0:	e1a03005 	mov	r3, r5
    1cf4:	ebfffada 	bl	864 <twi_byte_rw>
    1cf8:	e3500000 	cmp	r0, #0
    1cfc:	1a0000c9 	bne	2028 <mem_power_init+0x7f0>
    1d00:	e5ddc007 	ldrb	ip, [sp, #7]
    1d04:	e1a03005 	mov	r3, r5
    1d08:	e2800001 	add	r0, r0, #1
    1d0c:	e3a01034 	mov	r1, #52	; 0x34
    1d10:	e3ccc007 	bic	ip, ip, #7
    1d14:	e3a02092 	mov	r2, #146	; 0x92
    1d18:	e38cc042 	orr	ip, ip, #66	; 0x42
    1d1c:	e5cdc007 	strb	ip, [sp, #7]
    1d20:	ebfffacf 	bl	864 <twi_byte_rw>
    1d24:	e3500000 	cmp	r0, #0
    1d28:	1a0000be 	bne	2028 <mem_power_init+0x7f0>
    1d2c:	e3140b02 	tst	r4, #2048	; 0x800
    1d30:	0a000024 	beq	1dc8 <mem_power_init+0x590>
    1d34:	e28d5007 	add	r5, sp, #7
    1d38:	e3a00000 	mov	r0, #0
    1d3c:	e3a01034 	mov	r1, #52	; 0x34
    1d40:	e3a02044 	mov	r2, #68	; 0x44
    1d44:	e1a03005 	mov	r3, r5
    1d48:	ebfffac5 	bl	864 <twi_byte_rw>
    1d4c:	e3500000 	cmp	r0, #0
    1d50:	1a0000b4 	bne	2028 <mem_power_init+0x7f0>
    1d54:	e5ddc007 	ldrb	ip, [sp, #7]
    1d58:	e2800001 	add	r0, r0, #1
    1d5c:	e3a01034 	mov	r1, #52	; 0x34
    1d60:	e3a02044 	mov	r2, #68	; 0x44
    1d64:	e1a03005 	mov	r3, r5
    1d68:	e38cc002 	orr	ip, ip, #2
    1d6c:	e5cdc007 	strb	ip, [sp, #7]
    1d70:	ebfffabb 	bl	864 <twi_byte_rw>
    1d74:	e3500000 	cmp	r0, #0
    1d78:	1a0000aa 	bne	2028 <mem_power_init+0x7f0>
    1d7c:	e3a01034 	mov	r1, #52	; 0x34
    1d80:	e3a02092 	mov	r2, #146	; 0x92
    1d84:	e1a03005 	mov	r3, r5
    1d88:	ebfffab5 	bl	864 <twi_byte_rw>
    1d8c:	e3500000 	cmp	r0, #0
    1d90:	1a0000a4 	bne	2028 <mem_power_init+0x7f0>
    1d94:	e5ddc007 	ldrb	ip, [sp, #7]
    1d98:	e1a03005 	mov	r3, r5
    1d9c:	e2800001 	add	r0, r0, #1
    1da0:	e3a01034 	mov	r1, #52	; 0x34
    1da4:	e3ccc007 	bic	ip, ip, #7
    1da8:	e3a02092 	mov	r2, #146	; 0x92
    1dac:	e1e0c00c 	mvn	ip, ip
    1db0:	e20cc07d 	and	ip, ip, #125	; 0x7d
    1db4:	e1e0c00c 	mvn	ip, ip
    1db8:	e5cdc007 	strb	ip, [sp, #7]
    1dbc:	ebfffaa8 	bl	864 <twi_byte_rw>
    1dc0:	e3500000 	cmp	r0, #0
    1dc4:	1a000097 	bne	2028 <mem_power_init+0x7f0>
    1dc8:	e3140a01 	tst	r4, #4096	; 0x1000
    1dcc:	0a000022 	beq	1e5c <mem_power_init+0x624>
    1dd0:	e28d5007 	add	r5, sp, #7
    1dd4:	e3a00000 	mov	r0, #0
    1dd8:	e3a01034 	mov	r1, #52	; 0x34
    1ddc:	e3a02044 	mov	r2, #68	; 0x44
    1de0:	e1a03005 	mov	r3, r5
    1de4:	ebfffa9e 	bl	864 <twi_byte_rw>
    1de8:	e3500000 	cmp	r0, #0
    1dec:	1a00008d 	bne	2028 <mem_power_init+0x7f0>
    1df0:	e5ddc007 	ldrb	ip, [sp, #7]
    1df4:	e2800001 	add	r0, r0, #1
    1df8:	e3a01034 	mov	r1, #52	; 0x34
    1dfc:	e3a02044 	mov	r2, #68	; 0x44
    1e00:	e1a03005 	mov	r3, r5
    1e04:	e38cc004 	orr	ip, ip, #4
    1e08:	e5cdc007 	strb	ip, [sp, #7]
    1e0c:	ebfffa94 	bl	864 <twi_byte_rw>
    1e10:	e3500000 	cmp	r0, #0
    1e14:	1a000083 	bne	2028 <mem_power_init+0x7f0>
    1e18:	e3a01034 	mov	r1, #52	; 0x34
    1e1c:	e3a02093 	mov	r2, #147	; 0x93
    1e20:	e1a03005 	mov	r3, r5
    1e24:	ebfffa8e 	bl	864 <twi_byte_rw>
    1e28:	e3500000 	cmp	r0, #0
    1e2c:	1a00007d 	bne	2028 <mem_power_init+0x7f0>
    1e30:	e5ddc007 	ldrb	ip, [sp, #7]
    1e34:	e1a03005 	mov	r3, r5
    1e38:	e2800001 	add	r0, r0, #1
    1e3c:	e3a01034 	mov	r1, #52	; 0x34
    1e40:	e3ccc007 	bic	ip, ip, #7
    1e44:	e3a02093 	mov	r2, #147	; 0x93
    1e48:	e38cc042 	orr	ip, ip, #66	; 0x42
    1e4c:	e5cdc007 	strb	ip, [sp, #7]
    1e50:	ebfffa83 	bl	864 <twi_byte_rw>
    1e54:	e3500000 	cmp	r0, #0
    1e58:	1a000072 	bne	2028 <mem_power_init+0x7f0>
    1e5c:	e3140a02 	tst	r4, #8192	; 0x2000
    1e60:	0a000024 	beq	1ef8 <mem_power_init+0x6c0>
    1e64:	e28d5007 	add	r5, sp, #7
    1e68:	e3a00000 	mov	r0, #0
    1e6c:	e3a01034 	mov	r1, #52	; 0x34
    1e70:	e3a02044 	mov	r2, #68	; 0x44
    1e74:	e1a03005 	mov	r3, r5
    1e78:	ebfffa79 	bl	864 <twi_byte_rw>
    1e7c:	e3500000 	cmp	r0, #0
    1e80:	1a000068 	bne	2028 <mem_power_init+0x7f0>
    1e84:	e5ddc007 	ldrb	ip, [sp, #7]
    1e88:	e2800001 	add	r0, r0, #1
    1e8c:	e3a01034 	mov	r1, #52	; 0x34
    1e90:	e3a02044 	mov	r2, #68	; 0x44
    1e94:	e1a03005 	mov	r3, r5
    1e98:	e38cc004 	orr	ip, ip, #4
    1e9c:	e5cdc007 	strb	ip, [sp, #7]
    1ea0:	ebfffa6f 	bl	864 <twi_byte_rw>
    1ea4:	e3500000 	cmp	r0, #0
    1ea8:	1a00005e 	bne	2028 <mem_power_init+0x7f0>
    1eac:	e3a01034 	mov	r1, #52	; 0x34
    1eb0:	e3a02093 	mov	r2, #147	; 0x93
    1eb4:	e1a03005 	mov	r3, r5
    1eb8:	ebfffa69 	bl	864 <twi_byte_rw>
    1ebc:	e3500000 	cmp	r0, #0
    1ec0:	1a000058 	bne	2028 <mem_power_init+0x7f0>
    1ec4:	e5ddc007 	ldrb	ip, [sp, #7]
    1ec8:	e1a03005 	mov	r3, r5
    1ecc:	e2800001 	add	r0, r0, #1
    1ed0:	e3a01034 	mov	r1, #52	; 0x34
    1ed4:	e3ccc007 	bic	ip, ip, #7
    1ed8:	e3a02093 	mov	r2, #147	; 0x93
    1edc:	e1e0c00c 	mvn	ip, ip
    1ee0:	e20cc07d 	and	ip, ip, #125	; 0x7d
    1ee4:	e1e0c00c 	mvn	ip, ip
    1ee8:	e5cdc007 	strb	ip, [sp, #7]
    1eec:	ebfffa5c 	bl	864 <twi_byte_rw>
    1ef0:	e3500000 	cmp	r0, #0
    1ef4:	1a00004b 	bne	2028 <mem_power_init+0x7f0>
    1ef8:	e3140901 	tst	r4, #16384	; 0x4000
    1efc:	0a000022 	beq	1f8c <mem_power_init+0x754>
    1f00:	e28d5007 	add	r5, sp, #7
    1f04:	e3a00000 	mov	r0, #0
    1f08:	e3a01034 	mov	r1, #52	; 0x34
    1f0c:	e3a02044 	mov	r2, #68	; 0x44
    1f10:	e1a03005 	mov	r3, r5
    1f14:	ebfffa52 	bl	864 <twi_byte_rw>
    1f18:	e3500000 	cmp	r0, #0
    1f1c:	1a000041 	bne	2028 <mem_power_init+0x7f0>
    1f20:	e5ddc007 	ldrb	ip, [sp, #7]
    1f24:	e2800001 	add	r0, r0, #1
    1f28:	e3a01034 	mov	r1, #52	; 0x34
    1f2c:	e3a02044 	mov	r2, #68	; 0x44
    1f30:	e1a03005 	mov	r3, r5
    1f34:	e38cc008 	orr	ip, ip, #8
    1f38:	e5cdc007 	strb	ip, [sp, #7]
    1f3c:	ebfffa48 	bl	864 <twi_byte_rw>
    1f40:	e3500000 	cmp	r0, #0
    1f44:	1a000037 	bne	2028 <mem_power_init+0x7f0>
    1f48:	e3a01034 	mov	r1, #52	; 0x34
    1f4c:	e3a02095 	mov	r2, #149	; 0x95
    1f50:	e1a03005 	mov	r3, r5
    1f54:	ebfffa42 	bl	864 <twi_byte_rw>
    1f58:	e3500000 	cmp	r0, #0
    1f5c:	1a000031 	bne	2028 <mem_power_init+0x7f0>
    1f60:	e5ddc007 	ldrb	ip, [sp, #7]
    1f64:	e1a03005 	mov	r3, r5
    1f68:	e2800001 	add	r0, r0, #1
    1f6c:	e3a01034 	mov	r1, #52	; 0x34
    1f70:	e3ccc007 	bic	ip, ip, #7
    1f74:	e3a02095 	mov	r2, #149	; 0x95
    1f78:	e38cc042 	orr	ip, ip, #66	; 0x42
    1f7c:	e5cdc007 	strb	ip, [sp, #7]
    1f80:	ebfffa37 	bl	864 <twi_byte_rw>
    1f84:	e3500000 	cmp	r0, #0
    1f88:	1a000026 	bne	2028 <mem_power_init+0x7f0>
    1f8c:	e3140902 	tst	r4, #32768	; 0x8000
    1f90:	0a000026 	beq	2030 <mem_power_init+0x7f8>
    1f94:	e28d4007 	add	r4, sp, #7
    1f98:	e3a00000 	mov	r0, #0
    1f9c:	e3a01034 	mov	r1, #52	; 0x34
    1fa0:	e3a02044 	mov	r2, #68	; 0x44
    1fa4:	e1a03004 	mov	r3, r4
    1fa8:	ebfffa2d 	bl	864 <twi_byte_rw>
    1fac:	e3500000 	cmp	r0, #0
    1fb0:	1a00001c 	bne	2028 <mem_power_init+0x7f0>
    1fb4:	e5ddc007 	ldrb	ip, [sp, #7]
    1fb8:	e2800001 	add	r0, r0, #1
    1fbc:	e3a01034 	mov	r1, #52	; 0x34
    1fc0:	e3a02044 	mov	r2, #68	; 0x44
    1fc4:	e1a03004 	mov	r3, r4
    1fc8:	e38cc008 	orr	ip, ip, #8
    1fcc:	e5cdc007 	strb	ip, [sp, #7]
    1fd0:	ebfffa23 	bl	864 <twi_byte_rw>
    1fd4:	e3500000 	cmp	r0, #0
    1fd8:	1a000012 	bne	2028 <mem_power_init+0x7f0>
    1fdc:	e3a01034 	mov	r1, #52	; 0x34
    1fe0:	e3a02095 	mov	r2, #149	; 0x95
    1fe4:	e1a03004 	mov	r3, r4
    1fe8:	ebfffa1d 	bl	864 <twi_byte_rw>
    1fec:	e3500000 	cmp	r0, #0
    1ff0:	1a00000c 	bne	2028 <mem_power_init+0x7f0>
    1ff4:	e5ddc007 	ldrb	ip, [sp, #7]
    1ff8:	e1a03004 	mov	r3, r4
    1ffc:	e2800001 	add	r0, r0, #1
    2000:	e3a01034 	mov	r1, #52	; 0x34
    2004:	e3ccc007 	bic	ip, ip, #7
    2008:	e3a02095 	mov	r2, #149	; 0x95
    200c:	e1e0c00c 	mvn	ip, ip
    2010:	e20cc07d 	and	ip, ip, #125	; 0x7d
    2014:	e1e0c00c 	mvn	ip, ip
    2018:	e5cdc007 	strb	ip, [sp, #7]
    201c:	ebfffa10 	bl	864 <twi_byte_rw>
    2020:	e3500000 	cmp	r0, #0
    2024:	0a000001 	beq	2030 <mem_power_init+0x7f8>
    2028:	e3e00000 	mvn	r0, #0
    202c:	ea000000 	b	2034 <mem_power_init+0x7fc>
    2030:	e3a00000 	mov	r0, #0
    2034:	e8bd803e 	pop	{r1, r2, r3, r4, r5, pc}

00002038 <mem_int_init>:
    2038:	e59f308c 	ldr	r3, [pc, #140]	; 20cc <mem_int_init+0x94>
    203c:	e3a01000 	mov	r1, #0
    2040:	e59f2088 	ldr	r2, [pc, #136]	; 20d0 <mem_int_init+0x98>
    2044:	e3e0c000 	mvn	ip, #0
    2048:	e92d4ff0 	push	{r4, r5, r6, r7, r8, r9, sl, fp, lr}
    204c:	e593a040 	ldr	sl, [r3, #64]	; 0x40
    2050:	e5938044 	ldr	r8, [r3, #68]	; 0x44
    2054:	e1a00001 	mov	r0, r1
    2058:	e5936048 	ldr	r6, [r3, #72]	; 0x48
    205c:	e5935050 	ldr	r5, [r3, #80]	; 0x50
    2060:	e5934054 	ldr	r4, [r3, #84]	; 0x54
    2064:	e5939058 	ldr	r9, [r3, #88]	; 0x58
    2068:	e593b030 	ldr	fp, [r3, #48]	; 0x30
    206c:	e5937034 	ldr	r7, [r3, #52]	; 0x34
    2070:	e5823000 	str	r3, [r2]
    2074:	e5827020 	str	r7, [r2, #32]
    2078:	e5937038 	ldr	r7, [r3, #56]	; 0x38
    207c:	e582a004 	str	sl, [r2, #4]
    2080:	e5828008 	str	r8, [r2, #8]
    2084:	e5827024 	str	r7, [r2, #36]	; 0x24
    2088:	e582600c 	str	r6, [r2, #12]
    208c:	e5825010 	str	r5, [r2, #16]
    2090:	e5824014 	str	r4, [r2, #20]
    2094:	e5829018 	str	r9, [r2, #24]
    2098:	e582b01c 	str	fp, [r2, #28]
    209c:	e3a02001 	mov	r2, #1
    20a0:	e5831040 	str	r1, [r3, #64]	; 0x40
    20a4:	e5831044 	str	r1, [r3, #68]	; 0x44
    20a8:	e5831048 	str	r1, [r3, #72]	; 0x48
    20ac:	e583c050 	str	ip, [r3, #80]	; 0x50
    20b0:	e583c054 	str	ip, [r3, #84]	; 0x54
    20b4:	e583c058 	str	ip, [r3, #88]	; 0x58
    20b8:	e5831030 	str	r1, [r3, #48]	; 0x30
    20bc:	e5831034 	str	r1, [r3, #52]	; 0x34
    20c0:	e5831038 	str	r1, [r3, #56]	; 0x38
    20c4:	e5832010 	str	r2, [r3, #16]
    20c8:	e8bd8ff0 	pop	{r4, r5, r6, r7, r8, r9, sl, fp, pc}
    20cc:	f1c20400 	undefined instruction 0xf1c20400
    20d0:	000042a0 	andeq	r4, r0, r0, lsr #5

000020d4 <mem_int_exit>:
    20d4:	e59f3050 	ldr	r3, [pc, #80]	; 212c <mem_int_exit+0x58>
    20d8:	e3a00000 	mov	r0, #0
    20dc:	e5931004 	ldr	r1, [r3, #4]
    20e0:	e5932000 	ldr	r2, [r3]
    20e4:	e5821040 	str	r1, [r2, #64]	; 0x40
    20e8:	e5931008 	ldr	r1, [r3, #8]
    20ec:	e5821044 	str	r1, [r2, #68]	; 0x44
    20f0:	e593100c 	ldr	r1, [r3, #12]
    20f4:	e5821048 	str	r1, [r2, #72]	; 0x48
    20f8:	e5931010 	ldr	r1, [r3, #16]
    20fc:	e5821050 	str	r1, [r2, #80]	; 0x50
    2100:	e5931014 	ldr	r1, [r3, #20]
    2104:	e5821054 	str	r1, [r2, #84]	; 0x54
    2108:	e5931018 	ldr	r1, [r3, #24]
    210c:	e5821058 	str	r1, [r2, #88]	; 0x58
    2110:	e593101c 	ldr	r1, [r3, #28]
    2114:	e5821030 	str	r1, [r2, #48]	; 0x30
    2118:	e5931020 	ldr	r1, [r3, #32]
    211c:	e5821034 	str	r1, [r2, #52]	; 0x34
    2120:	e5933024 	ldr	r3, [r3, #36]	; 0x24
    2124:	e5823038 	str	r3, [r2, #56]	; 0x38
    2128:	e12fff1e 	bx	lr
    212c:	000042a0 	andeq	r4, r0, r0, lsr #5

00002130 <mem_enable_int>:
    2130:	e59f303c 	ldr	r3, [pc, #60]	; 2174 <mem_enable_int+0x44>
    2134:	e1a022a0 	lsr	r2, r0, #5
    2138:	e282c010 	add	ip, r2, #16
    213c:	e200101f 	and	r1, r0, #31
    2140:	e92d4010 	push	{r4, lr}
    2144:	e5933000 	ldr	r3, [r3]
    2148:	e3a04001 	mov	r4, #1
    214c:	e2822014 	add	r2, r2, #20
    2150:	e3a00000 	mov	r0, #0
    2154:	e1a01114 	lsl	r1, r4, r1
    2158:	e793410c 	ldr	r4, [r3, ip, lsl #2]
    215c:	e1814004 	orr	r4, r1, r4
    2160:	e783410c 	str	r4, [r3, ip, lsl #2]
    2164:	e793c102 	ldr	ip, [r3, r2, lsl #2]
    2168:	e1cc1001 	bic	r1, ip, r1
    216c:	e7831102 	str	r1, [r3, r2, lsl #2]
    2170:	e8bd8010 	pop	{r4, pc}
    2174:	000042a0 	andeq	r4, r0, r0, lsr #5

00002178 <mem_query_int>:
    2178:	e59f3024 	ldr	r3, [pc, #36]	; 21a4 <mem_query_int+0x2c>
    217c:	e200201f 	and	r2, r0, #31
    2180:	e1a002a0 	lsr	r0, r0, #5
    2184:	e3a01001 	mov	r1, #1
    2188:	e2800004 	add	r0, r0, #4
    218c:	e5933000 	ldr	r3, [r3]
    2190:	e7933100 	ldr	r3, [r3, r0, lsl #2]
    2194:	e0131211 	ands	r1, r3, r1, lsl r2
    2198:	03e00000 	mvneq	r0, #0
    219c:	13a00000 	movne	r0, #0
    21a0:	e12fff1e 	bx	lr
    21a4:	000042a0 	andeq	r4, r0, r0, lsr #5

000021a8 <mem_tmr_init>:
    21a8:	e59f2008 	ldr	r2, [pc, #8]	; 21b8 <mem_tmr_init+0x10>
    21ac:	e59f3008 	ldr	r3, [pc, #8]	; 21bc <mem_tmr_init+0x14>
    21b0:	e5832000 	str	r2, [r3]
    21b4:	e12fff1e 	bx	lr
    21b8:	f1c20c00 	undefined instruction 0xf1c20c00
    21bc:	000042c8 	andeq	r4, r0, r8, asr #5

000021c0 <mem_tmr_disable_watchdog>:
    21c0:	e59f301c 	ldr	r3, [pc, #28]	; 21e4 <mem_tmr_disable_watchdog+0x24>
    21c4:	e5933000 	ldr	r3, [r3]
    21c8:	e5932094 	ldr	r2, [r3, #148]	; 0x94
    21cc:	e3c22002 	bic	r2, r2, #2
    21d0:	e5832094 	str	r2, [r3, #148]	; 0x94
    21d4:	e5932094 	ldr	r2, [r3, #148]	; 0x94
    21d8:	e3c22001 	bic	r2, r2, #1
    21dc:	e5832094 	str	r2, [r3, #148]	; 0x94
    21e0:	e12fff1e 	bx	lr
    21e4:	000042c8 	andeq	r4, r0, r8, asr #5

000021e8 <DRAMC_hostport_on_off>:
    21e8:	e350001f 	cmp	r0, #31
    21ec:	812fff1e 	bxhi	lr
    21f0:	e59f3014 	ldr	r3, [pc, #20]	; 220c <DRAMC_hostport_on_off+0x24>
    21f4:	e3510000 	cmp	r1, #0
    21f8:	e7932100 	ldr	r2, [r3, r0, lsl #2]
    21fc:	13822001 	orrne	r2, r2, #1
    2200:	03c22001 	biceq	r2, r2, #1
    2204:	e7832100 	str	r2, [r3, r0, lsl #2]
    2208:	e12fff1e 	bx	lr
    220c:	f1c01250 	undefined instruction 0xf1c01250

00002210 <DRAMC_hostport_check_ahb_fifo_status>:
    2210:	e350001f 	cmp	r0, #31
    2214:	83a00000 	movhi	r0, #0
    2218:	959f300c 	ldrls	r3, [pc, #12]	; 222c <DRAMC_hostport_check_ahb_fifo_status+0x1c>
    221c:	95933234 	ldrls	r3, [r3, #564]	; 0x234
    2220:	91a00033 	lsrls	r0, r3, r0
    2224:	92000001 	andls	r0, r0, #1
    2228:	e12fff1e 	bx	lr
    222c:	f1c01000 	undefined instruction 0xf1c01000

00002230 <DRAMC_hostport_setup>:
    2230:	e350001f 	cmp	r0, #31
    2234:	e92d4010 	push	{r4, lr}
    2238:	88bd8010 	pophi	{r4, pc}
    223c:	e59fc030 	ldr	ip, [pc, #48]	; 2274 <DRAMC_hostport_setup+0x44>
    2240:	e1a02202 	lsl	r2, r2, #4
    2244:	e20240ff 	and	r4, r2, #255	; 0xff
    2248:	e2011003 	and	r1, r1, #3
    224c:	e2033003 	and	r3, r3, #3
    2250:	e79c2100 	ldr	r2, [ip, r0, lsl #2]
    2254:	e3c2200c 	bic	r2, r2, #12
    2258:	e1822101 	orr	r2, r2, r1, lsl #2
    225c:	e3c220f0 	bic	r2, r2, #240	; 0xf0
    2260:	e1822004 	orr	r2, r2, r4
    2264:	e3c22cff 	bic	r2, r2, #65280	; 0xff00
    2268:	e1823403 	orr	r3, r2, r3, lsl #8
    226c:	e78c3100 	str	r3, [ip, r0, lsl #2]
    2270:	e8bd8010 	pop	{r4, pc}
    2274:	f1c01250 	undefined instruction 0xf1c01250

00002278 <dram_hostport_on_off>:
    2278:	e350001f 	cmp	r0, #31
    227c:	812fff1e 	bxhi	lr
    2280:	e59f3014 	ldr	r3, [pc, #20]	; 229c <dram_hostport_on_off+0x24>
    2284:	e3510000 	cmp	r1, #0
    2288:	e7932100 	ldr	r2, [r3, r0, lsl #2]
    228c:	13822001 	orrne	r2, r2, #1
    2290:	03c22001 	biceq	r2, r2, #1
    2294:	e7832100 	str	r2, [r3, r0, lsl #2]
    2298:	e12fff1e 	bx	lr
    229c:	f1c01250 	undefined instruction 0xf1c01250

000022a0 <dram_hostport_check_ahb_fifo_status>:
    22a0:	e350001f 	cmp	r0, #31
    22a4:	83a00000 	movhi	r0, #0
    22a8:	959f300c 	ldrls	r3, [pc, #12]	; 22bc <dram_hostport_check_ahb_fifo_status+0x1c>
    22ac:	95933234 	ldrls	r3, [r3, #564]	; 0x234
    22b0:	91a00033 	lsrls	r0, r3, r0
    22b4:	92000001 	andls	r0, r0, #1
    22b8:	e12fff1e 	bx	lr
    22bc:	f1c01000 	undefined instruction 0xf1c01000

000022c0 <dram_hostport_setup>:
    22c0:	eaffffda 	b	2230 <DRAMC_hostport_setup>

000022c4 <mctl_ahb_reset>:
    22c4:	e92d4010 	push	{r4, lr}
    22c8:	e59f4020 	ldr	r4, [pc, #32]	; 22f0 <mctl_ahb_reset+0x2c>
    22cc:	e3a00010 	mov	r0, #16
    22d0:	e5943060 	ldr	r3, [r4, #96]	; 0x60
    22d4:	e3c33903 	bic	r3, r3, #49152	; 0xc000
    22d8:	e5843060 	str	r3, [r4, #96]	; 0x60
    22dc:	ebfffaf2 	bl	eac <mem_delay>
    22e0:	e5943060 	ldr	r3, [r4, #96]	; 0x60
    22e4:	e3833903 	orr	r3, r3, #49152	; 0xc000
    22e8:	e5843060 	str	r3, [r4, #96]	; 0x60
    22ec:	e8bd8010 	pop	{r4, pc}
    22f0:	f1c20000 	undefined instruction 0xf1c20000

000022f4 <DRAMC_enter_power_down>:
    22f4:	e59f3024 	ldr	r3, [pc, #36]	; 2320 <DRAMC_enter_power_down+0x2c>
    22f8:	e1a01003 	mov	r1, r3
    22fc:	e5932004 	ldr	r2, [r3, #4]
    2300:	e3c2233e 	bic	r2, r2, #-134217728	; 0xf8000000
    2304:	e382220f 	orr	r2, r2, #-268435456	; 0xf0000000
    2308:	e5832004 	str	r2, [r3, #4]
    230c:	e5913004 	ldr	r3, [r1, #4]
    2310:	e3530000 	cmp	r3, #0
    2314:	bafffffc 	blt	230c <DRAMC_enter_power_down+0x18>
    2318:	e3a00c01 	mov	r0, #256	; 0x100
    231c:	eafffae2 	b	eac <mem_delay>
    2320:	f1c01000 	undefined instruction 0xf1c01000

00002324 <dram_enter_power_down>:
    2324:	eafffff2 	b	22f4 <DRAMC_enter_power_down>

00002328 <mctl_mode_exit>:
    2328:	e59f3024 	ldr	r3, [pc, #36]	; 2354 <mctl_mode_exit+0x2c>
    232c:	e1a01003 	mov	r1, r3
    2330:	e5932004 	ldr	r2, [r3, #4]
    2334:	e3c2233e 	bic	r2, r2, #-134217728	; 0xf8000000
    2338:	e382232e 	orr	r2, r2, #-1207959552	; 0xb8000000
    233c:	e5832004 	str	r2, [r3, #4]
    2340:	e5913004 	ldr	r3, [r1, #4]
    2344:	e3530000 	cmp	r3, #0
    2348:	bafffffc 	blt	2340 <mctl_mode_exit+0x18>
    234c:	e3a00c01 	mov	r0, #256	; 0x100
    2350:	eafffad5 	b	eac <mem_delay>
    2354:	f1c01000 	undefined instruction 0xf1c01000

00002358 <DRAMC_exit_power_down>:
    2358:	eafffff2 	b	2328 <mctl_mode_exit>

0000235c <dram_exit_power_down>:
    235c:	eafffff1 	b	2328 <mctl_mode_exit>

00002360 <DRAMC_exit_selfrefresh>:
    2360:	e92d4010 	push	{r4, lr}
    2364:	ebffffef 	bl	2328 <mctl_mode_exit>
    2368:	e59f3060 	ldr	r3, [pc, #96]	; 23d0 <DRAMC_exit_selfrefresh+0x70>
    236c:	e1a01003 	mov	r1, r3
    2370:	e5932004 	ldr	r2, [r3, #4]
    2374:	e3c2233e 	bic	r2, r2, #-134217728	; 0xf8000000
    2378:	e3822326 	orr	r2, r2, #-1744830464	; 0x98000000
    237c:	e5832004 	str	r2, [r3, #4]
    2380:	e5913004 	ldr	r3, [r1, #4]
    2384:	e59f4044 	ldr	r4, [pc, #68]	; 23d0 <DRAMC_exit_selfrefresh+0x70>
    2388:	e3530000 	cmp	r3, #0
    238c:	bafffffb 	blt	2380 <DRAMC_exit_selfrefresh+0x20>
    2390:	e3a00c01 	mov	r0, #256	; 0x100
    2394:	ebfffac4 	bl	eac <mem_delay>
    2398:	e5942010 	ldr	r2, [r4, #16]
    239c:	e3a03000 	mov	r3, #0
    23a0:	e3c22102 	bic	r2, r2, #-2147483648	; 0x80000000
    23a4:	e5842010 	str	r2, [r4, #16]
    23a8:	e59f2024 	ldr	r2, [pc, #36]	; 23d4 <DRAMC_exit_selfrefresh+0x74>
    23ac:	e1a01103 	lsl	r1, r3, #2
    23b0:	e2833001 	add	r3, r3, #1
    23b4:	e0812002 	add	r2, r1, r2
    23b8:	e353001f 	cmp	r3, #31
    23bc:	e5921000 	ldr	r1, [r2]
    23c0:	e3811001 	orr	r1, r1, #1
    23c4:	e5821000 	str	r1, [r2]
    23c8:	1afffff6 	bne	23a8 <DRAMC_exit_selfrefresh+0x48>
    23cc:	e8bd8010 	pop	{r4, pc}
    23d0:	f1c01000 	undefined instruction 0xf1c01000
    23d4:	f1c01250 	undefined instruction 0xf1c01250

000023d8 <dram_exit_selfrefresh>:
    23d8:	eaffffe0 	b	2360 <DRAMC_exit_selfrefresh>

000023dc <mctl_precharge_all>:
    23dc:	e59f3024 	ldr	r3, [pc, #36]	; 2408 <mctl_precharge_all+0x2c>
    23e0:	e1a01003 	mov	r1, r3
    23e4:	e5932004 	ldr	r2, [r3, #4]
    23e8:	e3c2233e 	bic	r2, r2, #-134217728	; 0xf8000000
    23ec:	e382232a 	orr	r2, r2, #-1476395008	; 0xa8000000
    23f0:	e5832004 	str	r2, [r3, #4]
    23f4:	e5913004 	ldr	r3, [r1, #4]
    23f8:	e3530000 	cmp	r3, #0
    23fc:	bafffffc 	blt	23f4 <mctl_precharge_all+0x18>
    2400:	e3a00c01 	mov	r0, #256	; 0x100
    2404:	eafffaa8 	b	eac <mem_delay>
    2408:	f1c01000 	undefined instruction 0xf1c01000

0000240c <DRAMC_enter_selfrefresh>:
    240c:	e3a03000 	mov	r3, #0
    2410:	e92d4010 	push	{r4, lr}
    2414:	e59f205c 	ldr	r2, [pc, #92]	; 2478 <DRAMC_enter_selfrefresh+0x6c>
    2418:	e1a01103 	lsl	r1, r3, #2
    241c:	e2833001 	add	r3, r3, #1
    2420:	e0812002 	add	r2, r1, r2
    2424:	e353001f 	cmp	r3, #31
    2428:	e5921000 	ldr	r1, [r2]
    242c:	e3c11001 	bic	r1, r1, #1
    2430:	e5821000 	str	r1, [r2]
    2434:	1afffff6 	bne	2414 <DRAMC_enter_selfrefresh+0x8>
    2438:	ebffffe7 	bl	23dc <mctl_precharge_all>
    243c:	e59f3038 	ldr	r3, [pc, #56]	; 247c <DRAMC_enter_selfrefresh+0x70>
    2440:	e1a01003 	mov	r1, r3
    2444:	e5932004 	ldr	r2, [r3, #4]
    2448:	e3c2233e 	bic	r2, r2, #-134217728	; 0xf8000000
    244c:	e3822209 	orr	r2, r2, #-1879048192	; 0x90000000
    2450:	e5832004 	str	r2, [r3, #4]
    2454:	e5913004 	ldr	r3, [r1, #4]
    2458:	e3530000 	cmp	r3, #0
    245c:	bafffffc 	blt	2454 <DRAMC_enter_selfrefresh+0x48>
    2460:	e3a00c01 	mov	r0, #256	; 0x100
    2464:	ebfffa90 	bl	eac <mem_delay>
    2468:	e59f300c 	ldr	r3, [pc, #12]	; 247c <DRAMC_enter_selfrefresh+0x70>
    246c:	e3a02001 	mov	r2, #1
    2470:	e583223c 	str	r2, [r3, #572]	; 0x23c
    2474:	e8bd8010 	pop	{r4, pc}
    2478:	f1c01250 	undefined instruction 0xf1c01250
    247c:	f1c01000 	undefined instruction 0xf1c01000

00002480 <dram_enter_selfrefresh>:
    2480:	eaffffe1 	b	240c <DRAMC_enter_selfrefresh>

00002484 <dram_power_save_process>:
    2484:	e92d40f7 	push	{r0, r1, r2, r4, r5, r6, r7, lr}
    2488:	e59f70ac 	ldr	r7, [pc, #172]	; 253c <dram_power_save_process+0xb8>
    248c:	e3a05005 	mov	r5, #5
    2490:	e28d6007 	add	r6, sp, #7
    2494:	e59740b0 	ldr	r4, [r7, #176]	; 0xb0
    2498:	e3a01034 	mov	r1, #52	; 0x34
    249c:	e3a0200a 	mov	r2, #10
    24a0:	e1a03006 	mov	r3, r6
    24a4:	e3c444ff 	bic	r4, r4, #-16777216	; 0xff000000
    24a8:	e3a00001 	mov	r0, #1
    24ac:	e3c4460f 	bic	r4, r4, #15728640	; 0xf00000
    24b0:	e5cd4007 	strb	r4, [sp, #7]
    24b4:	ebfff8ea 	bl	864 <twi_byte_rw>
    24b8:	e3500000 	cmp	r0, #0
    24bc:	1a000011 	bne	2508 <dram_power_save_process+0x84>
    24c0:	e3a01034 	mov	r1, #52	; 0x34
    24c4:	e3a0200b 	mov	r2, #11
    24c8:	e1a03006 	mov	r3, r6
    24cc:	e2800001 	add	r0, r0, #1
    24d0:	e1a0c424 	lsr	ip, r4, #8
    24d4:	e5cdc007 	strb	ip, [sp, #7]
    24d8:	ebfff8e1 	bl	864 <twi_byte_rw>
    24dc:	e3500000 	cmp	r0, #0
    24e0:	1a000008 	bne	2508 <dram_power_save_process+0x84>
    24e4:	e2800001 	add	r0, r0, #1
    24e8:	e3a01034 	mov	r1, #52	; 0x34
    24ec:	e3a0200c 	mov	r2, #12
    24f0:	e1a03006 	mov	r3, r6
    24f4:	e1a04824 	lsr	r4, r4, #16
    24f8:	e5cd4007 	strb	r4, [sp, #7]
    24fc:	ebfff8d8 	bl	864 <twi_byte_rw>
    2500:	e2504000 	subs	r4, r0, #0
    2504:	0a000009 	beq	2530 <dram_power_save_process+0xac>
    2508:	e2555001 	subs	r5, r5, #1
    250c:	1affffe0 	bne	2494 <dram_power_save_process+0x10>
    2510:	ea000004 	b	2528 <dram_power_save_process+0xa4>
    2514:	ebffffbc 	bl	240c <DRAMC_enter_selfrefresh>
    2518:	eb000065 	bl	26b4 <mctl_itm_disable>
    251c:	eb000070 	bl	26e4 <mctl_disable_dll>
    2520:	e1a00004 	mov	r0, r4
    2524:	ea000000 	b	252c <dram_power_save_process+0xa8>
    2528:	e3e00000 	mvn	r0, #0
    252c:	e8bd80fe 	pop	{r1, r2, r3, r4, r5, r6, r7, pc}
    2530:	e3550000 	cmp	r5, #0
    2534:	1afffff6 	bne	2514 <dram_power_save_process+0x90>
    2538:	eafffffa 	b	2528 <dram_power_save_process+0xa4>
    253c:	f1c01000 	undefined instruction 0xf1c01000

00002540 <DRAMC_retraining>:
    2540:	e59f3144 	ldr	r3, [pc, #324]	; 268c <DRAMC_retraining+0x14c>
    2544:	e92d4ff0 	push	{r4, r5, r6, r7, r8, r9, sl, fp, lr}
    2548:	e24dd024 	sub	sp, sp, #36	; 0x24
    254c:	e5931004 	ldr	r1, [r3, #4]
    2550:	e1a05003 	mov	r5, r3
    2554:	e593b010 	ldr	fp, [r3, #16]
    2558:	e1a04003 	mov	r4, r3
    255c:	e5939014 	ldr	r9, [r3, #20]
    2560:	e593a018 	ldr	sl, [r3, #24]
    2564:	e593801c 	ldr	r8, [r3, #28]
    2568:	e59371f0 	ldr	r7, [r3, #496]	; 0x1f0
    256c:	e59321f4 	ldr	r2, [r3, #500]	; 0x1f4
    2570:	e58d1018 	str	r1, [sp, #24]
    2574:	e59311f8 	ldr	r1, [r3, #504]	; 0x1f8
    2578:	e58d2014 	str	r2, [sp, #20]
    257c:	e59321fc 	ldr	r2, [r3, #508]	; 0x1fc
    2580:	e58d1010 	str	r1, [sp, #16]
    2584:	e58d200c 	str	r2, [sp, #12]
    2588:	e59320a8 	ldr	r2, [r3, #168]	; 0xa8
    258c:	e5931008 	ldr	r1, [r3, #8]
    2590:	e58d1008 	str	r1, [sp, #8]
    2594:	e5931000 	ldr	r1, [r3]
    2598:	e59330b0 	ldr	r3, [r3, #176]	; 0xb0
    259c:	e3c334ff 	bic	r3, r3, #-16777216	; 0xff000000
    25a0:	e58d1004 	str	r1, [sp, #4]
    25a4:	e3c3360f 	bic	r3, r3, #15728640	; 0xf00000
    25a8:	e20216ff 	and	r1, r2, #267386880	; 0xff00000
    25ac:	e1833001 	orr	r3, r3, r1
    25b0:	e2022202 	and	r2, r2, #536870912	; 0x20000000
    25b4:	e3833205 	orr	r3, r3, #1342177280	; 0x50000000
    25b8:	e1832002 	orr	r2, r3, r2
    25bc:	e58d201c 	str	r2, [sp, #28]
    25c0:	ebffff3f 	bl	22c4 <mctl_ahb_reset>
    25c4:	eb000162 	bl	2b54 <mctl_ddr3_reset>
    25c8:	eb000031 	bl	2694 <mctl_set_drive>
    25cc:	eb000038 	bl	26b4 <mctl_itm_disable>
    25d0:	eb00014a 	bl	2b00 <mctl_enable_dll0>
    25d4:	e59d2004 	ldr	r2, [sp, #4]
    25d8:	e59d3018 	ldr	r3, [sp, #24]
    25dc:	e3a00001 	mov	r0, #1
    25e0:	e59d101c 	ldr	r1, [sp, #28]
    25e4:	e5852000 	str	r2, [r5]
    25e8:	e5853004 	str	r3, [r5, #4]
    25ec:	e58510a8 	str	r1, [r5, #168]	; 0xa8
    25f0:	eb00006f 	bl	27b4 <DRAMC_clock_output_en>
    25f4:	e3a00010 	mov	r0, #16
    25f8:	ebfffa2b 	bl	eac <mem_delay>
    25fc:	e5953000 	ldr	r3, [r5]
    2600:	e3530000 	cmp	r3, #0
    2604:	bafffffc 	blt	25fc <DRAMC_retraining+0xbc>
    2608:	eb00010c 	bl	2a40 <mctl_enable_dllx>
    260c:	e59d2008 	ldr	r2, [sp, #8]
    2610:	e59d3014 	ldr	r3, [sp, #20]
    2614:	e59d1010 	ldr	r1, [sp, #16]
    2618:	e5842008 	str	r2, [r4, #8]
    261c:	e59d200c 	ldr	r2, [sp, #12]
    2620:	e584b010 	str	fp, [r4, #16]
    2624:	e5849014 	str	r9, [r4, #20]
    2628:	e584a018 	str	sl, [r4, #24]
    262c:	e584801c 	str	r8, [r4, #28]
    2630:	e58471f0 	str	r7, [r4, #496]	; 0x1f0
    2634:	e58431f4 	str	r3, [r4, #500]	; 0x1f4
    2638:	e58411f8 	str	r1, [r4, #504]	; 0x1f8
    263c:	e58421fc 	str	r2, [r4, #508]	; 0x1fc
    2640:	e5943000 	ldr	r3, [r4]
    2644:	e3833102 	orr	r3, r3, #-2147483648	; 0x80000000
    2648:	e5843000 	str	r3, [r4]
    264c:	e5953000 	ldr	r3, [r5]
    2650:	e3530000 	cmp	r3, #0
    2654:	bafffffc 	blt	264c <DRAMC_retraining+0x10c>
    2658:	e3a03000 	mov	r3, #0
    265c:	e3a00801 	mov	r0, #65536	; 0x10000
    2660:	e584323c 	str	r3, [r4, #572]	; 0x23c
    2664:	ebfffa10 	bl	eac <mem_delay>
    2668:	eb000017 	bl	26cc <mctl_itm_enable>
    266c:	eb000042 	bl	277c <DRAMC_scan_readpipe>
    2670:	e1a06000 	mov	r6, r0
    2674:	eb000031 	bl	2740 <mctl_configure_hostport>
    2678:	e3560000 	cmp	r6, #0
    267c:	1affffcf 	bne	25c0 <DRAMC_retraining+0x80>
    2680:	e1a00006 	mov	r0, r6
    2684:	e28dd024 	add	sp, sp, #36	; 0x24
    2688:	e8bd8ff0 	pop	{r4, r5, r6, r7, r8, r9, sl, fp, pc}
    268c:	f1c01000 	undefined instruction 0xf1c01000

00002690 <dram_power_up_process>:
    2690:	eaffffaa 	b	2540 <DRAMC_retraining>

00002694 <mctl_set_drive>:
    2694:	e59f2014 	ldr	r2, [pc, #20]	; 26b0 <mctl_set_drive+0x1c>
    2698:	e5923230 	ldr	r3, [r2, #560]	; 0x230
    269c:	e3833c6f 	orr	r3, r3, #28416	; 0x6f00
    26a0:	e38330fc 	orr	r3, r3, #252	; 0xfc
    26a4:	e3c33003 	bic	r3, r3, #3
    26a8:	e5823230 	str	r3, [r2, #560]	; 0x230
    26ac:	e12fff1e 	bx	lr
    26b0:	f1c01000 	undefined instruction 0xf1c01000

000026b4 <mctl_itm_disable>:
    26b4:	e59f300c 	ldr	r3, [pc, #12]	; 26c8 <mctl_itm_disable+0x14>
    26b8:	e5932000 	ldr	r2, [r3]
    26bc:	e3822201 	orr	r2, r2, #268435456	; 0x10000000
    26c0:	e5832000 	str	r2, [r3]
    26c4:	e12fff1e 	bx	lr
    26c8:	f1c01000 	undefined instruction 0xf1c01000

000026cc <mctl_itm_enable>:
    26cc:	e59f300c 	ldr	r3, [pc, #12]	; 26e0 <mctl_itm_enable+0x14>
    26d0:	e5932000 	ldr	r2, [r3]
    26d4:	e3c22201 	bic	r2, r2, #268435456	; 0x10000000
    26d8:	e5832000 	str	r2, [r3]
    26dc:	e12fff1e 	bx	lr
    26e0:	f1c01000 	undefined instruction 0xf1c01000

000026e4 <mctl_disable_dll>:
    26e4:	e59f3050 	ldr	r3, [pc, #80]	; 273c <mctl_disable_dll+0x58>
    26e8:	e5932204 	ldr	r2, [r3, #516]	; 0x204
    26ec:	e3c22101 	bic	r2, r2, #1073741824	; 0x40000000
    26f0:	e3822102 	orr	r2, r2, #-2147483648	; 0x80000000
    26f4:	e5832204 	str	r2, [r3, #516]	; 0x204
    26f8:	e5932208 	ldr	r2, [r3, #520]	; 0x208
    26fc:	e3c22101 	bic	r2, r2, #1073741824	; 0x40000000
    2700:	e3822102 	orr	r2, r2, #-2147483648	; 0x80000000
    2704:	e5832208 	str	r2, [r3, #520]	; 0x208
    2708:	e593220c 	ldr	r2, [r3, #524]	; 0x20c
    270c:	e3c22101 	bic	r2, r2, #1073741824	; 0x40000000
    2710:	e3822102 	orr	r2, r2, #-2147483648	; 0x80000000
    2714:	e583220c 	str	r2, [r3, #524]	; 0x20c
    2718:	e5932210 	ldr	r2, [r3, #528]	; 0x210
    271c:	e3c22101 	bic	r2, r2, #1073741824	; 0x40000000
    2720:	e3822102 	orr	r2, r2, #-2147483648	; 0x80000000
    2724:	e5832210 	str	r2, [r3, #528]	; 0x210
    2728:	e5932214 	ldr	r2, [r3, #532]	; 0x214
    272c:	e3c22101 	bic	r2, r2, #1073741824	; 0x40000000
    2730:	e3822102 	orr	r2, r2, #-2147483648	; 0x80000000
    2734:	e5832214 	str	r2, [r3, #532]	; 0x214
    2738:	e12fff1e 	bx	lr
    273c:	f1c01000 	undefined instruction 0xf1c01000

00002740 <mctl_configure_hostport>:
    2740:	e59f1024 	ldr	r1, [pc, #36]	; 276c <mctl_configure_hostport+0x2c>
    2744:	e3a03000 	mov	r3, #0
    2748:	e59f2020 	ldr	r2, [pc, #32]	; 2770 <mctl_configure_hostport+0x30>
    274c:	e1a0c103 	lsl	ip, r3, #2
    2750:	e7910103 	ldr	r0, [r1, r3, lsl #2]
    2754:	e2833001 	add	r3, r3, #1
    2758:	e08c2002 	add	r2, ip, r2
    275c:	e3530020 	cmp	r3, #32
    2760:	e5820000 	str	r0, [r2]
    2764:	1afffff7 	bne	2748 <mctl_configure_hostport+0x8>
    2768:	e12fff1e 	bx	lr
    276c:	00003f80 	andeq	r3, r0, r0, lsl #31
    2770:	f1c01250 	undefined instruction 0xf1c01250

00002774 <DRAMC_exit>:
    2774:	e3a00000 	mov	r0, #0
    2778:	e12fff1e 	bx	lr

0000277c <DRAMC_scan_readpipe>:
    277c:	e59f302c 	ldr	r3, [pc, #44]	; 27b0 <DRAMC_scan_readpipe+0x34>
    2780:	e1a01003 	mov	r1, r3
    2784:	e5932000 	ldr	r2, [r3]
    2788:	e3822101 	orr	r2, r2, #1073741824	; 0x40000000
    278c:	e5832000 	str	r2, [r3]
    2790:	e5913000 	ldr	r3, [r1]
    2794:	e3130101 	tst	r3, #1073741824	; 0x40000000
    2798:	1afffffc 	bne	2790 <DRAMC_scan_readpipe+0x14>
    279c:	e59f300c 	ldr	r3, [pc, #12]	; 27b0 <DRAMC_scan_readpipe+0x34>
    27a0:	e593000c 	ldr	r0, [r3, #12]
    27a4:	e2100601 	ands	r0, r0, #1048576	; 0x100000
    27a8:	13e00000 	mvnne	r0, #0
    27ac:	e12fff1e 	bx	lr
    27b0:	f1c01000 	undefined instruction 0xf1c01000

000027b4 <DRAMC_clock_output_en>:
    27b4:	e59f3018 	ldr	r3, [pc, #24]	; 27d4 <DRAMC_clock_output_en+0x20>
    27b8:	e3500000 	cmp	r0, #0
    27bc:	e59f2010 	ldr	r2, [pc, #16]	; 27d4 <DRAMC_clock_output_en+0x20>
    27c0:	e5933230 	ldr	r3, [r3, #560]	; 0x230
    27c4:	13833801 	orrne	r3, r3, #65536	; 0x10000
    27c8:	03c33801 	biceq	r3, r3, #65536	; 0x10000
    27cc:	e5823230 	str	r3, [r2, #560]	; 0x230
    27d0:	e12fff1e 	bx	lr
    27d4:	f1c01000 	undefined instruction 0xf1c01000

000027d8 <DRAMC_set_autorefresh_cycle>:
    27d8:	e3013f33 	movw	r3, #7987	; 0x1f33
    27dc:	e3a02009 	mov	r2, #9
    27e0:	e59f101c 	ldr	r1, [pc, #28]	; 2804 <DRAMC_set_autorefresh_cycle+0x2c>
    27e4:	e0030093 	mul	r3, r3, r0
    27e8:	e1a03523 	lsr	r3, r3, #10
    27ec:	e0020392 	mul	r2, r2, r3
    27f0:	e59f3010 	ldr	r3, [pc, #16]	; 2808 <DRAMC_set_autorefresh_cycle+0x30>
    27f4:	e24220c8 	sub	r2, r2, #200	; 0xc8
    27f8:	e1812402 	orr	r2, r1, r2, lsl #8
    27fc:	e5832010 	str	r2, [r3, #16]
    2800:	e12fff1e 	bx	lr
    2804:	08000083 	stmdaeq	r0, {r0, r1, r7}
    2808:	f1c01000 	undefined instruction 0xf1c01000

0000280c <DRAMC_get_dram_size>:
    280c:	e59f3068 	ldr	r3, [pc, #104]	; 287c <DRAMC_get_dram_size+0x70>
    2810:	e5933004 	ldr	r3, [r3, #4]
    2814:	e7e201d3 	ubfx	r0, r3, #3, #3
    2818:	e3500000 	cmp	r0, #0
    281c:	02800020 	addeq	r0, r0, #32
    2820:	0a00000b 	beq	2854 <DRAMC_get_dram_size+0x48>
    2824:	e3500001 	cmp	r0, #1
    2828:	0280003f 	addeq	r0, r0, #63	; 0x3f
    282c:	0a000008 	beq	2854 <DRAMC_get_dram_size+0x48>
    2830:	e3500002 	cmp	r0, #2
    2834:	0280007e 	addeq	r0, r0, #126	; 0x7e
    2838:	0a000005 	beq	2854 <DRAMC_get_dram_size+0x48>
    283c:	e3500003 	cmp	r0, #3
    2840:	028000fd 	addeq	r0, r0, #253	; 0xfd
    2844:	0a000002 	beq	2854 <DRAMC_get_dram_size+0x48>
    2848:	e3500004 	cmp	r0, #4
    284c:	03a00c02 	moveq	r0, #512	; 0x200
    2850:	13a00b01 	movne	r0, #1024	; 0x400
    2854:	e7e120d3 	ubfx	r2, r3, #1, #2
    2858:	e3520001 	cmp	r2, #1
    285c:	e7e22353 	ubfx	r2, r3, #6, #3
    2860:	01a00080 	lsleq	r0, r0, #1
    2864:	e3520003 	cmp	r2, #3
    2868:	e7e13553 	ubfx	r3, r3, #10, #2
    286c:	01a00080 	lsleq	r0, r0, #1
    2870:	e3530001 	cmp	r3, #1
    2874:	01a00080 	lsleq	r0, r0, #1
    2878:	e12fff1e 	bx	lr
    287c:	f1c01000 	undefined instruction 0xf1c01000

00002880 <dram_init>:
    2880:	e3a00000 	mov	r0, #0
    2884:	e12fff1e 	bx	lr

00002888 <dram_exit>:
    2888:	e3a00000 	mov	r0, #0
    288c:	e12fff1e 	bx	lr

00002890 <dram_get_size>:
    2890:	eaffffdd 	b	280c <DRAMC_get_dram_size>

00002894 <dram_set_drive>:
    2894:	e59f2014 	ldr	r2, [pc, #20]	; 28b0 <dram_set_drive+0x1c>
    2898:	e5923230 	ldr	r3, [r2, #560]	; 0x230
    289c:	e3833c6f 	orr	r3, r3, #28416	; 0x6f00
    28a0:	e38330fc 	orr	r3, r3, #252	; 0xfc
    28a4:	e3c33003 	bic	r3, r3, #3
    28a8:	e5823230 	str	r3, [r2, #560]	; 0x230
    28ac:	e12fff1e 	bx	lr
    28b0:	f1c01000 	undefined instruction 0xf1c01000

000028b4 <dram_set_autorefresh_cycle>:
    28b4:	e3013f33 	movw	r3, #7987	; 0x1f33
    28b8:	e3a02009 	mov	r2, #9
    28bc:	e59f101c 	ldr	r1, [pc, #28]	; 28e0 <dram_set_autorefresh_cycle+0x2c>
    28c0:	e0030093 	mul	r3, r3, r0
    28c4:	e1a03523 	lsr	r3, r3, #10
    28c8:	e0020392 	mul	r2, r2, r3
    28cc:	e59f3010 	ldr	r3, [pc, #16]	; 28e4 <dram_set_autorefresh_cycle+0x30>
    28d0:	e24220c8 	sub	r2, r2, #200	; 0xc8
    28d4:	e1812402 	orr	r2, r1, r2, lsl #8
    28d8:	e5832010 	str	r2, [r3, #16]
    28dc:	e12fff1e 	bx	lr
    28e0:	08000083 	stmdaeq	r0, {r0, r1, r7}
    28e4:	f1c01000 	undefined instruction 0xf1c01000

000028e8 <dram_scan_readpipe>:
    28e8:	e59f302c 	ldr	r3, [pc, #44]	; 291c <dram_scan_readpipe+0x34>
    28ec:	e1a01003 	mov	r1, r3
    28f0:	e5932000 	ldr	r2, [r3]
    28f4:	e3822101 	orr	r2, r2, #1073741824	; 0x40000000
    28f8:	e5832000 	str	r2, [r3]
    28fc:	e5913000 	ldr	r3, [r1]
    2900:	e3130101 	tst	r3, #1073741824	; 0x40000000
    2904:	1afffffc 	bne	28fc <dram_scan_readpipe+0x14>
    2908:	e59f300c 	ldr	r3, [pc, #12]	; 291c <dram_scan_readpipe+0x34>
    290c:	e593000c 	ldr	r0, [r3, #12]
    2910:	e2100601 	ands	r0, r0, #1048576	; 0x100000
    2914:	13e00000 	mvnne	r0, #0
    2918:	e12fff1e 	bx	lr
    291c:	f1c01000 	undefined instruction 0xf1c01000

00002920 <get_boot0_dram_para>:
    2920:	e59f1004 	ldr	r1, [pc, #4]	; 292c <get_boot0_dram_para+0xc>
    2924:	e3a02050 	mov	r2, #80	; 0x50
    2928:	eafff62c 	b	1e0 <mem_memcpy>
    292c:	00004000 	andeq	r4, r0, r0

00002930 <mctl_setup_dram_clock>:
    2930:	e59f30fc 	ldr	r3, [pc, #252]	; 2a34 <mctl_setup_dram_clock+0x104>
    2934:	e3a01000 	mov	r1, #0
    2938:	e92d4ff1 	push	{r0, r4, r5, r6, r7, r8, r9, sl, fp, lr}
    293c:	e3a04018 	mov	r4, #24
    2940:	e593c020 	ldr	ip, [r3, #32]
    2944:	e3a05000 	mov	r5, #0
    2948:	e0944004 	adds	r4, r4, r4
    294c:	e2811001 	add	r1, r1, #1
    2950:	e0a55005 	adc	r5, r5, r5
    2954:	e351003b 	cmp	r1, #59	; 0x3b
    2958:	1afffffa 	bne	2948 <mctl_setup_dram_clock+0x18>
    295c:	e1a06000 	mov	r6, r0
    2960:	e3a07000 	mov	r7, #0
    2964:	e3a02000 	mov	r2, #0
    2968:	e3a03000 	mov	r3, #0
    296c:	e3a08001 	mov	r8, #1
    2970:	e3a09000 	mov	r9, #0
    2974:	e1550007 	cmp	r5, r7
    2978:	8a000009 	bhi	29a4 <mctl_setup_dram_clock+0x74>
    297c:	1a000001 	bne	2988 <mctl_setup_dram_clock+0x58>
    2980:	e1540006 	cmp	r4, r6
    2984:	8a000006 	bhi	29a4 <mctl_setup_dram_clock+0x74>
    2988:	e092a002 	adds	sl, r2, r2
    298c:	e0a3b003 	adc	fp, r3, r3
    2990:	e18a2008 	orr	r2, sl, r8
    2994:	e0566004 	subs	r6, r6, r4
    2998:	e0c77005 	sbc	r7, r7, r5
    299c:	e18b3009 	orr	r3, fp, r9
    29a0:	ea000001 	b	29ac <mctl_setup_dram_clock+0x7c>
    29a4:	e0922002 	adds	r2, r2, r2
    29a8:	e0a33003 	adc	r3, r3, r3
    29ac:	e2511001 	subs	r1, r1, #1
    29b0:	4a000002 	bmi	29c0 <mctl_setup_dram_clock+0x90>
    29b4:	e1b050a5 	lsrs	r5, r5, #1
    29b8:	e1a04064 	rrx	r4, r4
    29bc:	eaffffec 	b	2974 <mctl_setup_dram_clock+0x44>
    29c0:	e3cc1033 	bic	r1, ip, #51	; 0x33
    29c4:	e202201f 	and	r2, r2, #31
    29c8:	e3813011 	orr	r3, r1, #17
    29cc:	e59f4060 	ldr	r4, [pc, #96]	; 2a34 <mctl_setup_dram_clock+0x104>
    29d0:	e3c33c1f 	bic	r3, r3, #7936	; 0x1f00
    29d4:	e3a00601 	mov	r0, #1048576	; 0x100000
    29d8:	e1833402 	orr	r3, r3, r2, lsl #8
    29dc:	e3c33803 	bic	r3, r3, #196608	; 0x30000
    29e0:	e3833801 	orr	r3, r3, #65536	; 0x10000
    29e4:	e3c33202 	bic	r3, r3, #536870912	; 0x20000000
    29e8:	e3833102 	orr	r3, r3, #-2147483648	; 0x80000000
    29ec:	e5843020 	str	r3, [r4, #32]
    29f0:	ebfff92d 	bl	eac <mem_delay>
    29f4:	e5943020 	ldr	r3, [r4, #32]
    29f8:	e3a00a01 	mov	r0, #4096	; 0x1000
    29fc:	e3833202 	orr	r3, r3, #536870912	; 0x20000000
    2a00:	e5843020 	str	r3, [r4, #32]
    2a04:	e59f302c 	ldr	r3, [pc, #44]	; 2a38 <mctl_setup_dram_clock+0x108>
    2a08:	e584315c 	str	r3, [r4, #348]	; 0x15c
    2a0c:	e5945060 	ldr	r5, [r4, #96]	; 0x60
    2a10:	e3c55903 	bic	r5, r5, #49152	; 0xc000
    2a14:	e5845060 	str	r5, [r4, #96]	; 0x60
    2a18:	ebfff923 	bl	eac <mem_delay>
    2a1c:	e3855903 	orr	r5, r5, #49152	; 0xc000
    2a20:	e3a00a01 	mov	r0, #4096	; 0x1000
    2a24:	e5845060 	str	r5, [r4, #96]	; 0x60
    2a28:	e28dd004 	add	sp, sp, #4
    2a2c:	e8bd4ff0 	pop	{r4, r5, r6, r7, r8, r9, sl, fp, lr}
    2a30:	eafff91d 	b	eac <mem_delay>
    2a34:	f1c20000 	undefined instruction 0xf1c20000
    2a38:	82000001 	andhi	r0, r0, #1

00002a3c <dram_set_clock>:
    2a3c:	eaffffbb 	b	2930 <mctl_setup_dram_clock>

00002a40 <mctl_enable_dllx>:
    2a40:	e59f20b0 	ldr	r2, [pc, #176]	; 2af8 <mctl_enable_dllx+0xb8>
    2a44:	e3a03001 	mov	r3, #1
    2a48:	e92d4010 	push	{r4, lr}
    2a4c:	e5924004 	ldr	r4, [r2, #4]
    2a50:	e7e24354 	ubfx	r4, r4, #6, #3
    2a54:	e3540003 	cmp	r4, #3
    2a58:	03a04005 	moveq	r4, #5
    2a5c:	13a04003 	movne	r4, #3
    2a60:	e59f2094 	ldr	r2, [pc, #148]	; 2afc <mctl_enable_dllx+0xbc>
    2a64:	e1a01103 	lsl	r1, r3, #2
    2a68:	e2833001 	add	r3, r3, #1
    2a6c:	e0812002 	add	r2, r1, r2
    2a70:	e1530004 	cmp	r3, r4
    2a74:	e5921000 	ldr	r1, [r2]
    2a78:	e3c11103 	bic	r1, r1, #-1073741824	; 0xc0000000
    2a7c:	e3811102 	orr	r1, r1, #-2147483648	; 0x80000000
    2a80:	e5821000 	str	r1, [r2]
    2a84:	3afffff5 	bcc	2a60 <mctl_enable_dllx+0x20>
    2a88:	e3a00c01 	mov	r0, #256	; 0x100
    2a8c:	ebfff906 	bl	eac <mem_delay>
    2a90:	e3a03001 	mov	r3, #1
    2a94:	e59f2060 	ldr	r2, [pc, #96]	; 2afc <mctl_enable_dllx+0xbc>
    2a98:	e1a01103 	lsl	r1, r3, #2
    2a9c:	e2833001 	add	r3, r3, #1
    2aa0:	e0812002 	add	r2, r1, r2
    2aa4:	e1530004 	cmp	r3, r4
    2aa8:	e5921000 	ldr	r1, [r2]
    2aac:	e3c11103 	bic	r1, r1, #-1073741824	; 0xc0000000
    2ab0:	e5821000 	str	r1, [r2]
    2ab4:	3afffff6 	bcc	2a94 <mctl_enable_dllx+0x54>
    2ab8:	e3a00a01 	mov	r0, #4096	; 0x1000
    2abc:	ebfff8fa 	bl	eac <mem_delay>
    2ac0:	e3a03001 	mov	r3, #1
    2ac4:	e59f2030 	ldr	r2, [pc, #48]	; 2afc <mctl_enable_dllx+0xbc>
    2ac8:	e1a01103 	lsl	r1, r3, #2
    2acc:	e2833001 	add	r3, r3, #1
    2ad0:	e0812002 	add	r2, r1, r2
    2ad4:	e1530004 	cmp	r3, r4
    2ad8:	e5921000 	ldr	r1, [r2]
    2adc:	e3c11103 	bic	r1, r1, #-1073741824	; 0xc0000000
    2ae0:	e3811101 	orr	r1, r1, #1073741824	; 0x40000000
    2ae4:	e5821000 	str	r1, [r2]
    2ae8:	3afffff5 	bcc	2ac4 <mctl_enable_dllx+0x84>
    2aec:	e3a00a01 	mov	r0, #4096	; 0x1000
    2af0:	e8bd4010 	pop	{r4, lr}
    2af4:	eafff8ec 	b	eac <mem_delay>
    2af8:	f1c01000 	undefined instruction 0xf1c01000
    2afc:	f1c01204 	undefined instruction 0xf1c01204

00002b00 <mctl_enable_dll0>:
    2b00:	e92d4010 	push	{r4, lr}
    2b04:	e59f4044 	ldr	r4, [pc, #68]	; 2b50 <mctl_enable_dll0+0x50>
    2b08:	e3a00c01 	mov	r0, #256	; 0x100
    2b0c:	e5943204 	ldr	r3, [r4, #516]	; 0x204
    2b10:	e3c33103 	bic	r3, r3, #-1073741824	; 0xc0000000
    2b14:	e3833102 	orr	r3, r3, #-2147483648	; 0x80000000
    2b18:	e5843204 	str	r3, [r4, #516]	; 0x204
    2b1c:	ebfff8e2 	bl	eac <mem_delay>
    2b20:	e5943204 	ldr	r3, [r4, #516]	; 0x204
    2b24:	e3a00a01 	mov	r0, #4096	; 0x1000
    2b28:	e3c33103 	bic	r3, r3, #-1073741824	; 0xc0000000
    2b2c:	e5843204 	str	r3, [r4, #516]	; 0x204
    2b30:	ebfff8dd 	bl	eac <mem_delay>
    2b34:	e5943204 	ldr	r3, [r4, #516]	; 0x204
    2b38:	e3a00a01 	mov	r0, #4096	; 0x1000
    2b3c:	e3c33103 	bic	r3, r3, #-1073741824	; 0xc0000000
    2b40:	e3833101 	orr	r3, r3, #1073741824	; 0x40000000
    2b44:	e5843204 	str	r3, [r4, #516]	; 0x204
    2b48:	e8bd4010 	pop	{r4, lr}
    2b4c:	eafff8d6 	b	eac <mem_delay>
    2b50:	f1c01000 	undefined instruction 0xf1c01000

00002b54 <mctl_ddr3_reset>:
    2b54:	e92d4010 	push	{r4, lr}
    2b58:	e59f4020 	ldr	r4, [pc, #32]	; 2b80 <mctl_ddr3_reset+0x2c>
    2b5c:	e3a00c01 	mov	r0, #256	; 0x100
    2b60:	e5943230 	ldr	r3, [r4, #560]	; 0x230
    2b64:	e3c33a01 	bic	r3, r3, #4096	; 0x1000
    2b68:	e5843230 	str	r3, [r4, #560]	; 0x230
    2b6c:	ebfff8ce 	bl	eac <mem_delay>
    2b70:	e5943230 	ldr	r3, [r4, #560]	; 0x230
    2b74:	e3833a01 	orr	r3, r3, #4096	; 0x1000
    2b78:	e5843230 	str	r3, [r4, #560]	; 0x230
    2b7c:	e8bd8010 	pop	{r4, pc}
    2b80:	f1c01000 	undefined instruction 0xf1c01000

00002b84 <DRAMC_init>:
    2b84:	e92d41f0 	push	{r4, r5, r6, r7, r8, lr}
    2b88:	e2504000 	subs	r4, r0, #0
    2b8c:	03e00000 	mvneq	r0, #0
    2b90:	08bd81f0 	popeq	{r4, r5, r6, r7, r8, pc}
    2b94:	e59f5238 	ldr	r5, [pc, #568]	; 2dd4 <DRAMC_init+0x250>
    2b98:	e5940004 	ldr	r0, [r4, #4]
    2b9c:	ebffff63 	bl	2930 <mctl_setup_dram_clock>
    2ba0:	e3a03000 	mov	r3, #0
    2ba4:	e585323c 	str	r3, [r5, #572]	; 0x23c
    2ba8:	ebffffe9 	bl	2b54 <mctl_ddr3_reset>
    2bac:	e5953230 	ldr	r3, [r5, #560]	; 0x230
    2bb0:	e3833c6f 	orr	r3, r3, #28416	; 0x6f00
    2bb4:	e38330fc 	orr	r3, r3, #252	; 0xfc
    2bb8:	e3c33003 	bic	r3, r3, #3
    2bbc:	e5853230 	str	r3, [r5, #560]	; 0x230
    2bc0:	e5953230 	ldr	r3, [r5, #560]	; 0x230
    2bc4:	e3c33801 	bic	r3, r3, #65536	; 0x10000
    2bc8:	e5853230 	str	r3, [r5, #560]	; 0x230
    2bcc:	e5953000 	ldr	r3, [r5]
    2bd0:	e3833201 	orr	r3, r3, #268435456	; 0x10000000
    2bd4:	e5853000 	str	r3, [r5]
    2bd8:	ebffffc8 	bl	2b00 <mctl_enable_dll0>
    2bdc:	e5943014 	ldr	r3, [r4, #20]
    2be0:	e5941008 	ldr	r1, [r4, #8]
    2be4:	e5942010 	ldr	r2, [r4, #16]
    2be8:	e3510003 	cmp	r1, #3
    2bec:	13a01000 	movne	r1, #0
    2bf0:	03a01001 	moveq	r1, #1
    2bf4:	e1a031a3 	lsr	r3, r3, #3
    2bf8:	e3520c01 	cmp	r2, #256	; 0x100
    2bfc:	e1813083 	orr	r3, r1, r3, lsl #1
    2c00:	0a00000d 	beq	2c3c <DRAMC_init+0xb8>
    2c04:	e3520c02 	cmp	r2, #512	; 0x200
    2c08:	03833008 	orreq	r3, r3, #8
    2c0c:	0a00000a 	beq	2c3c <DRAMC_init+0xb8>
    2c10:	e3520b01 	cmp	r2, #1024	; 0x400
    2c14:	03833010 	orreq	r3, r3, #16
    2c18:	0a000007 	beq	2c3c <DRAMC_init+0xb8>
    2c1c:	e3520b02 	cmp	r2, #2048	; 0x800
    2c20:	03833018 	orreq	r3, r3, #24
    2c24:	0a000004 	beq	2c3c <DRAMC_init+0xb8>
    2c28:	e3520a01 	cmp	r2, #4096	; 0x1000
    2c2c:	03833020 	orreq	r3, r3, #32
    2c30:	0a000001 	beq	2c3c <DRAMC_init+0xb8>
    2c34:	e3520a02 	cmp	r2, #8192	; 0x2000
    2c38:	03833028 	orreq	r3, r3, #40	; 0x28
    2c3c:	e594200c 	ldr	r2, [r4, #12]
    2c40:	e3a00010 	mov	r0, #16
    2c44:	e5941018 	ldr	r1, [r4, #24]
    2c48:	e2422001 	sub	r2, r2, #1
    2c4c:	e59f6180 	ldr	r6, [pc, #384]	; 2dd4 <DRAMC_init+0x250>
    2c50:	e1a011a1 	lsr	r1, r1, #3
    2c54:	e1a02502 	lsl	r2, r2, #10
    2c58:	e2411001 	sub	r1, r1, #1
    2c5c:	e3822a03 	orr	r2, r2, #12288	; 0x3000
    2c60:	e1822301 	orr	r2, r2, r1, lsl #6
    2c64:	e1823003 	orr	r3, r2, r3
    2c68:	e5863004 	str	r3, [r6, #4]
    2c6c:	e5943020 	ldr	r3, [r4, #32]
    2c70:	e20350ff 	and	r5, r3, #255	; 0xff
    2c74:	e7f32453 	ubfx	r2, r3, #8, #20
    2c78:	e203320f 	and	r3, r3, #-268435456	; 0xf0000000
    2c7c:	e1825a05 	orr	r5, r2, r5, lsl #20
    2c80:	e1855003 	orr	r5, r5, r3
    2c84:	e58650a8 	str	r5, [r6, #168]	; 0xa8
    2c88:	e5963230 	ldr	r3, [r6, #560]	; 0x230
    2c8c:	e3833801 	orr	r3, r3, #65536	; 0x10000
    2c90:	e5863230 	str	r3, [r6, #560]	; 0x230
    2c94:	ebfff884 	bl	eac <mem_delay>
    2c98:	e5963000 	ldr	r3, [r6]
    2c9c:	e59f7130 	ldr	r7, [pc, #304]	; 2dd4 <DRAMC_init+0x250>
    2ca0:	e3530000 	cmp	r3, #0
    2ca4:	bafffffb 	blt	2c98 <DRAMC_init+0x114>
    2ca8:	ebffff64 	bl	2a40 <mctl_enable_dllx>
    2cac:	e5942004 	ldr	r2, [r4, #4]
    2cb0:	e3013f33 	movw	r3, #7987	; 0x1f33
    2cb4:	e0030392 	mul	r3, r2, r3
    2cb8:	e3a02009 	mov	r2, #9
    2cbc:	e1a03523 	lsr	r3, r3, #10
    2cc0:	e0030392 	mul	r3, r2, r3
    2cc4:	e24330c8 	sub	r3, r3, #200	; 0xc8
    2cc8:	e1a03403 	lsl	r3, r3, #8
    2ccc:	e3833302 	orr	r3, r3, #134217728	; 0x8000000
    2cd0:	e3833083 	orr	r3, r3, #131	; 0x83
    2cd4:	e5873010 	str	r3, [r7, #16]
    2cd8:	e594302c 	ldr	r3, [r4, #44]	; 0x2c
    2cdc:	e5873014 	str	r3, [r7, #20]
    2ce0:	e5943030 	ldr	r3, [r4, #48]	; 0x30
    2ce4:	e5873018 	str	r3, [r7, #24]
    2ce8:	e5943034 	ldr	r3, [r4, #52]	; 0x34
    2cec:	e587301c 	str	r3, [r7, #28]
    2cf0:	e5943008 	ldr	r3, [r4, #8]
    2cf4:	e3530003 	cmp	r3, #3
    2cf8:	0594501c 	ldreq	r5, [r4, #28]
    2cfc:	02455004 	subeq	r5, r5, #4
    2d00:	01a05205 	lsleq	r5, r5, #4
    2d04:	03855c1a 	orreq	r5, r5, #6656	; 0x1a00
    2d08:	0a000004 	beq	2d20 <DRAMC_init+0x19c>
    2d0c:	e3530002 	cmp	r3, #2
    2d10:	0594501c 	ldreq	r5, [r4, #28]
    2d14:	01a05205 	lsleq	r5, r5, #4
    2d18:	03855c0a 	orreq	r5, r5, #2560	; 0xa00
    2d1c:	03855002 	orreq	r5, r5, #2
    2d20:	e59f30ac 	ldr	r3, [pc, #172]	; 2dd4 <DRAMC_init+0x250>
    2d24:	e1a01003 	mov	r1, r3
    2d28:	e58351f0 	str	r5, [r3, #496]	; 0x1f0
    2d2c:	e5942044 	ldr	r2, [r4, #68]	; 0x44
    2d30:	e58321f4 	str	r2, [r3, #500]	; 0x1f4
    2d34:	e5942048 	ldr	r2, [r4, #72]	; 0x48
    2d38:	e58321f8 	str	r2, [r3, #504]	; 0x1f8
    2d3c:	e594204c 	ldr	r2, [r4, #76]	; 0x4c
    2d40:	e58321fc 	str	r2, [r3, #508]	; 0x1fc
    2d44:	e5932000 	ldr	r2, [r3]
    2d48:	e3822901 	orr	r2, r2, #16384	; 0x4000
    2d4c:	e3c22802 	bic	r2, r2, #131072	; 0x20000
    2d50:	e5832000 	str	r2, [r3]
    2d54:	e5932000 	ldr	r2, [r3]
    2d58:	e3822102 	orr	r2, r2, #-2147483648	; 0x80000000
    2d5c:	e5832000 	str	r2, [r3]
    2d60:	e5912000 	ldr	r2, [r1]
    2d64:	e59f3068 	ldr	r3, [pc, #104]	; 2dd4 <DRAMC_init+0x250>
    2d68:	e3520000 	cmp	r2, #0
    2d6c:	bafffffb 	blt	2d60 <DRAMC_init+0x1dc>
    2d70:	e5932000 	ldr	r2, [r3]
    2d74:	e1a01003 	mov	r1, r3
    2d78:	e3c22201 	bic	r2, r2, #268435456	; 0x10000000
    2d7c:	e5832000 	str	r2, [r3]
    2d80:	e5932000 	ldr	r2, [r3]
    2d84:	e3822101 	orr	r2, r2, #1073741824	; 0x40000000
    2d88:	e5832000 	str	r2, [r3]
    2d8c:	e5910000 	ldr	r0, [r1]
    2d90:	e2100101 	ands	r0, r0, #1073741824	; 0x40000000
    2d94:	1afffffc 	bne	2d8c <DRAMC_init+0x208>
    2d98:	e59f3034 	ldr	r3, [pc, #52]	; 2dd4 <DRAMC_init+0x250>
    2d9c:	e593300c 	ldr	r3, [r3, #12]
    2da0:	e2133601 	ands	r3, r3, #1048576	; 0x100000
    2da4:	18bd81f0 	popne	{r4, r5, r6, r7, r8, pc}
    2da8:	e59f1028 	ldr	r1, [pc, #40]	; 2dd8 <DRAMC_init+0x254>
    2dac:	e59f2028 	ldr	r2, [pc, #40]	; 2ddc <DRAMC_init+0x258>
    2db0:	e1a0c103 	lsl	ip, r3, #2
    2db4:	e7910103 	ldr	r0, [r1, r3, lsl #2]
    2db8:	e2833001 	add	r3, r3, #1
    2dbc:	e08c2002 	add	r2, ip, r2
    2dc0:	e3530020 	cmp	r3, #32
    2dc4:	e5820000 	str	r0, [r2]
    2dc8:	1afffff7 	bne	2dac <DRAMC_init+0x228>
    2dcc:	e8bd41f0 	pop	{r4, r5, r6, r7, r8, lr}
    2dd0:	eafffe8d 	b	280c <DRAMC_get_dram_size>
    2dd4:	f1c01000 	undefined instruction 0xf1c01000
    2dd8:	00003f80 	andeq	r3, r0, r0, lsl #31
    2ddc:	f1c01250 	undefined instruction 0xf1c01250

00002de0 <init_DRAM>:
    2de0:	e92d43f0 	push	{r4, r5, r6, r7, r8, r9, lr}
    2de4:	e24dd054 	sub	sp, sp, #84	; 0x54
    2de8:	e1a0000d 	mov	r0, sp
    2dec:	ebfffecb 	bl	2920 <get_boot0_dram_para>
    2df0:	e59d4004 	ldr	r4, [sp, #4]
    2df4:	e3540e7d 	cmp	r4, #2000	; 0x7d0
    2df8:	9a000020 	bls	2e80 <init_DRAM+0xa0>
    2dfc:	e59f20c4 	ldr	r2, [pc, #196]	; 2ec8 <init_DRAM+0xe8>
    2e00:	e3a0c000 	mov	ip, #0
    2e04:	e3a03000 	mov	r3, #0
    2e08:	e0922002 	adds	r2, r2, r2
    2e0c:	e28cc001 	add	ip, ip, #1
    2e10:	e0a33003 	adc	r3, r3, r3
    2e14:	e35c002c 	cmp	ip, #44	; 0x2c
    2e18:	1afffffa 	bne	2e08 <init_DRAM+0x28>
    2e1c:	e3a05000 	mov	r5, #0
    2e20:	e3a00000 	mov	r0, #0
    2e24:	e3a01000 	mov	r1, #0
    2e28:	e3a06001 	mov	r6, #1
    2e2c:	e3a07000 	mov	r7, #0
    2e30:	e1530005 	cmp	r3, r5
    2e34:	8a000009 	bhi	2e60 <init_DRAM+0x80>
    2e38:	1a000001 	bne	2e44 <init_DRAM+0x64>
    2e3c:	e1520004 	cmp	r2, r4
    2e40:	8a000006 	bhi	2e60 <init_DRAM+0x80>
    2e44:	e0908000 	adds	r8, r0, r0
    2e48:	e0a19001 	adc	r9, r1, r1
    2e4c:	e1880006 	orr	r0, r8, r6
    2e50:	e0544002 	subs	r4, r4, r2
    2e54:	e0c55003 	sbc	r5, r5, r3
    2e58:	e1891007 	orr	r1, r9, r7
    2e5c:	ea000001 	b	2e68 <init_DRAM+0x88>
    2e60:	e0900000 	adds	r0, r0, r0
    2e64:	e0a11001 	adc	r1, r1, r1
    2e68:	e25cc001 	subs	ip, ip, #1
    2e6c:	4a000002 	bmi	2e7c <init_DRAM+0x9c>
    2e70:	e1b030a3 	lsrs	r3, r3, #1
    2e74:	e1a02062 	rrx	r2, r2
    2e78:	eaffffec 	b	2e30 <init_DRAM+0x50>
    2e7c:	e58d0004 	str	r0, [sp, #4]
    2e80:	e3030010 	movw	r0, #12304	; 0x3010
    2e84:	e3a04000 	mov	r4, #0
    2e88:	eb000025 	bl	2f24 <save_mem_status>
    2e8c:	e1a05004 	mov	r5, r4
    2e90:	e1a0600d 	mov	r6, sp
    2e94:	ea000001 	b	2ea0 <init_DRAM+0xc0>
    2e98:	ebffff39 	bl	2b84 <DRAMC_init>
    2e9c:	e1a04000 	mov	r4, r0
    2ea0:	e3550003 	cmp	r5, #3
    2ea4:	93540000 	cmpls	r4, #0
    2ea8:	e1a0000d 	mov	r0, sp
    2eac:	e2855001 	add	r5, r5, #1
    2eb0:	0afffff8 	beq	2e98 <init_DRAM+0xb8>
    2eb4:	e3030011 	movw	r0, #12305	; 0x3011
    2eb8:	eb000019 	bl	2f24 <save_mem_status>
    2ebc:	e1a00004 	mov	r0, r4
    2ec0:	e28dd054 	add	sp, sp, #84	; 0x54
    2ec4:	e8bd83f0 	pop	{r4, r5, r6, r7, r8, r9, pc}
    2ec8:	000f4240 	andeq	r4, pc, r0, asr #4

00002ecc <busy_waiting>:
    2ecc:	e24dd008 	sub	sp, sp, #8
    2ed0:	e3a03001 	mov	r3, #1
    2ed4:	e58d3004 	str	r3, [sp, #4]
    2ed8:	e59d3004 	ldr	r3, [sp, #4]
    2edc:	e3530001 	cmp	r3, #1
    2ee0:	0afffffc 	beq	2ed8 <busy_waiting+0xc>
    2ee4:	e28dd008 	add	sp, sp, #8
    2ee8:	e12fff1e 	bx	lr

00002eec <fake_busy_waiting>:
    2eec:	e24dd008 	sub	sp, sp, #8
    2ef0:	e3a03002 	mov	r3, #2
    2ef4:	e58d3004 	str	r3, [sp, #4]
    2ef8:	e59d3004 	ldr	r3, [sp, #4]
    2efc:	e3530001 	cmp	r3, #1
    2f00:	0afffffc 	beq	2ef8 <fake_busy_waiting+0xc>
    2f04:	e28dd008 	add	sp, sp, #8
    2f08:	e12fff1e 	bx	lr

00002f0c <save_mem_flag>:
    2f0c:	e59f300c 	ldr	r3, [pc, #12]	; 2f20 <save_mem_flag+0x14>
    2f10:	e593223c 	ldr	r2, [r3, #572]	; 0x23c
    2f14:	e3822001 	orr	r2, r2, #1
    2f18:	e583223c 	str	r2, [r3, #572]	; 0x23c
    2f1c:	e12fff1e 	bx	lr
    2f20:	f1c01000 	undefined instruction 0xf1c01000

00002f24 <save_mem_status>:
    2f24:	e24dd008 	sub	sp, sp, #8
    2f28:	e58d0004 	str	r0, [sp, #4]
    2f2c:	e28dd008 	add	sp, sp, #8
    2f30:	e12fff1e 	bx	lr

00002f34 <get_mem_status>:
    2f34:	e59f3004 	ldr	r3, [pc, #4]	; 2f40 <get_mem_status+0xc>
    2f38:	e5930004 	ldr	r0, [r3, #4]
    2f3c:	e12fff1e 	bx	lr
    2f40:	c0200000 	eorgt	r0, r0, r0

00002f44 <save_mem_status_nommu>:
    2f44:	e24dd008 	sub	sp, sp, #8
    2f48:	e58d0004 	str	r0, [sp, #4]
    2f4c:	e28dd008 	add	sp, sp, #8
    2f50:	e12fff1e 	bx	lr

00002f54 <save_sun5i_mem_status>:
    2f54:	e24dd008 	sub	sp, sp, #8
    2f58:	e59f3014 	ldr	r3, [pc, #20]	; 2f74 <save_sun5i_mem_status+0x20>
    2f5c:	e58d0004 	str	r0, [sp, #4]
    2f60:	e5930ffc 	ldr	r0, [r3, #4092]	; 0xffc
    2f64:	e59d2004 	ldr	r2, [sp, #4]
    2f68:	e5832ffc 	str	r2, [r3, #4092]	; 0xffc
    2f6c:	e28dd008 	add	sp, sp, #8
    2f70:	e12fff1e 	bx	lr
    2f74:	c010f000 	andsgt	pc, r0, r0

00002f78 <save_sun5i_mem_status_nommu>:
    2f78:	e24dd008 	sub	sp, sp, #8
    2f7c:	e59f3014 	ldr	r3, [pc, #20]	; 2f98 <save_sun5i_mem_status_nommu+0x20>
    2f80:	e58d0004 	str	r0, [sp, #4]
    2f84:	e5930ffc 	ldr	r0, [r3, #4092]	; 0xffc
    2f88:	e59d2004 	ldr	r2, [sp, #4]
    2f8c:	e5832ffc 	str	r2, [r3, #4092]	; 0xffc
    2f90:	e28dd008 	add	sp, sp, #8
    2f94:	e12fff1e 	bx	lr
    2f98:	4010f000 	andsmi	pc, r0, r0

00002f9c <get_cyclecount>:
    2f9c:	ee190f1d 	mrc	15, 0, r0, cr9, cr13, {0}
    2fa0:	e12fff1e 	bx	lr

00002fa4 <backup_perfcounter>:
    2fa4:	ee192f1c 	mrc	15, 0, r2, cr9, cr12, {0}
    2fa8:	e59f300c 	ldr	r3, [pc, #12]	; 2fbc <backup_perfcounter+0x18>
    2fac:	e5832000 	str	r2, [r3]
    2fb0:	ee192f3c 	mrc	15, 0, r2, cr9, cr12, {1}
    2fb4:	e5832004 	str	r2, [r3, #4]
    2fb8:	e12fff1e 	bx	lr
    2fbc:	000042cc 	andeq	r4, r0, ip, asr #5

00002fc0 <init_perfcounters>:
    2fc0:	e3500000 	cmp	r0, #0
    2fc4:	03a00001 	moveq	r0, #1
    2fc8:	13a00007 	movne	r0, #7
    2fcc:	e3510000 	cmp	r1, #0
    2fd0:	13800008 	orrne	r0, r0, #8
    2fd4:	e3800010 	orr	r0, r0, #16
    2fd8:	ee090f1c 	mcr	15, 0, r0, cr9, cr12, {0}
    2fdc:	e3a0313e 	mov	r3, #-2147483633	; 0x8000000f
    2fe0:	ee093f3c 	mcr	15, 0, r3, cr9, cr12, {1}
    2fe4:	ee093f7c 	mcr	15, 0, r3, cr9, cr12, {3}
    2fe8:	e12fff1e 	bx	lr

00002fec <restore_perfcounter>:
    2fec:	e59f3014 	ldr	r3, [pc, #20]	; 3008 <restore_perfcounter+0x1c>
    2ff0:	e5933000 	ldr	r3, [r3]
    2ff4:	ee093f1c 	mcr	15, 0, r3, cr9, cr12, {0}
    2ff8:	e59f3008 	ldr	r3, [pc, #8]	; 3008 <restore_perfcounter+0x1c>
    2ffc:	e5933004 	ldr	r3, [r3, #4]
    3000:	ee093f3c 	mcr	15, 0, r3, cr9, cr12, {1}
    3004:	e12fff1e 	bx	lr
    3008:	000042cc 	andeq	r4, r0, ip, asr #5

0000300c <reset_counter>:
    300c:	e3a03000 	mov	r3, #0
    3010:	ee193f1c 	mrc	15, 0, r3, cr9, cr12, {0}
    3014:	e2833004 	add	r3, r3, #4
    3018:	ee093f1c 	mcr	15, 0, r3, cr9, cr12, {0}
    301c:	e12fff1e 	bx	lr

00003020 <change_runtime_env>:
    3020:	e92d4013 	push	{r0, r1, r4, lr}
    3024:	e3a03000 	mov	r3, #0
    3028:	e59f1108 	ldr	r1, [pc, #264]	; 3138 <change_runtime_env+0x118>
    302c:	e1500003 	cmp	r0, r3
    3030:	e58d3004 	str	r3, [sp, #4]
    3034:	e59f2100 	ldr	r2, [pc, #256]	; 313c <change_runtime_env+0x11c>
    3038:	11a02001 	movne	r2, r1
    303c:	ee191f1d 	mrc	15, 0, r1, cr9, cr13, {0}
    3040:	ee190f1d 	mrc	15, 0, r0, cr9, cr13, {0}
    3044:	e59fc0f4 	ldr	ip, [pc, #244]	; 3140 <change_runtime_env+0x120>
    3048:	e0611000 	rsb	r1, r1, r0
    304c:	e58c1008 	str	r1, [ip, #8]
    3050:	e5921054 	ldr	r1, [r2, #84]	; 0x54
    3054:	e58d1004 	str	r1, [sp, #4]
    3058:	e59d1004 	ldr	r1, [sp, #4]
    305c:	e1a01821 	lsr	r1, r1, #16
    3060:	e58d1004 	str	r1, [sp, #4]
    3064:	e59d1004 	ldr	r1, [sp, #4]
    3068:	e2011003 	and	r1, r1, #3
    306c:	e58d1004 	str	r1, [sp, #4]
    3070:	e59d1004 	ldr	r1, [sp, #4]
    3074:	e1510003 	cmp	r1, r3
    3078:	02833020 	addeq	r3, r3, #32
    307c:	0a000003 	beq	3090 <change_runtime_env+0x70>
    3080:	e59d1004 	ldr	r1, [sp, #4]
    3084:	e3510001 	cmp	r1, #1
    3088:	1a000002 	bne	3098 <change_runtime_env+0x78>
    308c:	e3053dc0 	movw	r3, #24000	; 0x5dc0
    3090:	e58c300c 	str	r3, [ip, #12]
    3094:	ea000026 	b	3134 <change_runtime_env+0x114>
    3098:	e59d1004 	ldr	r1, [sp, #4]
    309c:	e3510002 	cmp	r1, #2
    30a0:	1a000023 	bne	3134 <change_runtime_env+0x114>
    30a4:	e5922000 	ldr	r2, [r2]
    30a8:	e3a04001 	mov	r4, #1
    30ac:	e58d2004 	str	r2, [sp, #4]
    30b0:	e59d1004 	ldr	r1, [sp, #4]
    30b4:	e59dc004 	ldr	ip, [sp, #4]
    30b8:	e59d0004 	ldr	r0, [sp, #4]
    30bc:	e7e11851 	ubfx	r1, r1, #16, #2
    30c0:	e59d2004 	ldr	r2, [sp, #4]
    30c4:	e1a01114 	lsl	r1, r4, r1
    30c8:	e2022003 	and	r2, r2, #3
    30cc:	e0822004 	add	r2, r2, r4
    30d0:	e0120192 	muls	r2, r2, r1
    30d4:	01a01002 	moveq	r1, r2
    30d8:	0a000013 	beq	312c <change_runtime_env+0x10c>
    30dc:	ea000001 	b	30e8 <change_runtime_env+0xc8>
    30e0:	e1a02082 	lsl	r2, r2, #1
    30e4:	e2833001 	add	r3, r3, #1
    30e8:	e3520000 	cmp	r2, #0
    30ec:	aafffffb 	bge	30e0 <change_runtime_env+0xc0>
    30f0:	e7e4c45c 	ubfx	ip, ip, #8, #5
    30f4:	e3054dc0 	movw	r4, #24000	; 0x5dc0
    30f8:	e7e10250 	ubfx	r0, r0, #4, #2
    30fc:	e3a01000 	mov	r1, #0
    3100:	e00c0c94 	mul	ip, r4, ip
    3104:	e2800001 	add	r0, r0, #1
    3108:	e0000c90 	mul	r0, r0, ip
    310c:	e1500002 	cmp	r0, r2
    3110:	e1a0c081 	lsl	ip, r1, #1
    3114:	20620000 	rsbcs	r0, r2, r0
    3118:	e38c1001 	orr	r1, ip, #1
    311c:	31a0100c 	movcc	r1, ip
    3120:	e2533001 	subs	r3, r3, #1
    3124:	e1a020a2 	lsr	r2, r2, #1
    3128:	5afffff7 	bpl	310c <change_runtime_env+0xec>
    312c:	e59f300c 	ldr	r3, [pc, #12]	; 3140 <change_runtime_env+0x120>
    3130:	e583100c 	str	r1, [r3, #12]
    3134:	e8bd801c 	pop	{r2, r3, r4, pc}
    3138:	f1c20000 	undefined instruction 0xf1c20000
    313c:	01c20000 	biceq	r0, r2, r0
    3140:	000042cc 	andeq	r4, r0, ip, asr #5

00003144 <delay_us>:
    3144:	e59f3078 	ldr	r3, [pc, #120]	; 31c4 <delay_us+0x80>
    3148:	e92d4010 	push	{r4, lr}
    314c:	e593c00c 	ldr	ip, [r3, #12]
    3150:	e35c0ffa 	cmp	ip, #1000	; 0x3e8
    3154:	98bd8010 	popls	{r4, pc}
    3158:	e3a02000 	mov	r2, #0
    315c:	e3a03ffa 	mov	r3, #1000	; 0x3e8
    3160:	e2822001 	add	r2, r2, #1
    3164:	e1a03083 	lsl	r3, r3, #1
    3168:	e3520016 	cmp	r2, #22
    316c:	1afffffb 	bne	3160 <delay_us+0x1c>
    3170:	e3a01000 	mov	r1, #0
    3174:	e15c0003 	cmp	ip, r3
    3178:	e1a04081 	lsl	r4, r1, #1
    317c:	2063c00c 	rsbcs	ip, r3, ip
    3180:	e3841001 	orr	r1, r4, #1
    3184:	31a01004 	movcc	r1, r4
    3188:	e2522001 	subs	r2, r2, #1
    318c:	e1a030a3 	lsr	r3, r3, #1
    3190:	5afffff7 	bpl	3174 <delay_us+0x30>
    3194:	ee193f1d 	mrc	15, 0, r3, cr9, cr13, {0}
    3198:	e59f2024 	ldr	r2, [pc, #36]	; 31c4 <delay_us+0x80>
    319c:	e2811001 	add	r1, r1, #1
    31a0:	e5922008 	ldr	r2, [r2, #8]
    31a4:	e0622003 	rsb	r2, r2, r3
    31a8:	e0212190 	mla	r1, r0, r1, r2
    31ac:	ea000000 	b	31b4 <delay_us+0x70>
    31b0:	ee193f1d 	mrc	15, 0, r3, cr9, cr13, {0}
    31b4:	e0613003 	rsb	r3, r1, r3
    31b8:	e3530000 	cmp	r3, #0
    31bc:	bafffffb 	blt	31b0 <delay_us+0x6c>
    31c0:	e8bd8010 	pop	{r4, pc}
    31c4:	000042cc 	andeq	r4, r0, ip, asr #5

000031c8 <delay_ms>:
    31c8:	e3a03ffa 	mov	r3, #1000	; 0x3e8
    31cc:	e0000093 	mul	r0, r3, r0
    31d0:	eaffffdb 	b	3144 <delay_us>

000031d4 <io_init>:
    31d4:	e59f2008 	ldr	r2, [pc, #8]	; 31e4 <io_init+0x10>
    31d8:	e59f3008 	ldr	r3, [pc, #8]	; 31e8 <io_init+0x14>
    31dc:	e5832890 	str	r2, [r3, #2192]	; 0x890
    31e0:	e12fff1e 	bx	lr
    31e4:	00111111 	andseq	r1, r1, r1, lsl r1
    31e8:	f1c20000 	undefined instruction 0xf1c20000

000031ec <io_init_high>:
    31ec:	e59f300c 	ldr	r3, [pc, #12]	; 3200 <io_init_high+0x14>
    31f0:	e59328a0 	ldr	r2, [r3, #2208]	; 0x8a0
    31f4:	e382203f 	orr	r2, r2, #63	; 0x3f
    31f8:	e58328a0 	str	r2, [r3, #2208]	; 0x8a0
    31fc:	e12fff1e 	bx	lr
    3200:	f1c20000 	undefined instruction 0xf1c20000

00003204 <io_init_low>:
    3204:	e59f300c 	ldr	r3, [pc, #12]	; 3218 <io_init_low+0x14>
    3208:	e59328a0 	ldr	r2, [r3, #2208]	; 0x8a0
    320c:	e3c2203f 	bic	r2, r2, #63	; 0x3f
    3210:	e58328a0 	str	r2, [r3, #2208]	; 0x8a0
    3214:	e12fff1e 	bx	lr
    3218:	f1c20000 	undefined instruction 0xf1c20000

0000321c <io_high>:
    321c:	e92d4070 	push	{r4, r5, r6, lr}
    3220:	e59f4024 	ldr	r4, [pc, #36]	; 324c <io_high+0x30>
    3224:	e3a05001 	mov	r5, #1
    3228:	e59468a0 	ldr	r6, [r4, #2208]	; 0x8a0
    322c:	e1a05015 	lsl	r5, r5, r0
    3230:	e3020710 	movw	r0, #10000	; 0x2710
    3234:	e1c66005 	bic	r6, r6, r5
    3238:	e58468a0 	str	r6, [r4, #2208]	; 0x8a0
    323c:	ebffffc0 	bl	3144 <delay_us>
    3240:	e1865005 	orr	r5, r6, r5
    3244:	e58458a0 	str	r5, [r4, #2208]	; 0x8a0
    3248:	e8bd8070 	pop	{r4, r5, r6, pc}
    324c:	f1c20000 	undefined instruction 0xf1c20000
	...

00003260 <save_mmu_state>:
    3260:	ee503f10 	mrc	15, 2, r3, cr0, cr0, {0}
    3264:	e5803000 	str	r3, [r0]
    3268:	ee113f50 	mrc	15, 0, r3, cr1, cr0, {2}
    326c:	e5803008 	str	r3, [r0, #8]
    3270:	ee133f10 	mrc	15, 0, r3, cr3, cr0, {0}
    3274:	e5803018 	str	r3, [r0, #24]
    3278:	ee123f10 	mrc	15, 0, r3, cr2, cr0, {0}
    327c:	e580300c 	str	r3, [r0, #12]
    3280:	ee123f30 	mrc	15, 0, r3, cr2, cr0, {1}
    3284:	e5803010 	str	r3, [r0, #16]
    3288:	ee123f50 	mrc	15, 0, r3, cr2, cr0, {2}
    328c:	e5803014 	str	r3, [r0, #20]
    3290:	ee113f10 	mrc	15, 0, r3, cr1, cr0, {0}
    3294:	e5803004 	str	r3, [r0, #4]
    3298:	e12fff1e 	bx	lr

0000329c <restore_mmu_state>:
    329c:	e5903000 	ldr	r3, [r0]
    32a0:	ee403f10 	mcr	15, 2, r3, cr0, cr0, {0}
    32a4:	e5903008 	ldr	r3, [r0, #8]
    32a8:	ee013f50 	mcr	15, 0, r3, cr1, cr0, {2}
    32ac:	e5903018 	ldr	r3, [r0, #24]
    32b0:	ee033f10 	mcr	15, 0, r3, cr3, cr0, {0}
    32b4:	e5903010 	ldr	r3, [r0, #16]
    32b8:	ee023f10 	mcr	15, 0, r3, cr2, cr0, {0}
    32bc:	ee023f30 	mcr	15, 0, r3, cr2, cr0, {1}
    32c0:	e5903014 	ldr	r3, [r0, #20]
    32c4:	ee023f50 	mcr	15, 0, r3, cr2, cr0, {2}
    32c8:	ea000004 	b	32e0 <__turn_mmu_on>
    32cc:	e320f000 	nop	{0}
    32d0:	e320f000 	nop	{0}
    32d4:	e320f000 	nop	{0}
    32d8:	e320f000 	nop	{0}
    32dc:	e320f000 	nop	{0}

000032e0 <__turn_mmu_on>:
    32e0:	e1a00000 	nop			; (mov r0, r0)
    32e4:	e5903004 	ldr	r3, [r0, #4]
    32e8:	ee013f10 	mcr	15, 0, r3, cr1, cr0, {0}
    32ec:	ee103f10 	mrc	15, 0, r3, cr0, cr0, {0}
    32f0:	e1a03003 	mov	r3, r3
    32f4:	e1a03003 	mov	r3, r3
    32f8:	f57ff06f 	isb	sy
    32fc:	e12fff1e 	bx	lr

00003300 <set_ttbr0>:
    3300:	ee123f30 	mrc	15, 0, r3, cr2, cr0, {1}
    3304:	ee023f10 	mcr	15, 0, r3, cr2, cr0, {0}
    3308:	f57ff06f 	isb	sy
    330c:	e12fff1e 	bx	lr
    3310:	e320f000 	nop	{0}
    3314:	e320f000 	nop	{0}
    3318:	e320f000 	nop	{0}
    331c:	e320f000 	nop	{0}

00003320 <invalidate_dcache>:
    3320:	f57ff05f 	dmb	sy
    3324:	ee300f30 	mrc	15, 1, r0, cr0, cr0, {1}
    3328:	e2103407 	ands	r3, r0, #117440512	; 0x7000000
    332c:	e1a03ba3 	lsr	r3, r3, #23
    3330:	0a00001a 	beq	33a0 <inv_finished>
    3334:	e3a0a000 	mov	sl, #0

00003338 <inv_loop1>:
    3338:	e08a20aa 	add	r2, sl, sl, lsr #1
    333c:	e1a01230 	lsr	r1, r0, r2
    3340:	e2011007 	and	r1, r1, #7
    3344:	e3510002 	cmp	r1, #2
    3348:	ba000011 	blt	3394 <inv_skip>
    334c:	ee40af10 	mcr	15, 2, sl, cr0, cr0, {0}
    3350:	f57ff06f 	isb	sy
    3354:	ee301f10 	mrc	15, 1, r1, cr0, cr0, {0}
    3358:	e2012007 	and	r2, r1, #7
    335c:	e2822004 	add	r2, r2, #4
    3360:	e59f4100 	ldr	r4, [pc, #256]	; 3468 <clear_reg_context+0x38>
    3364:	e01441a1 	ands	r4, r4, r1, lsr #3
    3368:	e16f5f14 	clz	r5, r4
    336c:	e59f70f8 	ldr	r7, [pc, #248]	; 346c <clear_reg_context+0x3c>
    3370:	e01776a1 	ands	r7, r7, r1, lsr #13

00003374 <inv_loop2>:
    3374:	e1a09004 	mov	r9, r4

00003378 <inv_loop3>:
    3378:	e18ab519 	orr	fp, sl, r9, lsl r5
    337c:	e18bb217 	orr	fp, fp, r7, lsl r2
    3380:	ee07bf56 	mcr	15, 0, fp, cr7, cr6, {2}
    3384:	e2599001 	subs	r9, r9, #1
    3388:	aafffffa 	bge	3378 <inv_loop3>
    338c:	e2577001 	subs	r7, r7, #1
    3390:	aafffff7 	bge	3374 <inv_loop2>

00003394 <inv_skip>:
    3394:	e28aa002 	add	sl, sl, #2
    3398:	e153000a 	cmp	r3, sl
    339c:	caffffe5 	bgt	3338 <inv_loop1>

000033a0 <inv_finished>:
    33a0:	e3a0a000 	mov	sl, #0
    33a4:	ee40af10 	mcr	15, 2, sl, cr0, cr0, {0}
    33a8:	f57ff04f 	dsb	sy
    33ac:	f57ff06f 	isb	sy
    33b0:	e1a0f00e 	mov	pc, lr
    33b4:	e320f000 	nop	{0}
    33b8:	e320f000 	nop	{0}
    33bc:	e320f000 	nop	{0}

000033c0 <jump_to_resume>:
    33c0:	e1a0c000 	mov	ip, r0
    33c4:	e1a08001 	mov	r8, r1
    33c8:	ebffffd4 	bl	3320 <invalidate_dcache>
    33cc:	e1a01008 	mov	r1, r8
    33d0:	e1a0e00c 	mov	lr, ip
    33d4:	e8913fff 	ldm	r1, {r0, r1, r2, r3, r4, r5, r6, r7, r8, r9, sl, fp, ip, sp}
    33d8:	e1a0f00e 	mov	pc, lr
    33dc:	e320f000 	nop	{0}

000033e0 <jump_to_resume0>:
    33e0:	e1a0e000 	mov	lr, r0
    33e4:	e1a0f00e 	mov	pc, lr
    33e8:	e320f000 	nop	{0}
    33ec:	e320f000 	nop	{0}

000033f0 <jump_to_resume0_nommu>:
    33f0:	ee111f10 	mrc	15, 0, r1, cr1, cr0, {0}
    33f4:	e3c11a01 	bic	r1, r1, #4096	; 0x1000
    33f8:	e3c11007 	bic	r1, r1, #7
    33fc:	ee011f10 	mcr	15, 0, r1, cr1, cr0, {0}
    3400:	ee103f10 	mrc	15, 0, r3, cr0, cr0, {0}
    3404:	e1a03003 	mov	r3, r3
    3408:	e1a03003 	mov	r3, r3
    340c:	e1a0e000 	mov	lr, r0
    3410:	f57ff06f 	isb	sy
    3414:	e1a0f00e 	mov	pc, lr
    3418:	e320f000 	nop	{0}
    341c:	e320f000 	nop	{0}

00003420 <save_runtime_context>:
    3420:	e8803fff 	stm	r0, {r0, r1, r2, r3, r4, r5, r6, r7, r8, r9, sl, fp, ip, sp}
    3424:	e1a0f00e 	mov	pc, lr
    3428:	e320f000 	nop	{0}
    342c:	e320f000 	nop	{0}

00003430 <clear_reg_context>:
    3430:	e3a00000 	mov	r0, #0
    3434:	e3a01000 	mov	r1, #0
    3438:	e3a02000 	mov	r2, #0
    343c:	e3a03000 	mov	r3, #0
    3440:	e3a04000 	mov	r4, #0
    3444:	e3a05000 	mov	r5, #0
    3448:	e3a06000 	mov	r6, #0
    344c:	e3a07000 	mov	r7, #0
    3450:	e3a08000 	mov	r8, #0
    3454:	e3a09000 	mov	r9, #0
    3458:	e3a0a000 	mov	sl, #0
    345c:	e3a0b000 	mov	fp, #0
    3460:	e3a0c000 	mov	ip, #0
    3464:	e1a0f00e 	mov	pc, lr
    3468:	000003ff 	strdeq	r0, [r0], -pc
    346c:	00007fff 	strdeq	r7, [r0], -pc

00003470 <__save_processor_state>:
    3470:	ee503f10 	mrc	15, 2, r3, cr0, cr0, {0}
    3474:	e5c03000 	strb	r3, [r0]
    3478:	e1a02c23 	lsr	r2, r3, #24
    347c:	e5c02003 	strb	r2, [r0, #3]
    3480:	e7e72453 	ubfx	r2, r3, #8, #8
    3484:	e7e73853 	ubfx	r3, r3, #16, #8
    3488:	e5c02001 	strb	r2, [r0, #1]
    348c:	e5c03002 	strb	r3, [r0, #2]
    3490:	ee113f10 	mrc	15, 0, r3, cr1, cr0, {0}
    3494:	e5c03004 	strb	r3, [r0, #4]
    3498:	e1a02c23 	lsr	r2, r3, #24
    349c:	e5c02007 	strb	r2, [r0, #7]
    34a0:	e7e72453 	ubfx	r2, r3, #8, #8
    34a4:	e7e73853 	ubfx	r3, r3, #16, #8
    34a8:	e5c02005 	strb	r2, [r0, #5]
    34ac:	e5c03006 	strb	r3, [r0, #6]
    34b0:	ee113f50 	mrc	15, 0, r3, cr1, cr0, {2}
    34b4:	e5c0300c 	strb	r3, [r0, #12]
    34b8:	e1a02c23 	lsr	r2, r3, #24
    34bc:	e5c0200f 	strb	r2, [r0, #15]
    34c0:	e7e72453 	ubfx	r2, r3, #8, #8
    34c4:	e7e73853 	ubfx	r3, r3, #16, #8
    34c8:	e5c0200d 	strb	r2, [r0, #13]
    34cc:	e5c0300e 	strb	r3, [r0, #14]
    34d0:	ee123f10 	mrc	15, 0, r3, cr2, cr0, {0}
    34d4:	e5c0301c 	strb	r3, [r0, #28]
    34d8:	e1a02c23 	lsr	r2, r3, #24
    34dc:	e5c0201f 	strb	r2, [r0, #31]
    34e0:	e7e72453 	ubfx	r2, r3, #8, #8
    34e4:	e7e73853 	ubfx	r3, r3, #16, #8
    34e8:	e5c0201d 	strb	r2, [r0, #29]
    34ec:	e5c0301e 	strb	r3, [r0, #30]
    34f0:	ee123f30 	mrc	15, 0, r3, cr2, cr0, {1}
    34f4:	e5c03020 	strb	r3, [r0, #32]
    34f8:	e1a02c23 	lsr	r2, r3, #24
    34fc:	e5c02023 	strb	r2, [r0, #35]	; 0x23
    3500:	e7e72453 	ubfx	r2, r3, #8, #8
    3504:	e7e73853 	ubfx	r3, r3, #16, #8
    3508:	e5c02021 	strb	r2, [r0, #33]	; 0x21
    350c:	e5c03022 	strb	r3, [r0, #34]	; 0x22
    3510:	ee123f50 	mrc	15, 0, r3, cr2, cr0, {2}
    3514:	e5c03024 	strb	r3, [r0, #36]	; 0x24
    3518:	e1a02c23 	lsr	r2, r3, #24
    351c:	e5c02027 	strb	r2, [r0, #39]	; 0x27
    3520:	e7e72453 	ubfx	r2, r3, #8, #8
    3524:	e7e73853 	ubfx	r3, r3, #16, #8
    3528:	e5c02025 	strb	r2, [r0, #37]	; 0x25
    352c:	e5c03026 	strb	r3, [r0, #38]	; 0x26
    3530:	ee133f10 	mrc	15, 0, r3, cr3, cr0, {0}
    3534:	e5c03028 	strb	r3, [r0, #40]	; 0x28
    3538:	e1a02c23 	lsr	r2, r3, #24
    353c:	e5c0202b 	strb	r2, [r0, #43]	; 0x2b
    3540:	e7e72453 	ubfx	r2, r3, #8, #8
    3544:	e7e73853 	ubfx	r3, r3, #16, #8
    3548:	e5c02029 	strb	r2, [r0, #41]	; 0x29
    354c:	e5c0302a 	strb	r3, [r0, #42]	; 0x2a
    3550:	ee153f10 	mrc	15, 0, r3, cr5, cr0, {0}
    3554:	e5c0302c 	strb	r3, [r0, #44]	; 0x2c
    3558:	e1a02c23 	lsr	r2, r3, #24
    355c:	e5c0202f 	strb	r2, [r0, #47]	; 0x2f
    3560:	e7e72453 	ubfx	r2, r3, #8, #8
    3564:	e7e73853 	ubfx	r3, r3, #16, #8
    3568:	e5c0202d 	strb	r2, [r0, #45]	; 0x2d
    356c:	e5c0302e 	strb	r3, [r0, #46]	; 0x2e
    3570:	ee153f30 	mrc	15, 0, r3, cr5, cr0, {1}
    3574:	e5c03030 	strb	r3, [r0, #48]	; 0x30
    3578:	e1a02c23 	lsr	r2, r3, #24
    357c:	e7e71453 	ubfx	r1, r3, #8, #8
    3580:	e7e73853 	ubfx	r3, r3, #16, #8
    3584:	e5c01031 	strb	r1, [r0, #49]	; 0x31
    3588:	e5c02033 	strb	r2, [r0, #51]	; 0x33
    358c:	e5c03032 	strb	r3, [r0, #50]	; 0x32
    3590:	ee153f11 	mrc	15, 0, r3, cr5, cr1, {0}
    3594:	e5c03034 	strb	r3, [r0, #52]	; 0x34
    3598:	e1a02c23 	lsr	r2, r3, #24
    359c:	e5c02037 	strb	r2, [r0, #55]	; 0x37
    35a0:	e7e72453 	ubfx	r2, r3, #8, #8
    35a4:	e7e73853 	ubfx	r3, r3, #16, #8
    35a8:	e5c02035 	strb	r2, [r0, #53]	; 0x35
    35ac:	e5c03036 	strb	r3, [r0, #54]	; 0x36
    35b0:	ee153f31 	mrc	15, 0, r3, cr5, cr1, {1}
    35b4:	e5c03038 	strb	r3, [r0, #56]	; 0x38
    35b8:	e1a02c23 	lsr	r2, r3, #24
    35bc:	e5c0203b 	strb	r2, [r0, #59]	; 0x3b
    35c0:	e7e72453 	ubfx	r2, r3, #8, #8
    35c4:	e7e73853 	ubfx	r3, r3, #16, #8
    35c8:	e5c02039 	strb	r2, [r0, #57]	; 0x39
    35cc:	e5c0303a 	strb	r3, [r0, #58]	; 0x3a
    35d0:	ee163f10 	mrc	15, 0, r3, cr6, cr0, {0}
    35d4:	e5c0303c 	strb	r3, [r0, #60]	; 0x3c
    35d8:	e1a02c23 	lsr	r2, r3, #24
    35dc:	e5c0203f 	strb	r2, [r0, #63]	; 0x3f
    35e0:	e7e72453 	ubfx	r2, r3, #8, #8
    35e4:	e7e73853 	ubfx	r3, r3, #16, #8
    35e8:	e5c0203d 	strb	r2, [r0, #61]	; 0x3d
    35ec:	e5c0303e 	strb	r3, [r0, #62]	; 0x3e
    35f0:	ee163f50 	mrc	15, 0, r3, cr6, cr0, {2}
    35f4:	e5c03040 	strb	r3, [r0, #64]	; 0x40
    35f8:	e1a02c23 	lsr	r2, r3, #24
    35fc:	e5c02043 	strb	r2, [r0, #67]	; 0x43
    3600:	e7e72453 	ubfx	r2, r3, #8, #8
    3604:	e7e73853 	ubfx	r3, r3, #16, #8
    3608:	e5c02041 	strb	r2, [r0, #65]	; 0x41
    360c:	e5c03042 	strb	r3, [r0, #66]	; 0x42
    3610:	ee173f14 	mrc	15, 0, r3, cr7, cr4, {0}
    3614:	e5c03044 	strb	r3, [r0, #68]	; 0x44
    3618:	e1a02c23 	lsr	r2, r3, #24
    361c:	e5c02047 	strb	r2, [r0, #71]	; 0x47
    3620:	e7e72453 	ubfx	r2, r3, #8, #8
    3624:	e7e73853 	ubfx	r3, r3, #16, #8
    3628:	e5c02045 	strb	r2, [r0, #69]	; 0x45
    362c:	e5c03046 	strb	r3, [r0, #70]	; 0x46
    3630:	ee193f1c 	mrc	15, 0, r3, cr9, cr12, {0}
    3634:	e5c03048 	strb	r3, [r0, #72]	; 0x48
    3638:	e1a02c23 	lsr	r2, r3, #24
    363c:	e5c0204b 	strb	r2, [r0, #75]	; 0x4b
    3640:	e7e72453 	ubfx	r2, r3, #8, #8
    3644:	e7e73853 	ubfx	r3, r3, #16, #8
    3648:	e5c02049 	strb	r2, [r0, #73]	; 0x49
    364c:	e5c0304a 	strb	r3, [r0, #74]	; 0x4a
    3650:	ee193f3c 	mrc	15, 0, r3, cr9, cr12, {1}
    3654:	e5c0304c 	strb	r3, [r0, #76]	; 0x4c
    3658:	e1a02c23 	lsr	r2, r3, #24
    365c:	e5c0204f 	strb	r2, [r0, #79]	; 0x4f
    3660:	e7e72453 	ubfx	r2, r3, #8, #8
    3664:	e7e73853 	ubfx	r3, r3, #16, #8
    3668:	e5c0204d 	strb	r2, [r0, #77]	; 0x4d
    366c:	e5c0304e 	strb	r3, [r0, #78]	; 0x4e
    3670:	ee193f5c 	mrc	15, 0, r3, cr9, cr12, {2}
    3674:	e5c03050 	strb	r3, [r0, #80]	; 0x50
    3678:	e1a02c23 	lsr	r2, r3, #24
    367c:	e7e71453 	ubfx	r1, r3, #8, #8
    3680:	e7e73853 	ubfx	r3, r3, #16, #8
    3684:	e5c01051 	strb	r1, [r0, #81]	; 0x51
    3688:	e5c03052 	strb	r3, [r0, #82]	; 0x52
    368c:	e5c02053 	strb	r2, [r0, #83]	; 0x53
    3690:	ee193f7c 	mrc	15, 0, r3, cr9, cr12, {3}
    3694:	e5c03054 	strb	r3, [r0, #84]	; 0x54
    3698:	e1a02c23 	lsr	r2, r3, #24
    369c:	e5c02057 	strb	r2, [r0, #87]	; 0x57
    36a0:	e7e72453 	ubfx	r2, r3, #8, #8
    36a4:	e7e73853 	ubfx	r3, r3, #16, #8
    36a8:	e5c02055 	strb	r2, [r0, #85]	; 0x55
    36ac:	e5c03056 	strb	r3, [r0, #86]	; 0x56
    36b0:	ee193f9c 	mrc	15, 0, r3, cr9, cr12, {4}
    36b4:	e5c03058 	strb	r3, [r0, #88]	; 0x58
    36b8:	e1a02c23 	lsr	r2, r3, #24
    36bc:	e5c0205b 	strb	r2, [r0, #91]	; 0x5b
    36c0:	e7e72453 	ubfx	r2, r3, #8, #8
    36c4:	e7e73853 	ubfx	r3, r3, #16, #8
    36c8:	e5c02059 	strb	r2, [r0, #89]	; 0x59
    36cc:	e5c0305a 	strb	r3, [r0, #90]	; 0x5a
    36d0:	ee193fbc 	mrc	15, 0, r3, cr9, cr12, {5}
    36d4:	e5c0305c 	strb	r3, [r0, #92]	; 0x5c
    36d8:	e1a02c23 	lsr	r2, r3, #24
    36dc:	e5c0205f 	strb	r2, [r0, #95]	; 0x5f
    36e0:	e7e72453 	ubfx	r2, r3, #8, #8
    36e4:	e7e73853 	ubfx	r3, r3, #16, #8
    36e8:	e5c0205d 	strb	r2, [r0, #93]	; 0x5d
    36ec:	e5c0305e 	strb	r3, [r0, #94]	; 0x5e
    36f0:	ee193f1d 	mrc	15, 0, r3, cr9, cr13, {0}
    36f4:	e5c03060 	strb	r3, [r0, #96]	; 0x60
    36f8:	e1a02c23 	lsr	r2, r3, #24
    36fc:	e5c02063 	strb	r2, [r0, #99]	; 0x63
    3700:	e7e72453 	ubfx	r2, r3, #8, #8
    3704:	e7e73853 	ubfx	r3, r3, #16, #8
    3708:	e5c02061 	strb	r2, [r0, #97]	; 0x61
    370c:	e5c03062 	strb	r3, [r0, #98]	; 0x62
    3710:	ee193f3d 	mrc	15, 0, r3, cr9, cr13, {1}
    3714:	e5c03064 	strb	r3, [r0, #100]	; 0x64
    3718:	e1a02c23 	lsr	r2, r3, #24
    371c:	e5c02067 	strb	r2, [r0, #103]	; 0x67
    3720:	e7e72453 	ubfx	r2, r3, #8, #8
    3724:	e7e73853 	ubfx	r3, r3, #16, #8
    3728:	e5c02065 	strb	r2, [r0, #101]	; 0x65
    372c:	e5c03066 	strb	r3, [r0, #102]	; 0x66
    3730:	ee193f5d 	mrc	15, 0, r3, cr9, cr13, {2}
    3734:	e5c03068 	strb	r3, [r0, #104]	; 0x68
    3738:	e1a02c23 	lsr	r2, r3, #24
    373c:	e5c0206b 	strb	r2, [r0, #107]	; 0x6b
    3740:	e7e72453 	ubfx	r2, r3, #8, #8
    3744:	e7e73853 	ubfx	r3, r3, #16, #8
    3748:	e5c02069 	strb	r2, [r0, #105]	; 0x69
    374c:	e5c0306a 	strb	r3, [r0, #106]	; 0x6a
    3750:	ee193f1e 	mrc	15, 0, r3, cr9, cr14, {0}
    3754:	e5c0306c 	strb	r3, [r0, #108]	; 0x6c
    3758:	e1a02c23 	lsr	r2, r3, #24
    375c:	e5c0206f 	strb	r2, [r0, #111]	; 0x6f
    3760:	e7e72453 	ubfx	r2, r3, #8, #8
    3764:	e7e73853 	ubfx	r3, r3, #16, #8
    3768:	e5c0206d 	strb	r2, [r0, #109]	; 0x6d
    376c:	e5c0306e 	strb	r3, [r0, #110]	; 0x6e
    3770:	ee193f3e 	mrc	15, 0, r3, cr9, cr14, {1}
    3774:	e5c03070 	strb	r3, [r0, #112]	; 0x70
    3778:	e1a02c23 	lsr	r2, r3, #24
    377c:	e5c02073 	strb	r2, [r0, #115]	; 0x73
    3780:	e7e72453 	ubfx	r2, r3, #8, #8
    3784:	e7e73853 	ubfx	r3, r3, #16, #8
    3788:	e5c02071 	strb	r2, [r0, #113]	; 0x71
    378c:	e5c03072 	strb	r3, [r0, #114]	; 0x72
    3790:	ee193f5e 	mrc	15, 0, r3, cr9, cr14, {2}
    3794:	e5c03074 	strb	r3, [r0, #116]	; 0x74
    3798:	e1a02c23 	lsr	r2, r3, #24
    379c:	e7e71453 	ubfx	r1, r3, #8, #8
    37a0:	e7e73853 	ubfx	r3, r3, #16, #8
    37a4:	e5c01075 	strb	r1, [r0, #117]	; 0x75
    37a8:	e5c02077 	strb	r2, [r0, #119]	; 0x77
    37ac:	e5c03076 	strb	r3, [r0, #118]	; 0x76
    37b0:	ee393f10 	mrc	15, 1, r3, cr9, cr0, {0}
    37b4:	e5c03078 	strb	r3, [r0, #120]	; 0x78
    37b8:	e1a02c23 	lsr	r2, r3, #24
    37bc:	e5c0207b 	strb	r2, [r0, #123]	; 0x7b
    37c0:	e7e72453 	ubfx	r2, r3, #8, #8
    37c4:	e7e73853 	ubfx	r3, r3, #16, #8
    37c8:	e5c02079 	strb	r2, [r0, #121]	; 0x79
    37cc:	e5c0307a 	strb	r3, [r0, #122]	; 0x7a
    37d0:	ee393f50 	mrc	15, 1, r3, cr9, cr0, {2}
    37d4:	e5c0307c 	strb	r3, [r0, #124]	; 0x7c
    37d8:	e1a02c23 	lsr	r2, r3, #24
    37dc:	e5c0207f 	strb	r2, [r0, #127]	; 0x7f
    37e0:	e7e72453 	ubfx	r2, r3, #8, #8
    37e4:	e7e73853 	ubfx	r3, r3, #16, #8
    37e8:	e5c0207d 	strb	r2, [r0, #125]	; 0x7d
    37ec:	e5c0307e 	strb	r3, [r0, #126]	; 0x7e
    37f0:	ee1a3f10 	mrc	15, 0, r3, cr10, cr0, {0}
    37f4:	e5c03080 	strb	r3, [r0, #128]	; 0x80
    37f8:	e1a02c23 	lsr	r2, r3, #24
    37fc:	e5c02083 	strb	r2, [r0, #131]	; 0x83
    3800:	e7e72453 	ubfx	r2, r3, #8, #8
    3804:	e7e73853 	ubfx	r3, r3, #16, #8
    3808:	e5c02081 	strb	r2, [r0, #129]	; 0x81
    380c:	e5c03082 	strb	r3, [r0, #130]	; 0x82
    3810:	ee1a3f30 	mrc	15, 0, r3, cr10, cr0, {1}
    3814:	e5c03084 	strb	r3, [r0, #132]	; 0x84
    3818:	e1a02c23 	lsr	r2, r3, #24
    381c:	e5c02087 	strb	r2, [r0, #135]	; 0x87
    3820:	e7e72453 	ubfx	r2, r3, #8, #8
    3824:	e7e73853 	ubfx	r3, r3, #16, #8
    3828:	e5c02085 	strb	r2, [r0, #133]	; 0x85
    382c:	e5c03086 	strb	r3, [r0, #134]	; 0x86
    3830:	ee1a3f12 	mrc	15, 0, r3, cr10, cr2, {0}
    3834:	e5c03088 	strb	r3, [r0, #136]	; 0x88
    3838:	e1a02c23 	lsr	r2, r3, #24
    383c:	e5c0208b 	strb	r2, [r0, #139]	; 0x8b
    3840:	e7e72453 	ubfx	r2, r3, #8, #8
    3844:	e7e73853 	ubfx	r3, r3, #16, #8
    3848:	e5c02089 	strb	r2, [r0, #137]	; 0x89
    384c:	e5c0308a 	strb	r3, [r0, #138]	; 0x8a
    3850:	ee1a3f32 	mrc	15, 0, r3, cr10, cr2, {1}
    3854:	e5c0308c 	strb	r3, [r0, #140]	; 0x8c
    3858:	e1a02c23 	lsr	r2, r3, #24
    385c:	e5c0208f 	strb	r2, [r0, #143]	; 0x8f
    3860:	e7e72453 	ubfx	r2, r3, #8, #8
    3864:	e7e73853 	ubfx	r3, r3, #16, #8
    3868:	e5c0208d 	strb	r2, [r0, #141]	; 0x8d
    386c:	e5c0308e 	strb	r3, [r0, #142]	; 0x8e
    3870:	ee1b3f11 	mrc	15, 0, r3, cr11, cr1, {0}
    3874:	e5c03090 	strb	r3, [r0, #144]	; 0x90
    3878:	e1a02c23 	lsr	r2, r3, #24
    387c:	e5c02093 	strb	r2, [r0, #147]	; 0x93
    3880:	e7e72453 	ubfx	r2, r3, #8, #8
    3884:	e7e73853 	ubfx	r3, r3, #16, #8
    3888:	e5c02091 	strb	r2, [r0, #145]	; 0x91
    388c:	e5c03092 	strb	r3, [r0, #146]	; 0x92
    3890:	ee1b3f12 	mrc	15, 0, r3, cr11, cr2, {0}
    3894:	e5c03094 	strb	r3, [r0, #148]	; 0x94
    3898:	e1a02c23 	lsr	r2, r3, #24
    389c:	e7e71453 	ubfx	r1, r3, #8, #8
    38a0:	e7e73853 	ubfx	r3, r3, #16, #8
    38a4:	e5c01095 	strb	r1, [r0, #149]	; 0x95
    38a8:	e5c03096 	strb	r3, [r0, #150]	; 0x96
    38ac:	e5c02097 	strb	r2, [r0, #151]	; 0x97
    38b0:	ee1b3f14 	mrc	15, 0, r3, cr11, cr4, {0}
    38b4:	e5c03098 	strb	r3, [r0, #152]	; 0x98
    38b8:	e1a02c23 	lsr	r2, r3, #24
    38bc:	e5c0209b 	strb	r2, [r0, #155]	; 0x9b
    38c0:	e7e72453 	ubfx	r2, r3, #8, #8
    38c4:	e7e73853 	ubfx	r3, r3, #16, #8
    38c8:	e5c02099 	strb	r2, [r0, #153]	; 0x99
    38cc:	e5c0309a 	strb	r3, [r0, #154]	; 0x9a
    38d0:	ee1b3f15 	mrc	15, 0, r3, cr11, cr5, {0}
    38d4:	e5c0309c 	strb	r3, [r0, #156]	; 0x9c
    38d8:	e1a02c23 	lsr	r2, r3, #24
    38dc:	e5c0209f 	strb	r2, [r0, #159]	; 0x9f
    38e0:	e7e72453 	ubfx	r2, r3, #8, #8
    38e4:	e7e73853 	ubfx	r3, r3, #16, #8
    38e8:	e5c0209d 	strb	r2, [r0, #157]	; 0x9d
    38ec:	e5c0309e 	strb	r3, [r0, #158]	; 0x9e
    38f0:	ee1b3f17 	mrc	15, 0, r3, cr11, cr7, {0}
    38f4:	e5c030a0 	strb	r3, [r0, #160]	; 0xa0
    38f8:	e1a02c23 	lsr	r2, r3, #24
    38fc:	e5c020a3 	strb	r2, [r0, #163]	; 0xa3
    3900:	e7e72453 	ubfx	r2, r3, #8, #8
    3904:	e7e73853 	ubfx	r3, r3, #16, #8
    3908:	e5c020a1 	strb	r2, [r0, #161]	; 0xa1
    390c:	e5c030a2 	strb	r3, [r0, #162]	; 0xa2
    3910:	ee1b3f1f 	mrc	15, 0, r3, cr11, cr15, {0}
    3914:	e5c030a4 	strb	r3, [r0, #164]	; 0xa4
    3918:	e1a02c23 	lsr	r2, r3, #24
    391c:	e5c020a7 	strb	r2, [r0, #167]	; 0xa7
    3920:	e7e72453 	ubfx	r2, r3, #8, #8
    3924:	e7e73853 	ubfx	r3, r3, #16, #8
    3928:	e5c020a5 	strb	r2, [r0, #165]	; 0xa5
    392c:	e5c030a6 	strb	r3, [r0, #166]	; 0xa6
    3930:	ee1c3f10 	mrc	15, 0, r3, cr12, cr0, {0}
    3934:	e5c030a8 	strb	r3, [r0, #168]	; 0xa8
    3938:	e1a02c23 	lsr	r2, r3, #24
    393c:	e5c020ab 	strb	r2, [r0, #171]	; 0xab
    3940:	e7e72453 	ubfx	r2, r3, #8, #8
    3944:	e7e73853 	ubfx	r3, r3, #16, #8
    3948:	e5c020a9 	strb	r2, [r0, #169]	; 0xa9
    394c:	e5c030aa 	strb	r3, [r0, #170]	; 0xaa
    3950:	ee1c3f30 	mrc	15, 0, r3, cr12, cr0, {1}
    3954:	e5c030ac 	strb	r3, [r0, #172]	; 0xac
    3958:	e1a02c23 	lsr	r2, r3, #24
    395c:	e5c020af 	strb	r2, [r0, #175]	; 0xaf
    3960:	e7e72453 	ubfx	r2, r3, #8, #8
    3964:	e7e73853 	ubfx	r3, r3, #16, #8
    3968:	e5c020ad 	strb	r2, [r0, #173]	; 0xad
    396c:	e5c030ae 	strb	r3, [r0, #174]	; 0xae
    3970:	ee1d3f10 	mrc	15, 0, r3, cr13, cr0, {0}
    3974:	e5c030b0 	strb	r3, [r0, #176]	; 0xb0
    3978:	e1a02c23 	lsr	r2, r3, #24
    397c:	e5c020b3 	strb	r2, [r0, #179]	; 0xb3
    3980:	e7e72453 	ubfx	r2, r3, #8, #8
    3984:	e7e73853 	ubfx	r3, r3, #16, #8
    3988:	e5c020b1 	strb	r2, [r0, #177]	; 0xb1
    398c:	e5c030b2 	strb	r3, [r0, #178]	; 0xb2
    3990:	ee1d3f30 	mrc	15, 0, r3, cr13, cr0, {1}
    3994:	e5c030b4 	strb	r3, [r0, #180]	; 0xb4
    3998:	e1a02c23 	lsr	r2, r3, #24
    399c:	e5c020b7 	strb	r2, [r0, #183]	; 0xb7
    39a0:	e7e72453 	ubfx	r2, r3, #8, #8
    39a4:	e7e73853 	ubfx	r3, r3, #16, #8
    39a8:	e5c020b5 	strb	r2, [r0, #181]	; 0xb5
    39ac:	e5c030b6 	strb	r3, [r0, #182]	; 0xb6
    39b0:	ee1d3f50 	mrc	15, 0, r3, cr13, cr0, {2}
    39b4:	e5c030b8 	strb	r3, [r0, #184]	; 0xb8
    39b8:	e1a02c23 	lsr	r2, r3, #24
    39bc:	e7e71453 	ubfx	r1, r3, #8, #8
    39c0:	e7e73853 	ubfx	r3, r3, #16, #8
    39c4:	e5c010b9 	strb	r1, [r0, #185]	; 0xb9
    39c8:	e5c020bb 	strb	r2, [r0, #187]	; 0xbb
    39cc:	e5c030ba 	strb	r3, [r0, #186]	; 0xba
    39d0:	ee1d3f70 	mrc	15, 0, r3, cr13, cr0, {3}
    39d4:	e1a02c23 	lsr	r2, r3, #24
    39d8:	e5c030bc 	strb	r3, [r0, #188]	; 0xbc
    39dc:	e5c020bf 	strb	r2, [r0, #191]	; 0xbf
    39e0:	e7e72453 	ubfx	r2, r3, #8, #8
    39e4:	e7e73853 	ubfx	r3, r3, #16, #8
    39e8:	e5c020bd 	strb	r2, [r0, #189]	; 0xbd
    39ec:	e5c030be 	strb	r3, [r0, #190]	; 0xbe
    39f0:	ee1d3f90 	mrc	15, 0, r3, cr13, cr0, {4}
    39f4:	e1a02c23 	lsr	r2, r3, #24
    39f8:	e5c030c0 	strb	r3, [r0, #192]	; 0xc0
    39fc:	e5c020c3 	strb	r2, [r0, #195]	; 0xc3
    3a00:	e7e72453 	ubfx	r2, r3, #8, #8
    3a04:	e7e73853 	ubfx	r3, r3, #16, #8
    3a08:	e5c020c1 	strb	r2, [r0, #193]	; 0xc1
    3a0c:	e5c030c2 	strb	r3, [r0, #194]	; 0xc2
    3a10:	e12fff1e 	bx	lr

00003a14 <__restore_processor_state>:
    3a14:	e5d0c001 	ldrb	ip, [r0, #1]
    3a18:	e5d03000 	ldrb	r3, [r0]
    3a1c:	e5d01002 	ldrb	r1, [r0, #2]
    3a20:	e5d02003 	ldrb	r2, [r0, #3]
    3a24:	e183340c 	orr	r3, r3, ip, lsl #8
    3a28:	e1833801 	orr	r3, r3, r1, lsl #16
    3a2c:	e1833c02 	orr	r3, r3, r2, lsl #24
    3a30:	ee403f10 	mcr	15, 2, r3, cr0, cr0, {0}
    3a34:	e5d0c00d 	ldrb	ip, [r0, #13]
    3a38:	e5d0300c 	ldrb	r3, [r0, #12]
    3a3c:	e5d0100e 	ldrb	r1, [r0, #14]
    3a40:	e5d0200f 	ldrb	r2, [r0, #15]
    3a44:	e183340c 	orr	r3, r3, ip, lsl #8
    3a48:	e1833801 	orr	r3, r3, r1, lsl #16
    3a4c:	e1833c02 	orr	r3, r3, r2, lsl #24
    3a50:	ee013f50 	mcr	15, 0, r3, cr1, cr0, {2}
    3a54:	e5d0c01d 	ldrb	ip, [r0, #29]
    3a58:	e5d0301c 	ldrb	r3, [r0, #28]
    3a5c:	e5d0101e 	ldrb	r1, [r0, #30]
    3a60:	e5d0201f 	ldrb	r2, [r0, #31]
    3a64:	e183340c 	orr	r3, r3, ip, lsl #8
    3a68:	e1833801 	orr	r3, r3, r1, lsl #16
    3a6c:	e1833c02 	orr	r3, r3, r2, lsl #24
    3a70:	ee023f10 	mcr	15, 0, r3, cr2, cr0, {0}
    3a74:	f57ff04f 	dsb	sy
    3a78:	f57ff06f 	isb	sy
    3a7c:	e5d0c021 	ldrb	ip, [r0, #33]	; 0x21
    3a80:	e5d03020 	ldrb	r3, [r0, #32]
    3a84:	e5d01022 	ldrb	r1, [r0, #34]	; 0x22
    3a88:	e5d02023 	ldrb	r2, [r0, #35]	; 0x23
    3a8c:	e183340c 	orr	r3, r3, ip, lsl #8
    3a90:	e1833801 	orr	r3, r3, r1, lsl #16
    3a94:	e1833c02 	orr	r3, r3, r2, lsl #24
    3a98:	ee023f30 	mcr	15, 0, r3, cr2, cr0, {1}
    3a9c:	f57ff04f 	dsb	sy
    3aa0:	f57ff06f 	isb	sy
    3aa4:	e5d0c025 	ldrb	ip, [r0, #37]	; 0x25
    3aa8:	e5d03024 	ldrb	r3, [r0, #36]	; 0x24
    3aac:	e5d01026 	ldrb	r1, [r0, #38]	; 0x26
    3ab0:	e5d02027 	ldrb	r2, [r0, #39]	; 0x27
    3ab4:	e183340c 	orr	r3, r3, ip, lsl #8
    3ab8:	e1833801 	orr	r3, r3, r1, lsl #16
    3abc:	e1833c02 	orr	r3, r3, r2, lsl #24
    3ac0:	ee023f50 	mcr	15, 0, r3, cr2, cr0, {2}
    3ac4:	f57ff04f 	dsb	sy
    3ac8:	f57ff06f 	isb	sy
    3acc:	e5d0c029 	ldrb	ip, [r0, #41]	; 0x29
    3ad0:	e5d03028 	ldrb	r3, [r0, #40]	; 0x28
    3ad4:	e5d0102a 	ldrb	r1, [r0, #42]	; 0x2a
    3ad8:	e5d0202b 	ldrb	r2, [r0, #43]	; 0x2b
    3adc:	e183340c 	orr	r3, r3, ip, lsl #8
    3ae0:	e1833801 	orr	r3, r3, r1, lsl #16
    3ae4:	e1833c02 	orr	r3, r3, r2, lsl #24
    3ae8:	ee033f10 	mcr	15, 0, r3, cr3, cr0, {0}
    3aec:	e5d0c045 	ldrb	ip, [r0, #69]	; 0x45
    3af0:	e5d03044 	ldrb	r3, [r0, #68]	; 0x44
    3af4:	e5d01046 	ldrb	r1, [r0, #70]	; 0x46
    3af8:	e5d02047 	ldrb	r2, [r0, #71]	; 0x47
    3afc:	e183340c 	orr	r3, r3, ip, lsl #8
    3b00:	e1833801 	orr	r3, r3, r1, lsl #16
    3b04:	e1833c02 	orr	r3, r3, r2, lsl #24
    3b08:	ee073f14 	mcr	15, 0, r3, cr7, cr4, {0}
    3b0c:	e5d0c06d 	ldrb	ip, [r0, #109]	; 0x6d
    3b10:	e5d0306c 	ldrb	r3, [r0, #108]	; 0x6c
    3b14:	e5d0106e 	ldrb	r1, [r0, #110]	; 0x6e
    3b18:	e5d0206f 	ldrb	r2, [r0, #111]	; 0x6f
    3b1c:	e183340c 	orr	r3, r3, ip, lsl #8
    3b20:	e1833801 	orr	r3, r3, r1, lsl #16
    3b24:	e1833c02 	orr	r3, r3, r2, lsl #24
    3b28:	ee093f1e 	mcr	15, 0, r3, cr9, cr14, {0}
    3b2c:	e5d0c071 	ldrb	ip, [r0, #113]	; 0x71
    3b30:	e5d03070 	ldrb	r3, [r0, #112]	; 0x70
    3b34:	e5d01072 	ldrb	r1, [r0, #114]	; 0x72
    3b38:	e5d02073 	ldrb	r2, [r0, #115]	; 0x73
    3b3c:	e183340c 	orr	r3, r3, ip, lsl #8
    3b40:	e1833801 	orr	r3, r3, r1, lsl #16
    3b44:	e1833c02 	orr	r3, r3, r2, lsl #24
    3b48:	ee093f3e 	mcr	15, 0, r3, cr9, cr14, {1}
    3b4c:	e5d0c075 	ldrb	ip, [r0, #117]	; 0x75
    3b50:	e5d03074 	ldrb	r3, [r0, #116]	; 0x74
    3b54:	e5d01076 	ldrb	r1, [r0, #118]	; 0x76
    3b58:	e5d02077 	ldrb	r2, [r0, #119]	; 0x77
    3b5c:	e183340c 	orr	r3, r3, ip, lsl #8
    3b60:	e1833801 	orr	r3, r3, r1, lsl #16
    3b64:	e1833c02 	orr	r3, r3, r2, lsl #24
    3b68:	ee093f5e 	mcr	15, 0, r3, cr9, cr14, {2}
    3b6c:	e5d0c079 	ldrb	ip, [r0, #121]	; 0x79
    3b70:	e5d03078 	ldrb	r3, [r0, #120]	; 0x78
    3b74:	e5d0107a 	ldrb	r1, [r0, #122]	; 0x7a
    3b78:	e5d0207b 	ldrb	r2, [r0, #123]	; 0x7b
    3b7c:	e183340c 	orr	r3, r3, ip, lsl #8
    3b80:	e1833801 	orr	r3, r3, r1, lsl #16
    3b84:	e1833c02 	orr	r3, r3, r2, lsl #24
    3b88:	ee293f10 	mcr	15, 1, r3, cr9, cr0, {0}
    3b8c:	e5d0c07d 	ldrb	ip, [r0, #125]	; 0x7d
    3b90:	e5d0307c 	ldrb	r3, [r0, #124]	; 0x7c
    3b94:	e5d0107e 	ldrb	r1, [r0, #126]	; 0x7e
    3b98:	e5d0207f 	ldrb	r2, [r0, #127]	; 0x7f
    3b9c:	e183340c 	orr	r3, r3, ip, lsl #8
    3ba0:	e1833801 	orr	r3, r3, r1, lsl #16
    3ba4:	e1833c02 	orr	r3, r3, r2, lsl #24
    3ba8:	ee293f50 	mcr	15, 1, r3, cr9, cr0, {2}
    3bac:	e5d0c089 	ldrb	ip, [r0, #137]	; 0x89
    3bb0:	e5d03088 	ldrb	r3, [r0, #136]	; 0x88
    3bb4:	e5d0108a 	ldrb	r1, [r0, #138]	; 0x8a
    3bb8:	e5d0208b 	ldrb	r2, [r0, #139]	; 0x8b
    3bbc:	e183340c 	orr	r3, r3, ip, lsl #8
    3bc0:	e1833801 	orr	r3, r3, r1, lsl #16
    3bc4:	e1833c02 	orr	r3, r3, r2, lsl #24
    3bc8:	ee0a3f12 	mcr	15, 0, r3, cr10, cr2, {0}
    3bcc:	e5d0c08d 	ldrb	ip, [r0, #141]	; 0x8d
    3bd0:	e5d0308c 	ldrb	r3, [r0, #140]	; 0x8c
    3bd4:	e5d0108e 	ldrb	r1, [r0, #142]	; 0x8e
    3bd8:	e5d0208f 	ldrb	r2, [r0, #143]	; 0x8f
    3bdc:	e183340c 	orr	r3, r3, ip, lsl #8
    3be0:	e1833801 	orr	r3, r3, r1, lsl #16
    3be4:	e1833c02 	orr	r3, r3, r2, lsl #24
    3be8:	ee0a3f32 	mcr	15, 0, r3, cr10, cr2, {1}
    3bec:	e5d0c091 	ldrb	ip, [r0, #145]	; 0x91
    3bf0:	e5d03090 	ldrb	r3, [r0, #144]	; 0x90
    3bf4:	e5d01092 	ldrb	r1, [r0, #146]	; 0x92
    3bf8:	e5d02093 	ldrb	r2, [r0, #147]	; 0x93
    3bfc:	e183340c 	orr	r3, r3, ip, lsl #8
    3c00:	e1833801 	orr	r3, r3, r1, lsl #16
    3c04:	e1833c02 	orr	r3, r3, r2, lsl #24
    3c08:	ee0b3f11 	mcr	15, 0, r3, cr11, cr1, {0}
    3c0c:	e5d0c095 	ldrb	ip, [r0, #149]	; 0x95
    3c10:	e5d03094 	ldrb	r3, [r0, #148]	; 0x94
    3c14:	e5d01096 	ldrb	r1, [r0, #150]	; 0x96
    3c18:	e5d02097 	ldrb	r2, [r0, #151]	; 0x97
    3c1c:	e183340c 	orr	r3, r3, ip, lsl #8
    3c20:	e1833801 	orr	r3, r3, r1, lsl #16
    3c24:	e1833c02 	orr	r3, r3, r2, lsl #24
    3c28:	ee0b3f12 	mcr	15, 0, r3, cr11, cr2, {0}
    3c2c:	e5d0c099 	ldrb	ip, [r0, #153]	; 0x99
    3c30:	e5d03098 	ldrb	r3, [r0, #152]	; 0x98
    3c34:	e5d0109a 	ldrb	r1, [r0, #154]	; 0x9a
    3c38:	e5d0209b 	ldrb	r2, [r0, #155]	; 0x9b
    3c3c:	e183340c 	orr	r3, r3, ip, lsl #8
    3c40:	e1833801 	orr	r3, r3, r1, lsl #16
    3c44:	e1833c02 	orr	r3, r3, r2, lsl #24
    3c48:	ee0b3f14 	mcr	15, 0, r3, cr11, cr4, {0}
    3c4c:	e5d0c09d 	ldrb	ip, [r0, #157]	; 0x9d
    3c50:	e5d0309c 	ldrb	r3, [r0, #156]	; 0x9c
    3c54:	e5d0109e 	ldrb	r1, [r0, #158]	; 0x9e
    3c58:	e5d0209f 	ldrb	r2, [r0, #159]	; 0x9f
    3c5c:	e183340c 	orr	r3, r3, ip, lsl #8
    3c60:	e1833801 	orr	r3, r3, r1, lsl #16
    3c64:	e1833c02 	orr	r3, r3, r2, lsl #24
    3c68:	ee0b3f15 	mcr	15, 0, r3, cr11, cr5, {0}
    3c6c:	e5d0c0a1 	ldrb	ip, [r0, #161]	; 0xa1
    3c70:	e5d030a0 	ldrb	r3, [r0, #160]	; 0xa0
    3c74:	e5d010a2 	ldrb	r1, [r0, #162]	; 0xa2
    3c78:	e5d020a3 	ldrb	r2, [r0, #163]	; 0xa3
    3c7c:	e183340c 	orr	r3, r3, ip, lsl #8
    3c80:	e1833801 	orr	r3, r3, r1, lsl #16
    3c84:	e1833c02 	orr	r3, r3, r2, lsl #24
    3c88:	ee0b3f17 	mcr	15, 0, r3, cr11, cr7, {0}
    3c8c:	e5d0c0a5 	ldrb	ip, [r0, #165]	; 0xa5
    3c90:	e5d030a4 	ldrb	r3, [r0, #164]	; 0xa4
    3c94:	e5d010a6 	ldrb	r1, [r0, #166]	; 0xa6
    3c98:	e5d020a7 	ldrb	r2, [r0, #167]	; 0xa7
    3c9c:	e183340c 	orr	r3, r3, ip, lsl #8
    3ca0:	e1833801 	orr	r3, r3, r1, lsl #16
    3ca4:	e1833c02 	orr	r3, r3, r2, lsl #24
    3ca8:	ee0b3f1f 	mcr	15, 0, r3, cr11, cr15, {0}
    3cac:	e5d0c0a9 	ldrb	ip, [r0, #169]	; 0xa9
    3cb0:	e5d030a8 	ldrb	r3, [r0, #168]	; 0xa8
    3cb4:	e5d010aa 	ldrb	r1, [r0, #170]	; 0xaa
    3cb8:	e5d020ab 	ldrb	r2, [r0, #171]	; 0xab
    3cbc:	e183340c 	orr	r3, r3, ip, lsl #8
    3cc0:	e1833801 	orr	r3, r3, r1, lsl #16
    3cc4:	e1833c02 	orr	r3, r3, r2, lsl #24
    3cc8:	ee0c3f10 	mcr	15, 0, r3, cr12, cr0, {0}
    3ccc:	e5d0c0ad 	ldrb	ip, [r0, #173]	; 0xad
    3cd0:	e5d030ac 	ldrb	r3, [r0, #172]	; 0xac
    3cd4:	e5d010ae 	ldrb	r1, [r0, #174]	; 0xae
    3cd8:	e5d020af 	ldrb	r2, [r0, #175]	; 0xaf
    3cdc:	e183340c 	orr	r3, r3, ip, lsl #8
    3ce0:	e1833801 	orr	r3, r3, r1, lsl #16
    3ce4:	e1833c02 	orr	r3, r3, r2, lsl #24
    3ce8:	ee0c3f30 	mcr	15, 0, r3, cr12, cr0, {1}
    3cec:	e5d0c0b1 	ldrb	ip, [r0, #177]	; 0xb1
    3cf0:	e5d030b0 	ldrb	r3, [r0, #176]	; 0xb0
    3cf4:	e5d010b2 	ldrb	r1, [r0, #178]	; 0xb2
    3cf8:	e5d020b3 	ldrb	r2, [r0, #179]	; 0xb3
    3cfc:	e183340c 	orr	r3, r3, ip, lsl #8
    3d00:	e1833801 	orr	r3, r3, r1, lsl #16
    3d04:	e1833c02 	orr	r3, r3, r2, lsl #24
    3d08:	ee0d3f10 	mcr	15, 0, r3, cr13, cr0, {0}
    3d0c:	e5d0c0b5 	ldrb	ip, [r0, #181]	; 0xb5
    3d10:	e5d030b4 	ldrb	r3, [r0, #180]	; 0xb4
    3d14:	e5d010b6 	ldrb	r1, [r0, #182]	; 0xb6
    3d18:	e5d020b7 	ldrb	r2, [r0, #183]	; 0xb7
    3d1c:	e183340c 	orr	r3, r3, ip, lsl #8
    3d20:	e1833801 	orr	r3, r3, r1, lsl #16
    3d24:	e1833c02 	orr	r3, r3, r2, lsl #24
    3d28:	ee0d3f30 	mcr	15, 0, r3, cr13, cr0, {1}
    3d2c:	e5d0c0b9 	ldrb	ip, [r0, #185]	; 0xb9
    3d30:	e5d030b8 	ldrb	r3, [r0, #184]	; 0xb8
    3d34:	e5d010ba 	ldrb	r1, [r0, #186]	; 0xba
    3d38:	e5d020bb 	ldrb	r2, [r0, #187]	; 0xbb
    3d3c:	e183340c 	orr	r3, r3, ip, lsl #8
    3d40:	e1833801 	orr	r3, r3, r1, lsl #16
    3d44:	e1833c02 	orr	r3, r3, r2, lsl #24
    3d48:	ee0d3f50 	mcr	15, 0, r3, cr13, cr0, {2}
    3d4c:	e5d0c0bd 	ldrb	ip, [r0, #189]	; 0xbd
    3d50:	e5d030bc 	ldrb	r3, [r0, #188]	; 0xbc
    3d54:	e5d010be 	ldrb	r1, [r0, #190]	; 0xbe
    3d58:	e5d020bf 	ldrb	r2, [r0, #191]	; 0xbf
    3d5c:	e183340c 	orr	r3, r3, ip, lsl #8
    3d60:	e1833801 	orr	r3, r3, r1, lsl #16
    3d64:	e1833c02 	orr	r3, r3, r2, lsl #24
    3d68:	ee0d3f70 	mcr	15, 0, r3, cr13, cr0, {3}
    3d6c:	e5d0c0c1 	ldrb	ip, [r0, #193]	; 0xc1
    3d70:	e5d030c0 	ldrb	r3, [r0, #192]	; 0xc0
    3d74:	e5d010c2 	ldrb	r1, [r0, #194]	; 0xc2
    3d78:	e5d020c3 	ldrb	r2, [r0, #195]	; 0xc3
    3d7c:	e183340c 	orr	r3, r3, ip, lsl #8
    3d80:	e1833801 	orr	r3, r3, r1, lsl #16
    3d84:	e1833c02 	orr	r3, r3, r2, lsl #24
    3d88:	ee0d3f90 	mcr	15, 0, r3, cr13, cr0, {4}
    3d8c:	f57ff04f 	dsb	sy
    3d90:	f57ff06f 	isb	sy
    3d94:	e12fff1e 	bx	lr

00003d98 <mem_restore_processor_state>:
    3d98:	e12fff1e 	bx	lr

00003d9c <disable_cache_invalidate>:
    3d9c:	e59f300c 	ldr	r3, [pc, #12]	; 3db0 <disable_cache_invalidate+0x14>
    3da0:	e5932d3c 	ldr	r2, [r3, #3388]	; 0xd3c
    3da4:	e3822003 	orr	r2, r2, #3
    3da8:	e5832d3c 	str	r2, [r3, #3388]	; 0xd3c
    3dac:	e12fff1e 	bx	lr
    3db0:	f1c20000 	undefined instruction 0xf1c20000

00003db4 <set_copro_default>:
    3db4:	e3a03002 	mov	r3, #2
    3db8:	ee403f10 	mcr	15, 2, r3, cr0, cr0, {0}
    3dbc:	e59f30b8 	ldr	r3, [pc, #184]	; 3e7c <set_copro_default+0xc8>
    3dc0:	ee013f10 	mcr	15, 0, r3, cr1, cr0, {0}
    3dc4:	e3a03002 	mov	r3, #2
    3dc8:	ee013f30 	mcr	15, 0, r3, cr1, cr0, {1}
    3dcc:	e3a03000 	mov	r3, #0
    3dd0:	ee013f50 	mcr	15, 0, r3, cr1, cr0, {2}
    3dd4:	ee013f11 	mcr	15, 0, r3, cr1, cr1, {0}
    3dd8:	ee013f31 	mcr	15, 0, r3, cr1, cr1, {1}
    3ddc:	ee013f51 	mcr	15, 0, r3, cr1, cr1, {2}
    3de0:	ee023f10 	mcr	15, 0, r3, cr2, cr0, {0}
    3de4:	ee023f30 	mcr	15, 0, r3, cr2, cr0, {1}
    3de8:	ee023f50 	mcr	15, 0, r3, cr2, cr0, {2}
    3dec:	ee033f10 	mcr	15, 0, r3, cr3, cr0, {0}
    3df0:	ee053f10 	mcr	15, 0, r3, cr5, cr0, {0}
    3df4:	ee053f30 	mcr	15, 0, r3, cr5, cr0, {1}
    3df8:	ee053f11 	mcr	15, 0, r3, cr5, cr1, {0}
    3dfc:	ee053f31 	mcr	15, 0, r3, cr5, cr1, {1}
    3e00:	ee063f10 	mcr	15, 0, r3, cr6, cr0, {0}
    3e04:	ee063f50 	mcr	15, 0, r3, cr6, cr0, {2}
    3e08:	ee073f14 	mcr	15, 0, r3, cr7, cr4, {0}
    3e0c:	ee093f1e 	mcr	15, 0, r3, cr9, cr14, {0}
    3e10:	ee093f3e 	mcr	15, 0, r3, cr9, cr14, {1}
    3e14:	ee093f5e 	mcr	15, 0, r3, cr9, cr14, {2}
    3e18:	ee293f10 	mcr	15, 1, r3, cr9, cr0, {0}
    3e1c:	e2833042 	add	r3, r3, #66	; 0x42
    3e20:	ee293f50 	mcr	15, 1, r3, cr9, cr0, {2}
    3e24:	e3a03000 	mov	r3, #0
    3e28:	ee0a3f10 	mcr	15, 0, r3, cr10, cr0, {0}
    3e2c:	ee0a3f30 	mcr	15, 0, r3, cr10, cr0, {1}
    3e30:	e59f3048 	ldr	r3, [pc, #72]	; 3e80 <set_copro_default+0xcc>
    3e34:	ee0a3f12 	mcr	15, 0, r3, cr10, cr2, {0}
    3e38:	e59f3044 	ldr	r3, [pc, #68]	; 3e84 <set_copro_default+0xd0>
    3e3c:	ee0a3f32 	mcr	15, 0, r3, cr10, cr2, {1}
    3e40:	e3a03000 	mov	r3, #0
    3e44:	ee0b3f11 	mcr	15, 0, r3, cr11, cr1, {0}
    3e48:	ee0b3f12 	mcr	15, 0, r3, cr11, cr2, {0}
    3e4c:	ee0b3f14 	mcr	15, 0, r3, cr11, cr4, {0}
    3e50:	ee0b3f15 	mcr	15, 0, r3, cr11, cr5, {0}
    3e54:	ee0b3f17 	mcr	15, 0, r3, cr11, cr7, {0}
    3e58:	ee0b3f1f 	mcr	15, 0, r3, cr11, cr15, {0}
    3e5c:	ee0c3f10 	mcr	15, 0, r3, cr12, cr0, {0}
    3e60:	ee0c3f30 	mcr	15, 0, r3, cr12, cr0, {1}
    3e64:	ee0d3f10 	mcr	15, 0, r3, cr13, cr0, {0}
    3e68:	ee0d3f30 	mcr	15, 0, r3, cr13, cr0, {1}
    3e6c:	ee0d3f50 	mcr	15, 0, r3, cr13, cr0, {2}
    3e70:	ee0d3f70 	mcr	15, 0, r3, cr13, cr0, {3}
    3e74:	ee0d3f90 	mcr	15, 0, r3, cr13, cr0, {4}
    3e78:	e12fff1e 	bx	lr
    3e7c:	00c52078 	sbceq	r2, r5, r8, ror r0
    3e80:	00098aa4 	andeq	r8, r9, r4, lsr #21
    3e84:	44e048e0 	strbtmi	r4, [r0], #2272	; 0x8e0

Disassembly of section .rodata:

00003e88 <TWI_REG_BASE>:
    3e88:	f1c2ac00 	undefined instruction 0xf1c2ac00
    3e8c:	f1c2b000 	undefined instruction 0xf1c2b000
    3e90:	f1c2b400 	undefined instruction 0xf1c2b400

00003e94 <axp20_ldo4_data>:
    3e94:	000004e2 	andeq	r0, r0, r2, ror #9
    3e98:	00000514 	andeq	r0, r0, r4, lsl r5
    3e9c:	00000578 	andeq	r0, r0, r8, ror r5
    3ea0:	000005dc 	ldrdeq	r0, [r0], -ip
    3ea4:	00000640 	andeq	r0, r0, r0, asr #12
    3ea8:	000006a4 	andeq	r0, r0, r4, lsr #13
    3eac:	00000708 	andeq	r0, r0, r8, lsl #14
    3eb0:	0000076c 	andeq	r0, r0, ip, ror #14
    3eb4:	000007d0 	ldrdeq	r0, [r0], -r0
    3eb8:	000009c4 	andeq	r0, r0, r4, asr #19
    3ebc:	00000a8c 	andeq	r0, r0, ip, lsl #21
    3ec0:	00000af0 	strdeq	r0, [r0], -r0
    3ec4:	00000bb8 	undefined instruction 0x00000bb8
    3ec8:	00000c1c 	andeq	r0, r0, ip, lsl ip
    3ecc:	00000c80 	andeq	r0, r0, r0, lsl #25
    3ed0:	00000ce4 	andeq	r0, r0, r4, ror #25

Disassembly of section .data:

00003ed4 <tmpPtr>:
    3ed4:	00004050 	andeq	r4, r0, r0, asr r0

00003ed8 <axp20_info>:
    3ed8:	00000003 	andeq	r0, r0, r3
    3edc:	00000514 	andeq	r0, r0, r4, lsl r5
    3ee0:	00000514 	andeq	r0, r0, r4, lsl r5
	...
    3ef4:	00000004 	andeq	r0, r0, r4
    3ef8:	00000708 	andeq	r0, r0, r8, lsl #14
    3efc:	00000ce4 	andeq	r0, r0, r4, ror #25
    3f00:	00000064 	andeq	r0, r0, r4, rrx
    3f04:	00000028 	andeq	r0, r0, r8, lsr #32
    3f08:	00000004 	andeq	r0, r0, r4
    3f0c:	00000004 	andeq	r0, r0, r4
    3f10:	00000005 	andeq	r0, r0, r5
    3f14:	000002bc 	undefined instruction 0x000002bc
    3f18:	00000dac 	andeq	r0, r0, ip, lsr #27
    3f1c:	00000019 	andeq	r0, r0, r9, lsl r0
    3f20:	00000029 	andeq	r0, r0, r9, lsr #32
    3f24:	00000000 	andeq	r0, r0, r0
    3f28:	00000007 	andeq	r0, r0, r7
    3f2c:	00000006 	andeq	r0, r0, r6
    3f30:	000004e2 	andeq	r0, r0, r2, ror #9
    3f34:	00000ce4 	andeq	r0, r0, r4, ror #25
    3f38:	00000064 	andeq	r0, r0, r4, rrx
    3f3c:	00000028 	andeq	r0, r0, r8, lsr #32
    3f40:	00000000 	andeq	r0, r0, r0
    3f44:	00000004 	andeq	r0, r0, r4
    3f48:	00000001 	andeq	r0, r0, r1
    3f4c:	000002bc 	undefined instruction 0x000002bc
    3f50:	000008e3 	andeq	r0, r0, r3, ror #17
    3f54:	00000019 	andeq	r0, r0, r9, lsl r0
    3f58:	00000023 	andeq	r0, r0, r3, lsr #32
    3f5c:	00000000 	andeq	r0, r0, r0
    3f60:	00000006 	andeq	r0, r0, r6
    3f64:	00000002 	andeq	r0, r0, r2
    3f68:	000002bc 	undefined instruction 0x000002bc
    3f6c:	00000dac 	andeq	r0, r0, ip, lsr #27
    3f70:	00000019 	andeq	r0, r0, r9, lsl r0
    3f74:	00000027 	andeq	r0, r0, r7, lsr #32
    3f78:	00000000 	andeq	r0, r0, r0
    3f7c:	00000007 	andeq	r0, r0, r7

00003f80 <hpcr_value>:
	...
    3fc0:	00001031 	andeq	r1, r0, r1, lsr r0
    3fc4:	00001031 	andeq	r1, r0, r1, lsr r0
    3fc8:	00000735 	andeq	r0, r0, r5, lsr r7
    3fcc:	00001035 	andeq	r1, r0, r5, lsr r0
    3fd0:	00001035 	andeq	r1, r0, r5, lsr r0
    3fd4:	00000731 	andeq	r0, r0, r1, lsr r7
    3fd8:	00001031 	andeq	r1, r0, r1, lsr r0
    3fdc:	00000000 	andeq	r0, r0, r0
    3fe0:	00000301 	andeq	r0, r0, r1, lsl #6
    3fe4:	00000301 	andeq	r0, r0, r1, lsl #6
    3fe8:	00000301 	andeq	r0, r0, r1, lsl #6
    3fec:	00000301 	andeq	r0, r0, r1, lsl #6
    3ff0:	00000301 	andeq	r0, r0, r1, lsl #6
    3ff4:	00000301 	andeq	r0, r0, r1, lsl #6
    3ff8:	00000301 	andeq	r0, r0, r1, lsl #6
    3ffc:	00000000 	andeq	r0, r0, r0

00004000 <tmp>:
    4000:	40000000 	andmi	r0, r0, r0
    4004:	00000168 	andeq	r0, r0, r8, ror #2
    4008:	00000003 	andeq	r0, r0, r3
    400c:	00000002 	andeq	r0, r0, r2
    4010:	00000800 	andeq	r0, r0, r0, lsl #16
    4014:	00000010 	andeq	r0, r0, r0, lsl r0
    4018:	00000020 	andeq	r0, r0, r0, lsr #32
    401c:	00000006 	andeq	r0, r0, r6
    4020:	0000007b 	andeq	r0, r0, fp, ror r0
    4024:	00000000 	andeq	r0, r0, r0
    4028:	00000200 	andeq	r0, r0, r0, lsl #4
    402c:	30926692 	umullscc	r6, r2, r2, r6
    4030:	00001090 	muleq	r0, r0, r0
    4034:	0001a0c8 	andeq	sl, r1, r8, asr #1
	...

Disassembly of section .bss:

00004050 <status>:
    4050:	00000000 	andeq	r0, r0, r0

00004054 <mem_para_info>:
	...

00004284 <dcdc2>:
    4284:	00000000 	andeq	r0, r0, r0

00004288 <dcdc3>:
    4288:	00000000 	andeq	r0, r0, r0

0000428c <twi_reg>:
    428c:	00000000 	andeq	r0, r0, r0

00004290 <TwiClkRegBak>:
    4290:	00000000 	andeq	r0, r0, r0

00004294 <TwiCtlRegBak>:
    4294:	00000000 	andeq	r0, r0, r0

00004298 <CmuReg>:
    4298:	00000000 	andeq	r0, r0, r0

0000429c <CmuReg>:
    429c:	00000000 	andeq	r0, r0, r0

000042a0 <IntcReg>:
    42a0:	00000000 	andeq	r0, r0, r0

000042a4 <IrqEnReg>:
	...

000042b0 <IrqMaskReg>:
	...

000042bc <IrqSelReg>:
	...

000042c8 <TmrReg>:
    42c8:	00000000 	andeq	r0, r0, r0

000042cc <backup_perf_counter_ctrl_reg>:
    42cc:	00000000 	andeq	r0, r0, r0

000042d0 <backup_perf_counter_enable_reg>:
    42d0:	00000000 	andeq	r0, r0, r0

000042d4 <overhead>:
    42d4:	00000000 	andeq	r0, r0, r0

000042d8 <cpu_freq>:
    42d8:	00000000 	andeq	r0, r0, r0

000042dc <cpu_ms_loopcnt>:
    42dc:	00000000 	andeq	r0, r0, r0

Disassembly of section .debug_abbrev:

00000000 <.debug_abbrev>:
       0:	25011101 	strcs	r1, [r1, #-257]	; 0x101
       4:	030b130e 	movweq	r1, #45838	; 0xb30e
       8:	110e1b0e 	tstne	lr, lr, lsl #22
       c:	10011201 	andne	r1, r1, r1, lsl #4
      10:	02000006 	andeq	r0, r0, #6
      14:	0b0b0024 	bleq	2c00ac <__bss_end+0x2bbdcc>
      18:	0e030b3e 	vmoveq.16	d3[0], r0
      1c:	16030000 	strne	r0, [r3], -r0
      20:	3a0e0300 	bcc	380c28 <__bss_end+0x37c948>
      24:	490b3b0b 	stmdbmi	fp, {r0, r1, r3, r8, r9, fp, ip, sp}
      28:	04000013 	streq	r0, [r0], #-19
      2c:	0b0b0024 	bleq	2c00c4 <__bss_end+0x2bbde4>
      30:	08030b3e 	stmdaeq	r3, {r1, r2, r3, r4, r5, r8, r9, fp}
      34:	13050000 	movwne	r0, #20480	; 0x5000
      38:	0b0e0301 	bleq	380c44 <__bss_end+0x37c964>
      3c:	3b0b3a0b 	blcc	2ce870 <__bss_end+0x2ca590>
      40:	0013010b 	andseq	r0, r3, fp, lsl #2
      44:	000d0600 	andeq	r0, sp, r0, lsl #12
      48:	0b3a0e03 	bleq	e8385c <__bss_end+0xe7f57c>
      4c:	13490b3b 	movtne	r0, #39739	; 0x9b3b
      50:	00000a38 	andeq	r0, r0, r8, lsr sl
      54:	03000d07 	movweq	r0, #3335	; 0xd07
      58:	3b0b3a08 	blcc	2ce880 <__bss_end+0x2ca5a0>
      5c:	3813490b 	ldmdacc	r3, {r0, r1, r3, r8, fp, lr}
      60:	0800000a 	stmdaeq	r0, {r1, r3}
      64:	0e03000d 	cdpeq	0, 0, cr0, cr3, cr13, {0}
      68:	0b3b0b3a 	bleq	ec2d58 <__bss_end+0xebea78>
      6c:	0b0b1349 	bleq	2c4d98 <__bss_end+0x2c0ab8>
      70:	0b0c0b0d 	bleq	302cac <__bss_end+0x2fe9cc>
      74:	00000a38 	andeq	r0, r0, r8, lsr sl
      78:	03011309 	movweq	r1, #4873	; 0x1309
      7c:	3a050b0e 	bcc	142cbc <__bss_end+0x13e9dc>
      80:	010b3b0b 	tsteq	fp, fp, lsl #22
      84:	0a000013 	beq	d8 <__resume1_start+0xd8>
      88:	0b0b000f 	bleq	2c00cc <__bss_end+0x2bbdec>
      8c:	00001349 	andeq	r1, r0, r9, asr #6
      90:	0b000f0b 	bleq	3cc4 <__restore_processor_state+0x2b0>
      94:	0c00000b 	stceq	0, cr0, [r0], {11}
      98:	13490101 	movtne	r0, #37121	; 0x9101
      9c:	00001301 	andeq	r1, r0, r1, lsl #6
      a0:	4900210d 	stmdbmi	r0, {r0, r2, r3, r8, sp}
      a4:	000b2f13 	andeq	r2, fp, r3, lsl pc
      a8:	00240e00 	eoreq	r0, r4, r0, lsl #28
      ac:	0b3e0b0b 	bleq	f82ce0 <__bss_end+0xf7ea00>
      b0:	040f0000 	streq	r0, [pc], #0	; b8 <__resume1_start+0xb8>
      b4:	0b0e0301 	bleq	380cc0 <__bss_end+0x37c9e0>
      b8:	3b0b3a0b 	blcc	2ce8ec <__bss_end+0x2ca60c>
      bc:	0013010b 	andseq	r0, r3, fp, lsl #2
      c0:	00281000 	eoreq	r1, r8, r0
      c4:	0d1c0e03 	ldceq	14, cr0, [ip, #-12]
      c8:	2e110000 	cdpcs	0, 1, cr0, cr1, cr0, {0}
      cc:	3a0e0301 	bcc	380cd8 <__bss_end+0x37c9f8>
      d0:	270b3b0b 	strcs	r3, [fp, -fp, lsl #22]
      d4:	010b200c 	tsteq	fp, ip
      d8:	12000013 	andne	r0, r0, #19
      dc:	08030034 	stmdaeq	r3, {r2, r4, r5}
      e0:	0b3b0b3a 	bleq	ec2dd0 <__bss_end+0xebeaf0>
      e4:	00001349 	andeq	r1, r0, r9, asr #6
      e8:	3f012e13 	svccc	0x00012e13
      ec:	3a0e030c 	bcc	380d24 <__bss_end+0x37ca44>
      f0:	270b3b0b 	strcs	r3, [fp, -fp, lsl #22]
      f4:	1113490c 	tstne	r3, ip, lsl #18
      f8:	40011201 	andmi	r1, r1, r1, lsl #4
      fc:	00130106 	andseq	r0, r3, r6, lsl #2
     100:	011d1400 	tsteq	sp, r0, lsl #8
     104:	01111331 	tsteq	r1, r1, lsr r3
     108:	0b580112 	bleq	1600558 <__bss_end+0x15fc278>
     10c:	00000b59 	andeq	r0, r0, r9, asr fp
     110:	11010b15 	tstne	r1, r5, lsl fp
     114:	00011201 	andeq	r1, r1, r1, lsl #4
     118:	00341600 	eorseq	r1, r4, r0, lsl #12
     11c:	06021331 	undefined instruction 0x06021331
     120:	34170000 	ldrcc	r0, [r7]
     124:	3a0e0300 	bcc	380d2c <__bss_end+0x37ca4c>
     128:	490b3b0b 	stmdbmi	fp, {r0, r1, r3, r8, r9, fp, ip, sp}
     12c:	000a0213 	andeq	r0, sl, r3, lsl r2
     130:	00341800 	eorseq	r1, r4, r0, lsl #16
     134:	0b3a0e03 	bleq	e83948 <__bss_end+0xe7f668>
     138:	13490b3b 	movtne	r0, #39739	; 0x9b3b
     13c:	34190000 	ldrcc	r0, [r9]
     140:	3a0e0300 	bcc	380d48 <__bss_end+0x37ca68>
     144:	490b3b0b 	stmdbmi	fp, {r0, r1, r3, r8, r9, fp, ip, sp}
     148:	3c0c3f13 	stccc	15, cr3, [ip], {19}
     14c:	0000000c 	andeq	r0, r0, ip
     150:	25011101 	strcs	r1, [r1, #-257]	; 0x101
     154:	030b130e 	movweq	r1, #45838	; 0xb30e
     158:	110e1b0e 	tstne	lr, lr, lsl #22
     15c:	10011201 	andne	r1, r1, r1, lsl #4
     160:	02000006 	andeq	r0, r0, #6
     164:	0b0b0024 	bleq	2c01fc <__bss_end+0x2bbf1c>
     168:	0e030b3e 	vmoveq.16	d3[0], r0
     16c:	24030000 	strcs	r0, [r3]
     170:	3e0b0b00 	vmlacc.f64	d0, d11, d0
     174:	0008030b 	andeq	r0, r8, fp, lsl #6
     178:	000f0400 	andeq	r0, pc, r0, lsl #8
     17c:	00000b0b 	andeq	r0, r0, fp, lsl #22
     180:	0b002405 	bleq	919c <__bss_end+0x4ebc>
     184:	000b3e0b 	andeq	r3, fp, fp, lsl #28
     188:	012e0600 	teqeq	lr, r0, lsl #12
     18c:	0e030c3f 	mcreq	12, 0, r0, cr3, cr15, {1}
     190:	0b3b0b3a 	bleq	ec2e80 <__bss_end+0xebeba0>
     194:	01110c27 	tsteq	r1, r7, lsr #24
     198:	0a400112 	beq	10005e8 <__bss_end+0xffc308>
     19c:	00001301 	andeq	r1, r0, r1, lsl #6
     1a0:	03000507 	movweq	r0, #1287	; 0x507
     1a4:	3b0b3a0e 	blcc	2ce9e4 <__bss_end+0x2ca704>
     1a8:	0213490b 	andseq	r4, r3, #180224	; 0x2c000
     1ac:	0800000a 	stmdaeq	r0, {r1, r3}
     1b0:	08030005 	stmdaeq	r3, {r0, r2}
     1b4:	0b3b0b3a 	bleq	ec2ea4 <__bss_end+0xebebc4>
     1b8:	0a021349 	beq	84ee4 <__bss_end+0x80c04>
     1bc:	34090000 	strcc	r0, [r9]
     1c0:	3a0e0300 	bcc	380dc8 <__bss_end+0x37cae8>
     1c4:	490b3b0b 	stmdbmi	fp, {r0, r1, r3, r8, r9, fp, ip, sp}
     1c8:	0a000013 	beq	21c <mem_memcpy+0x3c>
     1cc:	0b0b000f 	bleq	2c0210 <__bss_end+0x2bbf30>
     1d0:	00001349 	andeq	r1, r0, r9, asr #6
     1d4:	00110100 	andseq	r0, r1, r0, lsl #2
     1d8:	01110610 	tsteq	r1, r0, lsl r6
     1dc:	08030112 	stmdaeq	r3, {r1, r4, r8}
     1e0:	0825081b 	stmdaeq	r5!, {r0, r1, r3, r4, fp}
     1e4:	00000513 	andeq	r0, r0, r3, lsl r5
     1e8:	01110100 	tsteq	r1, r0, lsl #2
     1ec:	0b130e25 	bleq	4c3a88 <__bss_end+0x4bf7a8>
     1f0:	0e1b0e03 	cdpeq	14, 1, cr0, cr11, cr3, {0}
     1f4:	01120111 	tsteq	r2, r1, lsl r1
     1f8:	00000610 	andeq	r0, r0, r0, lsl r6
     1fc:	0b002402 	bleq	920c <__bss_end+0x4f2c>
     200:	030b3e0b 	movweq	r3, #48651	; 0xbe0b
     204:	0300000e 	movweq	r0, #14
     208:	0e030016 	mcreq	0, 0, r0, cr3, cr6, {0}
     20c:	0b3b0b3a 	bleq	ec2efc <__bss_end+0xebec1c>
     210:	00001349 	andeq	r1, r0, r9, asr #6
     214:	0b002404 	bleq	922c <__bss_end+0x4f4c>
     218:	030b3e0b 	movweq	r3, #48651	; 0xbe0b
     21c:	05000008 	streq	r0, [r0, #-8]
     220:	0b0b0024 	bleq	2c02b8 <__bss_end+0x2bbfd8>
     224:	00000b3e 	andeq	r0, r0, lr, lsr fp
     228:	03011306 	movweq	r1, #4870	; 0x1306
     22c:	3a0b0b0e 	bcc	2c2e6c <__bss_end+0x2beb8c>
     230:	010b3b0b 	tsteq	fp, fp, lsl #22
     234:	07000013 	smladeq	r0, r3, r0, r0
     238:	0e03000d 	cdpeq	0, 0, cr0, cr3, cr13, {0}
     23c:	0b3b0b3a 	bleq	ec2f2c <__bss_end+0xebec4c>
     240:	0b0b1349 	bleq	2c4f6c <__bss_end+0x2c0c8c>
     244:	0b0c0b0d 	bleq	302e80 <__bss_end+0x2feba0>
     248:	00000a38 	andeq	r0, r0, r8, lsr sl
     24c:	03000d08 	movweq	r0, #3336	; 0xd08
     250:	3b0b3a0e 	blcc	2cea90 <__bss_end+0x2ca7b0>
     254:	0b134905 	bleq	4d2670 <__bss_end+0x4ce390>
     258:	0c0b0d0b 	stceq	13, cr0, [fp], {11}
     25c:	000a380b 	andeq	r3, sl, fp, lsl #16
     260:	00160900 	andseq	r0, r6, r0, lsl #18
     264:	0b3a0e03 	bleq	e83a78 <__bss_end+0xe7f798>
     268:	1349053b 	movtne	r0, #38203	; 0x953b
     26c:	130a0000 	movwne	r0, #40960	; 0xa000
     270:	0b0e0301 	bleq	380e7c <__bss_end+0x37cb9c>
     274:	3b0b3a0b 	blcc	2ceaa8 <__bss_end+0x2ca7c8>
     278:	00130105 	andseq	r0, r3, r5, lsl #2
     27c:	01130b00 	tsteq	r3, r0, lsl #22
     280:	050b0e03 	streq	r0, [fp, #-3587]	; 0xe03
     284:	053b0b3a 	ldreq	r0, [fp, #-2874]!	; 0xb3a
     288:	00001301 	andeq	r1, r0, r1, lsl #6
     28c:	03000d0c 	movweq	r0, #3340	; 0xd0c
     290:	3b0b3a0e 	blcc	2cead0 <__bss_end+0x2ca7f0>
     294:	38134905 	ldmdacc	r3, {r0, r2, r8, fp, lr}
     298:	0d00000a 	stceq	0, cr0, [r0, #-40]	; 0xffffffd8
     29c:	13490035 	movtne	r0, #36917	; 0x9035
     2a0:	010e0000 	tsteq	lr, r0
     2a4:	01134901 	tsteq	r3, r1, lsl #18
     2a8:	0f000013 	svceq	0x00000013
     2ac:	13490021 	movtne	r0, #36897	; 0x9021
     2b0:	00000b2f 	andeq	r0, r0, pc, lsr #22
     2b4:	03000d10 	movweq	r0, #3344	; 0xd10
     2b8:	3b0b3a0e 	blcc	2ceaf8 <__bss_end+0x2ca818>
     2bc:	3813490b 	ldmdacc	r3, {r0, r1, r3, r8, fp, lr}
     2c0:	1100000a 	tstne	r0, sl
     2c4:	0e030104 	adfeqs	f0, f3, f4
     2c8:	0b3a0b0b 	bleq	e82efc <__bss_end+0xe7ec1c>
     2cc:	13010b3b 	movwne	r0, #6971	; 0x1b3b
     2d0:	28120000 	ldmdacs	r2, {}
     2d4:	1c0e0300 	stcne	3, cr0, [lr], {0}
     2d8:	1300000d 	movwne	r0, #13
     2dc:	0e03002e 	cdpeq	0, 0, cr0, cr3, cr14, {1}
     2e0:	0b3b0b3a 	bleq	ec2fd0 <__bss_end+0xebecf0>
     2e4:	13490c27 	movtne	r0, #39975	; 0x9c27
     2e8:	00000b20 	andeq	r0, r0, r0, lsr #22
     2ec:	3f012e14 	svccc	0x00012e14
     2f0:	3a0e030c 	bcc	380f28 <__bss_end+0x37cc48>
     2f4:	270b3b0b 	strcs	r3, [fp, -fp, lsl #22]
     2f8:	1113490c 	tstne	r3, ip, lsl #18
     2fc:	40011201 	andmi	r1, r1, r1, lsl #4
     300:	0013010a 	andseq	r0, r3, sl, lsl #2
     304:	00051500 	andeq	r1, r5, r0, lsl #10
     308:	0b3a0e03 	bleq	e83b1c <__bss_end+0xe7f83c>
     30c:	13490b3b 	movtne	r0, #39739	; 0x9b3b
     310:	00000602 	andeq	r0, r0, r2, lsl #12
     314:	03012e16 	movweq	r2, #7702	; 0x1e16
     318:	3b0b3a0e 	blcc	2ceb58 <__bss_end+0x2ca878>
     31c:	490c270b 	stmdbmi	ip, {r0, r1, r3, r8, r9, sl, sp}
     320:	12011113 	andne	r1, r1, #-1073741820	; 0xc0000004
     324:	010a4001 	tsteq	sl, r1
     328:	17000013 	smladne	r0, r3, r0, r0
     32c:	0e030034 	mcreq	0, 0, r0, cr3, cr4, {1}
     330:	0b3b0b3a 	bleq	ec3020 <__bss_end+0xebed40>
     334:	06021349 	streq	r1, [r2], -r9, asr #6
     338:	34180000 	ldrcc	r0, [r8]
     33c:	3a0e0300 	bcc	380f44 <__bss_end+0x37cc64>
     340:	490b3b0b 	stmdbmi	fp, {r0, r1, r3, r8, r9, fp, ip, sp}
     344:	000a0213 	andeq	r0, sl, r3, lsl r2
     348:	002e1900 	eoreq	r1, lr, r0, lsl #18
     34c:	0e030c3f 	mcreq	12, 0, r0, cr3, cr15, {1}
     350:	0b3b0b3a 	bleq	ec3040 <__bss_end+0xebed60>
     354:	01110c27 	tsteq	r1, r7, lsr #24
     358:	0a400112 	beq	10007a8 <__bss_end+0xffc4c8>
     35c:	2e1a0000 	cdpcs	0, 1, cr0, cr10, cr0, {0}
     360:	030c3f01 	movweq	r3, #52993	; 0xcf01
     364:	3b0b3a0e 	blcc	2ceba4 <__bss_end+0x2ca8c4>
     368:	490c270b 	stmdbmi	ip, {r0, r1, r3, r8, r9, sl, sp}
     36c:	12011113 	andne	r1, r1, #-1073741820	; 0xc0000004
     370:	01064001 	tsteq	r6, r1
     374:	1b000013 	blne	3c8 <disable_l2cache+0xc>
     378:	08030005 	stmdaeq	r3, {r0, r2}
     37c:	0b3b0b3a 	bleq	ec306c <__bss_end+0xebed8c>
     380:	06021349 	streq	r1, [r2], -r9, asr #6
     384:	341c0000 	ldrcc	r0, [ip]
     388:	3a0e0300 	bcc	380f90 <__bss_end+0x37ccb0>
     38c:	490b3b0b 	stmdbmi	fp, {r0, r1, r3, r8, r9, fp, ip, sp}
     390:	1d000013 	stcne	0, cr0, [r0, #-76]	; 0xffffffb4
     394:	08030034 	stmdaeq	r3, {r2, r4, r5}
     398:	0b3b0b3a 	bleq	ec3088 <__bss_end+0xebeda8>
     39c:	06021349 	streq	r1, [r2], -r9, asr #6
     3a0:	0a1e0000 	beq	7803a8 <__bss_end+0x77c0c8>
     3a4:	3a0e0300 	bcc	380fac <__bss_end+0x37cccc>
     3a8:	11053b0b 	tstne	r5, fp, lsl #22
     3ac:	1f000001 	svcne	0x00000001
     3b0:	1331001d 	teqne	r1, #29
     3b4:	01120111 	tsteq	r2, r1, lsl r1
     3b8:	05590b58 	ldrbeq	r0, [r9, #-2904]	; 0xb58
     3bc:	0f200000 	svceq	0x00200000
     3c0:	490b0b00 	stmdbmi	fp, {r8, r9, fp}
     3c4:	21000013 	tstcs	r0, r3, lsl r0
     3c8:	0c3f012e 	ldfeqs	f0, [pc], #-184	; 0xffffff48
     3cc:	0b3a0e03 	bleq	e83be0 <__bss_end+0xe7f900>
     3d0:	0c27053b 	cfstr32eq	mvfx0, [r7], #-236	; 0xffffff14
     3d4:	01111349 	tsteq	r1, r9, asr #6
     3d8:	06400112 	undefined instruction 0x06400112
     3dc:	00001301 	andeq	r1, r0, r1, lsl #6
     3e0:	03000522 	movweq	r0, #1314	; 0x522
     3e4:	3b0b3a08 	blcc	2cec0c <__bss_end+0x2ca92c>
     3e8:	02134905 	andseq	r4, r3, #81920	; 0x14000
     3ec:	23000006 	movwcs	r0, #6
     3f0:	0e030005 	cdpeq	0, 0, cr0, cr3, cr5, {0}
     3f4:	053b0b3a 	ldreq	r0, [fp, #-2874]!	; 0xb3a
     3f8:	06021349 	streq	r1, [r2], -r9, asr #6
     3fc:	34240000 	strtcc	r0, [r4]
     400:	3a0e0300 	bcc	381008 <__bss_end+0x37cd28>
     404:	49053b0b 	stmdbmi	r5, {r0, r1, r3, r8, r9, fp, ip, sp}
     408:	25000013 	strcs	r0, [r0, #-19]
     40c:	0e030034 	mcreq	0, 0, r0, cr3, cr4, {1}
     410:	053b0b3a 	ldreq	r0, [fp, #-2874]!	; 0xb3a
     414:	06021349 	streq	r1, [r2], -r9, asr #6
     418:	34260000 	strtcc	r0, [r6]
     41c:	3a080300 	bcc	201024 <__bss_end+0x1fcd44>
     420:	49053b0b 	stmdbmi	r5, {r0, r1, r3, r8, r9, fp, ip, sp}
     424:	00060213 	andeq	r0, r6, r3, lsl r2
     428:	002e2700 	eoreq	r2, lr, r0, lsl #14
     42c:	0e030c3f 	mcreq	12, 0, r0, cr3, cr15, {1}
     430:	0b3b0b3a 	bleq	ec3120 <__bss_end+0xebee40>
     434:	13490c27 	movtne	r0, #39975	; 0x9c27
     438:	01120111 	tsteq	r2, r1, lsl r1
     43c:	00000640 	andeq	r0, r0, r0, asr #12
     440:	49002628 	stmdbmi	r0, {r3, r5, r9, sl, sp}
     444:	00000013 	andeq	r0, r0, r3, lsl r0
     448:	10001101 	andne	r1, r0, r1, lsl #2
     44c:	12011106 	andne	r1, r1, #-2147483647	; 0x80000001
     450:	1b080301 	blne	20105c <__bss_end+0x1fcd7c>
     454:	13082508 	movwne	r2, #34056	; 0x8508
     458:	00000005 	andeq	r0, r0, r5
     45c:	25011101 	strcs	r1, [r1, #-257]	; 0x101
     460:	030b130e 	movweq	r1, #45838	; 0xb30e
     464:	110e1b0e 	tstne	lr, lr, lsl #22
     468:	10011201 	andne	r1, r1, r1, lsl #4
     46c:	02000006 	andeq	r0, r0, #6
     470:	0b0b0024 	bleq	2c0508 <__bss_end+0x2bc228>
     474:	0e030b3e 	vmoveq.16	d3[0], r0
     478:	16030000 	strne	r0, [r3], -r0
     47c:	3a0e0300 	bcc	381084 <__bss_end+0x37cda4>
     480:	490b3b0b 	stmdbmi	fp, {r0, r1, r3, r8, r9, fp, ip, sp}
     484:	04000013 	streq	r0, [r0], #-19
     488:	0b0b0024 	bleq	2c0520 <__bss_end+0x2bc240>
     48c:	08030b3e 	stmdaeq	r3, {r1, r2, r3, r4, r5, r8, r9, fp}
     490:	13050000 	movwne	r0, #20480	; 0x5000
     494:	0b0e0301 	bleq	3810a0 <__bss_end+0x37cdc0>
     498:	3b0b3a0b 	blcc	2ceccc <__bss_end+0x2ca9ec>
     49c:	0013010b 	andseq	r0, r3, fp, lsl #2
     4a0:	000d0600 	andeq	r0, sp, r0, lsl #12
     4a4:	0b3a0e03 	bleq	e83cb8 <__bss_end+0xe7f9d8>
     4a8:	13490b3b 	movtne	r0, #39739	; 0x9b3b
     4ac:	0b0d0b0b 	bleq	3430e0 <__bss_end+0x33ee00>
     4b0:	0a380b0c 	beq	e030e8 <__bss_end+0xdfee08>
     4b4:	0d070000 	stceq	0, cr0, [r7]
     4b8:	3a0e0300 	bcc	3810c0 <__bss_end+0x37cde0>
     4bc:	490b3b0b 	stmdbmi	fp, {r0, r1, r3, r8, r9, fp, ip, sp}
     4c0:	000a3813 	andeq	r3, sl, r3, lsl r8
     4c4:	000d0800 	andeq	r0, sp, r0, lsl #16
     4c8:	0b3a0803 	bleq	e824dc <__bss_end+0xe7e1fc>
     4cc:	13490b3b 	movtne	r0, #39739	; 0x9b3b
     4d0:	00000a38 	andeq	r0, r0, r8, lsr sl
     4d4:	0b002409 	bleq	9500 <__bss_end+0x5220>
     4d8:	000b3e0b 	andeq	r3, fp, fp, lsl #28
     4dc:	000d0a00 	andeq	r0, sp, r0, lsl #20
     4e0:	0b3a0e03 	bleq	e83cf4 <__bss_end+0xe7fa14>
     4e4:	1349053b 	movtne	r0, #38203	; 0x953b
     4e8:	0b0d0b0b 	bleq	34311c <__bss_end+0x33ee3c>
     4ec:	0a380b0c 	beq	e03124 <__bss_end+0xdfee44>
     4f0:	160b0000 	strne	r0, [fp], -r0
     4f4:	3a0e0300 	bcc	3810fc <__bss_end+0x37ce1c>
     4f8:	49053b0b 	stmdbmi	r5, {r0, r1, r3, r8, r9, fp, ip, sp}
     4fc:	0c000013 	stceq	0, cr0, [r0], {19}
     500:	0e030113 	mcreq	1, 0, r0, cr3, cr3, {0}
     504:	0b3a0b0b 	bleq	e83138 <__bss_end+0xe7ee58>
     508:	1301053b 	movwne	r0, #5435	; 0x153b
     50c:	130d0000 	movwne	r0, #53248	; 0xd000
     510:	0b0e0301 	bleq	38111c <__bss_end+0x37ce3c>
     514:	3b0b3a05 	blcc	2ced30 <__bss_end+0x2caa50>
     518:	00130105 	andseq	r0, r3, r5, lsl #2
     51c:	000d0e00 	andeq	r0, sp, r0, lsl #28
     520:	0b3a0e03 	bleq	e83d34 <__bss_end+0xe7fa54>
     524:	1349053b 	movtne	r0, #38203	; 0x953b
     528:	00000a38 	andeq	r0, r0, r8, lsr sl
     52c:	4900350f 	stmdbmi	r0, {r0, r1, r2, r3, r8, sl, ip, sp}
     530:	10000013 	andne	r0, r0, r3, lsl r0
     534:	13490101 	movtne	r0, #37121	; 0x9101
     538:	00001301 	andeq	r1, r0, r1, lsl #6
     53c:	49002111 	stmdbmi	r0, {r0, r4, r8, sp}
     540:	000b2f13 	andeq	r2, fp, r3, lsl pc
     544:	002e1200 	eoreq	r1, lr, r0, lsl #4
     548:	0e030c3f 	mcreq	12, 0, r0, cr3, cr15, {1}
     54c:	0b3b0b3a 	bleq	ec323c <__bss_end+0xebef5c>
     550:	13490c27 	movtne	r0, #39975	; 0x9c27
     554:	01120111 	tsteq	r2, r1, lsl r1
     558:	00000a40 	andeq	r0, r0, r0, asr #20
     55c:	3f012e13 	svccc	0x00012e13
     560:	3a0e030c 	bcc	381198 <__bss_end+0x37ceb8>
     564:	270b3b0b 	strcs	r3, [fp, -fp, lsl #22]
     568:	1113490c 	tstne	r3, ip, lsl #18
     56c:	40011201 	andmi	r1, r1, r1, lsl #4
     570:	0013010a 	andseq	r0, r3, sl, lsl #2
     574:	00051400 	andeq	r1, r5, r0, lsl #8
     578:	0b3a0e03 	bleq	e83d8c <__bss_end+0xe7faac>
     57c:	13490b3b 	movtne	r0, #39739	; 0x9b3b
     580:	00000602 	andeq	r0, r0, r2, lsl #12
     584:	0b000f15 	bleq	41e0 <mem_para_info+0x18c>
     588:	0013490b 	andseq	r4, r3, fp, lsl #18
     58c:	012e1600 	teqeq	lr, r0, lsl #12
     590:	0e030c3f 	mcreq	12, 0, r0, cr3, cr15, {1}
     594:	0b3b0b3a 	bleq	ec3284 <__bss_end+0xebefa4>
     598:	01110c27 	tsteq	r1, r7, lsr #24
     59c:	0a400112 	beq	10009ec <__bss_end+0xffc70c>
     5a0:	00001301 	andeq	r1, r0, r1, lsl #6
     5a4:	03000517 	movweq	r0, #1303	; 0x517
     5a8:	3b0b3a0e 	blcc	2cede8 <__bss_end+0x2cab08>
     5ac:	0213490b 	andseq	r4, r3, #180224	; 0x2c000
     5b0:	1800000a 	stmdane	r0, {r1, r3}
     5b4:	0e030034 	mcreq	0, 0, r0, cr3, cr4, {1}
     5b8:	0b3b0b3a 	bleq	ec32a8 <__bss_end+0xebefc8>
     5bc:	0a021349 	beq	852e8 <__bss_end+0x81008>
     5c0:	34190000 	ldrcc	r0, [r9]
     5c4:	3a0e0300 	bcc	3811cc <__bss_end+0x37ceec>
     5c8:	490b3b0b 	stmdbmi	fp, {r0, r1, r3, r8, r9, fp, ip, sp}
     5cc:	020c3f13 	andeq	r3, ip, #76	; 0x4c
     5d0:	0000000a 	andeq	r0, r0, sl
     5d4:	25011101 	strcs	r1, [r1, #-257]	; 0x101
     5d8:	030b130e 	movweq	r1, #45838	; 0xb30e
     5dc:	110e1b0e 	tstne	lr, lr, lsl #22
     5e0:	10011201 	andne	r1, r1, r1, lsl #4
     5e4:	02000006 	andeq	r0, r0, #6
     5e8:	0b0b0024 	bleq	2c0680 <__bss_end+0x2bc3a0>
     5ec:	0e030b3e 	vmoveq.16	d3[0], r0
     5f0:	16030000 	strne	r0, [r3], -r0
     5f4:	3a0e0300 	bcc	3811fc <__bss_end+0x37cf1c>
     5f8:	490b3b0b 	stmdbmi	fp, {r0, r1, r3, r8, r9, fp, ip, sp}
     5fc:	04000013 	streq	r0, [r0], #-19
     600:	0b0b0024 	bleq	2c0698 <__bss_end+0x2bc3b8>
     604:	08030b3e 	stmdaeq	r3, {r1, r2, r3, r4, r5, r8, r9, fp}
     608:	24050000 	strcs	r0, [r5]
     60c:	3e0b0b00 	vmlacc.f64	d0, d11, d0
     610:	0600000b 	streq	r0, [r0], -fp
     614:	0e030104 	adfeqs	f0, f3, f4
     618:	0b3a0b0b 	bleq	e8324c <__bss_end+0xe7ef6c>
     61c:	13010b3b 	movwne	r0, #6971	; 0x1b3b
     620:	28070000 	stmdacs	r7, {}
     624:	1c0e0300 	stcne	3, cr0, [lr], {0}
     628:	0800000d 	stmdaeq	r0, {r0, r2, r3}
     62c:	0e030113 	mcreq	1, 0, r0, cr3, cr3, {0}
     630:	0b3a0b0b 	bleq	e83264 <__bss_end+0xe7ef84>
     634:	13010b3b 	movwne	r0, #6971	; 0x1b3b
     638:	0d090000 	stceq	0, cr0, [r9]
     63c:	3a080300 	bcc	201244 <__bss_end+0x1fcf64>
     640:	490b3b0b 	stmdbmi	fp, {r0, r1, r3, r8, r9, fp, ip, sp}
     644:	000a3813 	andeq	r3, sl, r3, lsl r8
     648:	000d0a00 	andeq	r0, sp, r0, lsl #20
     64c:	0b3a0e03 	bleq	e83e60 <__bss_end+0xe7fb80>
     650:	13490b3b 	movtne	r0, #39739	; 0x9b3b
     654:	00000a38 	andeq	r0, r0, r8, lsr sl
     658:	03012e0b 	movweq	r2, #7691	; 0x1e0b
     65c:	3b0b3a0e 	blcc	2cee9c <__bss_end+0x2cabbc>
     660:	490c270b 	stmdbmi	ip, {r0, r1, r3, r8, r9, sl, sp}
     664:	010b2013 	tsteq	fp, r3, lsl r0
     668:	0c000013 	stceq	0, cr0, [r0], {19}
     66c:	08030005 	stmdaeq	r3, {r0, r2}
     670:	0b3b0b3a 	bleq	ec3360 <__bss_end+0xebf080>
     674:	00001349 	andeq	r1, r0, r9, asr #6
     678:	0300340d 	movweq	r3, #1037	; 0x40d
     67c:	3b0b3a08 	blcc	2ceea4 <__bss_end+0x2cabc4>
     680:	0013490b 	andseq	r4, r3, fp, lsl #18
     684:	000f0e00 	andeq	r0, pc, r0, lsl #28
     688:	13490b0b 	movtne	r0, #39691	; 0x9b0b
     68c:	050f0000 	streq	r0, [pc, #0]	; 694 <__turn_mmu_on+0x14>
     690:	3a0e0300 	bcc	381298 <__bss_end+0x37cfb8>
     694:	490b3b0b 	stmdbmi	fp, {r0, r1, r3, r8, r9, fp, ip, sp}
     698:	10000013 	andne	r0, r0, r3, lsl r0
     69c:	0e030034 	mcreq	0, 0, r0, cr3, cr4, {1}
     6a0:	0b3b0b3a 	bleq	ec3390 <__bss_end+0xebf0b0>
     6a4:	00001349 	andeq	r1, r0, r9, asr #6
     6a8:	3f012e11 	svccc	0x00012e11
     6ac:	3a0e030c 	bcc	3812e4 <__bss_end+0x37d004>
     6b0:	27053b0b 	strcs	r3, [r5, -fp, lsl #22]
     6b4:	1113490c 	tstne	r3, ip, lsl #18
     6b8:	40011201 	andmi	r1, r1, r1, lsl #4
     6bc:	00130106 	andseq	r0, r3, r6, lsl #2
     6c0:	00341200 	eorseq	r1, r4, r0, lsl #4
     6c4:	0b3a0e03 	bleq	e83ed8 <__bss_end+0xe7fbf8>
     6c8:	1349053b 	movtne	r0, #38203	; 0x953b
     6cc:	00000602 	andeq	r0, r0, r2, lsl #12
     6d0:	03000513 	movweq	r0, #1299	; 0x513
     6d4:	3b0b3a0e 	blcc	2cef14 <__bss_end+0x2cac34>
     6d8:	02134905 	andseq	r4, r3, #81920	; 0x14000
     6dc:	14000006 	strne	r0, [r0], #-6
     6e0:	0c3f012e 	ldfeqs	f0, [pc], #-184	; 0xffffff48
     6e4:	0b3a0e03 	bleq	e83ef8 <__bss_end+0xe7fc18>
     6e8:	0c270b3b 	stceq	11, cr0, [r7], #-236	; 0xffffff14
     6ec:	01111349 	tsteq	r1, r9, asr #6
     6f0:	06400112 	undefined instruction 0x06400112
     6f4:	00001301 	andeq	r1, r0, r1, lsl #6
     6f8:	03000515 	movweq	r0, #1301	; 0x515
     6fc:	3b0b3a0e 	blcc	2cef3c <__bss_end+0x2cac5c>
     700:	0213490b 	andseq	r4, r3, #180224	; 0x2c000
     704:	16000006 	strne	r0, [r0], -r6
     708:	0e030034 	mcreq	0, 0, r0, cr3, cr4, {1}
     70c:	0b3b0b3a 	bleq	ec33fc <__bss_end+0xebf11c>
     710:	0a021349 	beq	8543c <__bss_end+0x8115c>
     714:	34170000 	ldrcc	r0, [r7]
     718:	3a080300 	bcc	201320 <__bss_end+0x1fd040>
     71c:	490b3b0b 	stmdbmi	fp, {r0, r1, r3, r8, r9, fp, ip, sp}
     720:	00060213 	andeq	r0, r6, r3, lsl r2
     724:	011d1800 	tsteq	sp, r0, lsl #16
     728:	01521331 	cmpeq	r2, r1, lsr r3
     72c:	0b580655 	bleq	1602088 <__bss_end+0x15fdda8>
     730:	00000b59 	andeq	r0, r0, r9, asr fp
     734:	31000519 	tstcc	r0, r9, lsl r5
     738:	1a000013 	bne	78c <_mem_twi_stop+0x1c>
     73c:	0655010b 	ldrbeq	r0, [r5], -fp, lsl #2
     740:	341b0000 	ldrcc	r0, [fp]
     744:	00133100 	andseq	r3, r3, r0, lsl #2
     748:	00341c00 	eorseq	r1, r4, r0, lsl #24
     74c:	0b3a0e03 	bleq	e83f60 <__bss_end+0xe7fc80>
     750:	13490b3b 	movtne	r0, #39739	; 0x9b3b
     754:	00000602 	andeq	r0, r0, r2, lsl #12
     758:	31011d1d 	tstcc	r1, sp, lsl sp
     75c:	55015213 	strpl	r5, [r1, #-531]	; 0x213
     760:	590b5806 	stmdbpl	fp, {r1, r2, fp, ip, lr}
     764:	0013010b 	andseq	r0, r3, fp, lsl #2
     768:	011d1e00 	tsteq	sp, r0, lsl #28
     76c:	01111331 	tsteq	r1, r1, lsr r3
     770:	0b580112 	bleq	1600bc0 <__bss_end+0x15fc8e0>
     774:	13010b59 	movwne	r0, #7001	; 0x1b59
     778:	051f0000 	ldreq	r0, [pc, #0]	; 780 <_mem_twi_stop+0x10>
     77c:	02133100 	andseq	r3, r3, #0
     780:	20000006 	andcs	r0, r0, r6
     784:	13310034 	teqne	r1, #52	; 0x34
     788:	00000602 	andeq	r0, r0, r2, lsl #12
     78c:	49010121 	stmdbmi	r1, {r0, r5, r8}
     790:	00130113 	andseq	r0, r3, r3, lsl r1
     794:	00212200 	eoreq	r2, r1, r0, lsl #4
     798:	0b2f1349 	bleq	bc54c4 <__bss_end+0xbc11e4>
     79c:	26230000 	strtcs	r0, [r3], -r0
     7a0:	00134900 	andseq	r4, r3, r0, lsl #18
     7a4:	11010000 	tstne	r1, r0
     7a8:	130e2501 	movwne	r2, #58625	; 0xe501
     7ac:	1b0e030b 	blne	3813e0 <__bss_end+0x37d100>
     7b0:	1201110e 	andne	r1, r1, #-2147483645	; 0x80000003
     7b4:	00061001 	andeq	r1, r6, r1
     7b8:	00240200 	eoreq	r0, r4, r0, lsl #4
     7bc:	0b3e0b0b 	bleq	f833f0 <__bss_end+0xf7f110>
     7c0:	00000e03 	andeq	r0, r0, r3, lsl #28
     7c4:	03001603 	movweq	r1, #1539	; 0x603
     7c8:	3b0b3a0e 	blcc	2cf008 <__bss_end+0x2cad28>
     7cc:	0013490b 	andseq	r4, r3, fp, lsl #18
     7d0:	00240400 	eoreq	r0, r4, r0, lsl #8
     7d4:	0b3e0b0b 	bleq	f83408 <__bss_end+0xf7f128>
     7d8:	00000803 	andeq	r0, r0, r3, lsl #16
     7dc:	0b002405 	bleq	97f8 <__bss_end+0x5518>
     7e0:	000b3e0b 	andeq	r3, fp, fp, lsl #28
     7e4:	00350600 	eorseq	r0, r5, r0, lsl #12
     7e8:	00001349 	andeq	r1, r0, r9, asr #6
     7ec:	49010107 	stmdbmi	r1, {r0, r1, r2, r8}
     7f0:	00130113 	andseq	r0, r3, r3, lsl r1
     7f4:	00210800 	eoreq	r0, r1, r0, lsl #16
     7f8:	0b2f1349 	bleq	bc5524 <__bss_end+0xbc1244>
     7fc:	04090000 	streq	r0, [r9]
     800:	0b0e0301 	bleq	38140c <__bss_end+0x37d12c>
     804:	3b0b3a0b 	blcc	2cf038 <__bss_end+0x2cad58>
     808:	0013010b 	andseq	r0, r3, fp, lsl #2
     80c:	00280a00 	eoreq	r0, r8, r0, lsl #20
     810:	0d1c0e03 	ldceq	14, cr0, [ip, #-12]
     814:	130b0000 	movwne	r0, #45056	; 0xb000
     818:	0b0e0301 	bleq	381424 <__bss_end+0x37d144>
     81c:	3b0b3a0b 	blcc	2cf050 <__bss_end+0x2cad70>
     820:	0013010b 	andseq	r0, r3, fp, lsl #2
     824:	000d0c00 	andeq	r0, sp, r0, lsl #24
     828:	0b3a0e03 	bleq	e8403c <__bss_end+0xe7fd5c>
     82c:	13490b3b 	movtne	r0, #39739	; 0x9b3b
     830:	00000a38 	andeq	r0, r0, r8, lsr sl
     834:	3f002e0d 	svccc	0x00002e0d
     838:	3a0e030c 	bcc	381470 <__bss_end+0x37d190>
     83c:	270b3b0b 	strcs	r3, [fp, -fp, lsl #22]
     840:	1113490c 	tstne	r3, ip, lsl #18
     844:	40011201 	andmi	r1, r1, r1, lsl #4
     848:	0e000006 	cdpeq	0, 0, cr0, cr0, cr6, {0}
     84c:	0c3f002e 	ldceq	0, cr0, [pc], #-184	; 0xffffff48
     850:	0b3a0e03 	bleq	e84064 <__bss_end+0xe7fd84>
     854:	0c270b3b 	stceq	11, cr0, [r7], #-236	; 0xffffff14
     858:	01111349 	tsteq	r1, r9, asr #6
     85c:	0a400112 	beq	1000cac <__bss_end+0xffc9cc>
     860:	2e0f0000 	cdpcs	0, 0, cr0, cr15, cr0, {0}
     864:	030c3f01 	movweq	r3, #52993	; 0xcf01
     868:	3b0b3a0e 	blcc	2cf0a8 <__bss_end+0x2cadc8>
     86c:	490c270b 	stmdbmi	ip, {r0, r1, r3, r8, r9, sl, sp}
     870:	12011113 	andne	r1, r1, #-1073741820	; 0xc0000004
     874:	01064001 	tsteq	r6, r1
     878:	10000013 	andne	r0, r0, r3, lsl r0
     87c:	08030005 	stmdaeq	r3, {r0, r2}
     880:	0b3b0b3a 	bleq	ec3570 <__bss_end+0xebf290>
     884:	06021349 	streq	r1, [r2], -r9, asr #6
     888:	34110000 	ldrcc	r0, [r1]
     88c:	3a0e0300 	bcc	381494 <__bss_end+0x37d1b4>
     890:	490b3b0b 	stmdbmi	fp, {r0, r1, r3, r8, r9, fp, ip, sp}
     894:	00060213 	andeq	r0, r6, r3, lsl r2
     898:	00341200 	eorseq	r1, r4, r0, lsl #4
     89c:	0b3a0e03 	bleq	e840b0 <__bss_end+0xe7fdd0>
     8a0:	13490b3b 	movtne	r0, #39739	; 0x9b3b
     8a4:	2e130000 	cdpcs	0, 1, cr0, cr3, cr0, {0}
     8a8:	030c3f01 	movweq	r3, #52993	; 0xcf01
     8ac:	3b0b3a0e 	blcc	2cf0ec <__bss_end+0x2cae0c>
     8b0:	490c270b 	stmdbmi	ip, {r0, r1, r3, r8, r9, sl, sp}
     8b4:	12011113 	andne	r1, r1, #-1073741820	; 0xc0000004
     8b8:	010a4001 	tsteq	sl, r1
     8bc:	14000013 	strne	r0, [r0], #-19
     8c0:	0e030034 	mcreq	0, 0, r0, cr3, cr4, {1}
     8c4:	0b3b0b3a 	bleq	ec35b4 <__bss_end+0xebf2d4>
     8c8:	0a021349 	beq	855f4 <__bss_end+0x81314>
     8cc:	0f150000 	svceq	0x00150000
     8d0:	490b0b00 	stmdbmi	fp, {r8, r9, fp}
     8d4:	00000013 	andeq	r0, r0, r3, lsl r0
     8d8:	25011101 	strcs	r1, [r1, #-257]	; 0x101
     8dc:	030b130e 	movweq	r1, #45838	; 0xb30e
     8e0:	110e1b0e 	tstne	lr, lr, lsl #22
     8e4:	10011201 	andne	r1, r1, r1, lsl #4
     8e8:	02000006 	andeq	r0, r0, #6
     8ec:	0b0b0024 	bleq	2c0984 <__bss_end+0x2bc6a4>
     8f0:	0e030b3e 	vmoveq.16	d3[0], r0
     8f4:	24030000 	strcs	r0, [r3]
     8f8:	3e0b0b00 	vmlacc.f64	d0, d11, d0
     8fc:	0008030b 	andeq	r0, r8, fp, lsl #6
     900:	00160400 	andseq	r0, r6, r0, lsl #8
     904:	0b3a0e03 	bleq	e84118 <__bss_end+0xe7fe38>
     908:	13490b3b 	movtne	r0, #39739	; 0x9b3b
     90c:	24050000 	strcs	r0, [r5]
     910:	3e0b0b00 	vmlacc.f64	d0, d11, d0
     914:	0600000b 	streq	r0, [r0], -fp
     918:	13490035 	movtne	r0, #36917	; 0x9035
     91c:	01070000 	tsteq	r7, r0
     920:	01134901 	tsteq	r3, r1, lsl #18
     924:	08000013 	stmdaeq	r0, {r0, r1, r4}
     928:	13490021 	movtne	r0, #36897	; 0x9021
     92c:	00000b2f 	andeq	r0, r0, pc, lsr #22
     930:	03011309 	movweq	r1, #4873	; 0x1309
     934:	3a050b0e 	bcc	143574 <__bss_end+0x13f294>
     938:	010b3b0b 	tsteq	fp, fp, lsl #22
     93c:	0a000013 	beq	990 <twi_byte_rw+0x12c>
     940:	0e03000d 	cdpeq	0, 0, cr0, cr3, cr13, {0}
     944:	0b3b0b3a 	bleq	ec3634 <__bss_end+0xebf354>
     948:	0a381349 	beq	e05674 <__bss_end+0xe01394>
     94c:	2e0b0000 	cdpcs	0, 0, cr0, cr11, cr0, {0}
     950:	030c3f00 	movweq	r3, #52992	; 0xcf00
     954:	3b0b3a0e 	blcc	2cf194 <__bss_end+0x2caeb4>
     958:	110c270b 	tstne	ip, fp, lsl #14
     95c:	40011201 	andmi	r1, r1, r1, lsl #4
     960:	0c00000a 	stceq	0, cr0, [r0], {10}
     964:	0e030034 	mcreq	0, 0, r0, cr3, cr4, {1}
     968:	0b3b0b3a 	bleq	ec3658 <__bss_end+0xebf378>
     96c:	0a021349 	beq	85698 <__bss_end+0x813b8>
     970:	0f0d0000 	svceq	0x000d0000
     974:	490b0b00 	stmdbmi	fp, {r8, r9, fp}
     978:	0e000013 	mcreq	0, 0, r0, cr0, cr3, {0}
     97c:	0e030034 	mcreq	0, 0, r0, cr3, cr4, {1}
     980:	0b3b0b3a 	bleq	ec3670 <__bss_end+0xebf390>
     984:	00001349 	andeq	r1, r0, r9, asr #6
     988:	01110100 	tsteq	r1, r0, lsl #2
     98c:	0b130e25 	bleq	4c4228 <__bss_end+0x4bff48>
     990:	0e1b0e03 	cdpeq	14, 1, cr0, cr11, cr3, {0}
     994:	01120111 	tsteq	r2, r1, lsl r1
     998:	00000610 	andeq	r0, r0, r0, lsl r6
     99c:	0b002402 	bleq	99ac <__bss_end+0x56cc>
     9a0:	030b3e0b 	movweq	r3, #48651	; 0xbe0b
     9a4:	0300000e 	movweq	r0, #14
     9a8:	0b0b0024 	bleq	2c0a40 <__bss_end+0x2bc760>
     9ac:	00000b3e 	andeq	r0, r0, lr, lsr fp
     9b0:	03001604 	movweq	r1, #1540	; 0x604
     9b4:	3b0b3a0e 	blcc	2cf1f4 <__bss_end+0x2caf14>
     9b8:	0013490b 	andseq	r4, r3, fp, lsl #18
     9bc:	00240500 	eoreq	r0, r4, r0, lsl #10
     9c0:	0b3e0b0b 	bleq	f835f4 <__bss_end+0xf7f314>
     9c4:	00000803 	andeq	r0, r0, r3, lsl #16
     9c8:	03010406 	movweq	r0, #5126	; 0x1406
     9cc:	3a0b0b0e 	bcc	2c360c <__bss_end+0x2bf32c>
     9d0:	010b3b0b 	tsteq	fp, fp, lsl #22
     9d4:	07000013 	smladeq	r0, r3, r0, r0
     9d8:	0e030028 	cdpeq	0, 0, cr0, cr3, cr8, {1}
     9dc:	00000d1c 	andeq	r0, r0, ip, lsl sp
     9e0:	3f012e08 	svccc	0x00012e08
     9e4:	3a0e030c 	bcc	38161c <__bss_end+0x37d33c>
     9e8:	270b3b0b 	strcs	r3, [fp, -fp, lsl #22]
     9ec:	010b200c 	tsteq	fp, ip
     9f0:	09000013 	stmdbeq	r0, {r0, r1, r4}
     9f4:	0e030005 	cdpeq	0, 0, cr0, cr3, cr5, {0}
     9f8:	0b3b0b3a 	bleq	ec36e8 <__bss_end+0xebf408>
     9fc:	00001349 	andeq	r1, r0, r9, asr #6
     a00:	0300050a 	movweq	r0, #1290	; 0x50a
     a04:	3b0b3a08 	blcc	2cf22c <__bss_end+0x2caf4c>
     a08:	0013490b 	andseq	r4, r3, fp, lsl #18
     a0c:	00340b00 	eorseq	r0, r4, r0, lsl #22
     a10:	0b3a0e03 	bleq	e84224 <__bss_end+0xe7ff44>
     a14:	13490b3b 	movtne	r0, #39739	; 0x9b3b
     a18:	2e0c0000 	cdpcs	0, 0, cr0, cr12, cr0, {0}
     a1c:	030c3f01 	movweq	r3, #52993	; 0xcf01
     a20:	3b0b3a0e 	blcc	2cf260 <__bss_end+0x2caf80>
     a24:	490c270b 	stmdbmi	ip, {r0, r1, r3, r8, r9, sl, sp}
     a28:	010b2013 	tsteq	fp, r3, lsl r0
     a2c:	0d000013 	stceq	0, cr0, [r0, #-76]	; 0xffffffb4
     a30:	0c3f002e 	ldceq	0, cr0, [pc], #-184	; 0xffffff48
     a34:	0b3a0e03 	bleq	e84248 <__bss_end+0xe7ff68>
     a38:	0c270b3b 	stceq	11, cr0, [r7], #-236	; 0xffffff14
     a3c:	00000b20 	andeq	r0, r0, r0, lsr #22
     a40:	03012e0e 	movweq	r2, #7694	; 0x1e0e
     a44:	3b0b3a0e 	blcc	2cf284 <__bss_end+0x2cafa4>
     a48:	490c2705 	stmdbmi	ip, {r0, r2, r8, r9, sl, sp}
     a4c:	010b2013 	tsteq	fp, r3, lsl r0
     a50:	0f000013 	svceq	0x00000013
     a54:	0e030034 	mcreq	0, 0, r0, cr3, cr4, {1}
     a58:	053b0b3a 	ldreq	r0, [fp, #-2874]!	; 0xb3a
     a5c:	00001349 	andeq	r1, r0, r9, asr #6
     a60:	31012e10 	tstcc	r1, r0, lsl lr
     a64:	12011113 	andne	r1, r1, #-1073741820	; 0xc0000004
     a68:	010a4001 	tsteq	sl, r1
     a6c:	11000013 	tstne	r0, r3, lsl r0
     a70:	13310005 	teqne	r1, #5
     a74:	00000a02 	andeq	r0, r0, r2, lsl #20
     a78:	31003412 	tstcc	r0, r2, lsl r4
     a7c:	000a0213 	andeq	r0, sl, r3, lsl r2
     a80:	00051300 	andeq	r1, r5, r0, lsl #6
     a84:	06021331 	undefined instruction 0x06021331
     a88:	2e140000 	cdpcs	0, 1, cr0, cr4, cr0, {0}
     a8c:	030c3f01 	movweq	r3, #52993	; 0xcf01
     a90:	3b0b3a0e 	blcc	2cf2d0 <__bss_end+0x2caff0>
     a94:	110c270b 	tstne	ip, fp, lsl #14
     a98:	40011201 	andmi	r1, r1, r1, lsl #4
     a9c:	00130106 	andseq	r0, r3, r6, lsl #2
     aa0:	00051500 	andeq	r1, r5, r0, lsl #10
     aa4:	0b3a0e03 	bleq	e842b8 <__bss_end+0xe7ffd8>
     aa8:	13490b3b 	movtne	r0, #39739	; 0x9b3b
     aac:	00000a02 	andeq	r0, r0, r2, lsl #20
     ab0:	03000516 	movweq	r0, #1302	; 0x516
     ab4:	3b0b3a0e 	blcc	2cf2f4 <__bss_end+0x2cb014>
     ab8:	0213490b 	andseq	r4, r3, #180224	; 0x2c000
     abc:	17000006 	strne	r0, [r0, -r6]
     ac0:	0e030034 	mcreq	0, 0, r0, cr3, cr4, {1}
     ac4:	0b3b0b3a 	bleq	ec37b4 <__bss_end+0xebf4d4>
     ac8:	06021349 	streq	r1, [r2], -r9, asr #6
     acc:	2e180000 	cdpcs	0, 1, cr0, cr8, cr0, {0}
     ad0:	030c3f01 	movweq	r3, #52993	; 0xcf01
     ad4:	3b0b3a0e 	blcc	2cf314 <__bss_end+0x2cb034>
     ad8:	110c2705 	tstne	ip, r5, lsl #14
     adc:	40011201 	andmi	r1, r1, r1, lsl #4
     ae0:	0013010a 	andseq	r0, r3, sl, lsl #2
     ae4:	00051900 	andeq	r1, r5, r0, lsl #18
     ae8:	0b3a0e03 	bleq	e842fc <__bss_end+0xe8001c>
     aec:	1349053b 	movtne	r0, #38203	; 0x953b
     af0:	00000a02 	andeq	r0, r0, r2, lsl #20
     af4:	0300051a 	movweq	r0, #1306	; 0x51a
     af8:	3b0b3a08 	blcc	2cf320 <__bss_end+0x2cb040>
     afc:	02134905 	andseq	r4, r3, #81920	; 0x14000
     b00:	1b00000a 	blne	b30 <twi_byte_rw+0x2cc>
     b04:	1331011d 	teqne	r1, #1073741831	; 0x40000007
     b08:	01120111 	tsteq	r2, r1, lsl r1
     b0c:	05590b58 	ldrbeq	r0, [r9, #-2904]	; 0xb58
     b10:	051c0000 	ldreq	r0, [ip]
     b14:	00133100 	andseq	r3, r3, r0, lsl #2
     b18:	010b1d00 	tsteq	fp, r0, lsl #26
     b1c:	01120111 	tsteq	r2, r1, lsl r1
     b20:	2e1e0000 	cdpcs	0, 1, cr0, cr14, cr0, {0}
     b24:	030c3f01 	movweq	r3, #52993	; 0xcf01
     b28:	3b0b3a0e 	blcc	2cf368 <__bss_end+0x2cb088>
     b2c:	490c2705 	stmdbmi	ip, {r0, r2, r8, r9, sl, sp}
     b30:	12011113 	andne	r1, r1, #-1073741820	; 0xc0000004
     b34:	010a4001 	tsteq	sl, r1
     b38:	1f000013 	svcne	0x00000013
     b3c:	0e030005 	cdpeq	0, 0, cr0, cr3, cr5, {0}
     b40:	053b0b3a 	ldreq	r0, [fp, #-2874]!	; 0xb3a
     b44:	06021349 	streq	r1, [r2], -r9, asr #6
     b48:	2e200000 	cdpcs	0, 2, cr0, cr0, cr0, {0}
     b4c:	030c3f01 	movweq	r3, #52993	; 0xcf01
     b50:	3b0b3a0e 	blcc	2cf390 <__bss_end+0x2cb0b0>
     b54:	490c270b 	stmdbmi	ip, {r0, r1, r3, r8, r9, sl, sp}
     b58:	12011113 	andne	r1, r1, #-1073741820	; 0xc0000004
     b5c:	01064001 	tsteq	r6, r1
     b60:	21000013 	tstcs	r0, r3, lsl r0
     b64:	08030034 	stmdaeq	r3, {r2, r4, r5}
     b68:	0b3b0b3a 	bleq	ec3858 <__bss_end+0xebf578>
     b6c:	00001349 	andeq	r1, r0, r9, asr #6
     b70:	3f012e22 	svccc	0x00012e22
     b74:	3a0e030c 	bcc	3817ac <__bss_end+0x37d4cc>
     b78:	270b3b0b 	strcs	r3, [fp, -fp, lsl #22]
     b7c:	1201110c 	andne	r1, r1, #3
     b80:	010a4001 	tsteq	sl, r1
     b84:	23000013 	movwcs	r0, #19
     b88:	0c3f002e 	ldceq	0, cr0, [pc], #-184	; 0xffffff48
     b8c:	0b3a0e03 	bleq	e843a0 <__bss_end+0xe800c0>
     b90:	0c27053b 	cfstr32eq	mvfx0, [r7], #-236	; 0xffffff14
     b94:	01120111 	tsteq	r2, r1, lsl r1
     b98:	00000a40 	andeq	r0, r0, r0, asr #20
     b9c:	31002e24 	tstcc	r0, r4, lsr #28
     ba0:	12011113 	andne	r1, r1, #-1073741820	; 0xc0000004
     ba4:	000a4001 	andeq	r4, sl, r1
     ba8:	001d2500 	andseq	r2, sp, r0, lsl #10
     bac:	01111331 	tsteq	r1, r1, lsr r3
     bb0:	0b580112 	bleq	1601000 <__bss_end+0x15fcd20>
     bb4:	00000559 	andeq	r0, r0, r9, asr r5
     bb8:	03003426 	movweq	r3, #1062	; 0x426
     bbc:	3b0b3a08 	blcc	2cf3e4 <__bss_end+0x2cb104>
     bc0:	0213490b 	andseq	r4, r3, #180224	; 0x2c000
     bc4:	2700000a 	strcs	r0, [r0, -sl]
     bc8:	1331011d 	teqne	r1, #1073741831	; 0x40000007
     bcc:	06550152 	undefined instruction 0x06550152
     bd0:	0b590b58 	bleq	1643938 <__bss_end+0x163f658>
     bd4:	0b280000 	bleq	a00bdc <__bss_end+0x9fc8fc>
     bd8:	00065501 	andeq	r5, r6, r1, lsl #10
     bdc:	00342900 	eorseq	r2, r4, r0, lsl #18
     be0:	0b3a0803 	bleq	e82bf4 <__bss_end+0xe7e914>
     be4:	13490b3b 	movtne	r0, #39739	; 0x9b3b
     be8:	00000602 	andeq	r0, r0, r2, lsl #12
     bec:	3100342a 	tstcc	r0, sl, lsr #8
     bf0:	00060213 	andeq	r0, r6, r3, lsl r2
     bf4:	012e2b00 	teqeq	lr, r0, lsl #22
     bf8:	0e030c3f 	mcreq	12, 0, r0, cr3, cr15, {1}
     bfc:	053b0b3a 	ldreq	r0, [fp, #-2874]!	; 0xb3a
     c00:	13490c27 	movtne	r0, #39975	; 0x9c27
     c04:	01120111 	tsteq	r2, r1, lsl r1
     c08:	13010640 	movwne	r0, #5696	; 0x1640
     c0c:	342c0000 	strtcc	r0, [ip]
     c10:	3a0e0300 	bcc	381818 <__bss_end+0x37d538>
     c14:	49053b0b 	stmdbmi	r5, {r0, r1, r3, r8, r9, fp, ip, sp}
     c18:	000a0213 	andeq	r0, sl, r3, lsl r2
     c1c:	011d2d00 	tsteq	sp, r0, lsl #26
     c20:	01521331 	cmpeq	r2, r1, lsr r3
     c24:	0b580655 	bleq	1602580 <__bss_end+0x15fe2a0>
     c28:	00000559 	andeq	r0, r0, r9, asr r5
     c2c:	3100342e 	tstcc	r0, lr, lsr #8
     c30:	2f000013 	svccs	0x00000013
     c34:	08030034 	stmdaeq	r3, {r2, r4, r5}
     c38:	053b0b3a 	ldreq	r0, [fp, #-2874]!	; 0xb3a
     c3c:	00001349 	andeq	r1, r0, r9, asr #6
     c40:	03003430 	movweq	r3, #1072	; 0x430
     c44:	3b0b3a0e 	blcc	2cf484 <__bss_end+0x2cb1a4>
     c48:	02134905 	andseq	r4, r3, #81920	; 0x14000
     c4c:	31000006 	tstcc	r0, r6
     c50:	0c3f002e 	ldceq	0, cr0, [pc], #-184	; 0xffffff48
     c54:	0b3a0e03 	bleq	e84468 <__bss_end+0xe80188>
     c58:	0c27053b 	cfstr32eq	mvfx0, [r7], #-236	; 0xffffff14
     c5c:	01111349 	tsteq	r1, r9, asr #6
     c60:	0a400112 	beq	10010b0 <__bss_end+0xffcdd0>
     c64:	01000000 	tsteq	r0, r0
     c68:	0e250111 	mcreq	1, 1, r0, cr5, cr1, {0}
     c6c:	0e030b13 	vmoveq.32	d3[0], r0
     c70:	01110e1b 	tsteq	r1, fp, lsl lr
     c74:	06100112 	undefined instruction 0x06100112
     c78:	24020000 	strcs	r0, [r2]
     c7c:	3e0b0b00 	vmlacc.f64	d0, d11, d0
     c80:	000e030b 	andeq	r0, lr, fp, lsl #6
     c84:	00240300 	eoreq	r0, r4, r0, lsl #6
     c88:	0b3e0b0b 	bleq	f838bc <__bss_end+0xf7f5dc>
     c8c:	16040000 	strne	r0, [r4], -r0
     c90:	3a0e0300 	bcc	381898 <__bss_end+0x37d5b8>
     c94:	490b3b0b 	stmdbmi	fp, {r0, r1, r3, r8, r9, fp, ip, sp}
     c98:	05000013 	streq	r0, [r0, #-19]
     c9c:	0b0b0024 	bleq	2c0d34 <__bss_end+0x2bca54>
     ca0:	08030b3e 	stmdaeq	r3, {r1, r2, r3, r4, r5, r8, r9, fp}
     ca4:	13060000 	movwne	r0, #24576	; 0x6000
     ca8:	0b0e0301 	bleq	3818b4 <__bss_end+0x37d5d4>
     cac:	3b0b3a0b 	blcc	2cf4e0 <__bss_end+0x2cb200>
     cb0:	0013010b 	andseq	r0, r3, fp, lsl #2
     cb4:	000d0700 	andeq	r0, sp, r0, lsl #14
     cb8:	0b3a0e03 	bleq	e844cc <__bss_end+0xe801ec>
     cbc:	13490b3b 	movtne	r0, #39739	; 0x9b3b
     cc0:	00000a38 	andeq	r0, r0, r8, lsr sl
     cc4:	3f002e08 	svccc	0x00002e08
     cc8:	3a0e030c 	bcc	381900 <__bss_end+0x37d620>
     ccc:	27053b0b 	strcs	r3, [r5, -fp, lsl #22]
     cd0:	2013490c 	andscs	r4, r3, ip, lsl #18
     cd4:	0900000b 	stmdbeq	r0, {r0, r1, r3}
     cd8:	0c3f012e 	ldfeqs	f0, [pc], #-184	; 0xffffff48
     cdc:	0b3a0e03 	bleq	e844f0 <__bss_end+0xe80210>
     ce0:	0c270b3b 	stceq	11, cr0, [r7], #-236	; 0xffffff14
     ce4:	13010b20 	movwne	r0, #6944	; 0x1b20
     ce8:	340a0000 	strcc	r0, [sl]
     cec:	3a0e0300 	bcc	3818f4 <__bss_end+0x37d614>
     cf0:	490b3b0b 	stmdbmi	fp, {r0, r1, r3, r8, r9, fp, ip, sp}
     cf4:	0b000013 	bleq	d48 <twi_byte_rw_nommu+0x20c>
     cf8:	0c3f012e 	ldfeqs	f0, [pc], #-184	; 0xffffff48
     cfc:	0b3a0e03 	bleq	e84510 <__bss_end+0xe80230>
     d00:	0c27053b 	cfstr32eq	mvfx0, [r7], #-236	; 0xffffff14
     d04:	13010b20 	movwne	r0, #6944	; 0x1b20
     d08:	050c0000 	streq	r0, [ip]
     d0c:	3a080300 	bcc	201914 <__bss_end+0x1fd634>
     d10:	49053b0b 	stmdbmi	r5, {r0, r1, r3, r8, r9, fp, ip, sp}
     d14:	0d000013 	stceq	0, cr0, [r0, #-76]	; 0xffffffb4
     d18:	0e030034 	mcreq	0, 0, r0, cr3, cr4, {1}
     d1c:	053b0b3a 	ldreq	r0, [fp, #-2874]!	; 0xb3a
     d20:	00001349 	andeq	r1, r0, r9, asr #6
     d24:	3f012e0e 	svccc	0x00012e0e
     d28:	3a0e030c 	bcc	381960 <__bss_end+0x37d680>
     d2c:	27053b0b 	strcs	r3, [r5, -fp, lsl #22]
     d30:	2013490c 	andscs	r4, r3, ip, lsl #18
     d34:	0013010b 	andseq	r0, r3, fp, lsl #2
     d38:	012e0f00 	teqeq	lr, r0, lsl #30
     d3c:	0b3a0e03 	bleq	e84550 <__bss_end+0xe80270>
     d40:	0c270b3b 	stceq	11, cr0, [r7], #-236	; 0xffffff14
     d44:	0b201349 	bleq	805a70 <__bss_end+0x801790>
     d48:	00001301 	andeq	r1, r0, r1, lsl #6
     d4c:	03000510 	movweq	r0, #1296	; 0x510
     d50:	3b0b3a0e 	blcc	2cf590 <__bss_end+0x2cb2b0>
     d54:	0013490b 	andseq	r4, r3, fp, lsl #18
     d58:	00341100 	eorseq	r1, r4, r0, lsl #2
     d5c:	0b3a0803 	bleq	e82d70 <__bss_end+0xe7ea90>
     d60:	1349053b 	movtne	r0, #38203	; 0x953b
     d64:	2e120000 	cdpcs	0, 1, cr0, cr2, cr0, {0}
     d68:	11133101 	tstne	r3, r1, lsl #2
     d6c:	40011201 	andmi	r1, r1, r1, lsl #4
     d70:	0013010a 	andseq	r0, r3, sl, lsl #2
     d74:	00341300 	eorseq	r1, r4, r0, lsl #6
     d78:	0a021331 	beq	85a44 <__bss_end+0x81764>
     d7c:	2e140000 	cdpcs	0, 1, cr0, cr4, cr0, {0}
     d80:	030c3f01 	movweq	r3, #52993	; 0xcf01
     d84:	3b0b3a0e 	blcc	2cf5c4 <__bss_end+0x2cb2e4>
     d88:	110c270b 	tstne	ip, fp, lsl #14
     d8c:	40011201 	andmi	r1, r1, r1, lsl #4
     d90:	0013010a 	andseq	r0, r3, sl, lsl #2
     d94:	00341500 	eorseq	r1, r4, r0, lsl #10
     d98:	0b3a0e03 	bleq	e845ac <__bss_end+0xe802cc>
     d9c:	13490b3b 	movtne	r0, #39739	; 0x9b3b
     da0:	00000a02 	andeq	r0, r0, r2, lsl #20
     da4:	31002e16 	tstcc	r0, r6, lsl lr
     da8:	12011113 	andne	r1, r1, #-1073741820	; 0xc0000004
     dac:	000a4001 	andeq	r4, sl, r1
     db0:	00341700 	eorseq	r1, r4, r0, lsl #14
     db4:	06021331 	undefined instruction 0x06021331
     db8:	05180000 	ldreq	r0, [r8]
     dbc:	02133100 	andseq	r3, r3, #0
     dc0:	1900000a 	stmdbne	r0, {r1, r3}
     dc4:	13310034 	teqne	r1, #52	; 0x34
     dc8:	2e1a0000 	cdpcs	0, 1, cr0, cr10, cr0, {0}
     dcc:	030c3f01 	movweq	r3, #52993	; 0xcf01
     dd0:	3b0b3a0e 	blcc	2cf610 <__bss_end+0x2cb330>
     dd4:	490c2705 	stmdbmi	ip, {r0, r2, r8, r9, sl, sp}
     dd8:	12011113 	andne	r1, r1, #-1073741820	; 0xc0000004
     ddc:	010a4001 	tsteq	sl, r1
     de0:	1b000013 	blne	e34 <twi_byte_rw_nommu+0x2f8>
     de4:	0e030034 	mcreq	0, 0, r0, cr3, cr4, {1}
     de8:	053b0b3a 	ldreq	r0, [fp, #-2874]!	; 0xb3a
     dec:	06021349 	streq	r1, [r2], -r9, asr #6
     df0:	2e1c0000 	cdpcs	0, 1, cr0, cr12, cr0, {0}
     df4:	030c3f00 	movweq	r3, #52992	; 0xcf00
     df8:	3b0b3a0e 	blcc	2cf638 <__bss_end+0x2cb358>
     dfc:	490c2705 	stmdbmi	ip, {r0, r2, r8, r9, sl, sp}
     e00:	12011113 	andne	r1, r1, #-1073741820	; 0xc0000004
     e04:	000a4001 	andeq	r4, sl, r1
     e08:	012e1d00 	teqeq	lr, r0, lsl #26
     e0c:	0e030c3f 	mcreq	12, 0, r0, cr3, cr15, {1}
     e10:	053b0b3a 	ldreq	r0, [fp, #-2874]!	; 0xb3a
     e14:	01110c27 	tsteq	r1, r7, lsr #24
     e18:	0a400112 	beq	1001268 <__bss_end+0xffcf88>
     e1c:	00001301 	andeq	r1, r0, r1, lsl #6
     e20:	31011d1e 	tstcc	r1, lr, lsl sp
     e24:	12011113 	andne	r1, r1, #-1073741820	; 0xc0000004
     e28:	590b5801 	stmdbpl	fp, {r0, fp, ip, lr}
     e2c:	1f000005 	svcne	0x00000005
     e30:	0111010b 	tsteq	r1, fp, lsl #2
     e34:	00000112 	andeq	r0, r0, r2, lsl r1
     e38:	03000520 	movweq	r0, #1312	; 0x520
     e3c:	3b0b3a08 	blcc	2cf664 <__bss_end+0x2cb384>
     e40:	02134905 	andseq	r4, r3, #81920	; 0x14000
     e44:	2100000a 	tstcs	r0, sl
     e48:	13310005 	teqne	r1, #5
     e4c:	05220000 	streq	r0, [r2]!
     e50:	3a0e0300 	bcc	381a58 <__bss_end+0x37d778>
     e54:	49053b0b 	stmdbmi	r5, {r0, r1, r3, r8, r9, fp, ip, sp}
     e58:	00060213 	andeq	r0, r6, r3, lsl r2
     e5c:	000f2300 	andeq	r2, pc, r0, lsl #6
     e60:	13490b0b 	movtne	r0, #39691	; 0x9b0b
     e64:	2e240000 	cdpcs	0, 2, cr0, cr4, cr0, {0}
     e68:	030c3f01 	movweq	r3, #52993	; 0xcf01
     e6c:	3b0b3a0e 	blcc	2cf6ac <__bss_end+0x2cb3cc>
     e70:	110c2705 	tstne	ip, r5, lsl #14
     e74:	40011201 	andmi	r1, r1, r1, lsl #4
     e78:	00130106 	andseq	r0, r3, r6, lsl #2
     e7c:	00052500 	andeq	r2, r5, r0, lsl #10
     e80:	0b3a0803 	bleq	e82e94 <__bss_end+0xe7ebb4>
     e84:	1349053b 	movtne	r0, #38203	; 0x953b
     e88:	00000602 	andeq	r0, r0, r2, lsl #12
     e8c:	31011d26 	tstcc	r1, r6, lsr #26
     e90:	55015213 	strpl	r5, [r1, #-531]	; 0x213
     e94:	590b5806 	stmdbpl	fp, {r1, r2, fp, ip, lr}
     e98:	27000005 	strcs	r0, [r0, -r5]
     e9c:	0655010b 	ldrbeq	r0, [r5], -fp, lsl #2
     ea0:	2e280000 	cdpcs	0, 2, cr0, cr8, cr0, {0}
     ea4:	030c3f01 	movweq	r3, #52993	; 0xcf01
     ea8:	3b0b3a0e 	blcc	2cf6e8 <__bss_end+0x2cb408>
     eac:	110c270b 	tstne	ip, fp, lsl #14
     eb0:	40011201 	andmi	r1, r1, r1, lsl #4
     eb4:	00130106 	andseq	r0, r3, r6, lsl #2
     eb8:	00342900 	eorseq	r2, r4, r0, lsl #18
     ebc:	0b3a0803 	bleq	e82ed0 <__bss_end+0xe7ebf0>
     ec0:	13490b3b 	movtne	r0, #39739	; 0x9b3b
     ec4:	00000602 	andeq	r0, r0, r2, lsl #12
     ec8:	0300342a 	movweq	r3, #1066	; 0x42a
     ecc:	3b0b3a0e 	blcc	2cf70c <__bss_end+0x2cb42c>
     ed0:	0213490b 	andseq	r4, r3, #180224	; 0x2c000
     ed4:	2b000006 	blcs	ef4 <mem_clk_plldisable+0x4>
     ed8:	08030034 	stmdaeq	r3, {r2, r4, r5}
     edc:	0b3b0b3a 	bleq	ec3bcc <__bss_end+0xebf8ec>
     ee0:	00001349 	andeq	r1, r0, r9, asr #6
     ee4:	3f012e2c 	svccc	0x00012e2c
     ee8:	3a0e030c 	bcc	381b20 <__bss_end+0x37d840>
     eec:	27053b0b 	strcs	r3, [r5, -fp, lsl #22]
     ef0:	1113490c 	tstne	r3, ip, lsl #18
     ef4:	40011201 	andmi	r1, r1, r1, lsl #4
     ef8:	00130106 	andseq	r0, r3, r6, lsl #2
     efc:	011d2d00 	tsteq	sp, r0, lsl #26
     f00:	01111331 	tsteq	r1, r1, lsr r3
     f04:	0b580112 	bleq	1601354 <__bss_end+0x15fd074>
     f08:	13010559 	movwne	r0, #5465	; 0x1559
     f0c:	1d2e0000 	stcne	0, cr0, [lr]
     f10:	52133101 	andspl	r3, r3, #1073741824	; 0x40000000
     f14:	58065501 	stmdapl	r6, {r0, r8, sl, ip, lr}
     f18:	0105590b 	tsteq	r5, fp, lsl #18
     f1c:	2f000013 	svccs	0x00000013
     f20:	08030034 	stmdaeq	r3, {r2, r4, r5}
     f24:	053b0b3a 	ldreq	r0, [fp, #-2874]!	; 0xb3a
     f28:	0a021349 	beq	85c54 <__bss_end+0x81974>
     f2c:	34300000 	ldrtcc	r0, [r0]
     f30:	3a0e0300 	bcc	381b38 <__bss_end+0x37d858>
     f34:	49053b0b 	stmdbmi	r5, {r0, r1, r3, r8, r9, fp, ip, sp}
     f38:	000a0213 	andeq	r0, sl, r3, lsl r2
     f3c:	00053100 	andeq	r3, r5, r0, lsl #2
     f40:	06021331 	undefined instruction 0x06021331
     f44:	34320000 	ldrtcc	r0, [r2]
     f48:	3a080300 	bcc	201b50 <__bss_end+0x1fd870>
     f4c:	490b3b0b 	stmdbmi	fp, {r0, r1, r3, r8, r9, fp, ip, sp}
     f50:	000a0213 	andeq	r0, sl, r3, lsl r2
     f54:	01013300 	tsteq	r1, r0, lsl #6
     f58:	13011349 	movwne	r1, #4937	; 0x1349
     f5c:	21340000 	teqcs	r4, r0
     f60:	2f134900 	svccs	0x00134900
     f64:	3500000b 	strcc	r0, [r0, #-11]
     f68:	0e030034 	mcreq	0, 0, r0, cr3, cr4, {1}
     f6c:	053b0b3a 	ldreq	r0, [fp, #-2874]!	; 0xb3a
     f70:	0c3f1349 	ldceq	3, cr1, [pc], #-292	; 0xfffffedc
     f74:	00000a02 	andeq	r0, r0, r2, lsl #20
     f78:	01110100 	tsteq	r1, r0, lsl #2
     f7c:	0b130e25 	bleq	4c4818 <__bss_end+0x4c0538>
     f80:	0e1b0e03 	cdpeq	14, 1, cr0, cr11, cr3, {0}
     f84:	01120111 	tsteq	r2, r1, lsl r1
     f88:	00000610 	andeq	r0, r0, r0, lsl r6
     f8c:	0b002402 	bleq	9f9c <__bss_end+0x5cbc>
     f90:	030b3e0b 	movweq	r3, #48651	; 0xbe0b
     f94:	0300000e 	movweq	r0, #14
     f98:	0e030016 	mcreq	0, 0, r0, cr3, cr6, {0}
     f9c:	0b3b0b3a 	bleq	ec3c8c <__bss_end+0xebf9ac>
     fa0:	00001349 	andeq	r1, r0, r9, asr #6
     fa4:	0b002404 	bleq	9fbc <__bss_end+0x5cdc>
     fa8:	030b3e0b 	movweq	r3, #48651	; 0xbe0b
     fac:	05000008 	streq	r0, [r0, #-8]
     fb0:	0b0b0024 	bleq	2c1048 <__bss_end+0x2bcd68>
     fb4:	00000b3e 	andeq	r0, r0, lr, lsr fp
     fb8:	3f012e06 	svccc	0x00012e06
     fbc:	3a0e030c 	bcc	381bf4 <__bss_end+0x37d914>
     fc0:	270b3b0b 	strcs	r3, [fp, -fp, lsl #22]
     fc4:	2013490c 	andscs	r4, r3, ip, lsl #18
     fc8:	0013010b 	andseq	r0, r3, fp, lsl #2
     fcc:	00340700 	eorseq	r0, r4, r0, lsl #14
     fd0:	0b3a0e03 	bleq	e847e4 <__bss_end+0xe80504>
     fd4:	13490b3b 	movtne	r0, #39739	; 0x9b3b
     fd8:	2e080000 	cdpcs	0, 0, cr0, cr8, cr0, {0}
     fdc:	3a0e0301 	bcc	381be8 <__bss_end+0x37d908>
     fe0:	270b3b0b 	strcs	r3, [fp, -fp, lsl #22]
     fe4:	2013490c 	andscs	r4, r3, ip, lsl #18
     fe8:	0013010b 	andseq	r0, r3, fp, lsl #2
     fec:	00050900 	andeq	r0, r5, r0, lsl #18
     ff0:	0b3a0e03 	bleq	e84804 <__bss_end+0xe80524>
     ff4:	13490b3b 	movtne	r0, #39739	; 0x9b3b
     ff8:	2e0a0000 	cdpcs	0, 0, cr0, cr10, cr0, {0}
     ffc:	030c3f01 	movweq	r3, #52993	; 0xcf01
    1000:	3b0b3a0e 	blcc	2cf840 <__bss_end+0x2cb560>
    1004:	110c270b 	tstne	ip, fp, lsl #14
    1008:	40011201 	andmi	r1, r1, r1, lsl #4
    100c:	00130106 	andseq	r0, r3, r6, lsl #2
    1010:	00340b00 	eorseq	r0, r4, r0, lsl #22
    1014:	0b3a0e03 	bleq	e84828 <__bss_end+0xe80548>
    1018:	13490b3b 	movtne	r0, #39739	; 0x9b3b
    101c:	00000602 	andeq	r0, r0, r2, lsl #12
    1020:	4900350c 	stmdbmi	r0, {r2, r3, r8, sl, ip, sp}
    1024:	0d000013 	stceq	0, cr0, [r0, #-76]	; 0xffffffb4
    1028:	0c3f012e 	ldfeqs	f0, [pc], #-184	; 0xffffff48
    102c:	0b3a0e03 	bleq	e84840 <__bss_end+0xe80560>
    1030:	0c270b3b 	stceq	11, cr0, [r7], #-236	; 0xffffff14
    1034:	01120111 	tsteq	r2, r1, lsl r1
    1038:	13010a40 	movwne	r0, #6720	; 0x1a40
    103c:	340e0000 	strcc	r0, [lr]
    1040:	3a0e0300 	bcc	381c48 <__bss_end+0x37d968>
    1044:	490b3b0b 	stmdbmi	fp, {r0, r1, r3, r8, r9, fp, ip, sp}
    1048:	000a0213 	andeq	r0, sl, r3, lsl r2
    104c:	00050f00 	andeq	r0, r5, r0, lsl #30
    1050:	0b3a0803 	bleq	e83064 <__bss_end+0xe7ed84>
    1054:	13490b3b 	movtne	r0, #39739	; 0x9b3b
    1058:	00000a02 	andeq	r0, r0, r2, lsl #20
    105c:	3f002e10 	svccc	0x00002e10
    1060:	3a0e030c 	bcc	381c98 <__bss_end+0x37d9b8>
    1064:	270b3b0b 	strcs	r3, [fp, -fp, lsl #22]
    1068:	1113490c 	tstne	r3, ip, lsl #18
    106c:	40011201 	andmi	r1, r1, r1, lsl #4
    1070:	1100000a 	tstne	r0, sl
    1074:	0c3f012e 	ldfeqs	f0, [pc], #-184	; 0xffffff48
    1078:	0b3a0e03 	bleq	e8488c <__bss_end+0xe805ac>
    107c:	0c270b3b 	stceq	11, cr0, [r7], #-236	; 0xffffff14
    1080:	01111349 	tsteq	r1, r9, asr #6
    1084:	06400112 	undefined instruction 0x06400112
    1088:	00001301 	andeq	r1, r0, r1, lsl #6
    108c:	03000512 	movweq	r0, #1298	; 0x512
    1090:	3b0b3a08 	blcc	2cf8b8 <__bss_end+0x2cb5d8>
    1094:	0213490b 	andseq	r4, r3, #180224	; 0x2c000
    1098:	13000006 	movwne	r0, #6
    109c:	08030034 	stmdaeq	r3, {r2, r4, r5}
    10a0:	0b3b0b3a 	bleq	ec3d90 <__bss_end+0xebfab0>
    10a4:	06021349 	streq	r1, [r2], -r9, asr #6
    10a8:	2e140000 	cdpcs	0, 1, cr0, cr4, cr0, {0}
    10ac:	11133101 	tstne	r3, r1, lsl #2
    10b0:	40011201 	andmi	r1, r1, r1, lsl #4
    10b4:	0013010a 	andseq	r0, r3, sl, lsl #2
    10b8:	00341500 	eorseq	r1, r4, r0, lsl #10
    10bc:	06021331 	undefined instruction 0x06021331
    10c0:	2e160000 	cdpcs	0, 1, cr0, cr6, cr0, {0}
    10c4:	030c3f00 	movweq	r3, #52992	; 0xcf00
    10c8:	3b0b3a0e 	blcc	2cf908 <__bss_end+0x2cb628>
    10cc:	110c270b 	tstne	ip, fp, lsl #14
    10d0:	40011201 	andmi	r1, r1, r1, lsl #4
    10d4:	1700000a 	strne	r0, [r0, -sl]
    10d8:	0e030005 	cdpeq	0, 0, cr0, cr3, cr5, {0}
    10dc:	0b3b0b3a 	bleq	ec3dcc <__bss_end+0xebfaec>
    10e0:	06021349 	streq	r1, [r2], -r9, asr #6
    10e4:	05180000 	ldreq	r0, [r8]
    10e8:	3a0e0300 	bcc	381cf0 <__bss_end+0x37da10>
    10ec:	490b3b0b 	stmdbmi	fp, {r0, r1, r3, r8, r9, fp, ip, sp}
    10f0:	000a0213 	andeq	r0, sl, r3, lsl r2
    10f4:	011d1900 	tsteq	sp, r0, lsl #18
    10f8:	01111331 	tsteq	r1, r1, lsr r3
    10fc:	0b580112 	bleq	160154c <__bss_end+0x15fd26c>
    1100:	13010b59 	movwne	r0, #7001	; 0x1b59
    1104:	0b1a0000 	bleq	68110c <__bss_end+0x67ce2c>
    1108:	12011101 	andne	r1, r1, #1073741824	; 0x40000000
    110c:	1b000001 	blne	1118 <mem_clk_dramgating>
    1110:	13310034 	teqne	r1, #52	; 0x34
    1114:	1d1c0000 	ldcne	0, cr0, [ip]
    1118:	52133101 	andspl	r3, r3, #1073741824	; 0x40000000
    111c:	58065501 	stmdapl	r6, {r0, r8, sl, ip, lr}
    1120:	000b590b 	andeq	r5, fp, fp, lsl #18
    1124:	00051d00 	andeq	r1, r5, r0, lsl #26
    1128:	00001331 	andeq	r1, r0, r1, lsr r3
    112c:	3100051e 	tstcc	r0, lr, lsl r5
    1130:	000a0213 	andeq	r0, sl, r3, lsl r2
    1134:	010b1f00 	tsteq	fp, r0, lsl #30
    1138:	00000655 	andeq	r0, r0, r5, asr r6
    113c:	31003420 	tstcc	r0, r0, lsr #8
    1140:	000a0213 	andeq	r0, sl, r3, lsl r2
    1144:	011d2100 	tsteq	sp, r0, lsl #2
    1148:	01111331 	tsteq	r1, r1, lsr r3
    114c:	0b580112 	bleq	160159c <__bss_end+0x15fd2bc>
    1150:	00000b59 	andeq	r0, r0, r9, asr fp
    1154:	3f012e22 	svccc	0x00012e22
    1158:	3a0e030c 	bcc	381d90 <__bss_end+0x37dab0>
    115c:	27053b0b 	strcs	r3, [r5, -fp, lsl #22]
    1160:	1201110c 	andne	r1, r1, #3
    1164:	010a4001 	tsteq	sl, r1
    1168:	23000013 	movwcs	r0, #19
    116c:	08030005 	stmdaeq	r3, {r0, r2}
    1170:	053b0b3a 	ldreq	r0, [fp, #-2874]!	; 0xb3a
    1174:	06021349 	streq	r1, [r2], -r9, asr #6
    1178:	2e240000 	cdpcs	0, 2, cr0, cr4, cr0, {0}
    117c:	030c3f00 	movweq	r3, #52992	; 0xcf00
    1180:	3b0b3a0e 	blcc	2cf9c0 <__bss_end+0x2cb6e0>
    1184:	110c2705 	tstne	ip, r5, lsl #14
    1188:	40011201 	andmi	r1, r1, r1, lsl #4
    118c:	2500000a 	strcs	r0, [r0, #-10]
    1190:	0e030034 	mcreq	0, 0, r0, cr3, cr4, {1}
    1194:	053b0b3a 	ldreq	r0, [fp, #-2874]!	; 0xb3a
    1198:	0a021349 	beq	85ec4 <__bss_end+0x81be4>
    119c:	2e260000 	cdpcs	0, 2, cr0, cr6, cr0, {0}
    11a0:	030c3f01 	movweq	r3, #52993	; 0xcf01
    11a4:	3b0b3a0e 	blcc	2cf9e4 <__bss_end+0x2cb704>
    11a8:	110c2705 	tstne	ip, r5, lsl #14
    11ac:	40011201 	andmi	r1, r1, r1, lsl #4
    11b0:	00130106 	andseq	r0, r3, r6, lsl #2
    11b4:	00342700 	eorseq	r2, r4, r0, lsl #14
    11b8:	0b3a0e03 	bleq	e849cc <__bss_end+0xe806ec>
    11bc:	1349053b 	movtne	r0, #38203	; 0x953b
    11c0:	00000602 	andeq	r0, r0, r2, lsl #12
    11c4:	01110100 	tsteq	r1, r0, lsl #2
    11c8:	0b130e25 	bleq	4c4a64 <__bss_end+0x4c0784>
    11cc:	0e1b0e03 	cdpeq	14, 1, cr0, cr11, cr3, {0}
    11d0:	01120111 	tsteq	r2, r1, lsl r1
    11d4:	00000610 	andeq	r0, r0, r0, lsl r6
    11d8:	0b002402 	bleq	a1e8 <__bss_end+0x5f08>
    11dc:	030b3e0b 	movweq	r3, #48651	; 0xbe0b
    11e0:	0300000e 	movweq	r0, #14
    11e4:	0b0b0024 	bleq	2c127c <__bss_end+0x2bcf9c>
    11e8:	08030b3e 	stmdaeq	r3, {r1, r2, r3, r4, r5, r8, r9, fp}
    11ec:	24040000 	strcs	r0, [r4]
    11f0:	3e0b0b00 	vmlacc.f64	d0, d11, d0
    11f4:	0500000b 	streq	r0, [r0, #-11]
    11f8:	0e030016 	mcreq	0, 0, r0, cr3, cr6, {0}
    11fc:	0b3b0b3a 	bleq	ec3eec <__bss_end+0xebfc0c>
    1200:	00001349 	andeq	r1, r0, r9, asr #6
    1204:	03011306 	movweq	r1, #4870	; 0x1306
    1208:	3a0b0b0e 	bcc	2c3e48 <__bss_end+0x2bfb68>
    120c:	010b3b0b 	tsteq	fp, fp, lsl #22
    1210:	07000013 	smladeq	r0, r3, r0, r0
    1214:	0e03000d 	cdpeq	0, 0, cr0, cr3, cr13, {0}
    1218:	0b3b0b3a 	bleq	ec3f08 <__bss_end+0xebfc28>
    121c:	0a381349 	beq	e05f48 <__bss_end+0xe01c68>
    1220:	0d080000 	stceq	0, cr0, [r8]
    1224:	3a080300 	bcc	201e2c <__bss_end+0x1fdb4c>
    1228:	490b3b0b 	stmdbmi	fp, {r0, r1, r3, r8, r9, fp, ip, sp}
    122c:	000a3813 	andeq	r3, sl, r3, lsl r8
    1230:	012e0900 	teqeq	lr, r0, lsl #18
    1234:	0e030c3f 	mcreq	12, 0, r0, cr3, cr15, {1}
    1238:	0b3b0b3a 	bleq	ec3f28 <__bss_end+0xebfc48>
    123c:	01110c27 	tsteq	r1, r7, lsr #24
    1240:	0a400112 	beq	1001690 <__bss_end+0xffd3b0>
    1244:	00001301 	andeq	r1, r0, r1, lsl #6
    1248:	0300050a 	movweq	r0, #1290	; 0x50a
    124c:	3b0b3a0e 	blcc	2cfa8c <__bss_end+0x2cb7ac>
    1250:	0213490b 	andseq	r4, r3, #180224	; 0x2c000
    1254:	0b00000a 	bleq	1284 <mem_power_off+0x9c>
    1258:	0b0b000f 	bleq	2c129c <__bss_end+0x2bcfbc>
    125c:	00001349 	andeq	r1, r0, r9, asr #6
    1260:	3f012e0c 	svccc	0x00012e0c
    1264:	3a0e030c 	bcc	381e9c <__bss_end+0x37dbbc>
    1268:	270b3b0b 	strcs	r3, [fp, -fp, lsl #22]
    126c:	1201110c 	andne	r1, r1, #3
    1270:	000a4001 	andeq	r4, sl, r1
    1274:	00340d00 	eorseq	r0, r4, r0, lsl #26
    1278:	0b3a0803 	bleq	e8328c <__bss_end+0xe7efac>
    127c:	13490b3b 	movtne	r0, #39739	; 0x9b3b
    1280:	00000a02 	andeq	r0, r0, r2, lsl #20
    1284:	00110100 	andseq	r0, r1, r0, lsl #2
    1288:	01110610 	tsteq	r1, r0, lsl r6
    128c:	08030112 	stmdaeq	r3, {r1, r4, r8}
    1290:	0825081b 	stmdaeq	r5!, {r0, r1, r3, r4, fp}
    1294:	00000513 	andeq	r0, r0, r3, lsl r5
    1298:	01110100 	tsteq	r1, r0, lsl #2
    129c:	0b130e25 	bleq	4c4b38 <__bss_end+0x4c0858>
    12a0:	0e1b0e03 	cdpeq	14, 1, cr0, cr11, cr3, {0}
    12a4:	01120111 	tsteq	r2, r1, lsl r1
    12a8:	00000610 	andeq	r0, r0, r0, lsl r6
    12ac:	0b002402 	bleq	a2bc <__bss_end+0x5fdc>
    12b0:	030b3e0b 	movweq	r3, #48651	; 0xbe0b
    12b4:	0300000e 	movweq	r0, #14
    12b8:	0b0b0024 	bleq	2c1350 <__bss_end+0x2bd070>
    12bc:	08030b3e 	stmdaeq	r3, {r1, r2, r3, r4, r5, r8, r9, fp}
    12c0:	16040000 	strne	r0, [r4], -r0
    12c4:	3a0e0300 	bcc	381ecc <__bss_end+0x37dbec>
    12c8:	490b3b0b 	stmdbmi	fp, {r0, r1, r3, r8, r9, fp, ip, sp}
    12cc:	05000013 	streq	r0, [r0, #-19]
    12d0:	0b0b0024 	bleq	2c1368 <__bss_end+0x2bd088>
    12d4:	00000b3e 	andeq	r0, r0, lr, lsr fp
    12d8:	03011306 	movweq	r1, #4870	; 0x1306
    12dc:	3a0b0b0e 	bcc	2c3f1c <__bss_end+0x2bfc3c>
    12e0:	010b3b0b 	tsteq	fp, fp, lsl #22
    12e4:	07000013 	smladeq	r0, r3, r0, r0
    12e8:	0e03000d 	cdpeq	0, 0, cr0, cr3, cr13, {0}
    12ec:	0b3b0b3a 	bleq	ec3fdc <__bss_end+0xebfcfc>
    12f0:	0a381349 	beq	e0601c <__bss_end+0xe01d3c>
    12f4:	0d080000 	stceq	0, cr0, [r8]
    12f8:	3a080300 	bcc	201f00 <__bss_end+0x1fdc20>
    12fc:	490b3b0b 	stmdbmi	fp, {r0, r1, r3, r8, r9, fp, ip, sp}
    1300:	000a3813 	andeq	r3, sl, r3, lsl r8
    1304:	012e0900 	teqeq	lr, r0, lsl #18
    1308:	0e030c3f 	mcreq	12, 0, r0, cr3, cr15, {1}
    130c:	0b3b0b3a 	bleq	ec3ffc <__bss_end+0xebfd1c>
    1310:	01110c27 	tsteq	r1, r7, lsr #24
    1314:	0a400112 	beq	1001764 <__bss_end+0xffd484>
    1318:	00001301 	andeq	r1, r0, r1, lsl #6
    131c:	0300050a 	movweq	r0, #1290	; 0x50a
    1320:	3b0b3a0e 	blcc	2cfb60 <__bss_end+0x2cb880>
    1324:	0213490b 	andseq	r4, r3, #180224	; 0x2c000
    1328:	0b00000a 	bleq	1358 <mem_power_exit+0xd0>
    132c:	0b0b000f 	bleq	2c1370 <__bss_end+0x2bd090>
    1330:	00001349 	andeq	r1, r0, r9, asr #6
    1334:	3f012e0c 	svccc	0x00012e0c
    1338:	3a0e030c 	bcc	381f70 <__bss_end+0x37dc90>
    133c:	27053b0b 	strcs	r3, [r5, -fp, lsl #22]
    1340:	1201110c 	andne	r1, r1, #3
    1344:	010a4001 	tsteq	sl, r1
    1348:	0d000013 	stceq	0, cr0, [r0, #-76]	; 0xffffffb4
    134c:	0e030005 	cdpeq	0, 0, cr0, cr3, cr5, {0}
    1350:	053b0b3a 	ldreq	r0, [fp, #-2874]!	; 0xb3a
    1354:	0a021349 	beq	86080 <__bss_end+0x81da0>
    1358:	340e0000 	strcc	r0, [lr]
    135c:	3a080300 	bcc	201f64 <__bss_end+0x1fdc84>
    1360:	49053b0b 	stmdbmi	r5, {r0, r1, r3, r8, r9, fp, ip, sp}
    1364:	000a0213 	andeq	r0, sl, r3, lsl r2
    1368:	00340f00 	eorseq	r0, r4, r0, lsl #30
    136c:	0b3a0e03 	bleq	e84b80 <__bss_end+0xe808a0>
    1370:	1349053b 	movtne	r0, #38203	; 0x953b
    1374:	34100000 	ldrcc	r0, [r0]
    1378:	3a0e0300 	bcc	381f80 <__bss_end+0x37dca0>
    137c:	490b3b0b 	stmdbmi	fp, {r0, r1, r3, r8, r9, fp, ip, sp}
    1380:	000a1c13 	andeq	r1, sl, r3, lsl ip
    1384:	00261100 	eoreq	r1, r6, r0, lsl #2
    1388:	00001349 	andeq	r1, r0, r9, asr #6
	...

Disassembly of section .debug_info:

00000000 <.debug_info>:
       0:	0000068d 	andeq	r0, r0, sp, lsl #13
       4:	00000002 	andeq	r0, r0, r2
       8:	01040000 	tsteq	r4, r0
       c:	00000055 	andeq	r0, r0, r5, asr r0
      10:	00036801 	andeq	r6, r3, r1, lsl #16
      14:	00029700 	andeq	r9, r2, r0, lsl #14
      18:	00000000 	andeq	r0, r0, r0
      1c:	0001e000 	andeq	lr, r1, r0
      20:	00000000 	andeq	r0, r0, r0
      24:	06010200 	streq	r0, [r1], -r0, lsl #4
      28:	000001a8 	andeq	r0, r0, r8, lsr #3
      2c:	00030503 	andeq	r0, r3, r3, lsl #10
      30:	370f0200 	strcc	r0, [pc, -r0, lsl #4]
      34:	02000000 	andeq	r0, r0, #0
      38:	01a60801 	undefined instruction 0x01a60801
      3c:	02020000 	andeq	r0, r2, #0
      40:	00006105 	andeq	r6, r0, r5, lsl #2
      44:	07020200 	streq	r0, [r2, -r0, lsl #4]
      48:	000002ed 	andeq	r0, r0, sp, ror #5
      4c:	0001e403 	andeq	lr, r1, r3, lsl #8
      50:	57120200 	ldrpl	r0, [r2, -r0, lsl #4]
      54:	04000000 	streq	r0, [r0]
      58:	6e690504 	cdpvs	5, 6, cr0, cr9, cr4, {0}
      5c:	16030074 	undefined instruction 0x16030074
      60:	02000001 	andeq	r0, r0, #1
      64:	00006913 	andeq	r6, r0, r3, lsl r9
      68:	07040200 	streq	r0, [r4, -r0, lsl #4]
      6c:	0000022a 	andeq	r0, r0, sl, lsr #4
      70:	2a050802 	bcs	142080 <__bss_end+0x13dda0>
      74:	02000001 	andeq	r0, r0, #1
      78:	02200708 	eoreq	r0, r0, #2097152	; 0x200000
      7c:	98050000 	stmdals	r5, {}
      80:	c4000001 	strgt	r0, [r0], #-1
      84:	03491b03 	movteq	r1, #39683	; 0x9b03
      88:	b3060000 	movwlt	r0, #24576	; 0x6000
      8c:	03000000 	movweq	r0, #0
      90:	00005e20 	andeq	r5, r0, r0, lsr #28
      94:	00230200 	eoreq	r0, r3, r0, lsl #4
      98:	00726307 	rsbseq	r6, r2, r7, lsl #6
      9c:	005e2303 	subseq	r2, lr, r3, lsl #6
      a0:	23020000 	movwcs	r0, #8192	; 0x2000
      a4:	63610704 	cmnvs	r1, #1048576	; 0x100000
      a8:	24030072 	strcs	r0, [r3], #-114	; 0x72
      ac:	0000005e 	andeq	r0, r0, lr, asr r0
      b0:	06082302 	streq	r2, [r8], -r2, lsl #6
      b4:	000003b9 	undefined instruction 0x000003b9
      b8:	005e2503 	subseq	r2, lr, r3, lsl #10
      bc:	23020000 	movwcs	r0, #8192	; 0x2000
      c0:	0026060c 	eoreq	r0, r6, ip, lsl #12
      c4:	26030000 	strcs	r0, [r3], -r0
      c8:	0000005e 	andeq	r0, r0, lr, asr r0
      cc:	06102302 	ldreq	r2, [r0], -r2, lsl #6
      d0:	00000138 	andeq	r0, r0, r8, lsr r1
      d4:	005e2703 	subseq	r2, lr, r3, lsl #14
      d8:	23020000 	movwcs	r0, #8192	; 0x2000
      dc:	01d70614 	bicseq	r0, r7, r4, lsl r6
      e0:	28030000 	stmdacs	r3, {}
      e4:	0000005e 	andeq	r0, r0, lr, asr r0
      e8:	06182302 	ldreq	r2, [r8], -r2, lsl #6
      ec:	00000159 	andeq	r0, r0, r9, asr r1
      f0:	005e3203 	subseq	r3, lr, r3, lsl #4
      f4:	23020000 	movwcs	r0, #8192	; 0x2000
      f8:	0345061c 	movteq	r0, #22044	; 0x561c
      fc:	33030000 	movwcc	r0, #12288	; 0x3000
     100:	0000005e 	andeq	r0, r0, lr, asr r0
     104:	06202302 	strteq	r2, [r0], -r2, lsl #6
     108:	00000386 	andeq	r0, r0, r6, lsl #7
     10c:	005e3403 	subseq	r3, lr, r3, lsl #8
     110:	23020000 	movwcs	r0, #8192	; 0x2000
     114:	00c50624 	sbceq	r0, r5, r4, lsr #12
     118:	36030000 	strcc	r0, [r3], -r0
     11c:	0000005e 	andeq	r0, r0, lr, asr r0
     120:	06282302 	strteq	r2, [r8], -r2, lsl #6
     124:	0000004f 	andeq	r0, r0, pc, asr #32
     128:	005e3803 	subseq	r3, lr, r3, lsl #16
     12c:	23020000 	movwcs	r0, #8192	; 0x2000
     130:	0362062c 	cmneq	r2, #46137344	; 0x2c00000
     134:	39030000 	stmdbcc	r3, {}
     138:	0000005e 	andeq	r0, r0, lr, asr r0
     13c:	06302302 	ldrteq	r2, [r0], -r2, lsl #6
     140:	00000191 	muleq	r0, r1, r1
     144:	005e3a03 	subseq	r3, lr, r3, lsl #20
     148:	23020000 	movwcs	r0, #8192	; 0x2000
     14c:	03950634 	orrseq	r0, r5, #54525952	; 0x3400000
     150:	3b030000 	blcc	c0158 <__bss_end+0xbbe78>
     154:	0000005e 	andeq	r0, r0, lr, asr r0
     158:	06382302 	ldrteq	r2, [r8], -r2, lsl #6
     15c:	0000011c 	andeq	r0, r0, ip, lsl r1
     160:	005e3d03 	subseq	r3, lr, r3, lsl #26
     164:	23020000 	movwcs	r0, #8192	; 0x2000
     168:	0018063c 	andseq	r0, r8, ip, lsr r6
     16c:	3e030000 	cdpcc	0, 0, cr0, cr3, cr0, {0}
     170:	0000005e 	andeq	r0, r0, lr, asr r0
     174:	07402302 	strbeq	r2, [r0, -r2, lsl #6]
     178:	00726170 	rsbseq	r6, r2, r0, ror r1
     17c:	005e4003 	subseq	r4, lr, r3
     180:	23020000 	movwcs	r0, #8192	; 0x2000
     184:	03280644 	teqeq	r8, #71303168	; 0x4400000
     188:	42030000 	andmi	r0, r3, #0
     18c:	0000005e 	andeq	r0, r0, lr, asr r0
     190:	06482302 	strbeq	r2, [r8], -r2, lsl #6
     194:	00000333 	andeq	r0, r0, r3, lsr r3
     198:	005e4303 	subseq	r4, lr, r3, lsl #6
     19c:	23020000 	movwcs	r0, #8192	; 0x2000
     1a0:	021b064c 	andseq	r0, fp, #79691776	; 0x4c00000
     1a4:	44030000 	strmi	r0, [r3]
     1a8:	0000005e 	andeq	r0, r0, lr, asr r0
     1ac:	06502302 	ldrbeq	r2, [r0], -r2, lsl #6
     1b0:	00000323 	andeq	r0, r0, r3, lsr #6
     1b4:	005e4503 	subseq	r4, lr, r3, lsl #10
     1b8:	23020000 	movwcs	r0, #8192	; 0x2000
     1bc:	69730754 	ldmdbvs	r3!, {r2, r4, r6, r8, r9, sl}^
     1c0:	47030072 	smlsdxmi	r3, r2, r0, r0
     1c4:	0000005e 	andeq	r0, r0, lr, asr r0
     1c8:	06582302 	ldrbeq	r2, [r8], -r2, lsl #6
     1cc:	00000160 	andeq	r0, r0, r0, ror #2
     1d0:	005e4903 	subseq	r4, lr, r3, lsl #18
     1d4:	23020000 	movwcs	r0, #8192	; 0x2000
     1d8:	6363075c 	cmnvs	r3, #24117248	; 0x1700000
     1dc:	4a030072 	bmi	c03ac <__bss_end+0xbc0cc>
     1e0:	0000005e 	andeq	r0, r0, lr, asr r0
     1e4:	07602302 	strbeq	r2, [r0, -r2, lsl #6]!
     1e8:	00727365 	rsbseq	r7, r2, r5, ror #6
     1ec:	005e4b03 	subseq	r4, lr, r3, lsl #22
     1f0:	23020000 	movwcs	r0, #8192	; 0x2000
     1f4:	038c0664 	orreq	r0, ip, #104857600	; 0x6400000
     1f8:	4c030000 	stcmi	0, cr0, [r3], {0}
     1fc:	0000005e 	andeq	r0, r0, lr, asr r0
     200:	07682302 	strbeq	r2, [r8, -r2, lsl #6]!
     204:	00726575 	rsbseq	r6, r2, r5, ror r5
     208:	005e4d03 	subseq	r4, lr, r3, lsl #26
     20c:	23020000 	movwcs	r0, #8192	; 0x2000
     210:	0143066c 	cmpeq	r3, ip, ror #12
     214:	4e030000 	cdpmi	0, 0, cr0, cr3, cr0, {0}
     218:	0000005e 	andeq	r0, r0, lr, asr r0
     21c:	06702302 	ldrbteq	r2, [r0], -r2, lsl #6
     220:	00000237 	andeq	r0, r0, r7, lsr r2
     224:	005e4f03 	subseq	r4, lr, r3, lsl #30
     228:	23020000 	movwcs	r0, #8192	; 0x2000
     22c:	02df0674 	sbcseq	r0, pc, #121634816	; 0x7400000
     230:	51030000 	tstpl	r3, r0
     234:	0000005e 	andeq	r0, r0, lr, asr r0
     238:	06782302 	ldrbteq	r2, [r8], -r2, lsl #6
     23c:	000000da 	ldrdeq	r0, [r0], -sl
     240:	005e5203 	subseq	r5, lr, r3, lsl #4
     244:	23020000 	movwcs	r0, #8192	; 0x2000
     248:	02e5067c 	rsceq	r0, r5, #130023424	; 0x7c00000
     24c:	56030000 	strpl	r0, [r3], -r0
     250:	0000005e 	andeq	r0, r0, lr, asr r0
     254:	01802303 	orreq	r2, r0, r3, lsl #6
     258:	0001b906 	andeq	fp, r1, r6, lsl #18
     25c:	5e580300 	cdppl	3, 5, cr0, cr8, cr0, {0}
     260:	03000000 	movweq	r0, #0
     264:	06018423 	streq	r8, [r1], -r3, lsr #8
     268:	000001b4 	undefined instruction 0x000001b4
     26c:	005e5a03 	subseq	r5, lr, r3, lsl #20
     270:	23030000 	movwcs	r0, #12288	; 0x3000
     274:	81060188 	smlabbhi	r6, r8, r1, r0
     278:	03000003 	movweq	r0, #3
     27c:	00005e5b 	andeq	r5, r0, fp, asr lr
     280:	8c230300 	stchi	3, cr0, [r3]
     284:	01770601 	cmneq	r7, r1, lsl #12
     288:	5e030000 	cdppl	0, 0, cr0, cr3, cr0, {0}
     28c:	0000005e 	andeq	r0, r0, lr, asr r0
     290:	01902303 	orrseq	r2, r0, r3, lsl #6
     294:	0003ab06 	andeq	sl, r3, r6, lsl #22
     298:	5e5f0300 	cdppl	3, 5, cr0, cr15, cr0, {0}
     29c:	03000000 	movweq	r0, #0
     2a0:	06019423 	streq	r9, [r1], -r3, lsr #8
     2a4:	000001ea 	andeq	r0, r0, sl, ror #3
     2a8:	005e6003 	subseq	r6, lr, r3
     2ac:	23030000 	movwcs	r0, #12288	; 0x3000
     2b0:	d2060198 	andle	r0, r6, #38	; 0x26
     2b4:	03000000 	movweq	r0, #0
     2b8:	00005e61 	andeq	r5, r0, r1, ror #28
     2bc:	9c230300 	stcls	3, cr0, [r3]
     2c0:	035a0601 	cmpeq	sl, #1048576	; 0x100000
     2c4:	62030000 	andvs	r0, r3, #0
     2c8:	0000005e 	andeq	r0, r0, lr, asr r0
     2cc:	01a02303 	lsleq	r2, r3, #6
     2d0:	00026906 	andeq	r6, r2, r6, lsl #18
     2d4:	5e630300 	cdppl	3, 6, cr0, cr3, cr0, {0}
     2d8:	03000000 	movweq	r0, #0
     2dc:	0601a423 	streq	sl, [r1], -r3, lsr #8
     2e0:	0000023c 	andeq	r0, r0, ip, lsr r2
     2e4:	005e6703 	subseq	r6, lr, r3, lsl #14
     2e8:	23030000 	movwcs	r0, #12288	; 0x3000
     2ec:	8d0601a8 	stfhis	f0, [r6, #-672]	; 0xfffffd60
     2f0:	03000000 	movweq	r0, #0
     2f4:	00005e68 	andeq	r5, r0, r8, ror #28
     2f8:	ac230300 	stcge	3, cr0, [r3]
     2fc:	03000601 	movweq	r0, #1537	; 0x601
     300:	70030000 	andvc	r0, r3, r0
     304:	0000005e 	andeq	r0, r0, lr, asr r0
     308:	01b02303 	lslseq	r2, r3, #6
     30c:	64696307 	strbtvs	r6, [r9], #-775	; 0x307
     310:	5e710300 	cdppl	3, 7, cr0, cr1, cr0, {0}
     314:	03000000 	movweq	r0, #0
     318:	0601b423 	streq	fp, [r1], -r3, lsr #8
     31c:	0000006b 	andeq	r0, r0, fp, rrx
     320:	005e7203 	subseq	r7, lr, r3, lsl #4
     324:	23030000 	movwcs	r0, #12288	; 0x3000
     328:	710601b8 	undefined instruction 0x710601b8
     32c:	03000002 	movweq	r0, #2
     330:	00005e73 	andeq	r5, r0, r3, ror lr
     334:	bc230300 	stclt	3, cr0, [r3]
     338:	03b20601 	undefined instruction 0x03b20601
     33c:	74030000 	strvc	r0, [r3]
     340:	0000005e 	andeq	r0, r0, lr, asr r0
     344:	01c02303 	biceq	r2, r0, r3, lsl #6
     348:	00970500 	addseq	r0, r7, r0, lsl #10
     34c:	04040000 	streq	r0, [r4]
     350:	0003ab11 	andeq	sl, r3, r1, lsl fp
     354:	001e0800 	andseq	r0, lr, r0, lsl #16
     358:	12040000 	andne	r0, r4, #0
     35c:	0000005e 	andeq	r0, r0, lr, asr r0
     360:	021c0404 	andseq	r0, ip, #67108864	; 0x4000000
     364:	ca080023 	bgt	2003f8 <__bss_end+0x1fc118>
     368:	04000000 	streq	r0, [r0]
     36c:	00005e13 	andeq	r5, r0, r3, lsl lr
     370:	18040400 	stmdane	r4, {sl}
     374:	08002302 	stmdaeq	r0, {r1, r8, r9, sp}
     378:	00000148 	andeq	r0, r0, r8, asr #2
     37c:	005e1404 	subseq	r1, lr, r4, lsl #8
     380:	04040000 	streq	r0, [r4]
     384:	00230214 	eoreq	r0, r3, r4, lsl r2
     388:	00012208 	andeq	r2, r1, r8, lsl #4
     38c:	5e150400 	cfmulspl	mvf0, mvf5, mvf0
     390:	04000000 	streq	r0, [r0]
     394:	23021004 	movwcs	r1, #8196	; 0x2004
     398:	01500800 	cmpeq	r0, r0, lsl #16
     39c:	16040000 	strne	r0, [r4], -r0
     3a0:	0000005e 	andeq	r0, r0, lr, asr r0
     3a4:	02001004 	andeq	r1, r0, #4
     3a8:	05000023 	streq	r0, [r0, #-35]	; 0x23
     3ac:	000000b8 	strheq	r0, [r0], -r8
     3b0:	fe180408 	cdp2	4, 1, cr0, cr8, cr8, {0}
     3b4:	06000003 	streq	r0, [r0], -r3
     3b8:	00000008 	andeq	r0, r0, r8
     3bc:	002c1904 	eoreq	r1, ip, r4, lsl #18
     3c0:	23020000 	movwcs	r0, #8192	; 0x2000
     3c4:	03be0600 	undefined instruction 0x03be0600
     3c8:	1a040000 	bne	1003d0 <__bss_end+0xfc0f0>
     3cc:	0000002c 	andeq	r0, r0, ip, lsr #32
     3d0:	06012302 	streq	r2, [r1], -r2, lsl #6
     3d4:	00000000 	andeq	r0, r0, r0
     3d8:	002c1b04 	eoreq	r1, ip, r4, lsl #22
     3dc:	23020000 	movwcs	r0, #8192	; 0x2000
     3e0:	00100602 	andseq	r0, r0, r2, lsl #12
     3e4:	1c040000 	stcne	0, cr0, [r4], {0}
     3e8:	0000002c 	andeq	r0, r0, ip, lsr #32
     3ec:	07032302 	streq	r2, [r3, -r2, lsl #6]
     3f0:	006c6c50 	rsbeq	r6, ip, r0, asr ip
     3f4:	005e1d04 	subseq	r1, lr, r4, lsl #26
     3f8:	23020000 	movwcs	r0, #8192	; 0x2000
     3fc:	83050004 	movwhi	r0, #20484	; 0x5004
     400:	24000000 	strcs	r0, [r0]
     404:	04882004 	streq	r2, [r8], #4
     408:	b3060000 	movwlt	r0, #24576	; 0x6000
     40c:	04000000 	streq	r0, [r0]
     410:	00005e22 	andeq	r5, r0, r2, lsr #28
     414:	00230200 	eoreq	r0, r3, r0, lsl #4
     418:	00726307 	rsbseq	r6, r2, r7, lsl #6
     41c:	005e2404 	subseq	r2, lr, r4, lsl #8
     420:	23020000 	movwcs	r0, #8192	; 0x2000
     424:	03b90604 	undefined instruction 0x03b90604
     428:	25040000 	strcs	r0, [r4]
     42c:	0000005e 	andeq	r0, r0, lr, asr r0
     430:	06082302 	streq	r2, [r8], -r2, lsl #6
     434:	00000159 	andeq	r0, r0, r9, asr r1
     438:	005e2704 	subseq	r2, lr, r4, lsl #14
     43c:	23020000 	movwcs	r0, #8192	; 0x2000
     440:	0345060c 	movteq	r0, #22028	; 0x560c
     444:	28040000 	stmdacs	r4, {}
     448:	0000005e 	andeq	r0, r0, lr, asr r0
     44c:	06102302 	ldreq	r2, [r0], -r2, lsl #6
     450:	00000386 	andeq	r0, r0, r6, lsl #7
     454:	005e2904 	subseq	r2, lr, r4, lsl #18
     458:	23020000 	movwcs	r0, #8192	; 0x2000
     45c:	00c50614 	sbceq	r0, r5, r4, lsl r6
     460:	2c040000 	stccs	0, cr0, [r4], {0}
     464:	0000005e 	andeq	r0, r0, lr, asr r0
     468:	06182302 	ldreq	r2, [r8], -r2, lsl #6
     46c:	000001b4 	undefined instruction 0x000001b4
     470:	005e2f04 	subseq	r2, lr, r4, lsl #30
     474:	23020000 	movwcs	r0, #8192	; 0x2000
     478:	0381061c 	orreq	r0, r1, #29360128	; 0x1c00000
     47c:	30040000 	andcc	r0, r4, r0
     480:	0000005e 	andeq	r0, r0, lr, asr r0
     484:	00202302 	eoreq	r2, r0, r2, lsl #6
     488:	00017e09 	andeq	r7, r1, r9, lsl #28
     48c:	04023000 	streq	r3, [r2]
     490:	00054f36 	andeq	r4, r5, r6, lsr pc
     494:	039c0600 	orrseq	r0, ip, #0
     498:	37040000 	strcc	r0, [r4, -r0]
     49c:	0000054f 	andeq	r0, r0, pc, asr #10
     4a0:	06002302 	streq	r2, [r0], -r2, lsl #6
     4a4:	00001f51 	andeq	r1, r0, r1, asr pc
     4a8:	005e3804 	subseq	r3, lr, r4, lsl #16
     4ac:	23020000 	movwcs	r0, #8192	; 0x2000
     4b0:	01f00604 	mvnseq	r0, r4, lsl #12
     4b4:	3a040000 	bcc	1004bc <__bss_end+0xfc1dc>
     4b8:	0000004c 	andeq	r0, r0, ip, asr #32
     4bc:	06082302 	streq	r2, [r8], -r2, lsl #6
     4c0:	000001fe 	strdeq	r0, [r0], -lr
     4c4:	004c3b04 	subeq	r3, ip, r4, lsl #22
     4c8:	23020000 	movwcs	r0, #8192	; 0x2000
     4cc:	0338060c 	teqeq	r8, #12582912	; 0xc00000
     4d0:	3c040000 	stccc	0, cr0, [r4], {0}
     4d4:	0000005e 	andeq	r0, r0, lr, asr r0
     4d8:	06102302 	ldreq	r2, [r0], -r2, lsl #6
     4dc:	0000024e 	andeq	r0, r0, lr, asr #4
     4e0:	005e3d04 	subseq	r3, lr, r4, lsl #26
     4e4:	23020000 	movwcs	r0, #8192	; 0x2000
     4e8:	01cd0614 	biceq	r0, sp, r4, lsl r6
     4ec:	3e040000 	cdpcc	0, 0, cr0, cr4, cr0, {0}
     4f0:	0000005e 	andeq	r0, r0, lr, asr r0
     4f4:	06182302 	ldreq	r2, [r8], -r2, lsl #6
     4f8:	0000002d 	andeq	r0, r0, sp, lsr #32
     4fc:	03493f04 	movteq	r3, #40708	; 0x9f04
     500:	23020000 	movwcs	r0, #8192	; 0x2000
     504:	1364061c 	cmnne	r4, #29360128	; 0x1c00000
     508:	40040000 	andmi	r0, r4, r0
     50c:	000003ab 	andeq	r0, r0, fp, lsr #7
     510:	06202302 	strteq	r2, [r0], -r2, lsl #6
     514:	00000035 	andeq	r0, r0, r5, lsr r0
     518:	05574104 	ldrbeq	r4, [r7, #-260]	; 0x104
     51c:	23020000 	movwcs	r0, #8192	; 0x2000
     520:	030a0628 	movweq	r0, #42536	; 0xa628
     524:	42040000 	andmi	r0, r4, #0
     528:	0000056a 	andeq	r0, r0, sl, ror #10
     52c:	02882303 	addeq	r2, r8, #201326592	; 0xc000000
     530:	00007d06 	andeq	r7, r0, r6, lsl #26
     534:	fe430400 	cdp2	4, 4, cr0, cr3, cr0, {0}
     538:	03000003 	movweq	r0, #3
     53c:	0602c823 	streq	ip, [r2], -r3, lsr #16
     540:	00000165 	andeq	r0, r0, r5, ror #2
     544:	007e4404 	rsbseq	r4, lr, r4, lsl #8
     548:	23030000 	movwcs	r0, #12288	; 0x3000
     54c:	0a0002ec 	beq	1104 <mem_clk_get_pll_factor+0x3c>
     550:	00055504 	andeq	r5, r5, r4, lsl #10
     554:	0c040b00 	stceq	11, cr0, [r4], {0}
     558:	0000005e 	andeq	r0, r0, lr, asr r0
     55c:	00000567 	andeq	r0, r0, r7, ror #10
     560:	0005670d 	andeq	r6, r5, sp, lsl #14
     564:	0e003700 	cdpeq	7, 0, cr3, cr0, cr0, {0}
     568:	5e0c0704 	cdppl	7, 0, cr0, cr12, cr4, {0}
     56c:	7a000000 	bvc	574 <mem_preload_tlb_nommu+0x50>
     570:	0d000005 	stceq	0, cr0, [r0, #-20]	; 0xffffffec
     574:	00000567 	andeq	r0, r0, r7, ror #10
     578:	580f000f 	stmdapl	pc, {r0, r1, r2, r3}
     57c:	04000002 	streq	r0, [r0], #-2
     580:	05b11705 	ldreq	r1, [r1, #1797]!	; 0x705
     584:	e6100000 	ldr	r0, [r0], -r0
     588:	00000000 	andeq	r0, r0, r0
     58c:	0000f610 	andeq	pc, r0, r0, lsl r6
     590:	06100100 	ldreq	r0, [r0], -r0, lsl #2
     594:	02000001 	andeq	r0, r0, #1
     598:	00027910 	andeq	r7, r2, r0, lsl r9
     59c:	88100300 	ldmdahi	r0, {r8, r9}
     5a0:	04000002 	streq	r0, [r0], #-2
     5a4:	00020c10 	andeq	r0, r2, r0, lsl ip
     5a8:	d0100500 	andsle	r0, r0, r0, lsl #10
     5ac:	06000002 	streq	r0, [r0], -r2
     5b0:	00a61100 	adceq	r1, r6, r0, lsl #2
     5b4:	96010000 	strls	r0, [r1], -r0
     5b8:	05c80101 	strbeq	r0, [r8, #257]	; 0x101
     5bc:	69120000 	ldmdbvs	r2, {}
     5c0:	579a0100 	ldrpl	r0, [sl, r0, lsl #2]
     5c4:	00000000 	andeq	r0, r0, r0
     5c8:	00a10113 	adceq	r0, r1, r3, lsl r1
     5cc:	3a010000 	bcc	405d4 <__bss_end+0x3c2f4>
     5d0:	00005701 	andeq	r5, r0, r1, lsl #14
     5d4:	00000000 	andeq	r0, r0, r0
     5d8:	0001e000 	andeq	lr, r1, r0
     5dc:	00000000 	andeq	r0, r0, r0
     5e0:	00060900 	andeq	r0, r6, r0, lsl #18
     5e4:	05b11400 	ldreq	r1, [r1, #1024]!	; 0x400
     5e8:	00a80000 	adceq	r0, r8, r0
     5ec:	01840000 	orreq	r0, r4, r0
     5f0:	74010000 	strvc	r0, [r1]
     5f4:	0000a815 	andeq	sl, r0, r5, lsl r8
     5f8:	00018400 	andeq	r8, r1, r0, lsl #8
     5fc:	05be1600 	ldreq	r1, [lr, #1536]!	; 0x600
     600:	001f0000 	andseq	r0, pc, r0
     604:	00000000 	andeq	r0, r0, r0
     608:	034c1700 	movteq	r1, #50944	; 0xc700
     60c:	17010000 	strne	r0, [r1, -r0]
     610:	00000488 	andeq	r0, r0, r8, lsl #9
     614:	40540305 	subsmi	r0, r4, r5, lsl #6
     618:	f8170000 	undefined instruction 0xf8170000
     61c:	01000001 	tsteq	r0, r1
     620:	00004c1b 	andeq	r4, r0, fp, lsl ip
     624:	84030500 	strhi	r0, [r3], #-1280	; 0x500
     628:	17000042 	strne	r0, [r0, -r2, asr #32]
     62c:	00000206 	andeq	r0, r0, r6, lsl #4
     630:	004c1b01 	subeq	r1, ip, r1, lsl #22
     634:	03050000 	movweq	r0, #20480	; 0x5000
     638:	00004288 	andeq	r4, r0, r8, lsl #5
     63c:	00024418 	andeq	r4, r2, r8, lsl r4
     640:	5e1c0100 	mufple	f0, f4, f0
     644:	17000000 	strne	r0, [r0, -r0]
     648:	0000018a 	andeq	r0, r0, sl, lsl #3
     64c:	06581d01 	ldrbeq	r1, [r8], -r1, lsl #26
     650:	03050000 	movweq	r0, #20480	; 0x5000
     654:	00003ed4 	ldrdeq	r3, [r0], -r4
     658:	065e040a 	ldrbeq	r0, [lr], -sl, lsl #8
     65c:	01020000 	tsteq	r2, r0
     660:	0001af08 	andeq	sl, r1, r8, lsl #30
     664:	0bf91700 	bleq	ffe4626c <__bss_end+0xffe41f8c>
     668:	1e010000 	cdpne	0, 0, cr0, cr1, cr0, {0}
     66c:	0000005e 	andeq	r0, r0, lr, asr r0
     670:	40500305 	subsmi	r0, r0, r5, lsl #6
     674:	c1190000 	tstgt	r9, r0
     678:	01000001 	tsteq	r0, r1
     67c:	00065819 	andeq	r5, r6, r9, lsl r8
     680:	19010100 	stmdbne	r1, {r8}
     684:	00000073 	andeq	r0, r0, r3, ror r0
     688:	06581a01 	ldrbeq	r1, [r8], -r1, lsl #20
     68c:	01010000 	tsteq	r1, r0
     690:	0000bf00 	andeq	fp, r0, r0, lsl #30
     694:	50000200 	andpl	r0, r0, r0, lsl #4
     698:	04000001 	streq	r0, [r0], #-1
     69c:	00005501 	andeq	r5, r0, r1, lsl #10
     6a0:	03d30100 	bicseq	r0, r3, #0
     6a4:	02970000 	addseq	r0, r7, #0
     6a8:	01e00000 	mvneq	r0, r0
     6ac:	02040000 	andeq	r0, r4, #0
     6b0:	00f60000 	rscseq	r0, r6, r0
     6b4:	01020000 	tsteq	r2, r0
     6b8:	0001a806 	andeq	sl, r1, r6, lsl #16
     6bc:	08010200 	stmdaeq	r1, {r9}
     6c0:	000001a6 	andeq	r0, r0, r6, lsr #3
     6c4:	61050202 	tstvs	r5, r2, lsl #4
     6c8:	02000000 	andeq	r0, r0, #0
     6cc:	02ed0702 	rsceq	r0, sp, #524288	; 0x80000
     6d0:	04030000 	streq	r0, [r3]
     6d4:	746e6905 	strbtvc	r6, [lr], #-2309	; 0x905
     6d8:	07040200 	streq	r0, [r4, -r0, lsl #4]
     6dc:	0000022a 	andeq	r0, r0, sl, lsr #4
     6e0:	2a050802 	bcs	1426f0 <__bss_end+0x13e410>
     6e4:	02000001 	andeq	r0, r0, #1
     6e8:	02200708 	eoreq	r0, r0, #2097152	; 0x200000
     6ec:	04040000 	streq	r0, [r4]
     6f0:	06070405 	streq	r0, [r7], -r5, lsl #8
     6f4:	0003ec01 	andeq	lr, r3, r1, lsl #24
     6f8:	01230100 	teqeq	r3, r0, lsl #2
     6fc:	000001e0 	andeq	r0, r0, r0, ror #3
     700:	00000204 	andeq	r0, r0, r4, lsl #4
     704:	00b55d01 	adcseq	r5, r5, r1, lsl #26
     708:	c6070000 	strgt	r0, [r7], -r0
     70c:	01000003 	tsteq	r0, r3
     710:	00005d23 	andeq	r5, r0, r3, lsr #26
     714:	08500100 	ldmdaeq	r0, {r8}^
     718:	00637273 	rsbeq	r7, r3, r3, ror r2
     71c:	005d2301 	subseq	r2, sp, r1, lsl #6
     720:	51010000 	tstpl	r1, r0
     724:	01006e08 	tsteq	r0, r8, lsl #28
     728:	00004123 	andeq	r4, r0, r3, lsr #2
     72c:	09520100 	ldmdbeq	r2, {r8}^
     730:	000003e4 	andeq	r0, r0, r4, ror #7
     734:	00b52501 	adcseq	r2, r5, r1, lsl #10
     738:	cb090000 	blgt	240740 <__bss_end+0x23c460>
     73c:	01000003 	tsteq	r0, r3
     740:	0000b526 	andeq	fp, r0, r6, lsr #10
     744:	040a0000 	streq	r0, [sl]
     748:	000000bb 	strheq	r0, [r0], -fp
     74c:	af080102 	svcge	0x00080102
     750:	00000001 	andeq	r0, r0, r1
     754:	0000006d 	andeq	r0, r0, sp, rrx
     758:	01d50002 	bicseq	r0, r5, r2
     75c:	01040000 	tsteq	r4, r0
     760:	0000013d 	andeq	r0, r0, sp, lsr r1
     764:	00000220 	andeq	r0, r0, r0, lsr #4
     768:	00000704 	andeq	r0, r0, r4, lsl #14
     76c:	75732f2e 	ldrbvc	r2, [r3, #-3886]!	; 0xf2e
     770:	2f726570 	svccs	0x00726570
     774:	63617473 	cmnvs	r1, #1929379840	; 0x73000000
     778:	00532e6b 	subseq	r2, r3, fp, ror #28
     77c:	6d6f682f 	stclvs	8, cr6, [pc, #-188]!	; 0xffffff44
     780:	696d2f65 	stmdbvs	sp!, {r0, r2, r5, r6, r8, r9, sl, fp, sp}^
     784:	772f656b 	strvc	r6, [pc, -fp, ror #10]!
     788:	2f6b726f 	svccs	0x006b726f
     78c:	756e696c 	strbvc	r6, [lr, #-2412]!	; 0x96c
     790:	32365f78 	eorscc	r5, r6, #480	; 0x1e0
     794:	72612f34 	rsbvc	r2, r1, #208	; 0xd0
     798:	612f6863 	teqvs	pc, r3, ror #16
     79c:	6d2f6d72 	stcvs	13, cr6, [pc, #-456]!	; 0xfffffe38
     7a0:	2d686361 	stclcs	3, cr6, [r8, #-388]!	; 0xfffffe7c
     7a4:	356e7573 	strbcc	r7, [lr, #-1395]!	; 0x573
     7a8:	6d702f69 	ldclvs	15, cr2, [r0, #-420]!	; 0xfffffe5c
     7ac:	6174732f 	cmnvs	r4, pc, lsr #6
     7b0:	7962646e 	stmdbvc	r2!, {r1, r2, r3, r5, r6, sl, sp, lr}^
     7b4:	554e4700 	strbpl	r4, [lr, #-1792]	; 0x700
     7b8:	20534120 	subscs	r4, r3, r0, lsr #2
     7bc:	30322e32 	eorscc	r2, r2, r2, lsr lr
     7c0:	0100312e 	tsteq	r0, lr, lsr #2
     7c4:	0021b880 	eoreq	fp, r1, r0, lsl #17
     7c8:	e9000200 	stmdb	r0, {r9}
     7cc:	04000001 	streq	r0, [r0], #-1
     7d0:	00005501 	andeq	r5, r0, r1, lsl #10
     7d4:	06cf0100 	strbeq	r0, [pc], r0, lsl #2
     7d8:	02970000 	addseq	r0, r7, #0
     7dc:	07200000 	streq	r0, [r0, -r0]!
     7e0:	0eac0000 	cdpeq	0, 10, cr0, cr12, cr0, {0}
     7e4:	028d0000 	addeq	r0, sp, #0
     7e8:	01020000 	tsteq	r2, r0
     7ec:	0001a806 	andeq	sl, r1, r6, lsl #16
     7f0:	03050300 	movweq	r0, #21248	; 0x5300
     7f4:	0f020000 	svceq	0x00020000
     7f8:	00000037 	andeq	r0, r0, r7, lsr r0
     7fc:	a6080102 	strge	r0, [r8], -r2, lsl #2
     800:	02000001 	andeq	r0, r0, #1
     804:	00610502 	rsbeq	r0, r1, r2, lsl #10
     808:	02020000 	andeq	r0, r2, #0
     80c:	0002ed07 	andeq	lr, r2, r7, lsl #26
     810:	01e40300 	mvneq	r0, r0, lsl #6
     814:	12020000 	andne	r0, r2, #0
     818:	00000057 	andeq	r0, r0, r7, asr r0
     81c:	69050404 	stmdbvs	r5, {r2, sl}
     820:	0300746e 	movweq	r7, #1134	; 0x46e
     824:	00000116 	andeq	r0, r0, r6, lsl r1
     828:	00691302 	rsbeq	r1, r9, r2, lsl #6
     82c:	04020000 	streq	r0, [r2]
     830:	00022a07 	andeq	r2, r2, r7, lsl #20
     834:	05080200 	streq	r0, [r8, #-512]	; 0x200
     838:	0000012a 	andeq	r0, r0, sl, lsr #2
     83c:	20070802 	andcs	r0, r7, r2, lsl #16
     840:	05000002 	streq	r0, [r0, #-2]
     844:	5d060704 	stcpl	7, cr0, [r6, #-16]
     848:	0400000c 	streq	r0, [r0], #-12
     84c:	017c1703 	cmneq	ip, r3, lsl #14
     850:	00070000 	andeq	r0, r7, r0
     854:	03000000 	movweq	r0, #0
     858:	00005e18 	andeq	r5, r0, r8, lsl lr
     85c:	1e020400 	cfcpysne	mvf0, mvf2
     860:	07002302 	streq	r2, [r0, -r2, lsl #6]
     864:	00000ad9 	ldrdeq	r0, [r0], -r9
     868:	005e1903 	subseq	r1, lr, r3, lsl #18
     86c:	01040000 	tsteq	r4, r0
     870:	0023021d 	eoreq	r0, r3, sp, lsl r2
     874:	000e4c07 	andeq	r4, lr, r7, lsl #24
     878:	5e1a0300 	cdppl	3, 1, cr0, cr10, cr0, {0}
     87c:	04000000 	streq	r0, [r0]
     880:	23021c01 	movwcs	r1, #11265	; 0x2c01
     884:	03be0700 	undefined instruction 0x03be0700
     888:	1b030000 	blne	c0890 <__bss_end+0xbc5b0>
     88c:	0000005e 	andeq	r0, r0, lr, asr r0
     890:	021a0204 	andseq	r0, sl, #1073741824	; 0x40000000
     894:	20070023 	andcs	r0, r7, r3, lsr #32
     898:	0300000f 	movweq	r0, #15
     89c:	00005e1c 	andeq	r5, r0, ip, lsl lr
     8a0:	18020400 	stmdane	r2, {sl}
     8a4:	07002302 	streq	r2, [r0, -r2, lsl #6]
     8a8:	00000008 	andeq	r0, r0, r8
     8ac:	005e1d03 	subseq	r1, lr, r3, lsl #26
     8b0:	05040000 	streq	r0, [r4]
     8b4:	00230213 	eoreq	r0, r3, r3, lsl r2
     8b8:	0011ec07 	andseq	lr, r1, r7, lsl #24
     8bc:	5e1e0300 	cdppl	3, 1, cr0, cr14, cr0, {0}
     8c0:	04000000 	streq	r0, [r0]
     8c4:	23021003 	movwcs	r1, #8195	; 0x2003
     8c8:	08600700 	stmdaeq	r0!, {r8, r9, sl}^
     8cc:	1f030000 	svcne	0x00030000
     8d0:	0000005e 	andeq	r0, r0, lr, asr r0
     8d4:	020e0204 	andeq	r0, lr, #1073741824	; 0x40000000
     8d8:	2a070023 	bcs	1c096c <__bss_end+0x1bc68c>
     8dc:	0300000f 	movweq	r0, #15
     8e0:	00005e20 	andeq	r5, r0, r0, lsr #28
     8e4:	0c020400 	cfstrseq	mvf0, [r2], {0}
     8e8:	07002302 	streq	r2, [r0, -r2, lsl #6]
     8ec:	00001037 	andeq	r1, r0, r7, lsr r0
     8f0:	005e2103 	subseq	r2, lr, r3, lsl #2
     8f4:	05040000 	streq	r0, [r4]
     8f8:	00230207 	eoreq	r0, r3, r7, lsl #4
     8fc:	000f3407 	andeq	r3, pc, r7, lsl #8
     900:	5e220300 	cdppl	3, 2, cr0, cr2, cr0, {0}
     904:	04000000 	streq	r0, [r0]
     908:	23020601 	movwcs	r0, #9729	; 0x2601
     90c:	0e9c0700 	cdpeq	7, 9, cr0, cr12, cr0, {0}
     910:	23030000 	movwcs	r0, #12288	; 0x3000
     914:	0000005e 	andeq	r0, r0, lr, asr r0
     918:	02020404 	andeq	r0, r2, #67108864	; 0x4000000
     91c:	c7070023 	strgt	r0, [r7, -r3, lsr #32]
     920:	0300000b 	movweq	r0, #11
     924:	00005e24 	andeq	r5, r0, r4, lsr #28
     928:	01010400 	tsteq	r1, r0, lsl #8
     92c:	07002302 	streq	r2, [r0, -r2, lsl #6]
     930:	00000fbe 	undefined instruction 0x00000fbe
     934:	005e2503 	subseq	r2, lr, r3, lsl #10
     938:	01040000 	tsteq	r4, r0
     93c:	00230200 	eoreq	r0, r3, r0, lsl #4
     940:	09fe0300 	ldmibeq	lr!, {r8, r9}^
     944:	27030000 	strcs	r0, [r3, -r0]
     948:	00000081 	andeq	r0, r0, r1, lsl #1
     94c:	00112906 	andseq	r2, r1, r6, lsl #18
     950:	2a030400 	bcs	c1958 <__bss_end+0xbd678>
     954:	000001fa 	strdeq	r0, [r0], -sl
     958:	000f2007 	andeq	r2, pc, r7
     95c:	5e2b0300 	cdppl	3, 2, cr0, cr11, cr0, {0}
     960:	04000000 	streq	r0, [r0]
     964:	23021010 	movwcs	r1, #8208	; 0x2010
     968:	10240700 	eorne	r0, r4, r0, lsl #14
     96c:	2c030000 	stccs	0, cr0, [r3], {0}
     970:	0000005e 	andeq	r0, r0, lr, asr r0
     974:	02090704 	andeq	r0, r9, #1048576	; 0x100000
     978:	b3070023 	movwlt	r0, #28707	; 0x7023
     97c:	03000004 	movweq	r0, #4
     980:	00005e2d 	andeq	r5, r0, sp, lsr #28
     984:	06030400 	streq	r0, [r3], -r0, lsl #8
     988:	07002302 	streq	r2, [r0, -r2, lsl #6]
     98c:	00001266 	andeq	r1, r0, r6, ror #4
     990:	005e2e03 	subseq	r2, lr, r3, lsl #28
     994:	01040000 	tsteq	r4, r0
     998:	00230205 	eoreq	r0, r3, r5, lsl #4
     99c:	00061107 	andeq	r1, r6, r7, lsl #2
     9a0:	5e2f0300 	cdppl	3, 2, cr0, cr15, cr0, {0}
     9a4:	04000000 	streq	r0, [r0]
     9a8:	23020401 	movwcs	r0, #9217	; 0x2401
     9ac:	09a90700 	stmibeq	r9!, {r8, r9, sl}
     9b0:	30030000 	andcc	r0, r3, r0
     9b4:	0000005e 	andeq	r0, r0, lr, asr r0
     9b8:	02000404 	andeq	r0, r0, #67108864	; 0x4000000
     9bc:	03000023 	movweq	r0, #35	; 0x23
     9c0:	000004e8 	andeq	r0, r0, r8, ror #9
     9c4:	01873103 	orreq	r3, r7, r3, lsl #2
     9c8:	0a060000 	beq	1809d0 <__bss_end+0x17c6f0>
     9cc:	0400000c 	streq	r0, [r0], #-12
     9d0:	02ab3503 	adceq	r3, fp, #12582912	; 0xc00000
     9d4:	1d070000 	stcne	0, cr0, [r7]
     9d8:	03000012 	movweq	r0, #18
     9dc:	00005e36 	andeq	r5, r0, r6, lsr lr
     9e0:	1b050400 	blne	1419e8 <__bss_end+0x13d708>
     9e4:	07002302 	streq	r2, [r0, -r2, lsl #6]
     9e8:	00000f20 	andeq	r0, r0, r0, lsr #30
     9ec:	005e3703 	subseq	r3, lr, r3, lsl #14
     9f0:	03040000 	movweq	r0, #16384	; 0x4000
     9f4:	00230218 	eoreq	r0, r3, r8, lsl r2
     9f8:	00000807 	andeq	r0, r0, r7, lsl #16
     9fc:	5e380300 	cdppl	3, 3, cr0, cr8, cr0, {0}
     a00:	04000000 	streq	r0, [r0]
     a04:	23021107 	movwcs	r1, #8455	; 0x2107
     a08:	0f2a0700 	svceq	0x002a0700
     a0c:	39030000 	stmdbcc	r3, {}
     a10:	0000005e 	andeq	r0, r0, lr, asr r0
     a14:	02100104 	andseq	r0, r0, #1
     a18:	37070023 	strcc	r0, [r7, -r3, lsr #32]
     a1c:	03000010 	movweq	r0, #16
     a20:	00005e3a 	andeq	r5, r0, sl, lsr lr
     a24:	0b050400 	bleq	141a2c <__bss_end+0x13d74c>
     a28:	07002302 	streq	r2, [r0, -r2, lsl #6]
     a2c:	00001215 	andeq	r1, r0, r5, lsl r2
     a30:	005e3b03 	subseq	r3, lr, r3, lsl #22
     a34:	05040000 	streq	r0, [r4]
     a38:	00230206 	eoreq	r0, r3, r6, lsl #4
     a3c:	00054e07 	andeq	r4, r5, r7, lsl #28
     a40:	5e3c0300 	cdppl	3, 3, cr0, cr12, cr0, {0}
     a44:	04000000 	streq	r0, [r0]
     a48:	23020204 	movwcs	r0, #8708	; 0x2204
     a4c:	0f340700 	svceq	0x00340700
     a50:	3d030000 	stccc	0, cr0, [r3]
     a54:	0000005e 	andeq	r0, r0, lr, asr r0
     a58:	02010104 	andeq	r0, r1, #1
     a5c:	be070023 	cdplt	0, 0, cr0, cr7, cr3, {1}
     a60:	0300000f 	movweq	r0, #15
     a64:	00005e3e 	andeq	r5, r0, lr, lsr lr
     a68:	00010400 	andeq	r0, r1, r0, lsl #8
     a6c:	00002302 	andeq	r2, r0, r2, lsl #6
     a70:	00082403 	andeq	r2, r8, r3, lsl #8
     a74:	053f0300 	ldreq	r0, [pc, #-768]!	; 77c <_mem_twi_stop+0xc>
     a78:	06000002 	streq	r0, [r0], -r2
     a7c:	00000498 	muleq	r0, r8, r4
     a80:	29430304 	stmdbcs	r3, {r2, r8, r9}^
     a84:	07000003 	streq	r0, [r0, -r3]
     a88:	00000afa 	strdeq	r0, [r0], -sl
     a8c:	005e4403 	subseq	r4, lr, r3, lsl #8
     a90:	11040000 	tstne	r4, r0
     a94:	0023020f 	eoreq	r0, r3, pc, lsl #4
     a98:	00128f07 	andseq	r8, r2, r7, lsl #30
     a9c:	5e450300 	cdppl	3, 4, cr0, cr5, cr0, {0}
     aa0:	04000000 	streq	r0, [r0]
     aa4:	23020d02 	movwcs	r0, #11522	; 0x2d02
     aa8:	0f200700 	svceq	0x00200700
     aac:	46030000 	strmi	r0, [r3], -r0
     ab0:	0000005e 	andeq	r0, r0, lr, asr r0
     ab4:	020c0104 	andeq	r0, ip, #1
     ab8:	00070023 	andeq	r0, r7, r3, lsr #32
     abc:	03000004 	movweq	r0, #4
     ac0:	00005e47 	andeq	r5, r0, r7, asr #28
     ac4:	03090400 	movweq	r0, #37888	; 0x9400
     ac8:	07002302 	streq	r2, [r0, -r2, lsl #6]
     acc:	00000857 	andeq	r0, r0, r7, asr r8
     ad0:	005e4803 	subseq	r4, lr, r3, lsl #16
     ad4:	02040000 	andeq	r0, r4, #0
     ad8:	00230201 	eoreq	r0, r3, r1, lsl #4
     adc:	000ad907 	andeq	sp, sl, r7, lsl #18
     ae0:	5e490300 	cdppl	3, 4, cr0, cr9, cr0, {0}
     ae4:	04000000 	streq	r0, [r0]
     ae8:	23020001 	movwcs	r0, #8193	; 0x2001
     aec:	2f030000 	svccs	0x00030000
     af0:	0300000e 	movweq	r0, #14
     af4:	0002b64b 	andeq	fp, r2, fp, asr #12
     af8:	0e5d0600 	cdpeq	6, 5, cr0, cr13, cr0, {0}
     afc:	03040000 	movweq	r0, #16384	; 0x4000
     b00:	0003fc4f 	andeq	pc, r3, pc, asr #24
     b04:	00000700 	andeq	r0, r0, r0, lsl #14
     b08:	50030000 	andpl	r0, r3, r0
     b0c:	0000005e 	andeq	r0, r0, lr, asr r0
     b10:	02190704 	andseq	r0, r9, #1048576	; 0x100000
     b14:	20070023 	andcs	r0, r7, r3, lsr #32
     b18:	0300000f 	movweq	r0, #15
     b1c:	00005e51 	andeq	r5, r0, r1, asr lr
     b20:	18010400 	stmdane	r1, {sl}
     b24:	07002302 	streq	r2, [r0, -r2, lsl #6]
     b28:	00001037 	andeq	r1, r0, r7, lsr r0
     b2c:	005e5203 	subseq	r5, lr, r3, lsl #4
     b30:	05040000 	streq	r0, [r4]
     b34:	00230213 	eoreq	r0, r3, r3, lsl r2
     b38:	000f2a07 	andeq	r2, pc, r7, lsl #20
     b3c:	5e530300 	cdppl	3, 5, cr0, cr3, cr0, {0}
     b40:	04000000 	streq	r0, [r0]
     b44:	23021201 	movwcs	r1, #8705	; 0x2201
     b48:	0b8e0700 	bleq	fe382750 <__bss_end+0xfe37e470>
     b4c:	54030000 	strpl	r0, [r3]
     b50:	0000005e 	andeq	r0, r0, lr, asr r0
     b54:	02110104 	andseq	r0, r1, #1
     b58:	59070023 	stmdbpl	r7, {r0, r1, r5}
     b5c:	0300000d 	movweq	r0, #13
     b60:	00005e55 	andeq	r5, r0, r5, asr lr
     b64:	10010400 	andne	r0, r1, r0, lsl #8
     b68:	07002302 	streq	r2, [r0, -r2, lsl #6]
     b6c:	00000e9c 	muleq	r0, ip, lr
     b70:	005e5603 	subseq	r5, lr, r3, lsl #12
     b74:	05040000 	streq	r0, [r4]
     b78:	0023020b 	eoreq	r0, r3, fp, lsl #4
     b7c:	000f3407 	andeq	r3, pc, r7, lsl #8
     b80:	5e570300 	cdppl	3, 5, cr0, cr7, cr0, {0}
     b84:	04000000 	streq	r0, [r0]
     b88:	23020803 	movwcs	r0, #10243	; 0x2803
     b8c:	09a90700 	stmibeq	r9!, {r8, r9, sl}
     b90:	58030000 	stmdapl	r3, {}
     b94:	0000005e 	andeq	r0, r0, lr, asr r0
     b98:	02050304 	andeq	r0, r5, #268435456	; 0x10000000
     b9c:	3e070023 	cdpcc	0, 0, cr0, cr7, cr3, {1}
     ba0:	0300000f 	movweq	r0, #15
     ba4:	00005e59 	andeq	r5, r0, r9, asr lr
     ba8:	01040400 	tsteq	r4, r0, lsl #8
     bac:	07002302 	streq	r2, [r0, -r2, lsl #6]
     bb0:	00000fbe 	undefined instruction 0x00000fbe
     bb4:	005e5a03 	subseq	r5, lr, r3, lsl #20
     bb8:	01040000 	tsteq	r4, r0
     bbc:	00230200 	eoreq	r0, r3, r0, lsl #4
     bc0:	0ca90300 	stceq	3, cr0, [r9]
     bc4:	5b030000 	blpl	c0bcc <__bss_end+0xbc8ec>
     bc8:	00000334 	andeq	r0, r0, r4, lsr r3
     bcc:	0006e306 	andeq	lr, r6, r6, lsl #6
     bd0:	5f030400 	svcpl	0x00030400
     bd4:	00000502 	andeq	r0, r0, r2, lsl #10
     bd8:	00000007 	andeq	r0, r0, r7
     bdc:	5e600300 	cdppl	3, 6, cr0, cr0, cr0, {0}
     be0:	04000000 	streq	r0, [r0]
     be4:	23021e02 	movwcs	r1, #11778	; 0x2e02
     be8:	0f200700 	svceq	0x00200700
     bec:	61030000 	tstvs	r3, r0
     bf0:	0000005e 	andeq	r0, r0, lr, asr r0
     bf4:	021c0204 	andseq	r0, ip, #1073741824	; 0x40000000
     bf8:	be070023 	cdplt	0, 0, cr0, cr7, cr3, {1}
     bfc:	03000003 	movweq	r0, #3
     c00:	00005e62 	andeq	r5, r0, r2, ror #28
     c04:	1a020400 	bne	81c0c <__bss_end+0x7d92c>
     c08:	07002302 	streq	r2, [r0, -r2, lsl #6]
     c0c:	00000f2a 	andeq	r0, r0, sl, lsr #30
     c10:	005e6303 	subseq	r6, lr, r3, lsl #6
     c14:	02040000 	andeq	r0, r4, #0
     c18:	00230218 	eoreq	r0, r3, r8, lsl r2
     c1c:	00000807 	andeq	r0, r0, r7, lsl #16
     c20:	5e640300 	cdppl	3, 6, cr0, cr4, cr0, {0}
     c24:	04000000 	streq	r0, [r0]
     c28:	23021305 	movwcs	r1, #8965	; 0x2305
     c2c:	0f340700 	svceq	0x00340700
     c30:	65030000 	strvs	r0, [r3]
     c34:	0000005e 	andeq	r0, r0, lr, asr r0
     c38:	02120104 	andseq	r0, r2, #1
     c3c:	eb070023 	bl	1c0cd0 <__bss_end+0x1bc9f0>
     c40:	03000009 	movweq	r0, #9
     c44:	00005e66 	andeq	r5, r0, r6, ror #28
     c48:	10020400 	andne	r0, r2, r0, lsl #8
     c4c:	07002302 	streq	r2, [r0, -r2, lsl #6]
     c50:	00000010 	andeq	r0, r0, r0, lsl r0
     c54:	005e6703 	subseq	r6, lr, r3, lsl #14
     c58:	02040000 	andeq	r0, r4, #0
     c5c:	0023020e 	eoreq	r0, r3, lr, lsl #4
     c60:	000f3e07 	andeq	r3, pc, r7, lsl #28
     c64:	5e680300 	cdppl	3, 6, cr0, cr8, cr0, {0}
     c68:	04000000 	streq	r0, [r0]
     c6c:	23020d01 	movwcs	r0, #11521	; 0x2d01
     c70:	12660700 	rsbne	r0, r6, #0
     c74:	69030000 	stmdbvs	r3, {}
     c78:	0000005e 	andeq	r0, r0, lr, asr r0
     c7c:	020c0104 	andeq	r0, ip, #1
     c80:	37070023 	strcc	r0, [r7, -r3, lsr #32]
     c84:	03000010 	movweq	r0, #16
     c88:	00005e6a 	andeq	r5, r0, sl, ror #28
     c8c:	07050400 	streq	r0, [r5, -r0, lsl #8]
     c90:	07002302 	streq	r2, [r0, -r2, lsl #6]
     c94:	00000e9c 	muleq	r0, ip, lr
     c98:	005e6b03 	subseq	r6, lr, r3, lsl #22
     c9c:	05040000 	streq	r0, [r4]
     ca0:	00230202 	eoreq	r0, r3, r2, lsl #4
     ca4:	000b7907 	andeq	r7, fp, r7, lsl #18
     ca8:	5e6c0300 	cdppl	3, 6, cr0, cr12, cr0, {0}
     cac:	04000000 	streq	r0, [r0]
     cb0:	23020101 	movwcs	r0, #8449	; 0x2101
     cb4:	0fbe0700 	svceq	0x00be0700
     cb8:	6d030000 	stcvs	0, cr0, [r3]
     cbc:	0000005e 	andeq	r0, r0, lr, asr r0
     cc0:	02000104 	andeq	r0, r0, #1
     cc4:	03000023 	movweq	r0, #35	; 0x23
     cc8:	000012ba 	undefined instruction 0x000012ba
     ccc:	04076e03 	streq	r6, [r7], #-3587	; 0xe03
     cd0:	af060000 	svcge	0x00060000
     cd4:	04000006 	streq	r0, [r0], #-6
     cd8:	06197203 	ldreq	r7, [r9], -r3, lsl #4
     cdc:	00070000 	andeq	r0, r7, r0
     ce0:	03000000 	movweq	r0, #0
     ce4:	00005e73 	andeq	r5, r0, r3, ror lr
     ce8:	1e020400 	cfcpysne	mvf0, mvf2
     cec:	07002302 	streq	r2, [r0, -r2, lsl #6]
     cf0:	000010d8 	ldrdeq	r1, [r0], -r8
     cf4:	005e7403 	subseq	r7, lr, r3, lsl #8
     cf8:	02040000 	andeq	r0, r4, #0
     cfc:	0023021c 	eoreq	r0, r3, ip, lsl r2
     d00:	0003be07 	andeq	fp, r3, r7, lsl #28
     d04:	5e750300 	cdppl	3, 7, cr0, cr5, cr0, {0}
     d08:	04000000 	streq	r0, [r0]
     d0c:	23021a02 	movwcs	r1, #10754	; 0x2a02
     d10:	0f200700 	svceq	0x00200700
     d14:	76030000 	strvc	r0, [r3], -r0
     d18:	0000005e 	andeq	r0, r0, lr, asr r0
     d1c:	02190104 	andseq	r0, r9, #1
     d20:	d1070023 	tstle	r7, r3, lsr #32
     d24:	03000010 	movweq	r0, #16
     d28:	00005e77 	andeq	r5, r0, r7, ror lr
     d2c:	18010400 	stmdane	r1, {sl}
     d30:	07002302 	streq	r2, [r0, -r2, lsl #6]
     d34:	00000008 	andeq	r0, r0, r8
     d38:	005e7803 	subseq	r7, lr, r3, lsl #16
     d3c:	05040000 	streq	r0, [r4]
     d40:	00230213 	eoreq	r0, r3, r3, lsl r2
     d44:	00126607 	andseq	r6, r2, r7, lsl #12
     d48:	5e790300 	cdppl	3, 7, cr0, cr9, cr0, {0}
     d4c:	04000000 	streq	r0, [r0]
     d50:	23021003 	movwcs	r1, #8195	; 0x2003
     d54:	00100700 	andseq	r0, r0, r0, lsl #14
     d58:	7a030000 	bvc	c0d60 <__bss_end+0xbca80>
     d5c:	0000005e 	andeq	r0, r0, lr, asr r0
     d60:	020e0204 	andeq	r0, lr, #1073741824	; 0x40000000
     d64:	11070023 	tstne	r7, r3, lsr #32
     d68:	03000006 	movweq	r0, #6
     d6c:	00005e7b 	andeq	r5, r0, fp, ror lr
     d70:	0d010400 	cfstrseq	mvf0, [r1]
     d74:	07002302 	streq	r2, [r0, -r2, lsl #6]
     d78:	00000582 	andeq	r0, r0, r2, lsl #11
     d7c:	005e7c03 	subseq	r7, lr, r3, lsl #24
     d80:	01040000 	tsteq	r4, r0
     d84:	0023020c 	eoreq	r0, r3, ip, lsl #4
     d88:	00103707 	andseq	r3, r0, r7, lsl #14
     d8c:	5e7d0300 	cdppl	3, 7, cr0, cr13, cr0, {0}
     d90:	04000000 	streq	r0, [r0]
     d94:	23020705 	movwcs	r0, #9989	; 0x2705
     d98:	0e9c0700 	cdpeq	7, 9, cr0, cr12, cr0, {0}
     d9c:	7e030000 	cdpvc	0, 0, cr0, cr3, cr0, {0}
     da0:	0000005e 	andeq	r0, r0, lr, asr r0
     da4:	02030404 	andeq	r0, r3, #67108864	; 0x4000000
     da8:	54070023 	strpl	r0, [r7], #-35	; 0x23
     dac:	0300000e 	movweq	r0, #14
     db0:	00005e7f 	andeq	r5, r0, pc, ror lr
     db4:	02010400 	andeq	r0, r1, #0
     db8:	07002302 	streq	r2, [r0, -r2, lsl #6]
     dbc:	00000b79 	andeq	r0, r0, r9, ror fp
     dc0:	005e8003 	subseq	r8, lr, r3
     dc4:	01040000 	tsteq	r4, r0
     dc8:	00230201 	eoreq	r0, r3, r1, lsl #4
     dcc:	000fbe07 	andeq	fp, pc, r7, lsl #28
     dd0:	5e810300 	cdppl	3, 8, cr0, cr1, cr0, {0}
     dd4:	04000000 	streq	r0, [r0]
     dd8:	23020001 	movwcs	r0, #8193	; 0x2001
     ddc:	0a030000 	beq	c0de4 <__bss_end+0xbcb04>
     de0:	03000008 	movweq	r0, #8
     de4:	00050d82 	andeq	r0, r5, r2, lsl #27
     de8:	124b0600 	subne	r0, fp, #0
     dec:	03040000 	movweq	r0, #16384	; 0x4000
     df0:	0006a886 	andeq	sl, r6, r6, lsl #17
     df4:	0f200700 	svceq	0x00200700
     df8:	87030000 	strhi	r0, [r3, -r0]
     dfc:	0000005e 	andeq	r0, r0, lr, asr r0
     e00:	02101004 	andseq	r1, r0, #4
     e04:	24070023 	strcs	r0, [r7], #-35	; 0x23
     e08:	03000010 	movweq	r0, #16
     e0c:	00005e88 	andeq	r5, r0, r8, lsl #29
     e10:	09070400 	stmdbeq	r7, {sl}
     e14:	07002302 	streq	r2, [r0, -r2, lsl #6]
     e18:	00000bc7 	andeq	r0, r0, r7, asr #23
     e1c:	005e8903 	subseq	r8, lr, r3, lsl #18
     e20:	01040000 	tsteq	r4, r0
     e24:	00230208 	eoreq	r0, r3, r8, lsl #4
     e28:	0011ec07 	andseq	lr, r1, r7, lsl #24
     e2c:	5e8a0300 	cdppl	3, 8, cr0, cr10, cr0, {0}
     e30:	04000000 	streq	r0, [r0]
     e34:	23020503 	movwcs	r0, #9475	; 0x2503
     e38:	0f2a0700 	svceq	0x002a0700
     e3c:	8b030000 	blhi	c0e44 <__bss_end+0xbcb64>
     e40:	0000005e 	andeq	r0, r0, lr, asr r0
     e44:	02040104 	andeq	r0, r4, #1
     e48:	82070023 	andhi	r0, r7, #35	; 0x23
     e4c:	03000010 	movweq	r0, #16
     e50:	00005e8c 	andeq	r5, r0, ip, lsl #29
     e54:	03010400 	movweq	r0, #5120	; 0x1400
     e58:	07002302 	streq	r2, [r0, -r2, lsl #6]
     e5c:	000009a9 	andeq	r0, r0, r9, lsr #19
     e60:	005e8d03 	subseq	r8, lr, r3, lsl #26
     e64:	03040000 	movweq	r0, #16384	; 0x4000
     e68:	00230200 	eoreq	r0, r3, r0, lsl #4
     e6c:	0c400300 	mcrreq	3, 0, r0, r0, cr0
     e70:	8e030000 	cdphi	0, 0, cr0, cr3, cr0, {0}
     e74:	00000624 	andeq	r0, r0, r4, lsr #12
     e78:	00074c06 	andeq	r4, r7, r6, lsl #24
     e7c:	91030400 	tstls	r3, r0, lsl #8
     e80:	0000078c 	andeq	r0, r0, ip, lsl #15
     e84:	00000007 	andeq	r0, r0, r7
     e88:	5e920300 	cdppl	3, 9, cr0, cr2, cr0, {0}
     e8c:	04000000 	streq	r0, [r0]
     e90:	23021e02 	movwcs	r1, #11778	; 0x2e02
     e94:	0f200700 	svceq	0x00200700
     e98:	93030000 	movwls	r0, #12288	; 0x3000
     e9c:	0000005e 	andeq	r0, r0, lr, asr r0
     ea0:	021c0204 	andseq	r0, ip, #1073741824	; 0x40000000
     ea4:	be070023 	cdplt	0, 0, cr0, cr7, cr3, {1}
     ea8:	03000003 	movweq	r0, #3
     eac:	00005e94 	muleq	r0, r4, lr
     eb0:	1a020400 	bne	81eb8 <__bss_end+0x7dbd8>
     eb4:	07002302 	streq	r2, [r0, -r2, lsl #6]
     eb8:	000009a9 	andeq	r0, r0, r9, lsr #19
     ebc:	005e9503 	subseq	r9, lr, r3, lsl #10
     ec0:	02040000 	andeq	r0, r4, #0
     ec4:	00230218 	eoreq	r0, r3, r8, lsl r2
     ec8:	00000807 	andeq	r0, r0, r7, lsl #16
     ecc:	5e960300 	cdppl	3, 9, cr0, cr6, cr0, {0}
     ed0:	04000000 	streq	r0, [r0]
     ed4:	23021305 	movwcs	r1, #8965	; 0x2305
     ed8:	0f2a0700 	svceq	0x002a0700
     edc:	97030000 	strls	r0, [r3, -r0]
     ee0:	0000005e 	andeq	r0, r0, lr, asr r0
     ee4:	02110204 	andseq	r0, r1, #1073741824	; 0x40000000
     ee8:	11070023 	tstne	r7, r3, lsr #32
     eec:	03000006 	movweq	r0, #6
     ef0:	00005e98 	muleq	r0, r8, lr
     ef4:	10010400 	andne	r0, r1, r0, lsl #8
     ef8:	07002302 	streq	r2, [r0, -r2, lsl #6]
     efc:	00000f34 	andeq	r0, r0, r4, lsr pc
     f00:	005e9903 	subseq	r9, lr, r3, lsl #18
     f04:	04040000 	streq	r0, [r4]
     f08:	0023020c 	eoreq	r0, r3, ip, lsl #4
     f0c:	00103707 	andseq	r3, r0, r7, lsl #14
     f10:	5e9a0300 	cdppl	3, 9, cr0, cr10, cr0, {0}
     f14:	04000000 	streq	r0, [r0]
     f18:	23020705 	movwcs	r0, #9989	; 0x2705
     f1c:	0e9c0700 	cdpeq	7, 9, cr0, cr12, cr0, {0}
     f20:	9b030000 	blls	c0f28 <__bss_end+0xbcc48>
     f24:	0000005e 	andeq	r0, r0, lr, asr r0
     f28:	02020504 	andeq	r0, r2, #16777216	; 0x1000000
     f2c:	79070023 	stmdbvc	r7, {r0, r1, r5}
     f30:	0300000b 	movweq	r0, #11
     f34:	00005e9c 	muleq	r0, ip, lr
     f38:	01010400 	tsteq	r1, r0, lsl #8
     f3c:	07002302 	streq	r2, [r0, -r2, lsl #6]
     f40:	00000fbe 	undefined instruction 0x00000fbe
     f44:	005e9d03 	subseq	r9, lr, r3, lsl #26
     f48:	01040000 	tsteq	r4, r0
     f4c:	00230200 	eoreq	r0, r3, r0, lsl #4
     f50:	05f60300 	ldrbeq	r0, [r6, #768]!	; 0x300
     f54:	9e030000 	cdpls	0, 0, cr0, cr3, cr0, {0}
     f58:	000006b3 	undefined instruction 0x000006b3
     f5c:	000d6106 	andeq	r6, sp, r6, lsl #2
     f60:	a2030400 	andge	r0, r3, #0
     f64:	0000085f 	andeq	r0, r0, pc, asr r8
     f68:	00000007 	andeq	r0, r0, r7
     f6c:	5ea30300 	cdppl	3, 10, cr0, cr3, cr0, {0}
     f70:	04000000 	streq	r0, [r0]
     f74:	23021907 	movwcs	r1, #10503	; 0x2907
     f78:	0f200700 	svceq	0x00200700
     f7c:	a4030000 	strge	r0, [r3]
     f80:	0000005e 	andeq	r0, r0, lr, asr r0
     f84:	02180104 	andseq	r0, r8, #1
     f88:	37070023 	strcc	r0, [r7, -r3, lsr #32]
     f8c:	03000010 	movweq	r0, #16
     f90:	00005ea5 	andeq	r5, r0, r5, lsr #29
     f94:	13050400 	movwne	r0, #21504	; 0x5400
     f98:	07002302 	streq	r2, [r0, -r2, lsl #6]
     f9c:	00000f2a 	andeq	r0, r0, sl, lsr #30
     fa0:	005ea603 	subseq	sl, lr, r3, lsl #12
     fa4:	01040000 	tsteq	r4, r0
     fa8:	00230212 	eoreq	r0, r3, r2, lsl r2
     fac:	000b8e07 	andeq	r8, fp, r7, lsl #28
     fb0:	5ea70300 	cdppl	3, 10, cr0, cr7, cr0, {0}
     fb4:	04000000 	streq	r0, [r0]
     fb8:	23021101 	movwcs	r1, #8449	; 0x2101
     fbc:	0d590700 	ldcleq	7, cr0, [r9]
     fc0:	a8030000 	stmdage	r3, {}
     fc4:	0000005e 	andeq	r0, r0, lr, asr r0
     fc8:	02100104 	andseq	r0, r0, #1
     fcc:	9c070023 	stcls	0, cr0, [r7], {35}	; 0x23
     fd0:	0300000e 	movweq	r0, #14
     fd4:	00005ea9 	andeq	r5, r0, r9, lsr #29
     fd8:	0b050400 	bleq	141fe0 <__bss_end+0x13dd00>
     fdc:	07002302 	streq	r2, [r0, -r2, lsl #6]
     fe0:	00000f34 	andeq	r0, r0, r4, lsr pc
     fe4:	005eaa03 	subseq	sl, lr, r3, lsl #20
     fe8:	03040000 	movweq	r0, #16384	; 0x4000
     fec:	00230208 	eoreq	r0, r3, r8, lsl #4
     ff0:	0009a907 	andeq	sl, r9, r7, lsl #18
     ff4:	5eab0300 	cdppl	3, 10, cr0, cr11, cr0, {0}
     ff8:	04000000 	streq	r0, [r0]
     ffc:	23020503 	movwcs	r0, #9475	; 0x2503
    1000:	0f3e0700 	svceq	0x003e0700
    1004:	ac030000 	stcge	0, cr0, [r3], {0}
    1008:	0000005e 	andeq	r0, r0, lr, asr r0
    100c:	02010404 	andeq	r0, r1, #67108864	; 0x4000000
    1010:	be070023 	cdplt	0, 0, cr0, cr7, cr3, {1}
    1014:	0300000f 	movweq	r0, #15
    1018:	00005ead 	andeq	r5, r0, sp, lsr #29
    101c:	00010400 	andeq	r0, r1, r0, lsl #8
    1020:	00002302 	andeq	r2, r0, r2, lsl #6
    1024:	000d3303 	andeq	r3, sp, r3, lsl #6
    1028:	97ae0300 	strls	r0, [lr, r0, lsl #6]!
    102c:	06000007 	streq	r0, [r0], -r7
    1030:	00000f52 	andeq	r0, r0, r2, asr pc
    1034:	ddb20304 	ldcle	3, cr0, [r2, #16]!
    1038:	07000008 	streq	r0, [r0, -r8]
    103c:	00000afa 	strdeq	r0, [r0], -sl
    1040:	005eb303 	subseq	fp, lr, r3, lsl #6
    1044:	11040000 	tstne	r4, r0
    1048:	0023020f 	eoreq	r0, r3, pc, lsl #4
    104c:	00128f07 	andseq	r8, r2, r7, lsl #30
    1050:	5eb40300 	cdppl	3, 11, cr0, cr4, cr0, {0}
    1054:	04000000 	streq	r0, [r0]
    1058:	23020d02 	movwcs	r0, #11522	; 0x2d02
    105c:	0f200700 	svceq	0x00200700
    1060:	b5030000 	strlt	r0, [r3]
    1064:	0000005e 	andeq	r0, r0, lr, asr r0
    1068:	020c0104 	andeq	r0, ip, #1
    106c:	00070023 	andeq	r0, r7, r3, lsr #32
    1070:	03000004 	movweq	r0, #4
    1074:	00005eb6 	undefined instruction 0x00005eb6
    1078:	03090400 	movweq	r0, #37888	; 0x9400
    107c:	07002302 	streq	r2, [r0, -r2, lsl #6]
    1080:	00000857 	andeq	r0, r0, r7, asr r8
    1084:	005eb703 	subseq	fp, lr, r3, lsl #14
    1088:	02040000 	andeq	r0, r4, #0
    108c:	00230201 	eoreq	r0, r3, r1, lsl #4
    1090:	000ad907 	andeq	sp, sl, r7, lsl #18
    1094:	5eb80300 	cdppl	3, 11, cr0, cr8, cr0, {0}
    1098:	04000000 	streq	r0, [r0]
    109c:	23020001 	movwcs	r0, #8193	; 0x2001
    10a0:	bf030000 	svclt	0x00030000
    10a4:	03000005 	movweq	r0, #5
    10a8:	00086ab9 	undefined instruction 0x00086ab9
    10ac:	0e770600 	cdpeq	6, 7, cr0, cr7, cr0, {0}
    10b0:	03040000 	movweq	r0, #16384	; 0x4000
    10b4:	00095bbd 	undefined instruction 0x00095bbd
    10b8:	0afa0700 	beq	ffe82cc0 <__bss_end+0xffe7e9e0>
    10bc:	be030000 	cdplt	0, 0, cr0, cr3, cr0, {0}
    10c0:	0000005e 	andeq	r0, r0, lr, asr r0
    10c4:	020f1104 	andeq	r1, pc, #1
    10c8:	8f070023 	svchi	0x00070023
    10cc:	03000012 	movweq	r0, #18
    10d0:	00005ebf 	undefined instruction 0x00005ebf
    10d4:	0d020400 	cfstrseq	mvf0, [r2]
    10d8:	07002302 	streq	r2, [r0, -r2, lsl #6]
    10dc:	00000f20 	andeq	r0, r0, r0, lsr #30
    10e0:	005ec003 	subseq	ip, lr, r3
    10e4:	01040000 	tsteq	r4, r0
    10e8:	0023020c 	eoreq	r0, r3, ip, lsl #4
    10ec:	00040007 	andeq	r0, r4, r7
    10f0:	5ec10300 	cdppl	3, 12, cr0, cr1, cr0, {0}
    10f4:	04000000 	streq	r0, [r0]
    10f8:	23020309 	movwcs	r0, #8969	; 0x2309
    10fc:	08570700 	ldmdaeq	r7, {r8, r9, sl}^
    1100:	c2030000 	andgt	r0, r3, #0
    1104:	0000005e 	andeq	r0, r0, lr, asr r0
    1108:	02010204 	andeq	r0, r1, #1073741824	; 0x40000000
    110c:	d9070023 	stmdble	r7, {r0, r1, r5}
    1110:	0300000a 	movweq	r0, #10
    1114:	00005ec3 	andeq	r5, r0, r3, asr #29
    1118:	00010400 	andeq	r0, r1, r0, lsl #8
    111c:	00002302 	andeq	r2, r0, r2, lsl #6
    1120:	00108d03 	andseq	r8, r0, r3, lsl #26
    1124:	e8c40300 	stmia	r4, {r8, r9}^
    1128:	06000008 	streq	r0, [r0], -r8
    112c:	00000dba 	undefined instruction 0x00000dba
    1130:	1dc80304 	stclne	3, cr0, [r8, #16]
    1134:	0700000a 	streq	r0, [r0, -sl]
    1138:	00000fad 	andeq	r0, r0, sp, lsr #31
    113c:	005ec903 	subseq	ip, lr, r3, lsl #18
    1140:	01040000 	tsteq	r4, r0
    1144:	0023021f 	eoreq	r0, r3, pc, lsl r2
    1148:	000d0a07 	andeq	r0, sp, r7, lsl #20
    114c:	5eca0300 	cdppl	3, 12, cr0, cr10, cr0, {0}
    1150:	04000000 	streq	r0, [r0]
    1154:	23021e01 	movwcs	r1, #11777	; 0x2e01
    1158:	0f200700 	svceq	0x00200700
    115c:	cb030000 	blgt	c1164 <__bss_end+0xbce84>
    1160:	0000005e 	andeq	r0, r0, lr, asr r0
    1164:	021c0204 	andseq	r0, ip, #1073741824	; 0x40000000
    1168:	31070023 	tstcc	r7, r3, lsr #32
    116c:	03000009 	movweq	r0, #9
    1170:	00005ecc 	andeq	r5, r0, ip, asr #29
    1174:	1b010400 	blne	4217c <__bss_end+0x3de9c>
    1178:	07002302 	streq	r2, [r0, -r2, lsl #6]
    117c:	00000f2a 	andeq	r0, r0, sl, lsr #30
    1180:	005ecd03 	subseq	ip, lr, r3, lsl #26
    1184:	0a040000 	beq	10118c <__bss_end+0xfceac>
    1188:	00230211 	eoreq	r0, r3, r1, lsl r2
    118c:	000c0007 	andeq	r0, ip, r7
    1190:	5ece0300 	cdppl	3, 12, cr0, cr14, cr0, {0}
    1194:	04000000 	streq	r0, [r0]
    1198:	23021001 	movwcs	r1, #8193	; 0x2001
    119c:	05f00700 	ldrbeq	r0, [r0, #1792]!	; 0x700
    11a0:	cf030000 	svcgt	0x00030000
    11a4:	0000005e 	andeq	r0, r0, lr, asr r0
    11a8:	020f0104 	andeq	r0, pc, #1
    11ac:	8c070023 	stchi	0, cr0, [r7], {35}	; 0x23
    11b0:	03000005 	movweq	r0, #5
    11b4:	00005ed0 	ldrdeq	r5, [r0], -r0
    11b8:	0e010400 	cfcpyseq	mvf0, mvf1
    11bc:	07002302 	streq	r2, [r0, -r2, lsl #6]
    11c0:	00000719 	andeq	r0, r0, r9, lsl r7
    11c4:	005ed103 	subseq	sp, lr, r3, lsl #2
    11c8:	03040000 	movweq	r0, #16384	; 0x4000
    11cc:	0023020b 	eoreq	r0, r3, fp, lsl #4
    11d0:	000dec07 	andeq	lr, sp, r7, lsl #24
    11d4:	5ed20300 	cdppl	3, 13, cr0, cr2, cr0, {0}
    11d8:	04000000 	streq	r0, [r0]
    11dc:	2302000b 	movwcs	r0, #8203	; 0x200b
    11e0:	8a030000 	bhi	c11e8 <__bss_end+0xbcf08>
    11e4:	03000007 	movweq	r0, #7
    11e8:	000966d5 	ldrdeq	r6, [r9], -r5
    11ec:	0ff00600 	svceq	0x00f00600
    11f0:	03040000 	movweq	r0, #16384	; 0x4000
    11f4:	000abdd9 	ldrdeq	fp, [sl], -r9
    11f8:	12410700 	subne	r0, r1, #0
    11fc:	da030000 	ble	c1204 <__bss_end+0xbcf24>
    1200:	0000005e 	andeq	r0, r0, lr, asr r0
    1204:	021e0204 	andseq	r0, lr, #1073741824	; 0x40000000
    1208:	20070023 	andcs	r0, r7, r3, lsr #32
    120c:	0300000f 	movweq	r0, #15
    1210:	00005edb 	ldrdeq	r5, [r0], -fp
    1214:	1c020400 	cfstrsne	mvf0, [r2], {0}
    1218:	07002302 	streq	r2, [r0, -r2, lsl #6]
    121c:	000008d9 	ldrdeq	r0, [r0], -r9
    1220:	005edc03 	subseq	sp, lr, r3, lsl #24
    1224:	02040000 	andeq	r0, r4, #0
    1228:	0023021a 	eoreq	r0, r3, sl, lsl r2
    122c:	0012de07 	andseq	sp, r2, r7, lsl #28
    1230:	5edd0300 	cdppl	3, 13, cr0, cr13, cr0, {0}
    1234:	04000000 	streq	r0, [r0]
    1238:	23021802 	movwcs	r1, #10242	; 0x2802
    123c:	12d30700 	sbcsne	r0, r3, #0
    1240:	de030000 	cdple	0, 0, cr0, cr3, cr0, {0}
    1244:	0000005e 	andeq	r0, r0, lr, asr r0
    1248:	02160204 	andseq	r0, r6, #1073741824	; 0x40000000
    124c:	2a070023 	bcs	1c12e0 <__bss_end+0x1bd000>
    1250:	0300000f 	movweq	r0, #15
    1254:	00005edf 	ldrdeq	r5, [r0], -pc
    1258:	10060400 	andne	r0, r6, r0, lsl #8
    125c:	07002302 	streq	r2, [r0, -r2, lsl #6]
    1260:	00001276 	andeq	r1, r0, r6, ror r2
    1264:	005ee003 	subseq	lr, lr, r3
    1268:	02040000 	andeq	r0, r4, #0
    126c:	0023020e 	eoreq	r0, r3, lr, lsl #4
    1270:	000f3407 	andeq	r3, pc, r7, lsl #8
    1274:	5ee10300 	cdppl	3, 14, cr0, cr1, cr0, {0}
    1278:	04000000 	streq	r0, [r0]
    127c:	2302000e 	movwcs	r0, #8206	; 0x200e
    1280:	87030000 	strhi	r0, [r3, -r0]
    1284:	03000011 	movweq	r0, #17
    1288:	000a28e2 	andeq	r2, sl, r2, ror #17
    128c:	0ef00600 	cdpeq	6, 15, cr0, cr0, cr0, {0}
    1290:	03040000 	movweq	r0, #16384	; 0x4000
    1294:	000b3be5 	andeq	r3, fp, r5, ror #23
    1298:	12d70700 	sbcsne	r0, r7, #0
    129c:	e6030000 	str	r0, [r3], -r0
    12a0:	0000005e 	andeq	r0, r0, lr, asr r0
    12a4:	021b0504 	andseq	r0, fp, #16777216	; 0x1000000
    12a8:	20070023 	andcs	r0, r7, r3, lsr #32
    12ac:	0300000f 	movweq	r0, #15
    12b0:	00005ee7 	andeq	r5, r0, r7, ror #29
    12b4:	100b0400 	andne	r0, fp, r0, lsl #8
    12b8:	07002302 	streq	r2, [r0, -r2, lsl #6]
    12bc:	0000056c 	andeq	r0, r0, ip, ror #10
    12c0:	005ee803 	subseq	lr, lr, r3, lsl #16
    12c4:	02040000 	andeq	r0, r4, #0
    12c8:	0023020e 	eoreq	r0, r3, lr, lsl #4
    12cc:	000f2a07 	andeq	r2, pc, r7, lsl #20
    12d0:	5ee90300 	cdppl	3, 14, cr0, cr9, cr0, {0}
    12d4:	04000000 	streq	r0, [r0]
    12d8:	23020806 	movwcs	r0, #10246	; 0x2806
    12dc:	127b0700 	rsbsne	r0, fp, #0
    12e0:	ea030000 	b	c12e8 <__bss_end+0xbd008>
    12e4:	0000005e 	andeq	r0, r0, lr, asr r0
    12e8:	02060204 	andeq	r0, r6, #1073741824	; 0x40000000
    12ec:	34070023 	strcc	r0, [r7], #-35	; 0x23
    12f0:	0300000f 	movweq	r0, #15
    12f4:	00005eeb 	andeq	r5, r0, fp, ror #29
    12f8:	00060400 	andeq	r0, r6, r0, lsl #8
    12fc:	00002302 	andeq	r2, r0, r2, lsl #6
    1300:	0006fa03 	andeq	pc, r6, r3, lsl #20
    1304:	c8ec0300 	stmiagt	ip!, {r8, r9}^
    1308:	0600000a 	streq	r0, [r0], -sl
    130c:	00000bd0 	ldrdeq	r0, [r0], -r0
    1310:	75f00304 	ldrbvc	r0, [r0, #772]!	; 0x304
    1314:	0700000b 	streq	r0, [r0, -fp]
    1318:	00000cc5 	andeq	r0, r0, r5, asr #25
    131c:	005ef103 	subseq	pc, lr, r3, lsl #2
    1320:	01040000 	tsteq	r4, r0
    1324:	0023021f 	eoreq	r0, r3, pc, lsl r2
    1328:	000f2007 	andeq	r2, pc, r7
    132c:	5ef20300 	cdppl	3, 15, cr0, cr2, cr0, {0}
    1330:	04000000 	streq	r0, [r0]
    1334:	2302001f 	movwcs	r0, #8223	; 0x201f
    1338:	b4030000 	strlt	r0, [r3]
    133c:	03000010 	movweq	r0, #16
    1340:	000b46f3 	strdeq	r4, [fp], -r3
    1344:	045a0600 	ldrbeq	r0, [sl], #-1536	; 0x600
    1348:	03040000 	movweq	r0, #16384	; 0x4000
    134c:	000d59f7 	strdeq	r5, [sp], -r7
    1350:	08010700 	stmdaeq	r1, {r8, r9, sl}
    1354:	f8030000 	undefined instruction 0xf8030000
    1358:	0000005e 	andeq	r0, r0, lr, asr r0
    135c:	021f0104 	andseq	r0, pc, #1
    1360:	1a070023 	bne	1c13f4 <__bss_end+0x1bd114>
    1364:	03000010 	movweq	r0, #16
    1368:	00005ef9 	strdeq	r5, [r0], -r9
    136c:	1e010400 	cfcpysne	mvf0, mvf1
    1370:	07002302 	streq	r2, [r0, -r2, lsl #6]
    1374:	00000d7c 	andeq	r0, r0, ip, ror sp
    1378:	005efa03 	subseq	pc, lr, r3, lsl #20
    137c:	01040000 	tsteq	r4, r0
    1380:	0023021d 	eoreq	r0, r3, sp, lsl r2
    1384:	000f2007 	andeq	r2, pc, r7
    1388:	5efb0300 	cdppl	3, 15, cr0, cr11, cr0, {0}
    138c:	04000000 	streq	r0, [r0]
    1390:	23021b02 	movwcs	r1, #11010	; 0x2b02
    1394:	10480700 	subne	r0, r8, r0, lsl #14
    1398:	fc030000 	stc2	0, cr0, [r3], {0}
    139c:	0000005e 	andeq	r0, r0, lr, asr r0
    13a0:	021a0104 	andseq	r0, sl, #1
    13a4:	b6070023 	strlt	r0, [r7], -r3, lsr #32
    13a8:	0300000f 	movweq	r0, #15
    13ac:	00005efd 	strdeq	r5, [r0], -sp
    13b0:	19010400 	stmdbne	r1, {sl}
    13b4:	07002302 	streq	r2, [r0, -r2, lsl #6]
    13b8:	000008bf 	undefined instruction 0x000008bf
    13bc:	005efe03 	subseq	pc, lr, r3, lsl #28
    13c0:	01040000 	tsteq	r4, r0
    13c4:	00230218 	eoreq	r0, r3, r8, lsl r2
    13c8:	0008e307 	andeq	lr, r8, r7, lsl #6
    13cc:	5eff0300 	cdppl	3, 15, cr0, cr15, cr0, {0}
    13d0:	04000000 	streq	r0, [r0]
    13d4:	23021701 	movwcs	r1, #9985	; 0x2701
    13d8:	130b0800 	movwne	r0, #47104	; 0xb800
    13dc:	00030000 	andeq	r0, r3, r0
    13e0:	00005e01 	andeq	r5, r0, r1, lsl #28
    13e4:	16010400 	strne	r0, [r1], -r0, lsl #8
    13e8:	08002302 	stmdaeq	r0, {r1, r8, r9, sp}
    13ec:	00000d28 	andeq	r0, r0, r8, lsr #26
    13f0:	5e010103 	adfpls	f0, f1, f3
    13f4:	04000000 	streq	r0, [r0]
    13f8:	23021501 	movwcs	r1, #9473	; 0x2501
    13fc:	0f2a0800 	svceq	0x002a0800
    1400:	02030000 	andeq	r0, r3, #0
    1404:	00005e01 	andeq	r5, r0, r1, lsl #28
    1408:	14010400 	strne	r0, [r1], #-1024	; 0x400
    140c:	08002302 	stmdaeq	r0, {r1, r8, r9, sp}
    1410:	0000073c 	andeq	r0, r0, ip, lsr r7
    1414:	5e010303 	cdppl	3, 0, cr0, cr1, cr3, {0}
    1418:	04000000 	streq	r0, [r0]
    141c:	23021301 	movwcs	r1, #8961	; 0x2301
    1420:	103f0800 	eorsne	r0, pc, r0, lsl #16
    1424:	04030000 	streq	r0, [r3]
    1428:	00005e01 	andeq	r5, r0, r1, lsl #28
    142c:	12010400 	andne	r0, r1, #0
    1430:	08002302 	stmdaeq	r0, {r1, r8, r9, sp}
    1434:	00000cc5 	andeq	r0, r0, r5, asr #25
    1438:	5e010503 	cfsh32pl	mvfx0, mvfx1, #3
    143c:	04000000 	streq	r0, [r0]
    1440:	23021101 	movwcs	r1, #8449	; 0x2101
    1444:	0f340800 	svceq	0x00340800
    1448:	06030000 	streq	r0, [r3], -r0
    144c:	00005e01 	andeq	r5, r0, r1, lsl #28
    1450:	0f020400 	svceq	0x00020400
    1454:	08002302 	stmdaeq	r0, {r1, r8, r9, sp}
    1458:	00000de3 	andeq	r0, r0, r3, ror #27
    145c:	5e010703 	cdppl	7, 0, cr0, cr1, cr3, {0}
    1460:	04000000 	streq	r0, [r0]
    1464:	23020e01 	movwcs	r0, #11777	; 0x2e01
    1468:	047e0800 	ldrbteq	r0, [lr], #-2048	; 0x800
    146c:	08030000 	stmdaeq	r3, {}
    1470:	00005e01 	andeq	r5, r0, r1, lsl #28
    1474:	0d010400 	cfstrseq	mvf0, [r1]
    1478:	08002302 	stmdaeq	r0, {r1, r8, r9, sp}
    147c:	00000f3e 	andeq	r0, r0, lr, lsr pc
    1480:	5e010903 	cdppl	9, 0, cr0, cr1, cr3, {0}
    1484:	04000000 	streq	r0, [r0]
    1488:	23020c01 	movwcs	r0, #11265	; 0x2c01
    148c:	05560800 	ldrbeq	r0, [r6, #-2048]	; 0x800
    1490:	0a030000 	beq	c1498 <__bss_end+0xbd1b8>
    1494:	00005e01 	andeq	r5, r0, r1, lsl #28
    1498:	0b010400 	bleq	424a0 <__bss_end+0x3e1c0>
    149c:	08002302 	stmdaeq	r0, {r1, r8, r9, sp}
    14a0:	000008b6 	undefined instruction 0x000008b6
    14a4:	5e010b03 	vmlapl.f64	d0, d1, d3
    14a8:	04000000 	streq	r0, [r0]
    14ac:	23020a01 	movwcs	r0, #10753	; 0x2a01
    14b0:	09cc0800 	stmibeq	ip, {fp}^
    14b4:	0c030000 	stceq	0, cr0, [r3], {0}
    14b8:	00005e01 	andeq	r5, r0, r1, lsl #28
    14bc:	09010400 	stmdbeq	r1, {sl}
    14c0:	08002302 	stmdaeq	r0, {r1, r8, r9, sp}
    14c4:	00000f48 	andeq	r0, r0, r8, asr #30
    14c8:	5e010d03 	cdppl	13, 0, cr0, cr1, cr3, {0}
    14cc:	04000000 	streq	r0, [r0]
    14d0:	23020603 	movwcs	r0, #9731	; 0x2603
    14d4:	11ca0800 	bicne	r0, sl, r0, lsl #16
    14d8:	0e030000 	cdpeq	0, 0, cr0, cr3, cr0, {0}
    14dc:	00005e01 	andeq	r5, r0, r1, lsl #28
    14e0:	05010400 	streq	r0, [r1, #-1024]	; 0x400
    14e4:	08002302 	stmdaeq	r0, {r1, r8, r9, sp}
    14e8:	00000679 	andeq	r0, r0, r9, ror r6
    14ec:	5e010f03 	cdppl	15, 0, cr0, cr1, cr3, {0}
    14f0:	04000000 	streq	r0, [r0]
    14f4:	23020401 	movwcs	r0, #9217	; 0x2401
    14f8:	0dda0800 	ldcleq	8, cr0, [sl]
    14fc:	10030000 	andne	r0, r3, r0
    1500:	00005e01 	andeq	r5, r0, r1, lsl #28
    1504:	03010400 	movweq	r0, #5120	; 0x1400
    1508:	08002302 	stmdaeq	r0, {r1, r8, r9, sp}
    150c:	00000f6e 	andeq	r0, r0, lr, ror #30
    1510:	5e011103 	adfpls	f1, f1, f3
    1514:	04000000 	streq	r0, [r0]
    1518:	23020003 	movwcs	r0, #8195	; 0x2003
    151c:	09090000 	stmdbeq	r9, {}
    1520:	03000004 	movweq	r0, #4
    1524:	0b800112 	bleq	fe001974 <__bss_end+0xfdffd694>
    1528:	9a0a0000 	bls	281530 <__bss_end+0x27d250>
    152c:	04000008 	streq	r0, [r0], #-8
    1530:	93011603 	movwls	r1, #5635	; 0x1603
    1534:	0800000e 	stmdaeq	r0, {r1, r2, r3}
    1538:	00000b6a 	andeq	r0, r0, sl, ror #22
    153c:	5e011703 	cdppl	7, 0, cr1, cr1, cr3, {0}
    1540:	04000000 	streq	r0, [r0]
    1544:	23021f01 	movwcs	r1, #12033	; 0x2f01
    1548:	0f200800 	svceq	0x00200800
    154c:	18030000 	stmdane	r3, {}
    1550:	00005e01 	andeq	r5, r0, r1, lsl #28
    1554:	1e010400 	cfcpysne	mvf0, mvf1
    1558:	08002302 	stmdaeq	r0, {r1, r8, r9, sp}
    155c:	000009f5 	strdeq	r0, [r0], -r5
    1560:	5e011903 	cdppl	9, 0, cr1, cr1, cr3, {0}
    1564:	04000000 	streq	r0, [r0]
    1568:	23021d01 	movwcs	r1, #11521	; 0x2d01
    156c:	0f2a0800 	svceq	0x002a0800
    1570:	1a030000 	bne	c1578 <__bss_end+0xbd298>
    1574:	00005e01 	andeq	r5, r0, r1, lsl #28
    1578:	1c010400 	cfstrsne	mvf0, [r1], {0}
    157c:	08002302 	stmdaeq	r0, {r1, r8, r9, sp}
    1580:	000007dd 	ldrdeq	r0, [r0], -sp
    1584:	5e011b03 	vmlapl.f64	d1, d1, d3
    1588:	04000000 	streq	r0, [r0]
    158c:	23021b01 	movwcs	r1, #11009	; 0x2b01
    1590:	0f340800 	svceq	0x00340800
    1594:	1c030000 	stcne	0, cr0, [r3], {0}
    1598:	00005e01 	andeq	r5, r0, r1, lsl #28
    159c:	18030400 	stmdane	r3, {sl}
    15a0:	08002302 	stmdaeq	r0, {r1, r8, r9, sp}
    15a4:	00001302 	andeq	r1, r0, r2, lsl #6
    15a8:	5e011d03 	cdppl	13, 0, cr1, cr1, cr3, {0}
    15ac:	04000000 	streq	r0, [r0]
    15b0:	23021701 	movwcs	r1, #9985	; 0x2701
    15b4:	0f3e0800 	svceq	0x003e0800
    15b8:	1e030000 	cdpne	0, 0, cr0, cr3, cr0, {0}
    15bc:	00005e01 	andeq	r5, r0, r1, lsl #28
    15c0:	15020400 	strne	r0, [r2, #-1024]	; 0x400
    15c4:	08002302 	stmdaeq	r0, {r1, r8, r9, sp}
    15c8:	00001078 	andeq	r1, r0, r8, ror r0
    15cc:	5e011f03 	cdppl	15, 0, cr1, cr1, cr3, {0}
    15d0:	04000000 	streq	r0, [r0]
    15d4:	23021401 	movwcs	r1, #9217	; 0x2401
    15d8:	0ec50800 	cdpeq	8, 12, cr0, cr5, cr0, {0}
    15dc:	20030000 	andcs	r0, r3, r0
    15e0:	00005e01 	andeq	r5, r0, r1, lsl #28
    15e4:	13010400 	movwne	r0, #5120	; 0x1400
    15e8:	08002302 	stmdaeq	r0, {r1, r8, r9, sp}
    15ec:	00000f48 	andeq	r0, r0, r8, asr #30
    15f0:	5e012103 	adfpls	f2, f1, f3
    15f4:	04000000 	streq	r0, [r0]
    15f8:	23021201 	movwcs	r1, #8705	; 0x2201
    15fc:	11b00800 	lslsne	r0, r0, #16
    1600:	22030000 	andcs	r0, r3, #0
    1604:	00005e01 	andeq	r5, r0, r1, lsl #28
    1608:	11010400 	tstne	r1, r0, lsl #8
    160c:	08002302 	stmdaeq	r0, {r1, r8, r9, sp}
    1610:	00000679 	andeq	r0, r0, r9, ror r6
    1614:	5e012303 	cdppl	3, 0, cr2, cr1, cr3, {0}
    1618:	04000000 	streq	r0, [r0]
    161c:	23020d04 	movwcs	r0, #11524	; 0x2d04
    1620:	0b330800 	bleq	cc3628 <__bss_end+0xcbf348>
    1624:	24030000 	strcs	r0, [r3]
    1628:	00005e01 	andeq	r5, r0, r1, lsl #28
    162c:	0c010400 	cfstrseq	mvf0, [r1], {0}
    1630:	08002302 	stmdaeq	r0, {r1, r8, r9, sp}
    1634:	00000a46 	andeq	r0, r0, r6, asr #20
    1638:	5e012503 	cfsh32pl	mvfx2, mvfx1, #3
    163c:	04000000 	streq	r0, [r0]
    1640:	23020b01 	movwcs	r0, #11009	; 0x2b01
    1644:	0f6e0800 	svceq	0x006e0800
    1648:	26030000 	strcs	r0, [r3], -r0
    164c:	00005e01 	andeq	r5, r0, r1, lsl #28
    1650:	000b0400 	andeq	r0, fp, r0, lsl #8
    1654:	00002302 	andeq	r2, r0, r2, lsl #6
    1658:	0008ee09 	andeq	lr, r8, r9, lsl #28
    165c:	01270300 	teqeq	r7, r0, lsl #6
    1660:	00000d65 	andeq	r0, r0, r5, ror #26
    1664:	0013160a 	andseq	r1, r3, sl, lsl #12
    1668:	2b030400 	blcs	c2670 <__bss_end+0xbe390>
    166c:	000f6101 	andeq	r6, pc, r1, lsl #2
    1670:	0e930800 	cdpeq	8, 9, cr0, cr3, cr0, {0}
    1674:	2c030000 	stccs	0, cr0, [r3], {0}
    1678:	00005e01 	andeq	r5, r0, r1, lsl #28
    167c:	1f010400 	svcne	0x00010400
    1680:	08002302 	stmdaeq	r0, {r1, r8, r9, sp}
    1684:	00000af0 	strdeq	r0, [r0], -r0
    1688:	5e012d03 	cdppl	13, 0, cr2, cr1, cr3, {0}
    168c:	04000000 	streq	r0, [r0]
    1690:	23021e01 	movwcs	r1, #11777	; 0x2e01
    1694:	0f200800 	svceq	0x00200800
    1698:	2e030000 	cdpcs	0, 0, cr0, cr3, cr0, {0}
    169c:	00005e01 	andeq	r5, r0, r1, lsl #28
    16a0:	1d010400 	cfstrsne	mvf0, [r1]
    16a4:	08002302 	stmdaeq	r0, {r1, r8, r9, sp}
    16a8:	00000fa5 	andeq	r0, r0, r5, lsr #31
    16ac:	5e012f03 	cdppl	15, 0, cr2, cr1, cr3, {0}
    16b0:	04000000 	streq	r0, [r0]
    16b4:	23021c01 	movwcs	r1, #11265	; 0x2c01
    16b8:	0f2a0800 	svceq	0x002a0800
    16bc:	30030000 	andcc	r0, r3, r0
    16c0:	00005e01 	andeq	r5, r0, r1, lsl #28
    16c4:	1b010400 	blne	426cc <__bss_end+0x3e3ec>
    16c8:	08002302 	stmdaeq	r0, {r1, r8, r9, sp}
    16cc:	000005af 	andeq	r0, r0, pc, lsr #11
    16d0:	5e013103 	adfpls	f3, f1, f3
    16d4:	04000000 	streq	r0, [r0]
    16d8:	23021a01 	movwcs	r1, #10753	; 0x2a01
    16dc:	0d860800 	stceq	8, cr0, [r6]
    16e0:	32030000 	andcc	r0, r3, #0
    16e4:	00005e01 	andeq	r5, r0, r1, lsl #28
    16e8:	19010400 	stmdbne	r1, {sl}
    16ec:	08002302 	stmdaeq	r0, {r1, r8, r9, sp}
    16f0:	00000f34 	andeq	r0, r0, r4, lsr pc
    16f4:	5e013303 	cdppl	3, 0, cr3, cr1, cr3, {0}
    16f8:	04000000 	streq	r0, [r0]
    16fc:	23021603 	movwcs	r1, #9731	; 0x2603
    1700:	09c10800 	stmibeq	r1, {fp}^
    1704:	34030000 	strcc	r0, [r3]
    1708:	00005e01 	andeq	r5, r0, r1, lsl #28
    170c:	15010400 	strne	r0, [r1, #-1024]	; 0x400
    1710:	08002302 	stmdaeq	r0, {r1, r8, r9, sp}
    1714:	00000f3e 	andeq	r0, r0, lr, lsr pc
    1718:	5e013503 	cfsh32pl	mvfx3, mvfx1, #3
    171c:	04000000 	streq	r0, [r0]
    1720:	23020015 	movwcs	r0, #8213	; 0x2015
    1724:	e4090000 	str	r0, [r9]
    1728:	0300000c 	movweq	r0, #12
    172c:	0e9f0136 	mrceq	1, 4, r0, cr15, cr6, {1}
    1730:	250a0000 	strcs	r0, [sl]
    1734:	04000012 	streq	r0, [r0], #-18
    1738:	1d013a03 	vstrne	s6, [r1, #-12]
    173c:	08000010 	stmdaeq	r0, {r4}
    1740:	00000868 	andeq	r0, r0, r8, ror #16
    1744:	5e013b03 	vmlapl.f64	d3, d1, d3
    1748:	04000000 	streq	r0, [r0]
    174c:	23021f01 	movwcs	r1, #12033	; 0x2f01
    1750:	12990800 	addsne	r0, r9, #0
    1754:	3c030000 	stccc	0, cr0, [r3], {0}
    1758:	00005e01 	andeq	r5, r0, r1, lsl #28
    175c:	1e010400 	cfcpysne	mvf0, mvf1
    1760:	08002302 	stmdaeq	r0, {r1, r8, r9, sp}
    1764:	00000cdb 	ldrdeq	r0, [r0], -fp
    1768:	5e013d03 	cdppl	13, 0, cr3, cr1, cr3, {0}
    176c:	04000000 	streq	r0, [r0]
    1770:	23021d01 	movwcs	r1, #11521	; 0x2d01
    1774:	0f200800 	svceq	0x00200800
    1778:	3e030000 	cdpcc	0, 0, cr0, cr3, cr0, {0}
    177c:	00005e01 	andeq	r5, r0, r1, lsl #28
    1780:	100d0400 	andne	r0, sp, r0, lsl #8
    1784:	08002302 	stmdaeq	r0, {r1, r8, r9, sp}
    1788:	0000120b 	andeq	r1, r0, fp, lsl #4
    178c:	5e013f03 	cdppl	15, 0, cr3, cr1, cr3, {0}
    1790:	04000000 	streq	r0, [r0]
    1794:	23020f01 	movwcs	r0, #12033	; 0x2f01
    1798:	0c770800 	ldcleq	8, cr0, [r7]
    179c:	40030000 	andmi	r0, r3, r0
    17a0:	00005e01 	andeq	r5, r0, r1, lsl #28
    17a4:	0e010400 	cfcpyseq	mvf0, mvf1
    17a8:	08002302 	stmdaeq	r0, {r1, r8, r9, sp}
    17ac:	00000765 	andeq	r0, r0, r5, ror #14
    17b0:	5e014103 	adfpls	f4, f1, f3
    17b4:	04000000 	streq	r0, [r0]
    17b8:	23020d01 	movwcs	r0, #11521	; 0x2d01
    17bc:	11a60800 	undefined instruction 0x11a60800
    17c0:	42030000 	andmi	r0, r3, #0
    17c4:	00005e01 	andeq	r5, r0, r1, lsl #28
    17c8:	0c010400 	cfstrseq	mvf0, [r1], {0}
    17cc:	08002302 	stmdaeq	r0, {r1, r8, r9, sp}
    17d0:	00000f2a 	andeq	r0, r0, sl, lsr #30
    17d4:	5e014303 	cdppl	3, 0, cr4, cr1, cr3, {0}
    17d8:	04000000 	streq	r0, [r0]
    17dc:	2302000c 	movwcs	r0, #8204	; 0x200c
    17e0:	a1090000 	tstge	r9, r0
    17e4:	0300000b 	movweq	r0, #11
    17e8:	0f6d0144 	svceq	0x006d0144
    17ec:	200a0000 	andcs	r0, sl, r0
    17f0:	0400000b 	streq	r0, [r0], #-11
    17f4:	b5014a03 	strlt	r4, [r1, #-2563]	; 0xa03
    17f8:	08000010 	stmdaeq	r0, {r4}
    17fc:	000012d7 	ldrdeq	r1, [r0], -r7
    1800:	5e014b03 	vmlapl.f64	d4, d1, d3
    1804:	04000000 	streq	r0, [r0]
    1808:	23021c04 	movwcs	r1, #11268	; 0x2c04
    180c:	0f200800 	svceq	0x00200800
    1810:	4c030000 	stcmi	0, cr0, [r3], {0}
    1814:	00005e01 	andeq	r5, r0, r1, lsl #28
    1818:	100c0400 	andne	r0, ip, r0, lsl #8
    181c:	08002302 	stmdaeq	r0, {r1, r8, r9, sp}
    1820:	00000569 	andeq	r0, r0, r9, ror #10
    1824:	5e014d03 	cdppl	13, 0, cr4, cr1, cr3, {0}
    1828:	04000000 	streq	r0, [r0]
    182c:	23020e02 	movwcs	r0, #11778	; 0x2e02
    1830:	0f2a0800 	svceq	0x002a0800
    1834:	4e030000 	cdpmi	0, 0, cr0, cr3, cr0, {0}
    1838:	00005e01 	andeq	r5, r0, r1, lsl #28
    183c:	08060400 	stmdaeq	r6, {sl}
    1840:	08002302 	stmdaeq	r0, {r1, r8, r9, sp}
    1844:	0000127b 	andeq	r1, r0, fp, ror r2
    1848:	5e014f03 	cdppl	15, 0, cr4, cr1, cr3, {0}
    184c:	04000000 	streq	r0, [r0]
    1850:	23020602 	movwcs	r0, #9730	; 0x2602
    1854:	0f340800 	svceq	0x00340800
    1858:	50030000 	andpl	r0, r3, r0
    185c:	00005e01 	andeq	r5, r0, r1, lsl #28
    1860:	01050400 	tsteq	r5, r0, lsl #8
    1864:	08002302 	stmdaeq	r0, {r1, r8, r9, sp}
    1868:	0000111d 	andeq	r1, r0, sp, lsl r1
    186c:	5e015103 	adfpls	f5, f1, f3
    1870:	04000000 	streq	r0, [r0]
    1874:	23020001 	movwcs	r0, #8193	; 0x2001
    1878:	a5090000 	strge	r0, [r9]
    187c:	0300000d 	movweq	r0, #13
    1880:	10290152 	eorne	r0, r9, r2, asr r1
    1884:	dd0a0000 	stcle	0, cr0, [sl]
    1888:	04000005 	streq	r0, [r0], #-5
    188c:	17015803 	strne	r5, [r1, -r3, lsl #16]
    1890:	08000011 	stmdaeq	r0, {r0, r4}
    1894:	00000f20 	andeq	r0, r0, r0, lsr #30
    1898:	5e015903 	cdppl	9, 0, cr5, cr1, cr3, {0}
    189c:	04000000 	streq	r0, [r0]
    18a0:	23021010 	movwcs	r1, #8208	; 0x2010
    18a4:	12d70800 	sbcsne	r0, r7, #0
    18a8:	5a030000 	bpl	c18b0 <__bss_end+0xbd5d0>
    18ac:	00005e01 	andeq	r5, r0, r1, lsl #28
    18b0:	0e020400 	cfcpyseq	mvf0, mvf2
    18b4:	08002302 	stmdaeq	r0, {r1, r8, r9, sp}
    18b8:	00000f2a 	andeq	r0, r0, sl, lsr #30
    18bc:	5e015b03 	vmlapl.f64	d5, d1, d3
    18c0:	04000000 	streq	r0, [r0]
    18c4:	2302010d 	movwcs	r0, #8461	; 0x210d
    18c8:	111d0800 	tstne	sp, r0, lsl #16
    18cc:	5c030000 	stcpl	0, cr0, [r3], {0}
    18d0:	00005e01 	andeq	r5, r0, r1, lsl #28
    18d4:	00010400 	andeq	r0, r1, r0, lsl #8
    18d8:	00002302 	andeq	r2, r0, r2, lsl #6
    18dc:	00077509 	andeq	r7, r7, r9, lsl #10
    18e0:	015e0300 	cmpeq	lr, r0, lsl #6
    18e4:	000010c1 	andeq	r1, r0, r1, asr #1
    18e8:	000fc40a 	andeq	ip, pc, sl, lsl #8
    18ec:	62030400 	andvs	r0, r3, #0
    18f0:	0011af01 	andseq	sl, r1, r1, lsl #30
    18f4:	12d70800 	sbcsne	r0, r7, #0
    18f8:	63030000 	movwvs	r0, #12288	; 0x3000
    18fc:	00005e01 	andeq	r5, r0, r1, lsl #28
    1900:	1b050400 	blne	142908 <__bss_end+0x13e628>
    1904:	08002302 	stmdaeq	r0, {r1, r8, r9, sp}
    1908:	00000f20 	andeq	r0, r0, r0, lsr #30
    190c:	5e016403 	cdppl	4, 0, cr6, cr1, cr3, {0}
    1910:	04000000 	streq	r0, [r0]
    1914:	2302100b 	movwcs	r1, #8203	; 0x200b
    1918:	05690800 	strbeq	r0, [r9, #-2048]!	; 0x800
    191c:	65030000 	strvs	r0, [r3]
    1920:	00005e01 	andeq	r5, r0, r1, lsl #28
    1924:	0e020400 	cfcpyseq	mvf0, mvf2
    1928:	08002302 	stmdaeq	r0, {r1, r8, r9, sp}
    192c:	00000f2a 	andeq	r0, r0, sl, lsr #30
    1930:	5e016603 	cfmadd32pl	mvax0, mvfx6, mvfx1, mvfx3
    1934:	04000000 	streq	r0, [r0]
    1938:	23020806 	movwcs	r0, #10246	; 0x2806
    193c:	127b0800 	rsbsne	r0, fp, #0
    1940:	67030000 	strvs	r0, [r3, -r0]
    1944:	00005e01 	andeq	r5, r0, r1, lsl #28
    1948:	06020400 	streq	r0, [r2], -r0, lsl #8
    194c:	08002302 	stmdaeq	r0, {r1, r8, r9, sp}
    1950:	00000f34 	andeq	r0, r0, r4, lsr pc
    1954:	5e016803 	cdppl	8, 0, cr6, cr1, cr3, {0}
    1958:	04000000 	streq	r0, [r0]
    195c:	23020105 	movwcs	r0, #8453	; 0x2105
    1960:	111d0800 	tstne	sp, r0, lsl #16
    1964:	69030000 	stmdbvs	r3, {}
    1968:	00005e01 	andeq	r5, r0, r1, lsl #28
    196c:	00010400 	andeq	r0, r1, r0, lsl #8
    1970:	00002302 	andeq	r2, r0, r2, lsl #6
    1974:	00098509 	andeq	r8, r9, r9, lsl #10
    1978:	016a0300 	cmneq	sl, r0, lsl #6
    197c:	00001123 	andeq	r1, r0, r3, lsr #2
    1980:	000a8b0a 	andeq	r8, sl, sl, lsl #22
    1984:	6e030400 	cfcpysvs	mvf0, mvf3
    1988:	00124701 	andseq	r4, r2, r1, lsl #14
    198c:	0d1d0800 	ldceq	8, cr0, [sp]
    1990:	6f030000 	svcvs	0x00030000
    1994:	00005e01 	andeq	r5, r0, r1, lsl #28
    1998:	1f010400 	svcne	0x00010400
    199c:	08002302 	stmdaeq	r0, {r1, r8, r9, sp}
    19a0:	0000117c 	andeq	r1, r0, ip, ror r1
    19a4:	5e017003 	cdppl	0, 0, cr7, cr1, cr3, {0}
    19a8:	04000000 	streq	r0, [r0]
    19ac:	23021e01 	movwcs	r1, #11777	; 0x2e01
    19b0:	0f200800 	svceq	0x00200800
    19b4:	71030000 	tstvc	r3, r0
    19b8:	00005e01 	andeq	r5, r0, r1, lsl #28
    19bc:	1a040400 	bne	1029c4 <__bss_end+0xfe6e4>
    19c0:	08002302 	stmdaeq	r0, {r1, r8, r9, sp}
    19c4:	00001118 	andeq	r1, r0, r8, lsl r1
    19c8:	5e017203 	cdppl	2, 0, cr7, cr1, cr3, {0}
    19cc:	04000000 	streq	r0, [r0]
    19d0:	23021901 	movwcs	r1, #10497	; 0x2901
    19d4:	0f2a0800 	svceq	0x002a0800
    19d8:	73030000 	movwvc	r0, #12288	; 0x3000
    19dc:	00005e01 	andeq	r5, r0, r1, lsl #28
    19e0:	18010400 	stmdane	r1, {sl}
    19e4:	08002302 	stmdaeq	r0, {r1, r8, r9, sp}
    19e8:	00000ae1 	andeq	r0, r0, r1, ror #21
    19ec:	5e017403 	cdppl	4, 0, cr7, cr1, cr3, {0}
    19f0:	04000000 	streq	r0, [r0]
    19f4:	23021701 	movwcs	r1, #9985	; 0x2701
    19f8:	0f340800 	svceq	0x00340800
    19fc:	75030000 	strvc	r0, [r3]
    1a00:	00005e01 	andeq	r5, r0, r1, lsl #28
    1a04:	00170400 	andseq	r0, r7, r0, lsl #8
    1a08:	00002302 	andeq	r2, r0, r2, lsl #6
    1a0c:	00072309 	andeq	r2, r7, r9, lsl #6
    1a10:	01760300 	cmneq	r6, r0, lsl #6
    1a14:	000011bb 	undefined instruction 0x000011bb
    1a18:	000d8e0a 	andeq	r8, sp, sl, lsl #28
    1a1c:	7a030400 	bvc	c2a24 <__bss_end+0xbe744>
    1a20:	0012cd01 	andseq	ip, r2, r1, lsl #26
    1a24:	07ef0800 	strbeq	r0, [pc, r0, lsl #16]!
    1a28:	7b030000 	blvc	c1a30 <__bss_end+0xbd750>
    1a2c:	00005e01 	andeq	r5, r0, r1, lsl #28
    1a30:	1d030400 	cfstrsne	mvf0, [r3]
    1a34:	08002302 	stmdaeq	r0, {r1, r8, r9, sp}
    1a38:	00000f20 	andeq	r0, r0, r0, lsr #30
    1a3c:	5e017c03 	cdppl	12, 0, cr7, cr1, cr3, {0}
    1a40:	04000000 	streq	r0, [r0]
    1a44:	23020815 	movwcs	r0, #10261	; 0x2815
    1a48:	127b0800 	rsbsne	r0, fp, #0
    1a4c:	7d030000 	stcvc	0, cr0, [r3]
    1a50:	00005e01 	andeq	r5, r0, r1, lsl #28
    1a54:	06020400 	streq	r0, [r2], -r0, lsl #8
    1a58:	08002302 	stmdaeq	r0, {r1, r8, r9, sp}
    1a5c:	00000f2a 	andeq	r0, r0, sl, lsr #30
    1a60:	5e017e03 	cdppl	14, 0, cr7, cr1, cr3, {0}
    1a64:	04000000 	streq	r0, [r0]
    1a68:	23020204 	movwcs	r0, #8708	; 0x2204
    1a6c:	11760800 	cmnne	r6, r0, lsl #16
    1a70:	7f030000 	svcvc	0x00030000
    1a74:	00005e01 	andeq	r5, r0, r1, lsl #28
    1a78:	01010400 	tsteq	r1, r0, lsl #8
    1a7c:	08002302 	stmdaeq	r0, {r1, r8, r9, sp}
    1a80:	0000111d 	andeq	r1, r0, sp, lsl r1
    1a84:	5e018003 	cdppl	0, 0, cr8, cr1, cr3, {0}
    1a88:	04000000 	streq	r0, [r0]
    1a8c:	23020001 	movwcs	r0, #8193	; 0x2001
    1a90:	3b090000 	blcc	241a98 <__bss_end+0x23d7b8>
    1a94:	03000009 	movweq	r0, #9
    1a98:	12530181 	subsne	r0, r3, #1073741856	; 0x40000020
    1a9c:	a20a0000 	andge	r0, sl, #0
    1aa0:	04000007 	streq	r0, [r0], #-7
    1aa4:	ad018503 	cfstr32ge	mvfx8, [r1, #-12]
    1aa8:	08000013 	stmdaeq	r0, {r0, r1, r4}
    1aac:	00000b6a 	andeq	r0, r0, sl, ror #22
    1ab0:	5e018603 	cfmadd32pl	mvax0, mvfx8, mvfx1, mvfx3
    1ab4:	04000000 	streq	r0, [r0]
    1ab8:	23021f01 	movwcs	r1, #12033	; 0x2f01
    1abc:	13020800 	movwne	r0, #10240	; 0x2800
    1ac0:	87030000 	strhi	r0, [r3, -r0]
    1ac4:	00005e01 	andeq	r5, r0, r1, lsl #28
    1ac8:	1e010400 	cfcpysne	mvf0, mvf1
    1acc:	08002302 	stmdaeq	r0, {r1, r8, r9, sp}
    1ad0:	00000f20 	andeq	r0, r0, r0, lsr #30
    1ad4:	5e018803 	cdppl	8, 0, cr8, cr1, cr3, {0}
    1ad8:	04000000 	streq	r0, [r0]
    1adc:	23021d01 	movwcs	r1, #11521	; 0x2d01
    1ae0:	047e0800 	ldrbteq	r0, [lr], #-2048	; 0x800
    1ae4:	89030000 	stmdbhi	r3, {}
    1ae8:	00005e01 	andeq	r5, r0, r1, lsl #28
    1aec:	1c010400 	cfstrsne	mvf0, [r1], {0}
    1af0:	08002302 	stmdaeq	r0, {r1, r8, r9, sp}
    1af4:	00000f2a 	andeq	r0, r0, sl, lsr #30
    1af8:	5e018a03 	vmlapl.f32	s16, s2, s6
    1afc:	04000000 	streq	r0, [r0]
    1b00:	23021b01 	movwcs	r1, #11009	; 0x2b01
    1b04:	09f50800 	ldmibeq	r5!, {fp}^
    1b08:	8b030000 	blhi	c1b10 <__bss_end+0xbd830>
    1b0c:	00005e01 	andeq	r5, r0, r1, lsl #28
    1b10:	1a010400 	bne	42b18 <__bss_end+0x3e838>
    1b14:	08002302 	stmdaeq	r0, {r1, r8, r9, sp}
    1b18:	00000f34 	andeq	r0, r0, r4, lsr pc
    1b1c:	5e018c03 	cdppl	12, 0, cr8, cr1, cr3, {0}
    1b20:	04000000 	streq	r0, [r0]
    1b24:	23020713 	movwcs	r0, #10003	; 0x2713
    1b28:	11b00800 	lslsne	r0, r0, #16
    1b2c:	8d030000 	stchi	0, cr0, [r3]
    1b30:	00005e01 	andeq	r5, r0, r1, lsl #28
    1b34:	06010400 	streq	r0, [r1], -r0, lsl #8
    1b38:	08002302 	stmdaeq	r0, {r1, r8, r9, sp}
    1b3c:	00000ec5 	andeq	r0, r0, r5, asr #29
    1b40:	5e018e03 	cdppl	14, 0, cr8, cr1, cr3, {0}
    1b44:	04000000 	streq	r0, [r0]
    1b48:	23020501 	movwcs	r0, #9473	; 0x2501
    1b4c:	0f3e0800 	svceq	0x003e0800
    1b50:	8f030000 	svchi	0x00030000
    1b54:	00005e01 	andeq	r5, r0, r1, lsl #28
    1b58:	01040400 	tsteq	r4, r0, lsl #8
    1b5c:	08002302 	stmdaeq	r0, {r1, r8, r9, sp}
    1b60:	00000b33 	andeq	r0, r0, r3, lsr fp
    1b64:	5e019003 	cdppl	0, 0, cr9, cr1, cr3, {0}
    1b68:	04000000 	streq	r0, [r0]
    1b6c:	23020001 	movwcs	r0, #8193	; 0x2001
    1b70:	1f090000 	svcne	0x00090000
    1b74:	03000005 	movweq	r0, #5
    1b78:	12d90191 	sbcsne	r0, r9, #1073741860	; 0x40000024
    1b7c:	cc0a0000 	stcgt	0, cr0, [sl], {0}
    1b80:	04000004 	streq	r0, [r0], #-4
    1b84:	33019703 	movwcc	r9, #5891	; 0x1703
    1b88:	08000014 	stmdaeq	r0, {r2, r4}
    1b8c:	000012d7 	ldrdeq	r1, [r0], -r7
    1b90:	5e019803 	cdppl	8, 0, cr9, cr1, cr3, {0}
    1b94:	04000000 	streq	r0, [r0]
    1b98:	23021c04 	movwcs	r1, #11268	; 0x2c04
    1b9c:	0f200800 	svceq	0x00200800
    1ba0:	99030000 	stmdbls	r3, {}
    1ba4:	00005e01 	andeq	r5, r0, r1, lsl #28
    1ba8:	08140400 	ldmdaeq	r4, {sl}
    1bac:	08002302 	stmdaeq	r0, {r1, r8, r9, sp}
    1bb0:	0000127b 	andeq	r1, r0, fp, ror r2
    1bb4:	5e019a03 	vmlapl.f32	s18, s2, s6
    1bb8:	04000000 	streq	r0, [r0]
    1bbc:	23020602 	movwcs	r0, #9730	; 0x2602
    1bc0:	0f2a0800 	svceq	0x002a0800
    1bc4:	9b030000 	blls	c1bcc <__bss_end+0xbd8ec>
    1bc8:	00005e01 	andeq	r5, r0, r1, lsl #28
    1bcc:	02040400 	andeq	r0, r4, #0
    1bd0:	08002302 	stmdaeq	r0, {r1, r8, r9, sp}
    1bd4:	00001176 	andeq	r1, r0, r6, ror r1
    1bd8:	5e019c03 	cdppl	12, 0, cr9, cr1, cr3, {0}
    1bdc:	04000000 	streq	r0, [r0]
    1be0:	23020101 	movwcs	r0, #8449	; 0x2101
    1be4:	111d0800 	tstne	sp, r0, lsl #16
    1be8:	9d030000 	stcls	0, cr0, [r3]
    1bec:	00005e01 	andeq	r5, r0, r1, lsl #28
    1bf0:	00010400 	andeq	r0, r1, r0, lsl #8
    1bf4:	00002302 	andeq	r2, r0, r2, lsl #6
    1bf8:	00104f09 	andseq	r4, r0, r9, lsl #30
    1bfc:	019f0300 	orrseq	r0, pc, r0, lsl #6
    1c00:	000013b9 	undefined instruction 0x000013b9
    1c04:	0011da0a 	andseq	sp, r1, sl, lsl #20
    1c08:	a5030400 	strge	r0, [r3, #-1024]	; 0x400
    1c0c:	0014b901 	andseq	fp, r4, r1, lsl #18
    1c10:	0f200800 	svceq	0x00200800
    1c14:	a6030000 	strge	r0, [r3], -r0
    1c18:	00005e01 	andeq	r5, r0, r1, lsl #28
    1c1c:	08180400 	ldmdaeq	r8, {sl}
    1c20:	08002302 	stmdaeq	r0, {r1, r8, r9, sp}
    1c24:	0000127b 	andeq	r1, r0, fp, ror r2
    1c28:	5e01a703 	cdppl	7, 0, cr10, cr1, cr3, {0}
    1c2c:	04000000 	streq	r0, [r0]
    1c30:	23020602 	movwcs	r0, #9730	; 0x2602
    1c34:	0f2a0800 	svceq	0x002a0800
    1c38:	a8030000 	stmdage	r3, {}
    1c3c:	00005e01 	andeq	r5, r0, r1, lsl #28
    1c40:	03030400 	movweq	r0, #13312	; 0x3400
    1c44:	08002302 	stmdaeq	r0, {r1, r8, r9, sp}
    1c48:	00000437 	andeq	r0, r0, r7, lsr r4
    1c4c:	5e01a903 	cdppl	9, 0, cr10, cr1, cr3, {0}
    1c50:	04000000 	streq	r0, [r0]
    1c54:	23020201 	movwcs	r0, #8705	; 0x2201
    1c58:	11730800 	cmnne	r3, r0, lsl #16
    1c5c:	aa030000 	bge	c1c64 <__bss_end+0xbd984>
    1c60:	00005e01 	andeq	r5, r0, r1, lsl #28
    1c64:	01010400 	tsteq	r1, r0, lsl #8
    1c68:	08002302 	stmdaeq	r0, {r1, r8, r9, sp}
    1c6c:	0000111d 	andeq	r1, r0, sp, lsl r1
    1c70:	5e01ab03 	vmlapl.f64	d10, d1, d3
    1c74:	04000000 	streq	r0, [r0]
    1c78:	23020001 	movwcs	r0, #8193	; 0x2001
    1c7c:	28090000 	stmdacs	r9, {}
    1c80:	03000006 	movweq	r0, #6
    1c84:	143f01ad 	ldrtne	r0, [pc], #429	; 1c8c <mem_power_init+0x454>
    1c88:	2e0a0000 	cdpcs	0, 0, cr0, cr10, cr0, {0}
    1c8c:	0400000c 	streq	r0, [r0], #-12
    1c90:	7501b303 	strvc	fp, [r1, #-771]	; 0x303
    1c94:	08000015 	stmdaeq	r0, {r0, r2, r4}
    1c98:	000012d7 	ldrdeq	r1, [r0], -r7
    1c9c:	5e01b403 	cdppl	4, 0, cr11, cr1, cr3, {0}
    1ca0:	04000000 	streq	r0, [r0]
    1ca4:	23021c04 	movwcs	r1, #11268	; 0x2c04
    1ca8:	0f200800 	svceq	0x00200800
    1cac:	b5030000 	strlt	r0, [r3]
    1cb0:	00005e01 	andeq	r5, r0, r1, lsl #28
    1cb4:	15070400 	strne	r0, [r7, #-1024]	; 0x400
    1cb8:	08002302 	stmdaeq	r0, {r1, r8, r9, sp}
    1cbc:	00000696 	muleq	r0, r6, r6
    1cc0:	5e01b603 	cfmadd32pl	mvax0, mvfx11, mvfx1, mvfx3
    1cc4:	04000000 	streq	r0, [r0]
    1cc8:	23021401 	movwcs	r1, #9217	; 0x2401
    1ccc:	0f2a0800 	svceq	0x002a0800
    1cd0:	b7030000 	strlt	r0, [r3, -r0]
    1cd4:	00005e01 	andeq	r5, r0, r1, lsl #28
    1cd8:	11030400 	tstne	r3, r0, lsl #8
    1cdc:	08002302 	stmdaeq	r0, {r1, r8, r9, sp}
    1ce0:	00000f82 	andeq	r0, r0, r2, lsl #31
    1ce4:	5e01b803 	cdppl	8, 0, cr11, cr1, cr3, {0}
    1ce8:	04000000 	streq	r0, [r0]
    1cec:	23021001 	movwcs	r1, #8193	; 0x2001
    1cf0:	0f340800 	svceq	0x00340800
    1cf4:	b9030000 	stmdblt	r3, {}
    1cf8:	00005e01 	andeq	r5, r0, r1, lsl #28
    1cfc:	08080400 	stmdaeq	r8, {sl}
    1d00:	08002302 	stmdaeq	r0, {r1, r8, r9, sp}
    1d04:	00000f99 	muleq	r0, r9, pc
    1d08:	5e01ba03 	vmlapl.f32	s22, s2, s6
    1d0c:	04000000 	streq	r0, [r0]
    1d10:	23020602 	movwcs	r0, #9730	; 0x2602
    1d14:	0f3e0800 	svceq	0x003e0800
    1d18:	bb030000 	bllt	c1d20 <__bss_end+0xbda40>
    1d1c:	00005e01 	andeq	r5, r0, r1, lsl #28
    1d20:	01050400 	tsteq	r5, r0, lsl #8
    1d24:	08002302 	stmdaeq	r0, {r1, r8, r9, sp}
    1d28:	00000a19 	andeq	r0, r0, r9, lsl sl
    1d2c:	5e01bc03 	cdppl	12, 0, cr11, cr1, cr3, {0}
    1d30:	04000000 	streq	r0, [r0]
    1d34:	23020001 	movwcs	r0, #8193	; 0x2001
    1d38:	a4090000 	strge	r0, [r9]
    1d3c:	0300000e 	movweq	r0, #14
    1d40:	14c501be 	strbne	r0, [r5], #446	; 0x1be
    1d44:	6d0a0000 	stcvs	0, cr0, [sl]
    1d48:	04000009 	streq	r0, [r0], #-9
    1d4c:	fb01c403 	blx	72d62 <__bss_end+0x6ea82>
    1d50:	08000015 	stmdaeq	r0, {r0, r2, r4}
    1d54:	000012d7 	ldrdeq	r1, [r0], -r7
    1d58:	5e01c503 	cfsh32pl	mvfx12, mvfx1, #3
    1d5c:	04000000 	streq	r0, [r0]
    1d60:	23021b05 	movwcs	r1, #11013	; 0x2b05
    1d64:	0f200800 	svceq	0x00200800
    1d68:	c6030000 	strgt	r0, [r3], -r0
    1d6c:	00005e01 	andeq	r5, r0, r1, lsl #28
    1d70:	08130400 	ldmdaeq	r3, {sl}
    1d74:	08002302 	stmdaeq	r0, {r1, r8, r9, sp}
    1d78:	0000127b 	andeq	r1, r0, fp, ror r2
    1d7c:	5e01c703 	cdppl	7, 0, cr12, cr1, cr3, {0}
    1d80:	04000000 	streq	r0, [r0]
    1d84:	23020503 	movwcs	r0, #9475	; 0x2503
    1d88:	0f2a0800 	svceq	0x002a0800
    1d8c:	c8030000 	stmdagt	r3, {}
    1d90:	00005e01 	andeq	r5, r0, r1, lsl #28
    1d94:	02030400 	andeq	r0, r3, #0
    1d98:	08002302 	stmdaeq	r0, {r1, r8, r9, sp}
    1d9c:	00001176 	andeq	r1, r0, r6, ror r1
    1da0:	5e01c903 	cdppl	9, 0, cr12, cr1, cr3, {0}
    1da4:	04000000 	streq	r0, [r0]
    1da8:	23020101 	movwcs	r0, #8449	; 0x2101
    1dac:	111d0800 	tstne	sp, r0, lsl #16
    1db0:	ca030000 	bgt	c1db8 <__bss_end+0xbdad8>
    1db4:	00005e01 	andeq	r5, r0, r1, lsl #28
    1db8:	00010400 	andeq	r0, r1, r0, lsl #8
    1dbc:	00002302 	andeq	r2, r0, r2, lsl #6
    1dc0:	0008c809 	andeq	ip, r8, r9, lsl #16
    1dc4:	01cb0300 	biceq	r0, fp, r0, lsl #6
    1dc8:	00001581 	andeq	r1, r0, r1, lsl #11
    1dcc:	0011f50a 	andseq	pc, r1, sl, lsl #10
    1dd0:	cf030400 	svcgt	0x00030400
    1dd4:	00166f01 	andseq	r6, r6, r1, lsl #30
    1dd8:	11760800 	cmnne	r6, r0, lsl #16
    1ddc:	d0030000 	andle	r0, r3, r0
    1de0:	00005e01 	andeq	r5, r0, r1, lsl #28
    1de4:	1f010400 	svcne	0x00010400
    1de8:	08002302 	stmdaeq	r0, {r1, r8, r9, sp}
    1dec:	00000f20 	andeq	r0, r0, r0, lsr #30
    1df0:	5e01d103 	mvfpls	f5, f3
    1df4:	04000000 	streq	r0, [r0]
    1df8:	2302100f 	movwcs	r1, #8207	; 0x200f
    1dfc:	12d70800 	sbcsne	r0, r7, #0
    1e00:	d2030000 	andle	r0, r3, #0
    1e04:	00005e01 	andeq	r5, r0, r1, lsl #28
    1e08:	0d030400 	cfstrseq	mvf0, [r3]
    1e0c:	08002302 	stmdaeq	r0, {r1, r8, r9, sp}
    1e10:	00000f2a 	andeq	r0, r0, sl, lsr #30
    1e14:	5e01d303 	cdppl	3, 0, cr13, cr1, cr3, {0}
    1e18:	04000000 	streq	r0, [r0]
    1e1c:	2302010c 	movwcs	r0, #8460	; 0x210c
    1e20:	111d0800 	tstne	sp, r0, lsl #16
    1e24:	d4030000 	strle	r0, [r3]
    1e28:	00005e01 	andeq	r5, r0, r1, lsl #28
    1e2c:	00010400 	andeq	r0, r1, r0, lsl #8
    1e30:	00002302 	andeq	r2, r0, r2, lsl #6
    1e34:	000e1709 	andeq	r1, lr, r9, lsl #14
    1e38:	01d50300 	bicseq	r0, r5, r0, lsl #6
    1e3c:	00001607 	andeq	r1, r0, r7, lsl #12
    1e40:	000c880a 	andeq	r8, ip, sl, lsl #16
    1e44:	d8030400 	stmdale	r3, {sl}
    1e48:	0016ad01 	andseq	sl, r6, r1, lsl #26
    1e4c:	0f200800 	svceq	0x00200800
    1e50:	d9030000 	stmdble	r3, {}
    1e54:	00005e01 	andeq	r5, r0, r1, lsl #28
    1e58:	011f0400 	tsteq	pc, r0, lsl #8
    1e5c:	08002302 	stmdaeq	r0, {r1, r8, r9, sp}
    1e60:	0000111d 	andeq	r1, r0, sp, lsl r1
    1e64:	5e01da03 	vmlapl.f32	s26, s2, s6
    1e68:	04000000 	streq	r0, [r0]
    1e6c:	23020001 	movwcs	r0, #8193	; 0x2001
    1e70:	05090000 	streq	r0, [r9]
    1e74:	03000005 	movweq	r0, #5
    1e78:	167b01db 	undefined instruction 0x167b01db
    1e7c:	400a0000 	andmi	r0, sl, r0
    1e80:	04000008 	streq	r0, [r0], #-8
    1e84:	eb01de03 	bl	79698 <__bss_end+0x753b8>
    1e88:	08000016 	stmdaeq	r0, {r1, r2, r4}
    1e8c:	00000f20 	andeq	r0, r0, r0, lsr #30
    1e90:	5e01df03 	cdppl	15, 0, cr13, cr1, cr3, {0}
    1e94:	04000000 	streq	r0, [r0]
    1e98:	2302011f 	movwcs	r0, #8479	; 0x211f
    1e9c:	111d0800 	tstne	sp, r0, lsl #16
    1ea0:	e0030000 	and	r0, r3, r0
    1ea4:	00005e01 	andeq	r5, r0, r1, lsl #28
    1ea8:	00010400 	andeq	r0, r1, r0, lsl #8
    1eac:	00002302 	andeq	r2, r0, r2, lsl #6
    1eb0:	00114b09 	andseq	r4, r1, r9, lsl #22
    1eb4:	01e10300 	mvneq	r0, r0, lsl #6
    1eb8:	000016b9 	undefined instruction 0x000016b9
    1ebc:	0005970a 	andeq	r9, r5, sl, lsl #14
    1ec0:	e5030400 	str	r0, [r3, #-1024]	; 0x400
    1ec4:	00172901 	andseq	r2, r7, r1, lsl #18
    1ec8:	11760800 	cmnne	r6, r0, lsl #16
    1ecc:	e6030000 	str	r0, [r3], -r0
    1ed0:	00005e01 	andeq	r5, r0, r1, lsl #28
    1ed4:	1f010400 	svcne	0x00010400
    1ed8:	08002302 	stmdaeq	r0, {r1, r8, r9, sp}
    1edc:	00000150 	andeq	r0, r0, r0, asr r1
    1ee0:	5e01e703 	cdppl	7, 0, cr14, cr1, cr3, {0}
    1ee4:	04000000 	streq	r0, [r0]
    1ee8:	2302001f 	movwcs	r0, #8223	; 0x201f
    1eec:	f5090000 	undefined instruction 0xf5090000
    1ef0:	0300000d 	movweq	r0, #13
    1ef4:	16f701e8 	ldrbtne	r0, [r7], r8, ror #3
    1ef8:	610a0000 	tstvs	sl, r0
    1efc:	04000006 	streq	r0, [r0], #-6
    1f00:	9d01ec03 	stcls	12, cr14, [r1, #-12]
    1f04:	08000017 	stmdaeq	r0, {r0, r1, r2, r4}
    1f08:	000012d7 	ldrdeq	r1, [r0], -r7
    1f0c:	5e01ed03 	cdppl	13, 0, cr14, cr1, cr3, {0}
    1f10:	04000000 	streq	r0, [r0]
    1f14:	23021c04 	movwcs	r1, #11268	; 0x2c04
    1f18:	0f200800 	svceq	0x00200800
    1f1c:	ee030000 	cdp	0, 0, cr0, cr3, cr0, {0}
    1f20:	00005e01 	andeq	r5, r0, r1, lsl #28
    1f24:	08140400 	ldmdaeq	r4, {sl}
    1f28:	08002302 	stmdaeq	r0, {r1, r8, r9, sp}
    1f2c:	0000127b 	andeq	r1, r0, fp, ror r2
    1f30:	5e01ef03 	cdppl	15, 0, cr14, cr1, cr3, {0}
    1f34:	04000000 	streq	r0, [r0]
    1f38:	23020602 	movwcs	r0, #9730	; 0x2602
    1f3c:	0f2a0800 	svceq	0x002a0800
    1f40:	f0030000 	undefined instruction 0xf0030000
    1f44:	00005e01 	andeq	r5, r0, r1, lsl #28
    1f48:	01050400 	tsteq	r5, r0, lsl #8
    1f4c:	08002302 	stmdaeq	r0, {r1, r8, r9, sp}
    1f50:	0000111d 	andeq	r1, r0, sp, lsl r1
    1f54:	5e01f103 	mvfpls	f7, f3
    1f58:	04000000 	streq	r0, [r0]
    1f5c:	23020001 	movwcs	r0, #8193	; 0x2001
    1f60:	40090000 	andmi	r0, r9, r0
    1f64:	03000004 	movweq	r0, #4
    1f68:	173501f2 	undefined instruction 0x173501f2
    1f6c:	4f0a0000 	svcmi	0x000a0000
    1f70:	0400000a 	streq	r0, [r0], #-10
    1f74:	2301f603 	movwcs	pc, #5635	; 0x1603
    1f78:	08000018 	stmdaeq	r0, {r3, r4}
    1f7c:	000012d7 	ldrdeq	r1, [r0], -r7
    1f80:	5e01f703 	cdppl	7, 0, cr15, cr1, cr3, {0}
    1f84:	04000000 	streq	r0, [r0]
    1f88:	23021c04 	movwcs	r1, #11268	; 0x2c04
    1f8c:	0f200800 	svceq	0x00200800
    1f90:	f8030000 	undefined instruction 0xf8030000
    1f94:	00005e01 	andeq	r5, r0, r1, lsl #28
    1f98:	08140400 	ldmdaeq	r4, {sl}
    1f9c:	08002302 	stmdaeq	r0, {r1, r8, r9, sp}
    1fa0:	0000127b 	andeq	r1, r0, fp, ror r2
    1fa4:	5e01f903 	cdppl	9, 0, cr15, cr1, cr3, {0}
    1fa8:	04000000 	streq	r0, [r0]
    1fac:	23020503 	movwcs	r0, #9475	; 0x2503
    1fb0:	0f2a0800 	svceq	0x002a0800
    1fb4:	fa030000 	blx	c1fbc <__bss_end+0xbdcdc>
    1fb8:	00005e01 	andeq	r5, r0, r1, lsl #28
    1fbc:	02030400 	andeq	r0, r3, #0
    1fc0:	08002302 	stmdaeq	r0, {r1, r8, r9, sp}
    1fc4:	00001176 	andeq	r1, r0, r6, ror r1
    1fc8:	5e01fb03 	vmlapl.f64	d15, d1, d3
    1fcc:	04000000 	streq	r0, [r0]
    1fd0:	23020101 	movwcs	r0, #8449	; 0x2101
    1fd4:	111d0800 	tstne	sp, r0, lsl #16
    1fd8:	fc030000 	stc2	0, cr0, [r3], {0}
    1fdc:	00005e01 	andeq	r5, r0, r1, lsl #28
    1fe0:	00010400 	andeq	r0, r1, r0, lsl #8
    1fe4:	00002302 	andeq	r2, r0, r2, lsl #6
    1fe8:	00090c09 	andeq	r0, r9, r9, lsl #24
    1fec:	01fd0300 	mvnseq	r0, r0, lsl #6
    1ff0:	000017a9 	andeq	r1, r0, r9, lsr #15
    1ff4:	0007bb0a 	andeq	fp, r7, sl, lsl #22
    1ff8:	01030400 	tsteq	r3, r0, lsl #8
    1ffc:	0018bb02 	andseq	fp, r8, r2, lsl #22
    2000:	12d70800 	sbcsne	r0, r7, #0
    2004:	02030000 	andeq	r0, r3, #0
    2008:	00005e02 	andeq	r5, r0, r2, lsl #28
    200c:	1c040400 	cfstrsne	mvf0, [r4], {0}
    2010:	08002302 	stmdaeq	r0, {r1, r8, r9, sp}
    2014:	00000f20 	andeq	r0, r0, r0, lsr #30
    2018:	5e020303 	cdppl	3, 0, cr0, cr2, cr3, {0}
    201c:	04000000 	streq	r0, [r0]
    2020:	2302100c 	movwcs	r1, #8204	; 0x200c
    2024:	056c0800 	strbeq	r0, [ip, #-2048]!	; 0x800
    2028:	04030000 	streq	r0, [r3]
    202c:	00005e02 	andeq	r5, r0, r2, lsl #28
    2030:	0e020400 	cfcpyseq	mvf0, mvf2
    2034:	08002302 	stmdaeq	r0, {r1, r8, r9, sp}
    2038:	00000f2a 	andeq	r0, r0, sl, lsr #30
    203c:	5e020503 	cfsh32pl	mvfx0, mvfx2, #3
    2040:	04000000 	streq	r0, [r0]
    2044:	23020806 	movwcs	r0, #10246	; 0x2806
    2048:	127b0800 	rsbsne	r0, fp, #0
    204c:	06030000 	streq	r0, [r3], -r0
    2050:	00005e02 	andeq	r5, r0, r2, lsl #28
    2054:	06020400 	streq	r0, [r2], -r0, lsl #8
    2058:	08002302 	stmdaeq	r0, {r1, r8, r9, sp}
    205c:	00000f34 	andeq	r0, r0, r4, lsr pc
    2060:	5e020703 	cdppl	7, 0, cr0, cr2, cr3, {0}
    2064:	04000000 	streq	r0, [r0]
    2068:	23020105 	movwcs	r0, #8453	; 0x2105
    206c:	11210800 	teqne	r1, r0, lsl #16
    2070:	08030000 	stmdaeq	r3, {}
    2074:	00005e02 	andeq	r5, r0, r2, lsl #28
    2078:	00010400 	andeq	r0, r1, r0, lsl #8
    207c:	00002302 	andeq	r2, r0, r2, lsl #6
    2080:	00064709 	andeq	r4, r6, r9, lsl #14
    2084:	020a0300 	andeq	r0, sl, #0
    2088:	0000182f 	andeq	r1, r0, pc, lsr #16
    208c:	000ed90a 	andeq	sp, lr, sl, lsl #18
    2090:	0e030400 	cfcpyseq	mvf0, mvf3
    2094:	00190b02 	andseq	r0, r9, r2, lsl #22
    2098:	01500800 	cmpeq	r0, r0, lsl #16
    209c:	0f030000 	svceq	0x00030000
    20a0:	00005e02 	andeq	r5, r0, r2, lsl #28
    20a4:	021e0400 	andseq	r0, lr, #0
    20a8:	08002302 	stmdaeq	r0, {r1, r8, r9, sp}
    20ac:	00001176 	andeq	r1, r0, r6, ror r1
    20b0:	5e021003 	cdppl	0, 0, cr1, cr2, cr3, {0}
    20b4:	04000000 	streq	r0, [r0]
    20b8:	23020101 	movwcs	r0, #8449	; 0x2101
    20bc:	11210800 	teqne	r1, r0, lsl #16
    20c0:	11030000 	tstne	r3, r0
    20c4:	00005e02 	andeq	r5, r0, r2, lsl #28
    20c8:	00010400 	andeq	r0, r1, r0, lsl #8
    20cc:	00002302 	andeq	r2, r0, r2, lsl #6
    20d0:	000b3b09 	andeq	r3, fp, r9, lsl #22
    20d4:	02130300 	andseq	r0, r3, #0
    20d8:	000018c7 	andeq	r1, r0, r7, asr #17
    20dc:	0012aa0b 	andseq	sl, r2, fp, lsl #20
    20e0:	03016400 	movweq	r6, #5120	; 0x1400
    20e4:	1d7c0216 	lfmne	f0, 2, [ip, #-88]!	; (ldclne 2, cr0, [ip, #-88]!)	; 0xffffffa8
    20e8:	a10c0000 	tstge	ip, r0
    20ec:	03000009 	movweq	r0, #9
    20f0:	1d7c0217 	lfmne	f0, 2, [ip, #-92]!	; (ldclne 2, cr0, [ip, #-92]!)	; 0xffffffa4
    20f4:	23020000 	movwcs	r0, #8192	; 0x2000
    20f8:	087f0c00 	ldmdaeq	pc!, {sl, fp}^
    20fc:	18030000 	stmdane	r3, {}
    2100:	001d8102 	andseq	r8, sp, r2, lsl #2
    2104:	04230200 	strteq	r0, [r3], #-512	; 0x200
    2108:	0012a20c 	andseq	sl, r2, ip, lsl #4
    210c:	02190300 	andseq	r0, r9, #0
    2110:	00001d86 	andeq	r1, r0, r6, lsl #27
    2114:	0c082302 	stceq	3, cr2, [r8], {2}
    2118:	000010ab 	andeq	r1, r0, fp, lsr #1
    211c:	8b021a03 	blhi	88930 <__bss_end+0x84650>
    2120:	0200001d 	andeq	r0, r0, #29
    2124:	ba0c0c23 	blt	3051b8 <__bss_end+0x300ed8>
    2128:	03000011 	movweq	r0, #17
    212c:	1d90021b 	lfmne	f0, 4, [r0, #108]	; (ldcne 2, cr0, [r0, #108])	; 0x6c
    2130:	23020000 	movwcs	r0, #8192	; 0x2000
    2134:	0f200c10 	svceq	0x00200c10
    2138:	1c030000 	stcne	0, cr0, [r3], {0}
    213c:	001d9502 	andseq	r9, sp, r2, lsl #10
    2140:	14230200 	strtne	r0, [r3], #-512	; 0x200
    2144:	0005b70c 	andeq	fp, r5, ip, lsl #14
    2148:	021d0300 	andseq	r0, sp, #0
    214c:	00001d9a 	muleq	r0, sl, sp
    2150:	0c182302 	ldceq	3, cr2, [r8], {2}
    2154:	00000f2a 	andeq	r0, r0, sl, lsr #30
    2158:	95021e03 	strls	r1, [r2, #-3587]	; 0xe03
    215c:	0200001d 	andeq	r0, r0, #29
    2160:	0f0c1c23 	svceq	0x000c1c23
    2164:	0300000e 	movweq	r0, #14
    2168:	1d9f021f 	lfmne	f0, 4, [pc, #124]	; (ldcne 2, cr0, [pc, #124])	; 0x7c
    216c:	23020000 	movwcs	r0, #8192	; 0x2000
    2170:	03f70c20 	mvnseq	r0, #8192	; 0x2000
    2174:	20030000 	andcs	r0, r3, r0
    2178:	001da402 	andseq	sl, sp, r2, lsl #8
    217c:	24230200 	strtcs	r0, [r3], #-512	; 0x200
    2180:	0011d20c 	andseq	sp, r1, ip, lsl #4
    2184:	02210300 	eoreq	r0, r1, #0
    2188:	00001da9 	andeq	r1, r0, r9, lsr #27
    218c:	0c282302 	stceq	3, cr2, [r8], #-8
    2190:	00000f34 	andeq	r0, r0, r4, lsr pc
    2194:	95022203 	strls	r2, [r2, #-515]	; 0x203
    2198:	0200001d 	andeq	r0, r0, #29
    219c:	ee0c2c23 	cdp	12, 0, cr2, cr12, cr3, {1}
    21a0:	03000010 	movweq	r0, #16
    21a4:	1dae0223 	sfmne	f0, 4, [lr, #140]!	; (stcne 2, cr0, [lr, #140]!)	; 0x8c
    21a8:	23020000 	movwcs	r0, #8192	; 0x2000
    21ac:	0f3e0c30 	svceq	0x003e0c30
    21b0:	24030000 	strcs	r0, [r3]
    21b4:	001d9502 	andseq	r9, sp, r2, lsl #10
    21b8:	34230200 	strtcc	r0, [r3], #-512	; 0x200
    21bc:	000dd00c 	andeq	sp, sp, ip
    21c0:	02250300 	eoreq	r0, r5, #0
    21c4:	00001db3 	undefined instruction 0x00001db3
    21c8:	0c382302 	ldceq	3, cr2, [r8], #-8
    21cc:	00000427 	andeq	r0, r0, r7, lsr #8
    21d0:	b8022603 	stmdalt	r2, {r0, r1, r9, sl, sp}
    21d4:	0200001d 	andeq	r0, r0, #29
    21d8:	480c3c23 	stmdami	ip, {r0, r1, r5, sl, fp, ip, sp}
    21dc:	0300000f 	movweq	r0, #15
    21e0:	1dcd0227 	sfmne	f0, 2, [sp, #156]	; (stclne 2, cr0, [sp, #156])	; 0x9c
    21e4:	23020000 	movwcs	r0, #8192	; 0x2000
    21e8:	06c70c40 	strbeq	r0, [r7], r0, asr #24
    21ec:	28030000 	stmdacs	r3, {}
    21f0:	001dd202 	andseq	sp, sp, r2, lsl #4
    21f4:	50230200 	eorpl	r0, r3, r0, lsl #4
    21f8:	000beb0c 	andeq	lr, fp, ip, lsl #22
    21fc:	02290300 	eoreq	r0, r9, #0
    2200:	00001dd7 	ldrdeq	r1, [r0], -r7
    2204:	0c542302 	mrrceq	3, 0, r2, r4, cr2
    2208:	00000a2d 	andeq	r0, r0, sp, lsr #20
    220c:	dc022a03 	stcle	10, cr2, [r2], {3}
    2210:	0200001d 	andeq	r0, r0, #29
    2214:	c20c5823 	andgt	r5, ip, #2293760	; 0x230000
    2218:	03000011 	movweq	r0, #17
    221c:	1de1022b 	sfmne	f0, 2, [r1, #172]!	; (stclne 2, cr0, [r1, #172]!)	; 0xac
    2220:	23020000 	movwcs	r0, #8192	; 0x2000
    2224:	09540c5c 	ldmdbeq	r4, {r2, r3, r4, r6, sl, fp}^
    2228:	2c030000 	stccs	0, cr0, [r3], {0}
    222c:	001de602 	andseq	lr, sp, r2, lsl #12
    2230:	60230200 	eorvs	r0, r3, r0, lsl #4
    2234:	00095d0c 	andeq	r5, r9, ip, lsl #26
    2238:	022d0300 	eoreq	r0, sp, #0
    223c:	00001deb 	andeq	r1, r0, fp, ror #27
    2240:	0c642302 	stcleq	3, cr2, [r4], #-8
    2244:	00000683 	andeq	r0, r0, r3, lsl #13
    2248:	f0022e03 	undefined instruction 0xf0022e03
    224c:	0200001d 	andeq	r0, r0, #29
    2250:	430c6823 	movwmi	r6, #51235	; 0xc823
    2254:	03000007 	movweq	r0, #7
    2258:	1df5022f 	lfmne	f0, 2, [r5, #188]!	; (ldclne 2, cr0, [r5, #188]!)	; 0xbc
    225c:	23020000 	movwcs	r0, #8192	; 0x2000
    2260:	06790c6c 	ldrbteq	r0, [r9], -ip, ror #24
    2264:	30030000 	andcc	r0, r3, r0
    2268:	001dfa02 	andseq	pc, sp, r2, lsl #20
    226c:	70230200 	eorvc	r0, r3, r0, lsl #4
    2270:	0011100c 	andseq	r1, r1, ip
    2274:	02310300 	eorseq	r0, r1, #0
    2278:	00001dff 	strdeq	r1, [r0], -pc
    227c:	01802303 	orreq	r2, r0, r3, lsl #6
    2280:	00076f0c 	andeq	r6, r7, ip, lsl #30
    2284:	02320300 	eorseq	r0, r2, #0
    2288:	00001dff 	strdeq	r1, [r0], -pc
    228c:	01842303 	orreq	r2, r4, r3, lsl #6
    2290:	00055f0c 	andeq	r5, r5, ip, lsl #30
    2294:	02330300 	eorseq	r0, r3, #0
    2298:	00001dff 	strdeq	r1, [r0], -pc
    229c:	01882303 	orreq	r2, r8, r3, lsl #6
    22a0:	000ecf0c 	andeq	ip, lr, ip, lsl #30
    22a4:	02340300 	eorseq	r0, r4, #0
    22a8:	00001dff 	strdeq	r1, [r0], -pc
    22ac:	018c2303 	orreq	r2, ip, r3, lsl #6
    22b0:	000b050c 	andeq	r0, fp, ip, lsl #10
    22b4:	02350300 	eorseq	r0, r5, #0
    22b8:	00001dff 	strdeq	r1, [r0], -pc
    22bc:	01902303 	orrseq	r2, r0, r3, lsl #6
    22c0:	000f6e0c 	andeq	r6, pc, ip, lsl #28
    22c4:	02360300 	eorseq	r0, r6, #0
    22c8:	00001d95 	muleq	r0, r5, sp
    22cc:	01942303 	orrseq	r2, r4, r3, lsl #6
    22d0:	0010140c 	andseq	r1, r0, ip, lsl #8
    22d4:	02370300 	eorseq	r0, r7, #0
    22d8:	00001dff 	strdeq	r1, [r0], -pc
    22dc:	01982303 	orrseq	r2, r8, r3, lsl #6
    22e0:	00061b0c 	andeq	r1, r6, ip, lsl #22
    22e4:	02380300 	eorseq	r0, r8, #0
    22e8:	00001dff 	strdeq	r1, [r0], -pc
    22ec:	019c2303 	orrseq	r2, ip, r3, lsl #6
    22f0:	000b0f0c 	andeq	r0, fp, ip, lsl #30
    22f4:	02390300 	eorseq	r0, r9, #0
    22f8:	00001dff 	strdeq	r1, [r0], -pc
    22fc:	01a02303 	lsleq	r2, r3, #6
    2300:	0004850c 	andeq	r8, r4, ip, lsl #10
    2304:	023a0300 	eorseq	r0, sl, #0
    2308:	00001dff 	strdeq	r1, [r0], -pc
    230c:	01a42303 	undefined instruction 0x01a42303
    2310:	000d020c 	andeq	r0, sp, ip, lsl #4
    2314:	023b0300 	eorseq	r0, fp, #0
    2318:	00001dff 	strdeq	r1, [r0], -pc
    231c:	01a82303 	undefined instruction 0x01a82303
    2320:	000f780c 	andeq	r7, pc, ip, lsl #16
    2324:	023c0300 	eorseq	r0, ip, #0
    2328:	00001d95 	muleq	r0, r5, sp
    232c:	01ac2303 	undefined instruction 0x01ac2303
    2330:	000a260c 	andeq	r2, sl, ip, lsl #12
    2334:	023d0300 	eorseq	r0, sp, #0
    2338:	00001dff 	strdeq	r1, [r0], -pc
    233c:	01b02303 	lslseq	r2, r3, #6
    2340:	00068c0c 	andeq	r8, r6, ip, lsl #24
    2344:	023e0300 	eorseq	r0, lr, #0
    2348:	00001d95 	muleq	r0, r5, sp
    234c:	01b42303 	undefined instruction 0x01b42303
    2350:	0009660c 	andeq	r6, r9, ip, lsl #12
    2354:	023f0300 	eorseq	r0, pc, #0
    2358:	00001e04 	andeq	r1, r0, r4, lsl #28
    235c:	01b82303 	undefined instruction 0x01b82303
    2360:	000f8f0c 	andeq	r8, pc, ip, lsl #30
    2364:	02400300 	subeq	r0, r0, #0
    2368:	00001d95 	muleq	r0, r5, sp
    236c:	01bc2303 	undefined instruction 0x01bc2303
    2370:	000ca00c 	andeq	sl, ip, ip
    2374:	02410300 	subeq	r0, r1, #0
    2378:	00001e04 	andeq	r1, r0, r4, lsl #28
    237c:	01c02303 	biceq	r2, r0, r3, lsl #6
    2380:	00102d0c 	andseq	r2, r0, ip, lsl #26
    2384:	02420300 	subeq	r0, r2, #0
    2388:	00001e09 	andeq	r1, r0, r9, lsl #28
    238c:	01c42303 	biceq	r2, r4, r3, lsl #6
    2390:	000a6a0c 	andeq	r6, sl, ip, lsl #20
    2394:	02430300 	subeq	r0, r3, #0
    2398:	00001d95 	muleq	r0, r5, sp
    239c:	01c82303 	biceq	r2, r8, r3, lsl #6
    23a0:	0006210c 	andeq	r2, r6, ip, lsl #2
    23a4:	02440300 	subeq	r0, r4, #0
    23a8:	00001e0e 	andeq	r1, r0, lr, lsl #28
    23ac:	01cc2303 	biceq	r2, ip, r3, lsl #6
    23b0:	000c810c 	andeq	r8, ip, ip, lsl #2
    23b4:	02450300 	subeq	r0, r5, #0
    23b8:	00001e13 	andeq	r1, r0, r3, lsl lr
    23bc:	01d02303 	bicseq	r2, r0, r3, lsl #6
    23c0:	000a750c 	andeq	r7, sl, ip, lsl #10
    23c4:	02460300 	subeq	r0, r6, #0
    23c8:	00001d95 	muleq	r0, r5, sp
    23cc:	01d42303 	bicseq	r2, r4, r3, lsl #6
    23d0:	000a800c 	andeq	r8, sl, ip
    23d4:	02470300 	subeq	r0, r7, #0
    23d8:	00001e28 	andeq	r1, r0, r8, lsr #28
    23dc:	01d82303 	bicseq	r2, r8, r3, lsl #6
    23e0:	000d140c 	andeq	r1, sp, ip, lsl #8
    23e4:	02480300 	subeq	r0, r8, #0
    23e8:	00001e2d 	andeq	r1, r0, sp, lsr #28
    23ec:	02802303 	addeq	r2, r0, #201326592	; 0xc000000
    23f0:	000d500c 	andeq	r5, sp, ip
    23f4:	02490300 	subeq	r0, r9, #0
    23f8:	00001e32 	andeq	r1, r0, r2, lsr lr
    23fc:	02842303 	addeq	r2, r4, #201326592	; 0xc000000
    2400:	000b830c 	andeq	r8, fp, ip, lsl #6
    2404:	024a0300 	subeq	r0, sl, #0
    2408:	00001d95 	muleq	r0, r5, sp
    240c:	02882303 	addeq	r2, r8, #201326592	; 0xc000000
    2410:	0009e20c 	andeq	lr, r9, ip, lsl #4
    2414:	024b0300 	subeq	r0, fp, #0
    2418:	00001e32 	andeq	r1, r0, r2, lsr lr
    241c:	028c2303 	addeq	r2, ip, #201326592	; 0xc000000
    2420:	000aa20c 	andeq	sl, sl, ip, lsl #4
    2424:	024c0300 	subeq	r0, ip, #0
    2428:	00001d95 	muleq	r0, r5, sp
    242c:	02902303 	addseq	r2, r0, #201326592	; 0xc000000
    2430:	000aad0c 	andeq	sl, sl, ip, lsl #26
    2434:	024d0300 	subeq	r0, sp, #0
    2438:	00001d95 	muleq	r0, r5, sp
    243c:	02942303 	addseq	r2, r4, #201326592	; 0xc000000
    2440:	00048d0c 	andeq	r8, r4, ip, lsl #26
    2444:	024e0300 	subeq	r0, lr, #0
    2448:	00001e37 	andeq	r1, r0, r7, lsr lr
    244c:	02982303 	addseq	r2, r8, #201326592	; 0xc000000
    2450:	000ab80c 	andeq	fp, sl, ip, lsl #16
    2454:	024f0300 	subeq	r0, pc, #0
    2458:	00001e3c 	andeq	r1, r0, ip, lsr lr
    245c:	029c2303 	addseq	r2, ip, #201326592	; 0xc000000
    2460:	00063c0c 	andeq	r3, r6, ip, lsl #24
    2464:	02500300 	subseq	r0, r0, #0
    2468:	00001e41 	andeq	r1, r0, r1, asr #28
    246c:	02ac2303 	adceq	r2, ip, #201326592	; 0xc000000
    2470:	000ac30c 	andeq	ip, sl, ip, lsl #6
    2474:	02510300 	subseq	r0, r1, #0
    2478:	00001d95 	muleq	r0, r5, sp
    247c:	02b02303 	adcseq	r2, r0, #201326592	; 0xc000000
    2480:	0009290c 	andeq	r2, r9, ip, lsl #18
    2484:	02520300 	subseq	r0, r2, #0
    2488:	00001e46 	andeq	r1, r0, r6, asr #28
    248c:	02b42303 	adcseq	r2, r4, #201326592	; 0xc000000
    2490:	000ace0c 	andeq	ip, sl, ip, lsl #28
    2494:	02530300 	subseq	r0, r3, #0
    2498:	00001d95 	muleq	r0, r5, sp
    249c:	02b82303 	adcseq	r2, r8, #201326592	; 0xc000000
    24a0:	0004310c 	andeq	r3, r4, ip, lsl #2
    24a4:	02540300 	subseq	r0, r4, #0
    24a8:	00001e4b 	andeq	r1, r0, fp, asr #28
    24ac:	02bc2303 	adcseq	r2, ip, #201326592	; 0xc000000
    24b0:	00100c0c 	andseq	r0, r0, ip, lsl #24
    24b4:	02550300 	subseq	r0, r5, #0
    24b8:	00001e50 	andeq	r1, r0, r0, asr lr
    24bc:	02c02303 	sbceq	r2, r0, #201326592	; 0xc000000
    24c0:	00116c0c 	andseq	r6, r1, ip, lsl #24
    24c4:	02560300 	subseq	r0, r6, #0
    24c8:	00001e55 	andeq	r1, r0, r5, asr lr
    24cc:	02c42303 	sbceq	r2, r4, #201326592	; 0xc000000
    24d0:	000b540c 	andeq	r5, fp, ip, lsl #8
    24d4:	02570300 	subseq	r0, r7, #0
    24d8:	00001d95 	muleq	r0, r5, sp
    24dc:	02c82303 	sbceq	r2, r8, #201326592	; 0xc000000
    24e0:	000bbf0c 	andeq	fp, fp, ip, lsl #30
    24e4:	02580300 	subseq	r0, r8, #0
    24e8:	00001e5a 	andeq	r1, r0, sl, asr lr
    24ec:	02cc2303 	sbceq	r2, ip, #201326592	; 0xc000000
    24f0:	000b710c 	andeq	r7, fp, ip, lsl #2
    24f4:	02590300 	subseq	r0, r9, #0
    24f8:	00001e5f 	andeq	r1, r0, pc, asr lr
    24fc:	02d02303 	sbcseq	r2, r0, #201326592	; 0xc000000
    2500:	0011640c 	andseq	r6, r1, ip, lsl #8
    2504:	025a0300 	subseq	r0, sl, #0
    2508:	00001e64 	andeq	r1, r0, r4, ror #28
    250c:	02d42303 	sbcseq	r2, r4, #201326592	; 0xc000000
    2510:	000b5f0c 	andeq	r5, fp, ip, lsl #30
    2514:	025b0300 	subseq	r0, fp, #0
    2518:	00001d95 	muleq	r0, r5, sp
    251c:	02d82303 	sbcseq	r2, r8, #201326592	; 0xc000000
    2520:	0004760c 	andeq	r7, r4, ip, lsl #12
    2524:	025c0300 	subseq	r0, ip, #0
    2528:	00001e69 	andeq	r1, r0, r9, ror #28
    252c:	02dc2303 	sbcseq	r2, ip, #201326592	; 0xc000000
    2530:	0011440c 	andseq	r4, r1, ip, lsl #8
    2534:	025d0300 	subseq	r0, sp, #0
    2538:	00001e6e 	andeq	r1, r0, lr, ror #28
    253c:	02e02303 	rsceq	r2, r0, #201326592	; 0xc000000
    2540:	017c0d00 	cmneq	ip, r0, lsl #26
    2544:	fa0d0000 	blx	34254c <__bss_end+0x33e26c>
    2548:	0d000001 	stceq	0, cr0, [r0, #-4]
    254c:	000002ab 	andeq	r0, r0, fp, lsr #5
    2550:	0003290d 	andeq	r2, r3, sp, lsl #18
    2554:	03fc0d00 	mvnseq	r0, #0
    2558:	5e0d0000 	cdppl	0, 0, cr0, cr13, cr0, {0}
    255c:	0d000000 	stceq	0, cr0, [r0]
    2560:	00000502 	andeq	r0, r0, r2, lsl #10
    2564:	0006190d 	andeq	r1, r6, sp, lsl #18
    2568:	06a80d00 	strteq	r0, [r8], r0, lsl #26
    256c:	8c0d0000 	stchi	0, cr0, [sp], {0}
    2570:	0d000007 	stceq	0, cr0, [r0, #-28]	; 0xffffffe4
    2574:	0000085f 	andeq	r0, r0, pc, asr r8
    2578:	0008dd0d 	andeq	sp, r8, sp, lsl #26
    257c:	095b0d00 	ldmdbeq	fp, {r8, sl, fp}^
    2580:	5e0e0000 	cdppl	0, 0, cr0, cr14, cr0, {0}
    2584:	cd000000 	stcgt	0, cr0, [r0]
    2588:	0f00001d 	svceq	0x0000001d
    258c:	0000007e 	andeq	r0, r0, lr, ror r0
    2590:	bd0d0003 	stclt	0, cr0, [sp, #-12]
    2594:	0d00001d 	stceq	0, cr0, [r0, #-116]	; 0xffffff8c
    2598:	00000a1d 	andeq	r0, r0, sp, lsl sl
    259c:	000abd0d 	andeq	fp, sl, sp, lsl #26
    25a0:	0b3b0d00 	bleq	ec59a8 <__bss_end+0xec16c8>
    25a4:	750d0000 	strvc	r0, [sp]
    25a8:	0d00000b 	stceq	0, cr0, [r0, #-44]	; 0xffffffd4
    25ac:	00000d59 	andeq	r0, r0, r9, asr sp
    25b0:	000e930d 	andeq	r9, lr, sp, lsl #6
    25b4:	0f610d00 	svceq	0x00610d00
    25b8:	1d0d0000 	stcne	0, cr0, [sp]
    25bc:	0d000010 	stceq	0, cr0, [r0, #-64]	; 0xffffffc0
    25c0:	00001dbd 	undefined instruction 0x00001dbd
    25c4:	0010b50d 	andseq	fp, r0, sp, lsl #10
    25c8:	11170d00 	tstne	r7, r0, lsl #26
    25cc:	af0d0000 	svcge	0x000d0000
    25d0:	0d000011 	stceq	0, cr0, [r0, #-68]	; 0xffffffbc
    25d4:	00001247 	andeq	r1, r0, r7, asr #4
    25d8:	0012cd0d 	andseq	ip, r2, sp, lsl #26
    25dc:	005e0e00 	subseq	r0, lr, r0, lsl #28
    25e0:	1e280000 	cdpne	0, 2, cr0, cr8, cr0, {0}
    25e4:	7e0f0000 	cdpvc	0, 0, cr0, cr15, cr0, {0}
    25e8:	09000000 	stmdbeq	r0, {}
    25ec:	1e180d00 	cdpne	13, 1, cr0, cr8, cr0, {0}
    25f0:	ad0d0000 	stcge	0, cr0, [sp]
    25f4:	0d000013 	stceq	0, cr0, [r0, #-76]	; 0xffffffb4
    25f8:	00001433 	andeq	r1, r0, r3, lsr r4
    25fc:	0014b90d 	andseq	fp, r4, sp, lsl #18
    2600:	1dbd0d00 	ldcne	13, cr0, [sp]
    2604:	750d0000 	strvc	r0, [sp]
    2608:	0d000015 	stceq	0, cr0, [r0, #-84]	; 0xffffffac
    260c:	000015fb 	strdeq	r1, [r0], -fp
    2610:	00166f0d 	andseq	r6, r6, sp, lsl #30
    2614:	16ad0d00 	strtne	r0, [sp], r0, lsl #26
    2618:	eb0d0000 	bl	342620 <__bss_end+0x33e340>
    261c:	0d000016 	stceq	0, cr0, [r0, #-88]	; 0xffffffa8
    2620:	00001729 	andeq	r1, r0, r9, lsr #14
    2624:	00179d0d 	andseq	r9, r7, sp, lsl #26
    2628:	18230d00 	stmdane	r3!, {r8, sl, fp}
    262c:	bb0d0000 	bllt	342634 <__bss_end+0x33e354>
    2630:	0d000018 	stceq	0, cr0, [r0, #-96]	; 0xffffffa0
    2634:	0000190b 	andeq	r1, r0, fp, lsl #18
    2638:	0010fe09 	andseq	pc, r0, r9, lsl #28
    263c:	025f0300 	subseq	r0, pc, #0
    2640:	00001917 	andeq	r1, r0, r7, lsl r9
    2644:	0009b406 	andeq	fp, r9, r6, lsl #8
    2648:	1a042400 	bne	10b650 <__bss_end+0x107370>
    264c:	00001f0a 	andeq	r1, r0, sl, lsl #30
    2650:	000c2410 	andeq	r2, ip, r0, lsl r4
    2654:	0a1b0400 	beq	6c365c <__bss_end+0x6bf37c>
    2658:	0200001f 	andeq	r0, r0, #31
    265c:	96100023 	ldrls	r0, [r0], -r3, lsr #32
    2660:	0400000b 	streq	r0, [r0], #-11
    2664:	001f0a1c 	andseq	r0, pc, ip, lsl sl
    2668:	04230200 	strteq	r0, [r3], #-512	; 0x200
    266c:	0007e610 	andeq	lr, r7, r0, lsl r6
    2670:	0a1d0400 	beq	743678 <__bss_end+0x73f398>
    2674:	0200001f 	andeq	r0, r0, #31
    2678:	c4100823 	ldrgt	r0, [r0], #-2083	; 0x823
    267c:	04000004 	streq	r0, [r0], #-4
    2680:	001f0a1e 	andseq	r0, pc, lr, lsl sl
    2684:	0c230200 	sfmeq	f0, 4, [r3]	; (stceq 2, cr0, [r3])
    2688:	000bf510 	andeq	pc, fp, r0, lsl r5
    268c:	0a1f0400 	beq	7c3694 <__bss_end+0x7bf3b4>
    2690:	0200001f 	andeq	r0, r0, #31
    2694:	17101023 	ldrne	r1, [r0, -r3, lsr #32]
    2698:	0400000b 	streq	r0, [r0], #-11
    269c:	001f0a20 	andseq	r0, pc, r0, lsr #20
    26a0:	14230200 	strtne	r0, [r3], #-512	; 0x200
    26a4:	0007d310 	andeq	sp, r7, r0, lsl r3
    26a8:	0a210400 	beq	8436b0 <__bss_end+0x83f3d0>
    26ac:	0200001f 	andeq	r0, r0, #31
    26b0:	6e101823 	cdpvs	8, 1, cr1, cr0, cr3, {1}
    26b4:	04000012 	streq	r0, [r0], #-18
    26b8:	001f0a22 	andseq	r0, pc, r2, lsr #20
    26bc:	1c230200 	sfmne	f0, 4, [r3]	; (stcne 2, cr0, [r3])
    26c0:	000f1710 	andeq	r1, pc, r0, lsl r7
    26c4:	0a230400 	beq	8c36cc <__bss_end+0x8bf3ec>
    26c8:	0200001f 	andeq	r0, r0, #31
    26cc:	0d002023 	stceq	0, cr2, [r0, #-140]	; 0xffffff74
    26d0:	00000069 	andeq	r0, r0, r9, rrx
    26d4:	0007f403 	andeq	pc, r7, r3, lsl #8
    26d8:	7f250400 	svcvc	0x00250400
    26dc:	1100001e 	tstne	r0, lr, lsl r0
    26e0:	00000871 	andeq	r0, r0, r1, ror r8
    26e4:	33290404 	teqcc	r9, #67108864	; 0x4000000
    26e8:	1200001f 	andne	r0, r0, #31
    26ec:	00000f0d 	andeq	r0, r0, sp, lsl #30
    26f0:	04de1200 	ldrbeq	r1, [lr], #512	; 0x200
    26f4:	00010000 	andeq	r0, r1, r0
    26f8:	00053a13 	andeq	r3, r5, r3, lsl sl
    26fc:	01300100 	teqeq	r0, r0, lsl #2
    2700:	0000004c 	andeq	r0, r0, ip, asr #32
    2704:	12e81301 	rscne	r1, r8, #67108864	; 0x4000000
    2708:	4c010000 	stcmi	0, cr0, [r1], {0}
    270c:	00004c01 	andeq	r4, r0, r1, lsl #24
    2710:	01140100 	tsteq	r4, r0, lsl #2
    2714:	000006a2 	andeq	r0, r0, r2, lsr #13
    2718:	4c016901 	stcmi	9, cr6, [r1], {1}
    271c:	20000000 	andcs	r0, r0, r0
    2720:	70000007 	andvc	r0, r0, r7
    2724:	01000007 	tsteq	r0, r7
    2728:	001f785d 	andseq	r7, pc, sp, asr r8
    272c:	04be1500 	ldrteq	r1, [lr], #1280	; 0x500
    2730:	69010000 	stmdbvs	r1, {}
    2734:	00000057 	andeq	r0, r0, r7, asr r0
    2738:	0000003d 	andeq	r0, r0, sp, lsr r0
    273c:	10631600 	rsbne	r1, r3, r0, lsl #12
    2740:	a2010000 	andge	r0, r1, #0
    2744:	00005701 	andeq	r5, r0, r1, lsl #14
    2748:	00077000 	andeq	r7, r7, r0
    274c:	00080800 	andeq	r0, r8, r0, lsl #16
    2750:	af5d0100 	svcge	0x005d0100
    2754:	1700001f 	smladne	r0, pc, r0, r0
    2758:	0000097c 	andeq	r0, r0, ip, ror r9
    275c:	0069a401 	rsbeq	sl, r9, r1, lsl #8
    2760:	00500000 	subseq	r0, r0, r0
    2764:	f6180000 	undefined instruction 0xf6180000
    2768:	01000010 	tsteq	r0, r0, lsl r0
    276c:	000069a5 	andeq	r6, r0, r5, lsr #19
    2770:	00520100 	subseq	r0, r2, r0, lsl #2
    2774:	0a380119 	beq	e02be0 <__bss_end+0xdfe900>
    2778:	ce010000 	cdpgt	0, 0, cr0, cr1, cr0, {0}
    277c:	00080801 	andeq	r0, r8, r1, lsl #16
    2780:	00086400 	andeq	r6, r8, r0, lsl #8
    2784:	1a5d0100 	bne	1742b8c <__bss_end+0x173e8ac>
    2788:	000ccf01 	andeq	ip, ip, r1, lsl #30
    278c:	01f20100 	mvnseq	r0, r0, lsl #2
    2790:	0000004c 	andeq	r0, r0, ip, asr #32
    2794:	00000864 	andeq	r0, r0, r4, ror #16
    2798:	00000b3c 	andeq	r0, r0, ip, lsr fp
    279c:	00000063 	andeq	r0, r0, r3, rrx
    27a0:	00002070 	andeq	r2, r0, r0, ror r0
    27a4:	00706f1b 	rsbseq	r6, r0, fp, lsl pc
    27a8:	1f1af201 	svcne	0x001af201
    27ac:	00820000 	addeq	r0, r2, r0
    27b0:	28150000 	ldmdacs	r5, {}
    27b4:	0100000c 	tsteq	r0, ip
    27b8:	00002cf2 	strdeq	r2, [r0], -r2
    27bc:	0000ab00 	andeq	sl, r0, r0, lsl #22
    27c0:	057c1500 	ldrbeq	r1, [ip, #-1280]!	; 0x500
    27c4:	f2010000 	vhadd.s8	d0, d1, d0
    27c8:	0000002c 	andeq	r0, r0, ip, lsr #32
    27cc:	000000c9 	andeq	r0, r0, r9, asr #1
    27d0:	0014d015 	andseq	sp, r4, r5, lsl r0
    27d4:	70f20100 	rscsvc	r0, r2, r0, lsl #2
    27d8:	e7000020 	str	r0, [r0, -r0, lsr #32]
    27dc:	1c000000 	stcne	0, cr0, [r0], {0}
    27e0:	00000888 	andeq	r0, r0, r8, lsl #17
    27e4:	0037f401 	eorseq	pc, r7, r1, lsl #8
    27e8:	f6170000 	undefined instruction 0xf6170000
    27ec:	01000010 	tsteq	r0, r0, lsl r0
    27f0:	000069f5 	strdeq	r6, [r0], -r5
    27f4:	00011000 	andeq	r1, r1, r0
    27f8:	65721d00 	ldrbvs	r1, [r2, #-3328]!	; 0xd00
    27fc:	f6010074 	undefined instruction 0xf6010074
    2800:	00000057 	andeq	r0, r0, r7, asr r0
    2804:	00000186 	andeq	r0, r0, r6, lsl #3
    2808:	0005731e 	andeq	r7, r5, lr, lsl r3
    280c:	01740100 	cmneq	r4, r0, lsl #2
    2810:	00000a78 	andeq	r0, r0, r8, ror sl
    2814:	001f331f 	andseq	r3, pc, pc, lsl r3
    2818:	000a7800 	andeq	r7, sl, r0, lsl #16
    281c:	000ac800 	andeq	ip, sl, r0, lsl #16
    2820:	01780100 	cmneq	r8, r0, lsl #2
    2824:	001f331f 	andseq	r3, pc, pc, lsl r3
    2828:	000ac800 	andeq	ip, sl, r0, lsl #16
    282c:	000b1400 	andeq	r1, fp, r0, lsl #8
    2830:	017b0100 	cmneq	fp, r0, lsl #2
    2834:	2c042000 	stccs	0, cr2, [r4], {0}
    2838:	21000000 	tstcs	r0, r0
    283c:	000fde01 	andeq	sp, pc, r1, lsl #28
    2840:	01940100 	orrseq	r0, r4, r0, lsl #2
    2844:	00004c01 	andeq	r4, r0, r1, lsl #24
    2848:	000b3c00 	andeq	r3, fp, r0, lsl #24
    284c:	000e5c00 	andeq	r5, lr, r0, lsl #24
    2850:	0001a400 	andeq	sl, r1, r0, lsl #8
    2854:	00212c00 	eoreq	r2, r1, r0, lsl #24
    2858:	706f2200 	rsbvc	r2, pc, r0, lsl #4
    285c:	01940100 	orrseq	r0, r4, r0, lsl #2
    2860:	00001f1a 	andeq	r1, r0, sl, lsl pc
    2864:	000001c3 	andeq	r0, r0, r3, asr #3
    2868:	000c2823 	andeq	r2, ip, r3, lsr #16
    286c:	01940100 	orrseq	r0, r4, r0, lsl #2
    2870:	0000002c 	andeq	r0, r0, ip, lsr #32
    2874:	000001ec 	andeq	r0, r0, ip, ror #3
    2878:	00057c23 	andeq	r7, r5, r3, lsr #24
    287c:	01940100 	orrseq	r0, r4, r0, lsl #2
    2880:	0000002c 	andeq	r0, r0, ip, lsr #32
    2884:	0000020a 	andeq	r0, r0, sl, lsl #4
    2888:	0014d023 	andseq	sp, r4, r3, lsr #32
    288c:	01940100 	orrseq	r0, r4, r0, lsl #2
    2890:	00002070 	andeq	r2, r0, r0, ror r0
    2894:	00000228 	andeq	r0, r0, r8, lsr #4
    2898:	00088824 	andeq	r8, r8, r4, lsr #16
    289c:	01960100 	orrseq	r0, r6, r0, lsl #2
    28a0:	00000037 	andeq	r0, r0, r7, lsr r0
    28a4:	0010f625 	andseq	pc, r0, r5, lsr #12
    28a8:	01970100 	orrseq	r0, r7, r0, lsl #2
    28ac:	00000069 	andeq	r0, r0, r9, rrx
    28b0:	00000251 	andeq	r0, r0, r1, asr r2
    28b4:	74657226 	strbtvc	r7, [r5], #-550	; 0x226
    28b8:	01980100 	orrseq	r0, r8, r0, lsl #2
    28bc:	00000057 	andeq	r0, r0, r7, asr r0
    28c0:	000002c7 	andeq	r0, r0, r7, asr #5
    28c4:	0005731e 	andeq	r7, r5, lr, lsl r3
    28c8:	02170100 	andseq	r0, r7, #0
    28cc:	00000d8c 	andeq	r0, r0, ip, lsl #27
    28d0:	001f401f 	andseq	r4, pc, pc, lsl r0
    28d4:	000d8c00 	andeq	r8, sp, r0, lsl #24
    28d8:	000de400 	andeq	lr, sp, r0, lsl #8
    28dc:	021b0100 	andseq	r0, fp, #0
    28e0:	001f401f 	andseq	r4, pc, pc, lsl r0
    28e4:	000de400 	andeq	lr, sp, r0, lsl #8
    28e8:	000e3800 	andeq	r3, lr, r0, lsl #16
    28ec:	021e0100 	andseq	r0, lr, #0
    28f0:	e1012700 	tst	r1, r0, lsl #14
    28f4:	01000010 	tsteq	r0, r0, lsl r0
    28f8:	004c0185 	subeq	r0, ip, r5, lsl #3
    28fc:	0e5c0000 	cdpeq	0, 5, cr0, cr12, cr0, {0}
    2900:	0eac0000 	cdpeq	0, 10, cr0, cr12, cr0, {0}
    2904:	02e50000 	rsceq	r0, r5, #0
    2908:	550e0000 	strpl	r0, [lr]
    290c:	55000021 	strpl	r0, [r0, #-33]	; 0x21
    2910:	0f000021 	svceq	0x00000021
    2914:	0000007e 	andeq	r0, r0, lr, ror r0
    2918:	04200002 	strteq	r0, [r0], #-2
    291c:	00001f0f 	andeq	r1, r0, pc, lsl #30
    2920:	000eb818 	andeq	fp, lr, r8, lsl r8
    2924:	6c160100 	ldfvss	f0, [r6], {0}
    2928:	05000021 	streq	r0, [r0, #-33]	; 0x21
    292c:	003e8803 	eorseq	r8, lr, r3, lsl #16
    2930:	21452800 	cmpcs	r5, r0, lsl #16
    2934:	d5180000 	ldrle	r0, [r8]
    2938:	01000009 	tsteq	r0, r9
    293c:	00005e1c 	andeq	r5, r0, ip, lsl lr
    2940:	90030500 	andls	r0, r3, r0, lsl #10
    2944:	18000042 	stmdane	r0, {r1, r6}
    2948:	00001282 	andeq	r1, r0, r2, lsl #5
    294c:	005e1d01 	subseq	r1, lr, r1, lsl #26
    2950:	03050000 	movweq	r0, #20480	; 0x5000
    2954:	00004294 	muleq	r0, r4, r2
    2958:	00089218 	andeq	r9, r8, r8, lsl r2
    295c:	551e0100 	ldrpl	r0, [lr, #-256]	; 0x100
    2960:	05000021 	streq	r0, [r0, #-33]	; 0x21
    2964:	00428c03 	subeq	r8, r2, r3, lsl #24
    2968:	10711800 	rsbsne	r1, r1, r0, lsl #16
    296c:	1f010000 	svcne	0x00010000
    2970:	000021b5 	undefined instruction 0x000021b5
    2974:	42980305 	addsmi	r0, r8, #335544320	; 0x14000000
    2978:	04200000 	strteq	r0, [r0]
    297c:	00001e73 	andeq	r1, r0, r3, ror lr
    2980:	00007300 	andeq	r7, r0, r0, lsl #6
    2984:	48000200 	stmdami	r0, {r9}
    2988:	04000004 	streq	r0, [r0], #-4
    298c:	00044c01 	andeq	r4, r4, r1, lsl #24
    2990:	000eac00 	andeq	sl, lr, r0, lsl #24
    2994:	000ed400 	andeq	sp, lr, r0, lsl #8
    2998:	732f2e00 	teqvc	pc, #0
    299c:	72657075 	rsbvc	r7, r5, #117	; 0x75
    29a0:	7075732f 	rsbsvc	r7, r5, pc, lsr #6
    29a4:	645f7265 	ldrbvs	r7, [pc], #613	; 29ac <mctl_setup_dram_clock+0x7c>
    29a8:	79616c65 	stmdbvc	r1!, {r0, r2, r5, r6, sl, fp, sp, lr}^
    29ac:	2f00532e 	svccs	0x0000532e
    29b0:	656d6f68 	strbvs	r6, [sp, #-3944]!	; 0xf68
    29b4:	6b696d2f 	blvs	1a5de78 <__bss_end+0x1a59b98>
    29b8:	6f772f65 	svcvs	0x00772f65
    29bc:	6c2f6b72 	stcvs	11, cr6, [pc], #-456	; 0xfffffe38
    29c0:	78756e69 	ldmdavc	r5!, {r0, r3, r5, r6, r9, sl, fp, sp, lr}^
    29c4:	3432365f 	ldrtcc	r3, [r2], #-1631	; 0x65f
    29c8:	6372612f 	cmnvs	r2, #-1073741813	; 0xc000000b
    29cc:	72612f68 	rsbvc	r2, r1, #416	; 0x1a0
    29d0:	616d2f6d 	cmnvs	sp, sp, ror #30
    29d4:	732d6863 	teqvc	sp, #6488064	; 0x630000
    29d8:	69356e75 	ldmdbvs	r5!, {r0, r2, r4, r5, r6, r9, sl, fp, sp, lr}
    29dc:	2f6d702f 	svccs	0x006d702f
    29e0:	6e617473 	mcrvs	4, 3, r7, cr1, cr3, {3}
    29e4:	00796264 	rsbseq	r6, r9, r4, ror #4
    29e8:	20554e47 	subscs	r4, r5, r7, asr #28
    29ec:	32205341 	eorcc	r5, r0, #67108865	; 0x4000001
    29f0:	2e30322e 	cdpcs	2, 3, cr3, cr0, cr14, {1}
    29f4:	80010031 	andhi	r0, r1, r1, lsr r0
    29f8:	0000207c 	andeq	r2, r0, ip, ror r0
    29fc:	045c0002 	ldrbeq	r0, [ip], #-2
    2a00:	01040000 	tsteq	r4, r0
    2a04:	00000055 	andeq	r0, r0, r5, asr r0
    2a08:	00138401 	andseq	r8, r3, r1, lsl #8
    2a0c:	00029700 	andeq	r9, r2, r0, lsl #14
    2a10:	000ed400 	andeq	sp, lr, r0, lsl #8
    2a14:	00114800 	andseq	r4, r1, r0, lsl #16
    2a18:	00049a00 	andeq	r9, r4, r0, lsl #20
    2a1c:	06010200 	streq	r0, [r1], -r0, lsl #4
    2a20:	000001a8 	andeq	r0, r0, r8, lsr #3
    2a24:	00030503 	andeq	r0, r3, r3, lsl #10
    2a28:	370f0200 	strcc	r0, [pc, -r0, lsl #4]
    2a2c:	02000000 	andeq	r0, r0, #0
    2a30:	01a60801 	undefined instruction 0x01a60801
    2a34:	02020000 	andeq	r0, r2, #0
    2a38:	00006105 	andeq	r6, r0, r5, lsl #2
    2a3c:	07020200 	streq	r0, [r2, -r0, lsl #4]
    2a40:	000002ed 	andeq	r0, r0, sp, ror #5
    2a44:	0001e403 	andeq	lr, r1, r3, lsl #8
    2a48:	57120200 	ldrpl	r0, [r2, -r0, lsl #4]
    2a4c:	04000000 	streq	r0, [r0]
    2a50:	6e690504 	cdpvs	5, 6, cr0, cr9, cr4, {0}
    2a54:	16030074 	undefined instruction 0x16030074
    2a58:	02000001 	andeq	r0, r0, #1
    2a5c:	00006913 	andeq	r6, r0, r3, lsl r9
    2a60:	07040200 	streq	r0, [r4, -r0, lsl #4]
    2a64:	0000022a 	andeq	r0, r0, sl, lsr #4
    2a68:	2a050802 	bcs	144a78 <__bss_end+0x140798>
    2a6c:	02000001 	andeq	r0, r0, #1
    2a70:	02200708 	eoreq	r0, r0, #2097152	; 0x200000
    2a74:	97050000 	strls	r0, [r5, -r0]
    2a78:	04000000 	streq	r0, [r0]
    2a7c:	00e01103 	rsceq	r1, r0, r3, lsl #2
    2a80:	1e060000 	cdpne	0, 0, cr0, cr6, cr0, {0}
    2a84:	03000000 	movweq	r0, #0
    2a88:	00005e12 	andeq	r5, r0, r2, lsl lr
    2a8c:	1c040400 	cfstrsne	mvf0, [r4], {0}
    2a90:	06002302 	streq	r2, [r0], -r2, lsl #6
    2a94:	000000ca 	andeq	r0, r0, sl, asr #1
    2a98:	005e1303 	subseq	r1, lr, r3, lsl #6
    2a9c:	04040000 	streq	r0, [r4]
    2aa0:	00230218 	eoreq	r0, r3, r8, lsl r2
    2aa4:	00014806 	andeq	r4, r1, r6, lsl #16
    2aa8:	5e140300 	cdppl	3, 1, cr0, cr4, cr0, {0}
    2aac:	04000000 	streq	r0, [r0]
    2ab0:	23021404 	movwcs	r1, #9220	; 0x2404
    2ab4:	01220600 	teqeq	r2, r0, lsl #12
    2ab8:	15030000 	strne	r0, [r3]
    2abc:	0000005e 	andeq	r0, r0, lr, asr r0
    2ac0:	02100404 	andseq	r0, r0, #67108864	; 0x4000000
    2ac4:	50060023 	andpl	r0, r6, r3, lsr #32
    2ac8:	03000001 	movweq	r0, #1
    2acc:	00005e16 	andeq	r5, r0, r6, lsl lr
    2ad0:	00100400 	andseq	r0, r0, r0, lsl #8
    2ad4:	00002302 	andeq	r2, r0, r2, lsl #6
    2ad8:	0000b805 	andeq	fp, r0, r5, lsl #16
    2adc:	18030800 	stmdane	r3, {fp}
    2ae0:	00000133 	andeq	r0, r0, r3, lsr r1
    2ae4:	00000807 	andeq	r0, r0, r7, lsl #16
    2ae8:	2c190300 	ldccs	3, cr0, [r9], {0}
    2aec:	02000000 	andeq	r0, r0, #0
    2af0:	be070023 	cdplt	0, 0, cr0, cr7, cr3, {1}
    2af4:	03000003 	movweq	r0, #3
    2af8:	00002c1a 	andeq	r2, r0, sl, lsl ip
    2afc:	01230200 	teqeq	r3, r0, lsl #4
    2b00:	00000007 	andeq	r0, r0, r7
    2b04:	2c1b0300 	ldccs	3, cr0, [fp], {0}
    2b08:	02000000 	andeq	r0, r0, #0
    2b0c:	10070223 	andne	r0, r7, r3, lsr #4
    2b10:	03000000 	movweq	r0, #0
    2b14:	00002c1c 	andeq	r2, r0, ip, lsl ip
    2b18:	03230200 	teqeq	r3, #0
    2b1c:	6c6c5008 	stclvs	0, cr5, [ip], #-32	; 0xffffffe0
    2b20:	5e1d0300 	cdppl	3, 1, cr0, cr13, cr0, {0}
    2b24:	02000000 	andeq	r0, r0, #0
    2b28:	09000423 	stmdbeq	r0, {r0, r1, r5, sl}
    2b2c:	5d050704 	stcpl	7, cr0, [r5, #-16]
    2b30:	0400000c 	streq	r0, [r0], #-12
    2b34:	02311704 	eorseq	r1, r1, #1048576	; 0x100000
    2b38:	00060000 	andeq	r0, r6, r0
    2b3c:	04000000 	streq	r0, [r0]
    2b40:	00005e18 	andeq	r5, r0, r8, lsl lr
    2b44:	1e020400 	cfcpysne	mvf0, mvf2
    2b48:	06002302 	streq	r2, [r0], -r2, lsl #6
    2b4c:	00000ad9 	ldrdeq	r0, [r0], -r9
    2b50:	005e1904 	subseq	r1, lr, r4, lsl #18
    2b54:	01040000 	tsteq	r4, r0
    2b58:	0023021d 	eoreq	r0, r3, sp, lsl r2
    2b5c:	000e4c06 	andeq	r4, lr, r6, lsl #24
    2b60:	5e1a0400 	cfmulspl	mvf0, mvf10, mvf0
    2b64:	04000000 	streq	r0, [r0]
    2b68:	23021c01 	movwcs	r1, #11265	; 0x2c01
    2b6c:	03be0600 	undefined instruction 0x03be0600
    2b70:	1b040000 	blne	102b78 <__bss_end+0xfe898>
    2b74:	0000005e 	andeq	r0, r0, lr, asr r0
    2b78:	021a0204 	andseq	r0, sl, #1073741824	; 0x40000000
    2b7c:	20060023 	andcs	r0, r6, r3, lsr #32
    2b80:	0400000f 	streq	r0, [r0], #-15
    2b84:	00005e1c 	andeq	r5, r0, ip, lsl lr
    2b88:	18020400 	stmdane	r2, {sl}
    2b8c:	06002302 	streq	r2, [r0], -r2, lsl #6
    2b90:	00000008 	andeq	r0, r0, r8
    2b94:	005e1d04 	subseq	r1, lr, r4, lsl #26
    2b98:	05040000 	streq	r0, [r4]
    2b9c:	00230213 	eoreq	r0, r3, r3, lsl r2
    2ba0:	0011ec06 	andseq	lr, r1, r6, lsl #24
    2ba4:	5e1e0400 	cfmulspl	mvf0, mvf14, mvf0
    2ba8:	04000000 	streq	r0, [r0]
    2bac:	23021003 	movwcs	r1, #8195	; 0x2003
    2bb0:	08600600 	stmdaeq	r0!, {r9, sl}^
    2bb4:	1f040000 	svcne	0x00040000
    2bb8:	0000005e 	andeq	r0, r0, lr, asr r0
    2bbc:	020e0204 	andeq	r0, lr, #1073741824	; 0x40000000
    2bc0:	2a060023 	bcs	182c54 <__bss_end+0x17e974>
    2bc4:	0400000f 	streq	r0, [r0], #-15
    2bc8:	00005e20 	andeq	r5, r0, r0, lsr #28
    2bcc:	0c020400 	cfstrseq	mvf0, [r2], {0}
    2bd0:	06002302 	streq	r2, [r0], -r2, lsl #6
    2bd4:	00001037 	andeq	r1, r0, r7, lsr r0
    2bd8:	005e2104 	subseq	r2, lr, r4, lsl #2
    2bdc:	05040000 	streq	r0, [r4]
    2be0:	00230207 	eoreq	r0, r3, r7, lsl #4
    2be4:	000f3406 	andeq	r3, pc, r6, lsl #8
    2be8:	5e220400 	cdppl	4, 2, cr0, cr2, cr0, {0}
    2bec:	04000000 	streq	r0, [r0]
    2bf0:	23020601 	movwcs	r0, #9729	; 0x2601
    2bf4:	0e9c0600 	cdpeq	6, 9, cr0, cr12, cr0, {0}
    2bf8:	23040000 	movwcs	r0, #16384	; 0x4000
    2bfc:	0000005e 	andeq	r0, r0, lr, asr r0
    2c00:	02020404 	andeq	r0, r2, #67108864	; 0x4000000
    2c04:	c7060023 	strgt	r0, [r6, -r3, lsr #32]
    2c08:	0400000b 	streq	r0, [r0], #-11
    2c0c:	00005e24 	andeq	r5, r0, r4, lsr #28
    2c10:	01010400 	tsteq	r1, r0, lsl #8
    2c14:	06002302 	streq	r2, [r0], -r2, lsl #6
    2c18:	00000fbe 	undefined instruction 0x00000fbe
    2c1c:	005e2504 	subseq	r2, lr, r4, lsl #10
    2c20:	01040000 	tsteq	r4, r0
    2c24:	00230200 	eoreq	r0, r3, r0, lsl #4
    2c28:	09fe0300 	ldmibeq	lr!, {r8, r9}^
    2c2c:	27040000 	strcs	r0, [r4, -r0]
    2c30:	00000136 	andeq	r0, r0, r6, lsr r1
    2c34:	00112905 	andseq	r2, r1, r5, lsl #18
    2c38:	2a040400 	bcs	103c40 <__bss_end+0xff960>
    2c3c:	000002af 	andeq	r0, r0, pc, lsr #5
    2c40:	000f2006 	andeq	r2, pc, r6
    2c44:	5e2b0400 	cdppl	4, 2, cr0, cr11, cr0, {0}
    2c48:	04000000 	streq	r0, [r0]
    2c4c:	23021010 	movwcs	r1, #8208	; 0x2010
    2c50:	10240600 	eorne	r0, r4, r0, lsl #12
    2c54:	2c040000 	stccs	0, cr0, [r4], {0}
    2c58:	0000005e 	andeq	r0, r0, lr, asr r0
    2c5c:	02090704 	andeq	r0, r9, #1048576	; 0x100000
    2c60:	b3060023 	movwlt	r0, #24611	; 0x6023
    2c64:	04000004 	streq	r0, [r0], #-4
    2c68:	00005e2d 	andeq	r5, r0, sp, lsr #28
    2c6c:	06030400 	streq	r0, [r3], -r0, lsl #8
    2c70:	06002302 	streq	r2, [r0], -r2, lsl #6
    2c74:	00001266 	andeq	r1, r0, r6, ror #4
    2c78:	005e2e04 	subseq	r2, lr, r4, lsl #28
    2c7c:	01040000 	tsteq	r4, r0
    2c80:	00230205 	eoreq	r0, r3, r5, lsl #4
    2c84:	00061106 	andeq	r1, r6, r6, lsl #2
    2c88:	5e2f0400 	cdppl	4, 2, cr0, cr15, cr0, {0}
    2c8c:	04000000 	streq	r0, [r0]
    2c90:	23020401 	movwcs	r0, #9217	; 0x2401
    2c94:	09a90600 	stmibeq	r9!, {r9, sl}
    2c98:	30040000 	andcc	r0, r4, r0
    2c9c:	0000005e 	andeq	r0, r0, lr, asr r0
    2ca0:	02000404 	andeq	r0, r0, #67108864	; 0x4000000
    2ca4:	03000023 	movweq	r0, #35	; 0x23
    2ca8:	000004e8 	andeq	r0, r0, r8, ror #9
    2cac:	023c3104 	eorseq	r3, ip, #1
    2cb0:	0a050000 	beq	142cb8 <__bss_end+0x13e9d8>
    2cb4:	0400000c 	streq	r0, [r0], #-12
    2cb8:	03603504 	cmneq	r0, #16777216	; 0x1000000
    2cbc:	1d060000 	stcne	0, cr0, [r6]
    2cc0:	04000012 	streq	r0, [r0], #-18
    2cc4:	00005e36 	andeq	r5, r0, r6, lsr lr
    2cc8:	1b050400 	blne	143cd0 <__bss_end+0x13f9f0>
    2ccc:	06002302 	streq	r2, [r0], -r2, lsl #6
    2cd0:	00000f20 	andeq	r0, r0, r0, lsr #30
    2cd4:	005e3704 	subseq	r3, lr, r4, lsl #14
    2cd8:	03040000 	movweq	r0, #16384	; 0x4000
    2cdc:	00230218 	eoreq	r0, r3, r8, lsl r2
    2ce0:	00000806 	andeq	r0, r0, r6, lsl #16
    2ce4:	5e380400 	cfabsspl	mvf0, mvf8
    2ce8:	04000000 	streq	r0, [r0]
    2cec:	23021107 	movwcs	r1, #8455	; 0x2107
    2cf0:	0f2a0600 	svceq	0x002a0600
    2cf4:	39040000 	stmdbcc	r4, {}
    2cf8:	0000005e 	andeq	r0, r0, lr, asr r0
    2cfc:	02100104 	andseq	r0, r0, #1
    2d00:	37060023 	strcc	r0, [r6, -r3, lsr #32]
    2d04:	04000010 	streq	r0, [r0], #-16
    2d08:	00005e3a 	andeq	r5, r0, sl, lsr lr
    2d0c:	0b050400 	bleq	143d14 <__bss_end+0x13fa34>
    2d10:	06002302 	streq	r2, [r0], -r2, lsl #6
    2d14:	00001215 	andeq	r1, r0, r5, lsl r2
    2d18:	005e3b04 	subseq	r3, lr, r4, lsl #22
    2d1c:	05040000 	streq	r0, [r4]
    2d20:	00230206 	eoreq	r0, r3, r6, lsl #4
    2d24:	00054e06 	andeq	r4, r5, r6, lsl #28
    2d28:	5e3c0400 	cfabsspl	mvf0, mvf12
    2d2c:	04000000 	streq	r0, [r0]
    2d30:	23020204 	movwcs	r0, #8708	; 0x2204
    2d34:	0f340600 	svceq	0x00340600
    2d38:	3d040000 	stccc	0, cr0, [r4]
    2d3c:	0000005e 	andeq	r0, r0, lr, asr r0
    2d40:	02010104 	andeq	r0, r1, #1
    2d44:	be060023 	cdplt	0, 0, cr0, cr6, cr3, {1}
    2d48:	0400000f 	streq	r0, [r0], #-15
    2d4c:	00005e3e 	andeq	r5, r0, lr, lsr lr
    2d50:	00010400 	andeq	r0, r1, r0, lsl #8
    2d54:	00002302 	andeq	r2, r0, r2, lsl #6
    2d58:	00082403 	andeq	r2, r8, r3, lsl #8
    2d5c:	ba3f0400 	blt	fc3d64 <__bss_end+0xfbfa84>
    2d60:	05000002 	streq	r0, [r0, #-2]
    2d64:	00000498 	muleq	r0, r8, r4
    2d68:	de430404 	cdple	4, 4, cr0, cr3, cr4, {0}
    2d6c:	06000003 	streq	r0, [r0], -r3
    2d70:	00000afa 	strdeq	r0, [r0], -sl
    2d74:	005e4404 	subseq	r4, lr, r4, lsl #8
    2d78:	11040000 	tstne	r4, r0
    2d7c:	0023020f 	eoreq	r0, r3, pc, lsl #4
    2d80:	00128f06 	andseq	r8, r2, r6, lsl #30
    2d84:	5e450400 	cdppl	4, 4, cr0, cr5, cr0, {0}
    2d88:	04000000 	streq	r0, [r0]
    2d8c:	23020d02 	movwcs	r0, #11522	; 0x2d02
    2d90:	0f200600 	svceq	0x00200600
    2d94:	46040000 	strmi	r0, [r4], -r0
    2d98:	0000005e 	andeq	r0, r0, lr, asr r0
    2d9c:	020c0104 	andeq	r0, ip, #1
    2da0:	00060023 	andeq	r0, r6, r3, lsr #32
    2da4:	04000004 	streq	r0, [r0], #-4
    2da8:	00005e47 	andeq	r5, r0, r7, asr #28
    2dac:	03090400 	movweq	r0, #37888	; 0x9400
    2db0:	06002302 	streq	r2, [r0], -r2, lsl #6
    2db4:	00000857 	andeq	r0, r0, r7, asr r8
    2db8:	005e4804 	subseq	r4, lr, r4, lsl #16
    2dbc:	02040000 	andeq	r0, r4, #0
    2dc0:	00230201 	eoreq	r0, r3, r1, lsl #4
    2dc4:	000ad906 	andeq	sp, sl, r6, lsl #18
    2dc8:	5e490400 	cdppl	4, 4, cr0, cr9, cr0, {0}
    2dcc:	04000000 	streq	r0, [r0]
    2dd0:	23020001 	movwcs	r0, #8193	; 0x2001
    2dd4:	2f030000 	svccs	0x00030000
    2dd8:	0400000e 	streq	r0, [r0], #-14
    2ddc:	00036b4b 	andeq	r6, r3, fp, asr #22
    2de0:	0e5d0500 	cdpeq	5, 5, cr0, cr13, cr0, {0}
    2de4:	04040000 	streq	r0, [r4]
    2de8:	0004b14f 	andeq	fp, r4, pc, asr #2
    2dec:	00000600 	andeq	r0, r0, r0, lsl #12
    2df0:	50040000 	andpl	r0, r4, r0
    2df4:	0000005e 	andeq	r0, r0, lr, asr r0
    2df8:	02190704 	andseq	r0, r9, #1048576	; 0x100000
    2dfc:	20060023 	andcs	r0, r6, r3, lsr #32
    2e00:	0400000f 	streq	r0, [r0], #-15
    2e04:	00005e51 	andeq	r5, r0, r1, asr lr
    2e08:	18010400 	stmdane	r1, {sl}
    2e0c:	06002302 	streq	r2, [r0], -r2, lsl #6
    2e10:	00001037 	andeq	r1, r0, r7, lsr r0
    2e14:	005e5204 	subseq	r5, lr, r4, lsl #4
    2e18:	05040000 	streq	r0, [r4]
    2e1c:	00230213 	eoreq	r0, r3, r3, lsl r2
    2e20:	000f2a06 	andeq	r2, pc, r6, lsl #20
    2e24:	5e530400 	cdppl	4, 5, cr0, cr3, cr0, {0}
    2e28:	04000000 	streq	r0, [r0]
    2e2c:	23021201 	movwcs	r1, #8705	; 0x2201
    2e30:	0b8e0600 	bleq	fe384638 <__bss_end+0xfe380358>
    2e34:	54040000 	strpl	r0, [r4]
    2e38:	0000005e 	andeq	r0, r0, lr, asr r0
    2e3c:	02110104 	andseq	r0, r1, #1
    2e40:	59060023 	stmdbpl	r6, {r0, r1, r5}
    2e44:	0400000d 	streq	r0, [r0], #-13
    2e48:	00005e55 	andeq	r5, r0, r5, asr lr
    2e4c:	10010400 	andne	r0, r1, r0, lsl #8
    2e50:	06002302 	streq	r2, [r0], -r2, lsl #6
    2e54:	00000e9c 	muleq	r0, ip, lr
    2e58:	005e5604 	subseq	r5, lr, r4, lsl #12
    2e5c:	05040000 	streq	r0, [r4]
    2e60:	0023020b 	eoreq	r0, r3, fp, lsl #4
    2e64:	000f3406 	andeq	r3, pc, r6, lsl #8
    2e68:	5e570400 	cdppl	4, 5, cr0, cr7, cr0, {0}
    2e6c:	04000000 	streq	r0, [r0]
    2e70:	23020803 	movwcs	r0, #10243	; 0x2803
    2e74:	09a90600 	stmibeq	r9!, {r9, sl}
    2e78:	58040000 	stmdapl	r4, {}
    2e7c:	0000005e 	andeq	r0, r0, lr, asr r0
    2e80:	02050304 	andeq	r0, r5, #268435456	; 0x10000000
    2e84:	3e060023 	cdpcc	0, 0, cr0, cr6, cr3, {1}
    2e88:	0400000f 	streq	r0, [r0], #-15
    2e8c:	00005e59 	andeq	r5, r0, r9, asr lr
    2e90:	01040400 	tsteq	r4, r0, lsl #8
    2e94:	06002302 	streq	r2, [r0], -r2, lsl #6
    2e98:	00000fbe 	undefined instruction 0x00000fbe
    2e9c:	005e5a04 	subseq	r5, lr, r4, lsl #20
    2ea0:	01040000 	tsteq	r4, r0
    2ea4:	00230200 	eoreq	r0, r3, r0, lsl #4
    2ea8:	0ca90300 	stceq	3, cr0, [r9]
    2eac:	5b040000 	blpl	102eb4 <__bss_end+0xfebd4>
    2eb0:	000003e9 	andeq	r0, r0, r9, ror #7
    2eb4:	0006e305 	andeq	lr, r6, r5, lsl #6
    2eb8:	5f040400 	svcpl	0x00040400
    2ebc:	000005b7 	undefined instruction 0x000005b7
    2ec0:	00000006 	andeq	r0, r0, r6
    2ec4:	5e600400 	cdppl	4, 6, cr0, cr0, cr0, {0}
    2ec8:	04000000 	streq	r0, [r0]
    2ecc:	23021e02 	movwcs	r1, #11778	; 0x2e02
    2ed0:	0f200600 	svceq	0x00200600
    2ed4:	61040000 	tstvs	r4, r0
    2ed8:	0000005e 	andeq	r0, r0, lr, asr r0
    2edc:	021c0204 	andseq	r0, ip, #1073741824	; 0x40000000
    2ee0:	be060023 	cdplt	0, 0, cr0, cr6, cr3, {1}
    2ee4:	04000003 	streq	r0, [r0], #-3
    2ee8:	00005e62 	andeq	r5, r0, r2, ror #28
    2eec:	1a020400 	bne	83ef4 <__bss_end+0x7fc14>
    2ef0:	06002302 	streq	r2, [r0], -r2, lsl #6
    2ef4:	00000f2a 	andeq	r0, r0, sl, lsr #30
    2ef8:	005e6304 	subseq	r6, lr, r4, lsl #6
    2efc:	02040000 	andeq	r0, r4, #0
    2f00:	00230218 	eoreq	r0, r3, r8, lsl r2
    2f04:	00000806 	andeq	r0, r0, r6, lsl #16
    2f08:	5e640400 	cdppl	4, 6, cr0, cr4, cr0, {0}
    2f0c:	04000000 	streq	r0, [r0]
    2f10:	23021305 	movwcs	r1, #8965	; 0x2305
    2f14:	0f340600 	svceq	0x00340600
    2f18:	65040000 	strvs	r0, [r4]
    2f1c:	0000005e 	andeq	r0, r0, lr, asr r0
    2f20:	02120104 	andseq	r0, r2, #1
    2f24:	eb060023 	bl	182fb8 <__bss_end+0x17ecd8>
    2f28:	04000009 	streq	r0, [r0], #-9
    2f2c:	00005e66 	andeq	r5, r0, r6, ror #28
    2f30:	10020400 	andne	r0, r2, r0, lsl #8
    2f34:	06002302 	streq	r2, [r0], -r2, lsl #6
    2f38:	00000010 	andeq	r0, r0, r0, lsl r0
    2f3c:	005e6704 	subseq	r6, lr, r4, lsl #14
    2f40:	02040000 	andeq	r0, r4, #0
    2f44:	0023020e 	eoreq	r0, r3, lr, lsl #4
    2f48:	000f3e06 	andeq	r3, pc, r6, lsl #28
    2f4c:	5e680400 	cdppl	4, 6, cr0, cr8, cr0, {0}
    2f50:	04000000 	streq	r0, [r0]
    2f54:	23020d01 	movwcs	r0, #11521	; 0x2d01
    2f58:	12660600 	rsbne	r0, r6, #0
    2f5c:	69040000 	stmdbvs	r4, {}
    2f60:	0000005e 	andeq	r0, r0, lr, asr r0
    2f64:	020c0104 	andeq	r0, ip, #1
    2f68:	37060023 	strcc	r0, [r6, -r3, lsr #32]
    2f6c:	04000010 	streq	r0, [r0], #-16
    2f70:	00005e6a 	andeq	r5, r0, sl, ror #28
    2f74:	07050400 	streq	r0, [r5, -r0, lsl #8]
    2f78:	06002302 	streq	r2, [r0], -r2, lsl #6
    2f7c:	00000e9c 	muleq	r0, ip, lr
    2f80:	005e6b04 	subseq	r6, lr, r4, lsl #22
    2f84:	05040000 	streq	r0, [r4]
    2f88:	00230202 	eoreq	r0, r3, r2, lsl #4
    2f8c:	000b7906 	andeq	r7, fp, r6, lsl #18
    2f90:	5e6c0400 	cdppl	4, 6, cr0, cr12, cr0, {0}
    2f94:	04000000 	streq	r0, [r0]
    2f98:	23020101 	movwcs	r0, #8449	; 0x2101
    2f9c:	0fbe0600 	svceq	0x00be0600
    2fa0:	6d040000 	stcvs	0, cr0, [r4]
    2fa4:	0000005e 	andeq	r0, r0, lr, asr r0
    2fa8:	02000104 	andeq	r0, r0, #1
    2fac:	03000023 	movweq	r0, #35	; 0x23
    2fb0:	000012ba 	undefined instruction 0x000012ba
    2fb4:	04bc6e04 	ldrteq	r6, [ip], #3588	; 0xe04
    2fb8:	af050000 	svcge	0x00050000
    2fbc:	04000006 	streq	r0, [r0], #-6
    2fc0:	06ce7204 	strbeq	r7, [lr], r4, lsl #4
    2fc4:	00060000 	andeq	r0, r6, r0
    2fc8:	04000000 	streq	r0, [r0]
    2fcc:	00005e73 	andeq	r5, r0, r3, ror lr
    2fd0:	1e020400 	cfcpysne	mvf0, mvf2
    2fd4:	06002302 	streq	r2, [r0], -r2, lsl #6
    2fd8:	000010d8 	ldrdeq	r1, [r0], -r8
    2fdc:	005e7404 	subseq	r7, lr, r4, lsl #8
    2fe0:	02040000 	andeq	r0, r4, #0
    2fe4:	0023021c 	eoreq	r0, r3, ip, lsl r2
    2fe8:	0003be06 	andeq	fp, r3, r6, lsl #28
    2fec:	5e750400 	cdppl	4, 7, cr0, cr5, cr0, {0}
    2ff0:	04000000 	streq	r0, [r0]
    2ff4:	23021a02 	movwcs	r1, #10754	; 0x2a02
    2ff8:	0f200600 	svceq	0x00200600
    2ffc:	76040000 	strvc	r0, [r4], -r0
    3000:	0000005e 	andeq	r0, r0, lr, asr r0
    3004:	02190104 	andseq	r0, r9, #1
    3008:	d1060023 	tstle	r6, r3, lsr #32
    300c:	04000010 	streq	r0, [r0], #-16
    3010:	00005e77 	andeq	r5, r0, r7, ror lr
    3014:	18010400 	stmdane	r1, {sl}
    3018:	06002302 	streq	r2, [r0], -r2, lsl #6
    301c:	00000008 	andeq	r0, r0, r8
    3020:	005e7804 	subseq	r7, lr, r4, lsl #16
    3024:	05040000 	streq	r0, [r4]
    3028:	00230213 	eoreq	r0, r3, r3, lsl r2
    302c:	00126606 	andseq	r6, r2, r6, lsl #12
    3030:	5e790400 	cdppl	4, 7, cr0, cr9, cr0, {0}
    3034:	04000000 	streq	r0, [r0]
    3038:	23021003 	movwcs	r1, #8195	; 0x2003
    303c:	00100600 	andseq	r0, r0, r0, lsl #12
    3040:	7a040000 	bvc	103048 <__bss_end+0xfed68>
    3044:	0000005e 	andeq	r0, r0, lr, asr r0
    3048:	020e0204 	andeq	r0, lr, #1073741824	; 0x40000000
    304c:	11060023 	tstne	r6, r3, lsr #32
    3050:	04000006 	streq	r0, [r0], #-6
    3054:	00005e7b 	andeq	r5, r0, fp, ror lr
    3058:	0d010400 	cfstrseq	mvf0, [r1]
    305c:	06002302 	streq	r2, [r0], -r2, lsl #6
    3060:	00000582 	andeq	r0, r0, r2, lsl #11
    3064:	005e7c04 	subseq	r7, lr, r4, lsl #24
    3068:	01040000 	tsteq	r4, r0
    306c:	0023020c 	eoreq	r0, r3, ip, lsl #4
    3070:	00103706 	andseq	r3, r0, r6, lsl #14
    3074:	5e7d0400 	cdppl	4, 7, cr0, cr13, cr0, {0}
    3078:	04000000 	streq	r0, [r0]
    307c:	23020705 	movwcs	r0, #9989	; 0x2705
    3080:	0e9c0600 	cdpeq	6, 9, cr0, cr12, cr0, {0}
    3084:	7e040000 	cdpvc	0, 0, cr0, cr4, cr0, {0}
    3088:	0000005e 	andeq	r0, r0, lr, asr r0
    308c:	02030404 	andeq	r0, r3, #67108864	; 0x4000000
    3090:	54060023 	strpl	r0, [r6], #-35	; 0x23
    3094:	0400000e 	streq	r0, [r0], #-14
    3098:	00005e7f 	andeq	r5, r0, pc, ror lr
    309c:	02010400 	andeq	r0, r1, #0
    30a0:	06002302 	streq	r2, [r0], -r2, lsl #6
    30a4:	00000b79 	andeq	r0, r0, r9, ror fp
    30a8:	005e8004 	subseq	r8, lr, r4
    30ac:	01040000 	tsteq	r4, r0
    30b0:	00230201 	eoreq	r0, r3, r1, lsl #4
    30b4:	000fbe06 	andeq	fp, pc, r6, lsl #28
    30b8:	5e810400 	cdppl	4, 8, cr0, cr1, cr0, {0}
    30bc:	04000000 	streq	r0, [r0]
    30c0:	23020001 	movwcs	r0, #8193	; 0x2001
    30c4:	0a030000 	beq	c30cc <__bss_end+0xbedec>
    30c8:	04000008 	streq	r0, [r0], #-8
    30cc:	0005c282 	andeq	ip, r5, r2, lsl #5
    30d0:	124b0500 	subne	r0, fp, #0
    30d4:	04040000 	streq	r0, [r4]
    30d8:	00075d86 	andeq	r5, r7, r6, lsl #27
    30dc:	0f200600 	svceq	0x00200600
    30e0:	87040000 	strhi	r0, [r4, -r0]
    30e4:	0000005e 	andeq	r0, r0, lr, asr r0
    30e8:	02101004 	andseq	r1, r0, #4
    30ec:	24060023 	strcs	r0, [r6], #-35	; 0x23
    30f0:	04000010 	streq	r0, [r0], #-16
    30f4:	00005e88 	andeq	r5, r0, r8, lsl #29
    30f8:	09070400 	stmdbeq	r7, {sl}
    30fc:	06002302 	streq	r2, [r0], -r2, lsl #6
    3100:	00000bc7 	andeq	r0, r0, r7, asr #23
    3104:	005e8904 	subseq	r8, lr, r4, lsl #18
    3108:	01040000 	tsteq	r4, r0
    310c:	00230208 	eoreq	r0, r3, r8, lsl #4
    3110:	0011ec06 	andseq	lr, r1, r6, lsl #24
    3114:	5e8a0400 	cdppl	4, 8, cr0, cr10, cr0, {0}
    3118:	04000000 	streq	r0, [r0]
    311c:	23020503 	movwcs	r0, #9475	; 0x2503
    3120:	0f2a0600 	svceq	0x002a0600
    3124:	8b040000 	blhi	10312c <__bss_end+0xfee4c>
    3128:	0000005e 	andeq	r0, r0, lr, asr r0
    312c:	02040104 	andeq	r0, r4, #1
    3130:	82060023 	andhi	r0, r6, #35	; 0x23
    3134:	04000010 	streq	r0, [r0], #-16
    3138:	00005e8c 	andeq	r5, r0, ip, lsl #29
    313c:	03010400 	movweq	r0, #5120	; 0x1400
    3140:	06002302 	streq	r2, [r0], -r2, lsl #6
    3144:	000009a9 	andeq	r0, r0, r9, lsr #19
    3148:	005e8d04 	subseq	r8, lr, r4, lsl #26
    314c:	03040000 	movweq	r0, #16384	; 0x4000
    3150:	00230200 	eoreq	r0, r3, r0, lsl #4
    3154:	0c400300 	mcrreq	3, 0, r0, r0, cr0
    3158:	8e040000 	cdphi	0, 0, cr0, cr4, cr0, {0}
    315c:	000006d9 	ldrdeq	r0, [r0], -r9
    3160:	00074c05 	andeq	r4, r7, r5, lsl #24
    3164:	91040400 	tstls	r4, r0, lsl #8
    3168:	00000841 	andeq	r0, r0, r1, asr #16
    316c:	00000006 	andeq	r0, r0, r6
    3170:	5e920400 	cdppl	4, 9, cr0, cr2, cr0, {0}
    3174:	04000000 	streq	r0, [r0]
    3178:	23021e02 	movwcs	r1, #11778	; 0x2e02
    317c:	0f200600 	svceq	0x00200600
    3180:	93040000 	movwls	r0, #16384	; 0x4000
    3184:	0000005e 	andeq	r0, r0, lr, asr r0
    3188:	021c0204 	andseq	r0, ip, #1073741824	; 0x40000000
    318c:	be060023 	cdplt	0, 0, cr0, cr6, cr3, {1}
    3190:	04000003 	streq	r0, [r0], #-3
    3194:	00005e94 	muleq	r0, r4, lr
    3198:	1a020400 	bne	841a0 <__bss_end+0x7fec0>
    319c:	06002302 	streq	r2, [r0], -r2, lsl #6
    31a0:	000009a9 	andeq	r0, r0, r9, lsr #19
    31a4:	005e9504 	subseq	r9, lr, r4, lsl #10
    31a8:	02040000 	andeq	r0, r4, #0
    31ac:	00230218 	eoreq	r0, r3, r8, lsl r2
    31b0:	00000806 	andeq	r0, r0, r6, lsl #16
    31b4:	5e960400 	cdppl	4, 9, cr0, cr6, cr0, {0}
    31b8:	04000000 	streq	r0, [r0]
    31bc:	23021305 	movwcs	r1, #8965	; 0x2305
    31c0:	0f2a0600 	svceq	0x002a0600
    31c4:	97040000 	strls	r0, [r4, -r0]
    31c8:	0000005e 	andeq	r0, r0, lr, asr r0
    31cc:	02110204 	andseq	r0, r1, #1073741824	; 0x40000000
    31d0:	11060023 	tstne	r6, r3, lsr #32
    31d4:	04000006 	streq	r0, [r0], #-6
    31d8:	00005e98 	muleq	r0, r8, lr
    31dc:	10010400 	andne	r0, r1, r0, lsl #8
    31e0:	06002302 	streq	r2, [r0], -r2, lsl #6
    31e4:	00000f34 	andeq	r0, r0, r4, lsr pc
    31e8:	005e9904 	subseq	r9, lr, r4, lsl #18
    31ec:	04040000 	streq	r0, [r4]
    31f0:	0023020c 	eoreq	r0, r3, ip, lsl #4
    31f4:	00103706 	andseq	r3, r0, r6, lsl #14
    31f8:	5e9a0400 	cdppl	4, 9, cr0, cr10, cr0, {0}
    31fc:	04000000 	streq	r0, [r0]
    3200:	23020705 	movwcs	r0, #9989	; 0x2705
    3204:	0e9c0600 	cdpeq	6, 9, cr0, cr12, cr0, {0}
    3208:	9b040000 	blls	103210 <__bss_end+0xfef30>
    320c:	0000005e 	andeq	r0, r0, lr, asr r0
    3210:	02020504 	andeq	r0, r2, #16777216	; 0x1000000
    3214:	79060023 	stmdbvc	r6, {r0, r1, r5}
    3218:	0400000b 	streq	r0, [r0], #-11
    321c:	00005e9c 	muleq	r0, ip, lr
    3220:	01010400 	tsteq	r1, r0, lsl #8
    3224:	06002302 	streq	r2, [r0], -r2, lsl #6
    3228:	00000fbe 	undefined instruction 0x00000fbe
    322c:	005e9d04 	subseq	r9, lr, r4, lsl #26
    3230:	01040000 	tsteq	r4, r0
    3234:	00230200 	eoreq	r0, r3, r0, lsl #4
    3238:	05f60300 	ldrbeq	r0, [r6, #768]!	; 0x300
    323c:	9e040000 	cdpls	0, 0, cr0, cr4, cr0, {0}
    3240:	00000768 	andeq	r0, r0, r8, ror #14
    3244:	000d6105 	andeq	r6, sp, r5, lsl #2
    3248:	a2040400 	andge	r0, r4, #0
    324c:	00000914 	andeq	r0, r0, r4, lsl r9
    3250:	00000006 	andeq	r0, r0, r6
    3254:	5ea30400 	cdppl	4, 10, cr0, cr3, cr0, {0}
    3258:	04000000 	streq	r0, [r0]
    325c:	23021907 	movwcs	r1, #10503	; 0x2907
    3260:	0f200600 	svceq	0x00200600
    3264:	a4040000 	strge	r0, [r4]
    3268:	0000005e 	andeq	r0, r0, lr, asr r0
    326c:	02180104 	andseq	r0, r8, #1
    3270:	37060023 	strcc	r0, [r6, -r3, lsr #32]
    3274:	04000010 	streq	r0, [r0], #-16
    3278:	00005ea5 	andeq	r5, r0, r5, lsr #29
    327c:	13050400 	movwne	r0, #21504	; 0x5400
    3280:	06002302 	streq	r2, [r0], -r2, lsl #6
    3284:	00000f2a 	andeq	r0, r0, sl, lsr #30
    3288:	005ea604 	subseq	sl, lr, r4, lsl #12
    328c:	01040000 	tsteq	r4, r0
    3290:	00230212 	eoreq	r0, r3, r2, lsl r2
    3294:	000b8e06 	andeq	r8, fp, r6, lsl #28
    3298:	5ea70400 	cdppl	4, 10, cr0, cr7, cr0, {0}
    329c:	04000000 	streq	r0, [r0]
    32a0:	23021101 	movwcs	r1, #8449	; 0x2101
    32a4:	0d590600 	ldcleq	6, cr0, [r9]
    32a8:	a8040000 	stmdage	r4, {}
    32ac:	0000005e 	andeq	r0, r0, lr, asr r0
    32b0:	02100104 	andseq	r0, r0, #1
    32b4:	9c060023 	stcls	0, cr0, [r6], {35}	; 0x23
    32b8:	0400000e 	streq	r0, [r0], #-14
    32bc:	00005ea9 	andeq	r5, r0, r9, lsr #29
    32c0:	0b050400 	bleq	1442c8 <__bss_end+0x13ffe8>
    32c4:	06002302 	streq	r2, [r0], -r2, lsl #6
    32c8:	00000f34 	andeq	r0, r0, r4, lsr pc
    32cc:	005eaa04 	subseq	sl, lr, r4, lsl #20
    32d0:	03040000 	movweq	r0, #16384	; 0x4000
    32d4:	00230208 	eoreq	r0, r3, r8, lsl #4
    32d8:	0009a906 	andeq	sl, r9, r6, lsl #18
    32dc:	5eab0400 	cdppl	4, 10, cr0, cr11, cr0, {0}
    32e0:	04000000 	streq	r0, [r0]
    32e4:	23020503 	movwcs	r0, #9475	; 0x2503
    32e8:	0f3e0600 	svceq	0x003e0600
    32ec:	ac040000 	stcge	0, cr0, [r4], {0}
    32f0:	0000005e 	andeq	r0, r0, lr, asr r0
    32f4:	02010404 	andeq	r0, r1, #67108864	; 0x4000000
    32f8:	be060023 	cdplt	0, 0, cr0, cr6, cr3, {1}
    32fc:	0400000f 	streq	r0, [r0], #-15
    3300:	00005ead 	andeq	r5, r0, sp, lsr #29
    3304:	00010400 	andeq	r0, r1, r0, lsl #8
    3308:	00002302 	andeq	r2, r0, r2, lsl #6
    330c:	000d3303 	andeq	r3, sp, r3, lsl #6
    3310:	4cae0400 	cfstrsmi	mvf0, [lr]
    3314:	05000008 	streq	r0, [r0, #-8]
    3318:	00000f52 	andeq	r0, r0, r2, asr pc
    331c:	92b20404 	adcsls	r0, r2, #67108864	; 0x4000000
    3320:	06000009 	streq	r0, [r0], -r9
    3324:	00000afa 	strdeq	r0, [r0], -sl
    3328:	005eb304 	subseq	fp, lr, r4, lsl #6
    332c:	11040000 	tstne	r4, r0
    3330:	0023020f 	eoreq	r0, r3, pc, lsl #4
    3334:	00128f06 	andseq	r8, r2, r6, lsl #30
    3338:	5eb40400 	cdppl	4, 11, cr0, cr4, cr0, {0}
    333c:	04000000 	streq	r0, [r0]
    3340:	23020d02 	movwcs	r0, #11522	; 0x2d02
    3344:	0f200600 	svceq	0x00200600
    3348:	b5040000 	strlt	r0, [r4]
    334c:	0000005e 	andeq	r0, r0, lr, asr r0
    3350:	020c0104 	andeq	r0, ip, #1
    3354:	00060023 	andeq	r0, r6, r3, lsr #32
    3358:	04000004 	streq	r0, [r0], #-4
    335c:	00005eb6 	undefined instruction 0x00005eb6
    3360:	03090400 	movweq	r0, #37888	; 0x9400
    3364:	06002302 	streq	r2, [r0], -r2, lsl #6
    3368:	00000857 	andeq	r0, r0, r7, asr r8
    336c:	005eb704 	subseq	fp, lr, r4, lsl #14
    3370:	02040000 	andeq	r0, r4, #0
    3374:	00230201 	eoreq	r0, r3, r1, lsl #4
    3378:	000ad906 	andeq	sp, sl, r6, lsl #18
    337c:	5eb80400 	cdppl	4, 11, cr0, cr8, cr0, {0}
    3380:	04000000 	streq	r0, [r0]
    3384:	23020001 	movwcs	r0, #8193	; 0x2001
    3388:	bf030000 	svclt	0x00030000
    338c:	04000005 	streq	r0, [r0], #-5
    3390:	00091fb9 	undefined instruction 0x00091fb9
    3394:	0e770500 	cdpeq	5, 7, cr0, cr7, cr0, {0}
    3398:	04040000 	streq	r0, [r4]
    339c:	000a10bd 	strheq	r1, [sl], -sp
    33a0:	0afa0600 	beq	ffe84ba8 <__bss_end+0xffe808c8>
    33a4:	be040000 	cdplt	0, 0, cr0, cr4, cr0, {0}
    33a8:	0000005e 	andeq	r0, r0, lr, asr r0
    33ac:	020f1104 	andeq	r1, pc, #1
    33b0:	8f060023 	svchi	0x00060023
    33b4:	04000012 	streq	r0, [r0], #-18
    33b8:	00005ebf 	undefined instruction 0x00005ebf
    33bc:	0d020400 	cfstrseq	mvf0, [r2]
    33c0:	06002302 	streq	r2, [r0], -r2, lsl #6
    33c4:	00000f20 	andeq	r0, r0, r0, lsr #30
    33c8:	005ec004 	subseq	ip, lr, r4
    33cc:	01040000 	tsteq	r4, r0
    33d0:	0023020c 	eoreq	r0, r3, ip, lsl #4
    33d4:	00040006 	andeq	r0, r4, r6
    33d8:	5ec10400 	cdppl	4, 12, cr0, cr1, cr0, {0}
    33dc:	04000000 	streq	r0, [r0]
    33e0:	23020309 	movwcs	r0, #8969	; 0x2309
    33e4:	08570600 	ldmdaeq	r7, {r9, sl}^
    33e8:	c2040000 	andgt	r0, r4, #0
    33ec:	0000005e 	andeq	r0, r0, lr, asr r0
    33f0:	02010204 	andeq	r0, r1, #1073741824	; 0x40000000
    33f4:	d9060023 	stmdble	r6, {r0, r1, r5}
    33f8:	0400000a 	streq	r0, [r0], #-10
    33fc:	00005ec3 	andeq	r5, r0, r3, asr #29
    3400:	00010400 	andeq	r0, r1, r0, lsl #8
    3404:	00002302 	andeq	r2, r0, r2, lsl #6
    3408:	00108d03 	andseq	r8, r0, r3, lsl #26
    340c:	9dc40400 	cfstrdls	mvd0, [r4]
    3410:	05000009 	streq	r0, [r0, #-9]
    3414:	00000dba 	undefined instruction 0x00000dba
    3418:	d2c80404 	sbcle	r0, r8, #67108864	; 0x4000000
    341c:	0600000a 	streq	r0, [r0], -sl
    3420:	00000fad 	andeq	r0, r0, sp, lsr #31
    3424:	005ec904 	subseq	ip, lr, r4, lsl #18
    3428:	01040000 	tsteq	r4, r0
    342c:	0023021f 	eoreq	r0, r3, pc, lsl r2
    3430:	000d0a06 	andeq	r0, sp, r6, lsl #20
    3434:	5eca0400 	cdppl	4, 12, cr0, cr10, cr0, {0}
    3438:	04000000 	streq	r0, [r0]
    343c:	23021e01 	movwcs	r1, #11777	; 0x2e01
    3440:	0f200600 	svceq	0x00200600
    3444:	cb040000 	blgt	10344c <__bss_end+0xff16c>
    3448:	0000005e 	andeq	r0, r0, lr, asr r0
    344c:	021c0204 	andseq	r0, ip, #1073741824	; 0x40000000
    3450:	31060023 	tstcc	r6, r3, lsr #32
    3454:	04000009 	streq	r0, [r0], #-9
    3458:	00005ecc 	andeq	r5, r0, ip, asr #29
    345c:	1b010400 	blne	44464 <__bss_end+0x40184>
    3460:	06002302 	streq	r2, [r0], -r2, lsl #6
    3464:	00000f2a 	andeq	r0, r0, sl, lsr #30
    3468:	005ecd04 	subseq	ip, lr, r4, lsl #26
    346c:	0a040000 	beq	103474 <__bss_end+0xff194>
    3470:	00230211 	eoreq	r0, r3, r1, lsl r2
    3474:	000c0006 	andeq	r0, ip, r6
    3478:	5ece0400 	cdppl	4, 12, cr0, cr14, cr0, {0}
    347c:	04000000 	streq	r0, [r0]
    3480:	23021001 	movwcs	r1, #8193	; 0x2001
    3484:	05f00600 	ldrbeq	r0, [r0, #1536]!	; 0x600
    3488:	cf040000 	svcgt	0x00040000
    348c:	0000005e 	andeq	r0, r0, lr, asr r0
    3490:	020f0104 	andeq	r0, pc, #1
    3494:	8c060023 	stchi	0, cr0, [r6], {35}	; 0x23
    3498:	04000005 	streq	r0, [r0], #-5
    349c:	00005ed0 	ldrdeq	r5, [r0], -r0
    34a0:	0e010400 	cfcpyseq	mvf0, mvf1
    34a4:	06002302 	streq	r2, [r0], -r2, lsl #6
    34a8:	00000719 	andeq	r0, r0, r9, lsl r7
    34ac:	005ed104 	subseq	sp, lr, r4, lsl #2
    34b0:	03040000 	movweq	r0, #16384	; 0x4000
    34b4:	0023020b 	eoreq	r0, r3, fp, lsl #4
    34b8:	000dec06 	andeq	lr, sp, r6, lsl #24
    34bc:	5ed20400 	cdppl	4, 13, cr0, cr2, cr0, {0}
    34c0:	04000000 	streq	r0, [r0]
    34c4:	2302000b 	movwcs	r0, #8203	; 0x200b
    34c8:	8a030000 	bhi	c34d0 <__bss_end+0xbf1f0>
    34cc:	04000007 	streq	r0, [r0], #-7
    34d0:	000a1bd5 	ldrdeq	r1, [sl], -r5
    34d4:	0ff00500 	svceq	0x00f00500
    34d8:	04040000 	streq	r0, [r4]
    34dc:	000b72d9 	ldrdeq	r7, [fp], -r9
    34e0:	12410600 	subne	r0, r1, #0
    34e4:	da040000 	ble	1034ec <__bss_end+0xff20c>
    34e8:	0000005e 	andeq	r0, r0, lr, asr r0
    34ec:	021e0204 	andseq	r0, lr, #1073741824	; 0x40000000
    34f0:	20060023 	andcs	r0, r6, r3, lsr #32
    34f4:	0400000f 	streq	r0, [r0], #-15
    34f8:	00005edb 	ldrdeq	r5, [r0], -fp
    34fc:	1c020400 	cfstrsne	mvf0, [r2], {0}
    3500:	06002302 	streq	r2, [r0], -r2, lsl #6
    3504:	000008d9 	ldrdeq	r0, [r0], -r9
    3508:	005edc04 	subseq	sp, lr, r4, lsl #24
    350c:	02040000 	andeq	r0, r4, #0
    3510:	0023021a 	eoreq	r0, r3, sl, lsl r2
    3514:	0012de06 	andseq	sp, r2, r6, lsl #28
    3518:	5edd0400 	cdppl	4, 13, cr0, cr13, cr0, {0}
    351c:	04000000 	streq	r0, [r0]
    3520:	23021802 	movwcs	r1, #10242	; 0x2802
    3524:	12d30600 	sbcsne	r0, r3, #0
    3528:	de040000 	cdple	0, 0, cr0, cr4, cr0, {0}
    352c:	0000005e 	andeq	r0, r0, lr, asr r0
    3530:	02160204 	andseq	r0, r6, #1073741824	; 0x40000000
    3534:	2a060023 	bcs	1835c8 <__bss_end+0x17f2e8>
    3538:	0400000f 	streq	r0, [r0], #-15
    353c:	00005edf 	ldrdeq	r5, [r0], -pc
    3540:	10060400 	andne	r0, r6, r0, lsl #8
    3544:	06002302 	streq	r2, [r0], -r2, lsl #6
    3548:	00001276 	andeq	r1, r0, r6, ror r2
    354c:	005ee004 	subseq	lr, lr, r4
    3550:	02040000 	andeq	r0, r4, #0
    3554:	0023020e 	eoreq	r0, r3, lr, lsl #4
    3558:	000f3406 	andeq	r3, pc, r6, lsl #8
    355c:	5ee10400 	cdppl	4, 14, cr0, cr1, cr0, {0}
    3560:	04000000 	streq	r0, [r0]
    3564:	2302000e 	movwcs	r0, #8206	; 0x200e
    3568:	87030000 	strhi	r0, [r3, -r0]
    356c:	04000011 	streq	r0, [r0], #-17
    3570:	000adde2 	andeq	sp, sl, r2, ror #27
    3574:	0ef00500 	cdpeq	5, 15, cr0, cr0, cr0, {0}
    3578:	04040000 	streq	r0, [r4]
    357c:	000bf0e5 	andeq	pc, fp, r5, ror #1
    3580:	12d70600 	sbcsne	r0, r7, #0
    3584:	e6040000 	str	r0, [r4], -r0
    3588:	0000005e 	andeq	r0, r0, lr, asr r0
    358c:	021b0504 	andseq	r0, fp, #16777216	; 0x1000000
    3590:	20060023 	andcs	r0, r6, r3, lsr #32
    3594:	0400000f 	streq	r0, [r0], #-15
    3598:	00005ee7 	andeq	r5, r0, r7, ror #29
    359c:	100b0400 	andne	r0, fp, r0, lsl #8
    35a0:	06002302 	streq	r2, [r0], -r2, lsl #6
    35a4:	0000056c 	andeq	r0, r0, ip, ror #10
    35a8:	005ee804 	subseq	lr, lr, r4, lsl #16
    35ac:	02040000 	andeq	r0, r4, #0
    35b0:	0023020e 	eoreq	r0, r3, lr, lsl #4
    35b4:	000f2a06 	andeq	r2, pc, r6, lsl #20
    35b8:	5ee90400 	cdppl	4, 14, cr0, cr9, cr0, {0}
    35bc:	04000000 	streq	r0, [r0]
    35c0:	23020806 	movwcs	r0, #10246	; 0x2806
    35c4:	127b0600 	rsbsne	r0, fp, #0
    35c8:	ea040000 	b	1035d0 <__bss_end+0xff2f0>
    35cc:	0000005e 	andeq	r0, r0, lr, asr r0
    35d0:	02060204 	andeq	r0, r6, #1073741824	; 0x40000000
    35d4:	34060023 	strcc	r0, [r6], #-35	; 0x23
    35d8:	0400000f 	streq	r0, [r0], #-15
    35dc:	00005eeb 	andeq	r5, r0, fp, ror #29
    35e0:	00060400 	andeq	r0, r6, r0, lsl #8
    35e4:	00002302 	andeq	r2, r0, r2, lsl #6
    35e8:	0006fa03 	andeq	pc, r6, r3, lsl #20
    35ec:	7dec0400 	cfstrdvc	mvd0, [ip]
    35f0:	0500000b 	streq	r0, [r0, #-11]
    35f4:	00000bd0 	ldrdeq	r0, [r0], -r0
    35f8:	2af00404 	bcs	ffc04610 <__bss_end+0xffc00330>
    35fc:	0600000c 	streq	r0, [r0], -ip
    3600:	00000cc5 	andeq	r0, r0, r5, asr #25
    3604:	005ef104 	subseq	pc, lr, r4, lsl #2
    3608:	01040000 	tsteq	r4, r0
    360c:	0023021f 	eoreq	r0, r3, pc, lsl r2
    3610:	000f2006 	andeq	r2, pc, r6
    3614:	5ef20400 	cdppl	4, 15, cr0, cr2, cr0, {0}
    3618:	04000000 	streq	r0, [r0]
    361c:	2302001f 	movwcs	r0, #8223	; 0x201f
    3620:	b4030000 	strlt	r0, [r3]
    3624:	04000010 	streq	r0, [r0], #-16
    3628:	000bfbf3 	strdeq	pc, [fp], -r3
    362c:	045a0500 	ldrbeq	r0, [sl], #-1280	; 0x500
    3630:	04040000 	streq	r0, [r4]
    3634:	000e0ef7 	strdeq	r0, [lr], -r7
    3638:	08010600 	stmdaeq	r1, {r9, sl}
    363c:	f8040000 	undefined instruction 0xf8040000
    3640:	0000005e 	andeq	r0, r0, lr, asr r0
    3644:	021f0104 	andseq	r0, pc, #1
    3648:	1a060023 	bne	1836dc <__bss_end+0x17f3fc>
    364c:	04000010 	streq	r0, [r0], #-16
    3650:	00005ef9 	strdeq	r5, [r0], -r9
    3654:	1e010400 	cfcpysne	mvf0, mvf1
    3658:	06002302 	streq	r2, [r0], -r2, lsl #6
    365c:	00000d7c 	andeq	r0, r0, ip, ror sp
    3660:	005efa04 	subseq	pc, lr, r4, lsl #20
    3664:	01040000 	tsteq	r4, r0
    3668:	0023021d 	eoreq	r0, r3, sp, lsl r2
    366c:	000f2006 	andeq	r2, pc, r6
    3670:	5efb0400 	cdppl	4, 15, cr0, cr11, cr0, {0}
    3674:	04000000 	streq	r0, [r0]
    3678:	23021b02 	movwcs	r1, #11010	; 0x2b02
    367c:	10480600 	subne	r0, r8, r0, lsl #12
    3680:	fc040000 	stc2	0, cr0, [r4], {0}
    3684:	0000005e 	andeq	r0, r0, lr, asr r0
    3688:	021a0104 	andseq	r0, sl, #1
    368c:	b6060023 	strlt	r0, [r6], -r3, lsr #32
    3690:	0400000f 	streq	r0, [r0], #-15
    3694:	00005efd 	strdeq	r5, [r0], -sp
    3698:	19010400 	stmdbne	r1, {sl}
    369c:	06002302 	streq	r2, [r0], -r2, lsl #6
    36a0:	000008bf 	undefined instruction 0x000008bf
    36a4:	005efe04 	subseq	pc, lr, r4, lsl #28
    36a8:	01040000 	tsteq	r4, r0
    36ac:	00230218 	eoreq	r0, r3, r8, lsl r2
    36b0:	0008e306 	andeq	lr, r8, r6, lsl #6
    36b4:	5eff0400 	cdppl	4, 15, cr0, cr15, cr0, {0}
    36b8:	04000000 	streq	r0, [r0]
    36bc:	23021701 	movwcs	r1, #9985	; 0x2701
    36c0:	130b0a00 	movwne	r0, #47616	; 0xba00
    36c4:	00040000 	andeq	r0, r4, r0
    36c8:	00005e01 	andeq	r5, r0, r1, lsl #28
    36cc:	16010400 	strne	r0, [r1], -r0, lsl #8
    36d0:	0a002302 	beq	c2e0 <__bss_end+0x8000>
    36d4:	00000d28 	andeq	r0, r0, r8, lsr #26
    36d8:	5e010104 	adfpls	f0, f1, f4
    36dc:	04000000 	streq	r0, [r0]
    36e0:	23021501 	movwcs	r1, #9473	; 0x2501
    36e4:	0f2a0a00 	svceq	0x002a0a00
    36e8:	02040000 	andeq	r0, r4, #0
    36ec:	00005e01 	andeq	r5, r0, r1, lsl #28
    36f0:	14010400 	strne	r0, [r1], #-1024	; 0x400
    36f4:	0a002302 	beq	c304 <__bss_end+0x8024>
    36f8:	0000073c 	andeq	r0, r0, ip, lsr r7
    36fc:	5e010304 	cdppl	3, 0, cr0, cr1, cr4, {0}
    3700:	04000000 	streq	r0, [r0]
    3704:	23021301 	movwcs	r1, #8961	; 0x2301
    3708:	103f0a00 	eorsne	r0, pc, r0, lsl #20
    370c:	04040000 	streq	r0, [r4]
    3710:	00005e01 	andeq	r5, r0, r1, lsl #28
    3714:	12010400 	andne	r0, r1, #0
    3718:	0a002302 	beq	c328 <__bss_end+0x8048>
    371c:	00000cc5 	andeq	r0, r0, r5, asr #25
    3720:	5e010504 	cfsh32pl	mvfx0, mvfx1, #4
    3724:	04000000 	streq	r0, [r0]
    3728:	23021101 	movwcs	r1, #8449	; 0x2101
    372c:	0f340a00 	svceq	0x00340a00
    3730:	06040000 	streq	r0, [r4], -r0
    3734:	00005e01 	andeq	r5, r0, r1, lsl #28
    3738:	0f020400 	svceq	0x00020400
    373c:	0a002302 	beq	c34c <__bss_end+0x806c>
    3740:	00000de3 	andeq	r0, r0, r3, ror #27
    3744:	5e010704 	cdppl	7, 0, cr0, cr1, cr4, {0}
    3748:	04000000 	streq	r0, [r0]
    374c:	23020e01 	movwcs	r0, #11777	; 0x2e01
    3750:	047e0a00 	ldrbteq	r0, [lr], #-2560	; 0xa00
    3754:	08040000 	stmdaeq	r4, {}
    3758:	00005e01 	andeq	r5, r0, r1, lsl #28
    375c:	0d010400 	cfstrseq	mvf0, [r1]
    3760:	0a002302 	beq	c370 <__bss_end+0x8090>
    3764:	00000f3e 	andeq	r0, r0, lr, lsr pc
    3768:	5e010904 	cdppl	9, 0, cr0, cr1, cr4, {0}
    376c:	04000000 	streq	r0, [r0]
    3770:	23020c01 	movwcs	r0, #11265	; 0x2c01
    3774:	05560a00 	ldrbeq	r0, [r6, #-2560]	; 0xa00
    3778:	0a040000 	beq	103780 <__bss_end+0xff4a0>
    377c:	00005e01 	andeq	r5, r0, r1, lsl #28
    3780:	0b010400 	bleq	44788 <__bss_end+0x404a8>
    3784:	0a002302 	beq	c394 <__bss_end+0x80b4>
    3788:	000008b6 	undefined instruction 0x000008b6
    378c:	5e010b04 	vmlapl.f64	d0, d1, d4
    3790:	04000000 	streq	r0, [r0]
    3794:	23020a01 	movwcs	r0, #10753	; 0x2a01
    3798:	09cc0a00 	stmibeq	ip, {r9, fp}^
    379c:	0c040000 	stceq	0, cr0, [r4], {0}
    37a0:	00005e01 	andeq	r5, r0, r1, lsl #28
    37a4:	09010400 	stmdbeq	r1, {sl}
    37a8:	0a002302 	beq	c3b8 <__bss_end+0x80d8>
    37ac:	00000f48 	andeq	r0, r0, r8, asr #30
    37b0:	5e010d04 	cdppl	13, 0, cr0, cr1, cr4, {0}
    37b4:	04000000 	streq	r0, [r0]
    37b8:	23020603 	movwcs	r0, #9731	; 0x2603
    37bc:	11ca0a00 	bicne	r0, sl, r0, lsl #20
    37c0:	0e040000 	cdpeq	0, 0, cr0, cr4, cr0, {0}
    37c4:	00005e01 	andeq	r5, r0, r1, lsl #28
    37c8:	05010400 	streq	r0, [r1, #-1024]	; 0x400
    37cc:	0a002302 	beq	c3dc <__bss_end+0x80fc>
    37d0:	00000679 	andeq	r0, r0, r9, ror r6
    37d4:	5e010f04 	cdppl	15, 0, cr0, cr1, cr4, {0}
    37d8:	04000000 	streq	r0, [r0]
    37dc:	23020401 	movwcs	r0, #9217	; 0x2401
    37e0:	0dda0a00 	vldreq	s1, [sl]
    37e4:	10040000 	andne	r0, r4, r0
    37e8:	00005e01 	andeq	r5, r0, r1, lsl #28
    37ec:	03010400 	movweq	r0, #5120	; 0x1400
    37f0:	0a002302 	beq	c400 <__bss_end+0x8120>
    37f4:	00000f6e 	andeq	r0, r0, lr, ror #30
    37f8:	5e011104 	adfpls	f1, f1, f4
    37fc:	04000000 	streq	r0, [r0]
    3800:	23020003 	movwcs	r0, #8195	; 0x2003
    3804:	090b0000 	stmdbeq	fp, {}
    3808:	04000004 	streq	r0, [r0], #-4
    380c:	0c350112 	ldfeqs	f0, [r5], #-72	; 0xffffffb8
    3810:	9a0c0000 	bls	303818 <__bss_end+0x2ff538>
    3814:	04000008 	streq	r0, [r0], #-8
    3818:	48011604 	stmdami	r1, {r2, r9, sl, ip}
    381c:	0a00000f 	beq	3860 <__save_processor_state+0x3f0>
    3820:	00000b6a 	andeq	r0, r0, sl, ror #22
    3824:	5e011704 	cdppl	7, 0, cr1, cr1, cr4, {0}
    3828:	04000000 	streq	r0, [r0]
    382c:	23021f01 	movwcs	r1, #12033	; 0x2f01
    3830:	0f200a00 	svceq	0x00200a00
    3834:	18040000 	stmdane	r4, {}
    3838:	00005e01 	andeq	r5, r0, r1, lsl #28
    383c:	1e010400 	cfcpysne	mvf0, mvf1
    3840:	0a002302 	beq	c450 <__bss_end+0x8170>
    3844:	000009f5 	strdeq	r0, [r0], -r5
    3848:	5e011904 	cdppl	9, 0, cr1, cr1, cr4, {0}
    384c:	04000000 	streq	r0, [r0]
    3850:	23021d01 	movwcs	r1, #11521	; 0x2d01
    3854:	0f2a0a00 	svceq	0x002a0a00
    3858:	1a040000 	bne	103860 <__bss_end+0xff580>
    385c:	00005e01 	andeq	r5, r0, r1, lsl #28
    3860:	1c010400 	cfstrsne	mvf0, [r1], {0}
    3864:	0a002302 	beq	c474 <__bss_end+0x8194>
    3868:	000007dd 	ldrdeq	r0, [r0], -sp
    386c:	5e011b04 	vmlapl.f64	d1, d1, d4
    3870:	04000000 	streq	r0, [r0]
    3874:	23021b01 	movwcs	r1, #11009	; 0x2b01
    3878:	0f340a00 	svceq	0x00340a00
    387c:	1c040000 	stcne	0, cr0, [r4], {0}
    3880:	00005e01 	andeq	r5, r0, r1, lsl #28
    3884:	18030400 	stmdane	r3, {sl}
    3888:	0a002302 	beq	c498 <__bss_end+0x81b8>
    388c:	00001302 	andeq	r1, r0, r2, lsl #6
    3890:	5e011d04 	cdppl	13, 0, cr1, cr1, cr4, {0}
    3894:	04000000 	streq	r0, [r0]
    3898:	23021701 	movwcs	r1, #9985	; 0x2701
    389c:	0f3e0a00 	svceq	0x003e0a00
    38a0:	1e040000 	cdpne	0, 0, cr0, cr4, cr0, {0}
    38a4:	00005e01 	andeq	r5, r0, r1, lsl #28
    38a8:	15020400 	strne	r0, [r2, #-1024]	; 0x400
    38ac:	0a002302 	beq	c4bc <__bss_end+0x81dc>
    38b0:	00001078 	andeq	r1, r0, r8, ror r0
    38b4:	5e011f04 	cdppl	15, 0, cr1, cr1, cr4, {0}
    38b8:	04000000 	streq	r0, [r0]
    38bc:	23021401 	movwcs	r1, #9217	; 0x2401
    38c0:	0ec50a00 	vdiveq.f32	s1, s10, s0
    38c4:	20040000 	andcs	r0, r4, r0
    38c8:	00005e01 	andeq	r5, r0, r1, lsl #28
    38cc:	13010400 	movwne	r0, #5120	; 0x1400
    38d0:	0a002302 	beq	c4e0 <__bss_end+0x8200>
    38d4:	00000f48 	andeq	r0, r0, r8, asr #30
    38d8:	5e012104 	adfpls	f2, f1, f4
    38dc:	04000000 	streq	r0, [r0]
    38e0:	23021201 	movwcs	r1, #8705	; 0x2201
    38e4:	11b00a00 	lslsne	r0, r0, #20
    38e8:	22040000 	andcs	r0, r4, #0
    38ec:	00005e01 	andeq	r5, r0, r1, lsl #28
    38f0:	11010400 	tstne	r1, r0, lsl #8
    38f4:	0a002302 	beq	c504 <__bss_end+0x8224>
    38f8:	00000679 	andeq	r0, r0, r9, ror r6
    38fc:	5e012304 	cdppl	3, 0, cr2, cr1, cr4, {0}
    3900:	04000000 	streq	r0, [r0]
    3904:	23020d04 	movwcs	r0, #11524	; 0x2d04
    3908:	0b330a00 	bleq	cc6110 <__bss_end+0xcc1e30>
    390c:	24040000 	strcs	r0, [r4]
    3910:	00005e01 	andeq	r5, r0, r1, lsl #28
    3914:	0c010400 	cfstrseq	mvf0, [r1], {0}
    3918:	0a002302 	beq	c528 <__bss_end+0x8248>
    391c:	00000a46 	andeq	r0, r0, r6, asr #20
    3920:	5e012504 	cfsh32pl	mvfx2, mvfx1, #4
    3924:	04000000 	streq	r0, [r0]
    3928:	23020b01 	movwcs	r0, #11009	; 0x2b01
    392c:	0f6e0a00 	svceq	0x006e0a00
    3930:	26040000 	strcs	r0, [r4], -r0
    3934:	00005e01 	andeq	r5, r0, r1, lsl #28
    3938:	000b0400 	andeq	r0, fp, r0, lsl #8
    393c:	00002302 	andeq	r2, r0, r2, lsl #6
    3940:	0008ee0b 	andeq	lr, r8, fp, lsl #28
    3944:	01270400 	teqeq	r7, r0, lsl #8
    3948:	00000e1a 	andeq	r0, r0, sl, lsl lr
    394c:	0013160c 	andseq	r1, r3, ip, lsl #12
    3950:	2b040400 	blcs	104958 <__bss_end+0x100678>
    3954:	00101601 	andseq	r1, r0, r1, lsl #12
    3958:	0e930a00 	cdpeq	10, 9, cr0, cr3, cr0, {0}
    395c:	2c040000 	stccs	0, cr0, [r4], {0}
    3960:	00005e01 	andeq	r5, r0, r1, lsl #28
    3964:	1f010400 	svcne	0x00010400
    3968:	0a002302 	beq	c578 <__bss_end+0x8298>
    396c:	00000af0 	strdeq	r0, [r0], -r0
    3970:	5e012d04 	cdppl	13, 0, cr2, cr1, cr4, {0}
    3974:	04000000 	streq	r0, [r0]
    3978:	23021e01 	movwcs	r1, #11777	; 0x2e01
    397c:	0f200a00 	svceq	0x00200a00
    3980:	2e040000 	cdpcs	0, 0, cr0, cr4, cr0, {0}
    3984:	00005e01 	andeq	r5, r0, r1, lsl #28
    3988:	1d010400 	cfstrsne	mvf0, [r1]
    398c:	0a002302 	beq	c59c <__bss_end+0x82bc>
    3990:	00000fa5 	andeq	r0, r0, r5, lsr #31
    3994:	5e012f04 	cdppl	15, 0, cr2, cr1, cr4, {0}
    3998:	04000000 	streq	r0, [r0]
    399c:	23021c01 	movwcs	r1, #11265	; 0x2c01
    39a0:	0f2a0a00 	svceq	0x002a0a00
    39a4:	30040000 	andcc	r0, r4, r0
    39a8:	00005e01 	andeq	r5, r0, r1, lsl #28
    39ac:	1b010400 	blne	449b4 <__bss_end+0x406d4>
    39b0:	0a002302 	beq	c5c0 <__bss_end+0x82e0>
    39b4:	000005af 	andeq	r0, r0, pc, lsr #11
    39b8:	5e013104 	adfpls	f3, f1, f4
    39bc:	04000000 	streq	r0, [r0]
    39c0:	23021a01 	movwcs	r1, #10753	; 0x2a01
    39c4:	0d860a00 	vstreq	s0, [r6]
    39c8:	32040000 	andcc	r0, r4, #0
    39cc:	00005e01 	andeq	r5, r0, r1, lsl #28
    39d0:	19010400 	stmdbne	r1, {sl}
    39d4:	0a002302 	beq	c5e4 <__bss_end+0x8304>
    39d8:	00000f34 	andeq	r0, r0, r4, lsr pc
    39dc:	5e013304 	cdppl	3, 0, cr3, cr1, cr4, {0}
    39e0:	04000000 	streq	r0, [r0]
    39e4:	23021603 	movwcs	r1, #9731	; 0x2603
    39e8:	09c10a00 	stmibeq	r1, {r9, fp}^
    39ec:	34040000 	strcc	r0, [r4]
    39f0:	00005e01 	andeq	r5, r0, r1, lsl #28
    39f4:	15010400 	strne	r0, [r1, #-1024]	; 0x400
    39f8:	0a002302 	beq	c608 <__bss_end+0x8328>
    39fc:	00000f3e 	andeq	r0, r0, lr, lsr pc
    3a00:	5e013504 	cfsh32pl	mvfx3, mvfx1, #4
    3a04:	04000000 	streq	r0, [r0]
    3a08:	23020015 	movwcs	r0, #8213	; 0x2015
    3a0c:	e40b0000 	str	r0, [fp]
    3a10:	0400000c 	streq	r0, [r0], #-12
    3a14:	0f540136 	svceq	0x00540136
    3a18:	250c0000 	strcs	r0, [ip]
    3a1c:	04000012 	streq	r0, [r0], #-18
    3a20:	d2013a04 	andle	r3, r1, #16384	; 0x4000
    3a24:	0a000010 	beq	3a6c <__restore_processor_state+0x58>
    3a28:	00000868 	andeq	r0, r0, r8, ror #16
    3a2c:	5e013b04 	vmlapl.f64	d3, d1, d4
    3a30:	04000000 	streq	r0, [r0]
    3a34:	23021f01 	movwcs	r1, #12033	; 0x2f01
    3a38:	12990a00 	addsne	r0, r9, #0
    3a3c:	3c040000 	stccc	0, cr0, [r4], {0}
    3a40:	00005e01 	andeq	r5, r0, r1, lsl #28
    3a44:	1e010400 	cfcpysne	mvf0, mvf1
    3a48:	0a002302 	beq	c658 <__bss_end+0x8378>
    3a4c:	00000cdb 	ldrdeq	r0, [r0], -fp
    3a50:	5e013d04 	cdppl	13, 0, cr3, cr1, cr4, {0}
    3a54:	04000000 	streq	r0, [r0]
    3a58:	23021d01 	movwcs	r1, #11521	; 0x2d01
    3a5c:	0f200a00 	svceq	0x00200a00
    3a60:	3e040000 	cdpcc	0, 0, cr0, cr4, cr0, {0}
    3a64:	00005e01 	andeq	r5, r0, r1, lsl #28
    3a68:	100d0400 	andne	r0, sp, r0, lsl #8
    3a6c:	0a002302 	beq	c67c <__bss_end+0x839c>
    3a70:	0000120b 	andeq	r1, r0, fp, lsl #4
    3a74:	5e013f04 	cdppl	15, 0, cr3, cr1, cr4, {0}
    3a78:	04000000 	streq	r0, [r0]
    3a7c:	23020f01 	movwcs	r0, #12033	; 0x2f01
    3a80:	0c770a00 	ldcleq	10, cr0, [r7]
    3a84:	40040000 	andmi	r0, r4, r0
    3a88:	00005e01 	andeq	r5, r0, r1, lsl #28
    3a8c:	0e010400 	cfcpyseq	mvf0, mvf1
    3a90:	0a002302 	beq	c6a0 <__bss_end+0x83c0>
    3a94:	00000765 	andeq	r0, r0, r5, ror #14
    3a98:	5e014104 	adfpls	f4, f1, f4
    3a9c:	04000000 	streq	r0, [r0]
    3aa0:	23020d01 	movwcs	r0, #11521	; 0x2d01
    3aa4:	11a60a00 	undefined instruction 0x11a60a00
    3aa8:	42040000 	andmi	r0, r4, #0
    3aac:	00005e01 	andeq	r5, r0, r1, lsl #28
    3ab0:	0c010400 	cfstrseq	mvf0, [r1], {0}
    3ab4:	0a002302 	beq	c6c4 <__bss_end+0x83e4>
    3ab8:	00000f2a 	andeq	r0, r0, sl, lsr #30
    3abc:	5e014304 	cdppl	3, 0, cr4, cr1, cr4, {0}
    3ac0:	04000000 	streq	r0, [r0]
    3ac4:	2302000c 	movwcs	r0, #8204	; 0x200c
    3ac8:	a10b0000 	tstge	fp, r0
    3acc:	0400000b 	streq	r0, [r0], #-11
    3ad0:	10220144 	eorne	r0, r2, r4, asr #2
    3ad4:	200c0000 	andcs	r0, ip, r0
    3ad8:	0400000b 	streq	r0, [r0], #-11
    3adc:	6a014a04 	bvs	562f4 <__bss_end+0x52014>
    3ae0:	0a000011 	beq	3b2c <__restore_processor_state+0x118>
    3ae4:	000012d7 	ldrdeq	r1, [r0], -r7
    3ae8:	5e014b04 	vmlapl.f64	d4, d1, d4
    3aec:	04000000 	streq	r0, [r0]
    3af0:	23021c04 	movwcs	r1, #11268	; 0x2c04
    3af4:	0f200a00 	svceq	0x00200a00
    3af8:	4c040000 	stcmi	0, cr0, [r4], {0}
    3afc:	00005e01 	andeq	r5, r0, r1, lsl #28
    3b00:	100c0400 	andne	r0, ip, r0, lsl #8
    3b04:	0a002302 	beq	c714 <__bss_end+0x8434>
    3b08:	00000569 	andeq	r0, r0, r9, ror #10
    3b0c:	5e014d04 	cdppl	13, 0, cr4, cr1, cr4, {0}
    3b10:	04000000 	streq	r0, [r0]
    3b14:	23020e02 	movwcs	r0, #11778	; 0x2e02
    3b18:	0f2a0a00 	svceq	0x002a0a00
    3b1c:	4e040000 	cdpmi	0, 0, cr0, cr4, cr0, {0}
    3b20:	00005e01 	andeq	r5, r0, r1, lsl #28
    3b24:	08060400 	stmdaeq	r6, {sl}
    3b28:	0a002302 	beq	c738 <__bss_end+0x8458>
    3b2c:	0000127b 	andeq	r1, r0, fp, ror r2
    3b30:	5e014f04 	cdppl	15, 0, cr4, cr1, cr4, {0}
    3b34:	04000000 	streq	r0, [r0]
    3b38:	23020602 	movwcs	r0, #9730	; 0x2602
    3b3c:	0f340a00 	svceq	0x00340a00
    3b40:	50040000 	andpl	r0, r4, r0
    3b44:	00005e01 	andeq	r5, r0, r1, lsl #28
    3b48:	01050400 	tsteq	r5, r0, lsl #8
    3b4c:	0a002302 	beq	c75c <__bss_end+0x847c>
    3b50:	0000111d 	andeq	r1, r0, sp, lsl r1
    3b54:	5e015104 	adfpls	f5, f1, f4
    3b58:	04000000 	streq	r0, [r0]
    3b5c:	23020001 	movwcs	r0, #8193	; 0x2001
    3b60:	a50b0000 	strge	r0, [fp]
    3b64:	0400000d 	streq	r0, [r0], #-13
    3b68:	10de0152 	sbcsne	r0, lr, r2, asr r1
    3b6c:	dd0c0000 	stcle	0, cr0, [ip]
    3b70:	04000005 	streq	r0, [r0], #-5
    3b74:	cc015804 	stcgt	8, cr5, [r1], {4}
    3b78:	0a000011 	beq	3bc4 <__restore_processor_state+0x1b0>
    3b7c:	00000f20 	andeq	r0, r0, r0, lsr #30
    3b80:	5e015904 	cdppl	9, 0, cr5, cr1, cr4, {0}
    3b84:	04000000 	streq	r0, [r0]
    3b88:	23021010 	movwcs	r1, #8208	; 0x2010
    3b8c:	12d70a00 	sbcsne	r0, r7, #0
    3b90:	5a040000 	bpl	103b98 <__bss_end+0xff8b8>
    3b94:	00005e01 	andeq	r5, r0, r1, lsl #28
    3b98:	0e020400 	cfcpyseq	mvf0, mvf2
    3b9c:	0a002302 	beq	c7ac <__bss_end+0x84cc>
    3ba0:	00000f2a 	andeq	r0, r0, sl, lsr #30
    3ba4:	5e015b04 	vmlapl.f64	d5, d1, d4
    3ba8:	04000000 	streq	r0, [r0]
    3bac:	2302010d 	movwcs	r0, #8461	; 0x210d
    3bb0:	111d0a00 	tstne	sp, r0, lsl #20
    3bb4:	5c040000 	stcpl	0, cr0, [r4], {0}
    3bb8:	00005e01 	andeq	r5, r0, r1, lsl #28
    3bbc:	00010400 	andeq	r0, r1, r0, lsl #8
    3bc0:	00002302 	andeq	r2, r0, r2, lsl #6
    3bc4:	0007750b 	andeq	r7, r7, fp, lsl #10
    3bc8:	015e0400 	cmpeq	lr, r0, lsl #8
    3bcc:	00001176 	andeq	r1, r0, r6, ror r1
    3bd0:	000fc40c 	andeq	ip, pc, ip, lsl #8
    3bd4:	62040400 	andvs	r0, r4, #0
    3bd8:	00126401 	andseq	r6, r2, r1, lsl #8
    3bdc:	12d70a00 	sbcsne	r0, r7, #0
    3be0:	63040000 	movwvs	r0, #16384	; 0x4000
    3be4:	00005e01 	andeq	r5, r0, r1, lsl #28
    3be8:	1b050400 	blne	144bf0 <__bss_end+0x140910>
    3bec:	0a002302 	beq	c7fc <__bss_end+0x851c>
    3bf0:	00000f20 	andeq	r0, r0, r0, lsr #30
    3bf4:	5e016404 	cdppl	4, 0, cr6, cr1, cr4, {0}
    3bf8:	04000000 	streq	r0, [r0]
    3bfc:	2302100b 	movwcs	r1, #8203	; 0x200b
    3c00:	05690a00 	strbeq	r0, [r9, #-2560]!	; 0xa00
    3c04:	65040000 	strvs	r0, [r4]
    3c08:	00005e01 	andeq	r5, r0, r1, lsl #28
    3c0c:	0e020400 	cfcpyseq	mvf0, mvf2
    3c10:	0a002302 	beq	c820 <__bss_end+0x8540>
    3c14:	00000f2a 	andeq	r0, r0, sl, lsr #30
    3c18:	5e016604 	cfmadd32pl	mvax0, mvfx6, mvfx1, mvfx4
    3c1c:	04000000 	streq	r0, [r0]
    3c20:	23020806 	movwcs	r0, #10246	; 0x2806
    3c24:	127b0a00 	rsbsne	r0, fp, #0
    3c28:	67040000 	strvs	r0, [r4, -r0]
    3c2c:	00005e01 	andeq	r5, r0, r1, lsl #28
    3c30:	06020400 	streq	r0, [r2], -r0, lsl #8
    3c34:	0a002302 	beq	c844 <__bss_end+0x8564>
    3c38:	00000f34 	andeq	r0, r0, r4, lsr pc
    3c3c:	5e016804 	cdppl	8, 0, cr6, cr1, cr4, {0}
    3c40:	04000000 	streq	r0, [r0]
    3c44:	23020105 	movwcs	r0, #8453	; 0x2105
    3c48:	111d0a00 	tstne	sp, r0, lsl #20
    3c4c:	69040000 	stmdbvs	r4, {}
    3c50:	00005e01 	andeq	r5, r0, r1, lsl #28
    3c54:	00010400 	andeq	r0, r1, r0, lsl #8
    3c58:	00002302 	andeq	r2, r0, r2, lsl #6
    3c5c:	0009850b 	andeq	r8, r9, fp, lsl #10
    3c60:	016a0400 	cmneq	sl, r0, lsl #8
    3c64:	000011d8 	ldrdeq	r1, [r0], -r8
    3c68:	000a8b0c 	andeq	r8, sl, ip, lsl #22
    3c6c:	6e040400 	cfcpysvs	mvf0, mvf4
    3c70:	0012fc01 	andseq	pc, r2, r1, lsl #24
    3c74:	0d1d0a00 	vldreq	s0, [sp]
    3c78:	6f040000 	svcvs	0x00040000
    3c7c:	00005e01 	andeq	r5, r0, r1, lsl #28
    3c80:	1f010400 	svcne	0x00010400
    3c84:	0a002302 	beq	c894 <__bss_end+0x85b4>
    3c88:	0000117c 	andeq	r1, r0, ip, ror r1
    3c8c:	5e017004 	cdppl	0, 0, cr7, cr1, cr4, {0}
    3c90:	04000000 	streq	r0, [r0]
    3c94:	23021e01 	movwcs	r1, #11777	; 0x2e01
    3c98:	0f200a00 	svceq	0x00200a00
    3c9c:	71040000 	tstvc	r4, r0
    3ca0:	00005e01 	andeq	r5, r0, r1, lsl #28
    3ca4:	1a040400 	bne	104cac <__bss_end+0x1009cc>
    3ca8:	0a002302 	beq	c8b8 <__bss_end+0x85d8>
    3cac:	00001118 	andeq	r1, r0, r8, lsl r1
    3cb0:	5e017204 	cdppl	2, 0, cr7, cr1, cr4, {0}
    3cb4:	04000000 	streq	r0, [r0]
    3cb8:	23021901 	movwcs	r1, #10497	; 0x2901
    3cbc:	0f2a0a00 	svceq	0x002a0a00
    3cc0:	73040000 	movwvc	r0, #16384	; 0x4000
    3cc4:	00005e01 	andeq	r5, r0, r1, lsl #28
    3cc8:	18010400 	stmdane	r1, {sl}
    3ccc:	0a002302 	beq	c8dc <__bss_end+0x85fc>
    3cd0:	00000ae1 	andeq	r0, r0, r1, ror #21
    3cd4:	5e017404 	cdppl	4, 0, cr7, cr1, cr4, {0}
    3cd8:	04000000 	streq	r0, [r0]
    3cdc:	23021701 	movwcs	r1, #9985	; 0x2701
    3ce0:	0f340a00 	svceq	0x00340a00
    3ce4:	75040000 	strvc	r0, [r4]
    3ce8:	00005e01 	andeq	r5, r0, r1, lsl #28
    3cec:	00170400 	andseq	r0, r7, r0, lsl #8
    3cf0:	00002302 	andeq	r2, r0, r2, lsl #6
    3cf4:	0007230b 	andeq	r2, r7, fp, lsl #6
    3cf8:	01760400 	cmneq	r6, r0, lsl #8
    3cfc:	00001270 	andeq	r1, r0, r0, ror r2
    3d00:	000d8e0c 	andeq	r8, sp, ip, lsl #28
    3d04:	7a040400 	bvc	104d0c <__bss_end+0x100a2c>
    3d08:	00138201 	andseq	r8, r3, r1, lsl #4
    3d0c:	07ef0a00 	strbeq	r0, [pc, r0, lsl #20]!
    3d10:	7b040000 	blvc	103d18 <__bss_end+0xffa38>
    3d14:	00005e01 	andeq	r5, r0, r1, lsl #28
    3d18:	1d030400 	cfstrsne	mvf0, [r3]
    3d1c:	0a002302 	beq	c92c <__bss_end+0x864c>
    3d20:	00000f20 	andeq	r0, r0, r0, lsr #30
    3d24:	5e017c04 	cdppl	12, 0, cr7, cr1, cr4, {0}
    3d28:	04000000 	streq	r0, [r0]
    3d2c:	23020815 	movwcs	r0, #10261	; 0x2815
    3d30:	127b0a00 	rsbsne	r0, fp, #0
    3d34:	7d040000 	stcvc	0, cr0, [r4]
    3d38:	00005e01 	andeq	r5, r0, r1, lsl #28
    3d3c:	06020400 	streq	r0, [r2], -r0, lsl #8
    3d40:	0a002302 	beq	c950 <__bss_end+0x8670>
    3d44:	00000f2a 	andeq	r0, r0, sl, lsr #30
    3d48:	5e017e04 	cdppl	14, 0, cr7, cr1, cr4, {0}
    3d4c:	04000000 	streq	r0, [r0]
    3d50:	23020204 	movwcs	r0, #8708	; 0x2204
    3d54:	11760a00 	cmnne	r6, r0, lsl #20
    3d58:	7f040000 	svcvc	0x00040000
    3d5c:	00005e01 	andeq	r5, r0, r1, lsl #28
    3d60:	01010400 	tsteq	r1, r0, lsl #8
    3d64:	0a002302 	beq	c974 <__bss_end+0x8694>
    3d68:	0000111d 	andeq	r1, r0, sp, lsl r1
    3d6c:	5e018004 	cdppl	0, 0, cr8, cr1, cr4, {0}
    3d70:	04000000 	streq	r0, [r0]
    3d74:	23020001 	movwcs	r0, #8193	; 0x2001
    3d78:	3b0b0000 	blcc	2c3d80 <__bss_end+0x2bfaa0>
    3d7c:	04000009 	streq	r0, [r0], #-9
    3d80:	13080181 	movwne	r0, #33153	; 0x8181
    3d84:	a20c0000 	andge	r0, ip, #0
    3d88:	04000007 	streq	r0, [r0], #-7
    3d8c:	62018504 	andvs	r8, r1, #16777216	; 0x1000000
    3d90:	0a000014 	beq	3de8 <set_copro_default+0x34>
    3d94:	00000b6a 	andeq	r0, r0, sl, ror #22
    3d98:	5e018604 	cfmadd32pl	mvax0, mvfx8, mvfx1, mvfx4
    3d9c:	04000000 	streq	r0, [r0]
    3da0:	23021f01 	movwcs	r1, #12033	; 0x2f01
    3da4:	13020a00 	movwne	r0, #10752	; 0x2a00
    3da8:	87040000 	strhi	r0, [r4, -r0]
    3dac:	00005e01 	andeq	r5, r0, r1, lsl #28
    3db0:	1e010400 	cfcpysne	mvf0, mvf1
    3db4:	0a002302 	beq	c9c4 <__bss_end+0x86e4>
    3db8:	00000f20 	andeq	r0, r0, r0, lsr #30
    3dbc:	5e018804 	cdppl	8, 0, cr8, cr1, cr4, {0}
    3dc0:	04000000 	streq	r0, [r0]
    3dc4:	23021d01 	movwcs	r1, #11521	; 0x2d01
    3dc8:	047e0a00 	ldrbteq	r0, [lr], #-2560	; 0xa00
    3dcc:	89040000 	stmdbhi	r4, {}
    3dd0:	00005e01 	andeq	r5, r0, r1, lsl #28
    3dd4:	1c010400 	cfstrsne	mvf0, [r1], {0}
    3dd8:	0a002302 	beq	c9e8 <__bss_end+0x8708>
    3ddc:	00000f2a 	andeq	r0, r0, sl, lsr #30
    3de0:	5e018a04 	vmlapl.f32	s16, s2, s8
    3de4:	04000000 	streq	r0, [r0]
    3de8:	23021b01 	movwcs	r1, #11009	; 0x2b01
    3dec:	09f50a00 	ldmibeq	r5!, {r9, fp}^
    3df0:	8b040000 	blhi	103df8 <__bss_end+0xffb18>
    3df4:	00005e01 	andeq	r5, r0, r1, lsl #28
    3df8:	1a010400 	bne	44e00 <__bss_end+0x40b20>
    3dfc:	0a002302 	beq	ca0c <__bss_end+0x872c>
    3e00:	00000f34 	andeq	r0, r0, r4, lsr pc
    3e04:	5e018c04 	cdppl	12, 0, cr8, cr1, cr4, {0}
    3e08:	04000000 	streq	r0, [r0]
    3e0c:	23020713 	movwcs	r0, #10003	; 0x2713
    3e10:	11b00a00 	lslsne	r0, r0, #20
    3e14:	8d040000 	stchi	0, cr0, [r4]
    3e18:	00005e01 	andeq	r5, r0, r1, lsl #28
    3e1c:	06010400 	streq	r0, [r1], -r0, lsl #8
    3e20:	0a002302 	beq	ca30 <__bss_end+0x8750>
    3e24:	00000ec5 	andeq	r0, r0, r5, asr #29
    3e28:	5e018e04 	cdppl	14, 0, cr8, cr1, cr4, {0}
    3e2c:	04000000 	streq	r0, [r0]
    3e30:	23020501 	movwcs	r0, #9473	; 0x2501
    3e34:	0f3e0a00 	svceq	0x003e0a00
    3e38:	8f040000 	svchi	0x00040000
    3e3c:	00005e01 	andeq	r5, r0, r1, lsl #28
    3e40:	01040400 	tsteq	r4, r0, lsl #8
    3e44:	0a002302 	beq	ca54 <__bss_end+0x8774>
    3e48:	00000b33 	andeq	r0, r0, r3, lsr fp
    3e4c:	5e019004 	cdppl	0, 0, cr9, cr1, cr4, {0}
    3e50:	04000000 	streq	r0, [r0]
    3e54:	23020001 	movwcs	r0, #8193	; 0x2001
    3e58:	1f0b0000 	svcne	0x000b0000
    3e5c:	04000005 	streq	r0, [r0], #-5
    3e60:	138e0191 	orrne	r0, lr, #1073741860	; 0x40000024
    3e64:	cc0c0000 	stcgt	0, cr0, [ip], {0}
    3e68:	04000004 	streq	r0, [r0], #-4
    3e6c:	e8019704 	stmda	r1, {r2, r8, r9, sl, ip, pc}
    3e70:	0a000014 	beq	3ec8 <axp20_ldo4_data+0x34>
    3e74:	000012d7 	ldrdeq	r1, [r0], -r7
    3e78:	5e019804 	cdppl	8, 0, cr9, cr1, cr4, {0}
    3e7c:	04000000 	streq	r0, [r0]
    3e80:	23021c04 	movwcs	r1, #11268	; 0x2c04
    3e84:	0f200a00 	svceq	0x00200a00
    3e88:	99040000 	stmdbls	r4, {}
    3e8c:	00005e01 	andeq	r5, r0, r1, lsl #28
    3e90:	08140400 	ldmdaeq	r4, {sl}
    3e94:	0a002302 	beq	caa4 <__bss_end+0x87c4>
    3e98:	0000127b 	andeq	r1, r0, fp, ror r2
    3e9c:	5e019a04 	vmlapl.f32	s18, s2, s8
    3ea0:	04000000 	streq	r0, [r0]
    3ea4:	23020602 	movwcs	r0, #9730	; 0x2602
    3ea8:	0f2a0a00 	svceq	0x002a0a00
    3eac:	9b040000 	blls	103eb4 <__bss_end+0xffbd4>
    3eb0:	00005e01 	andeq	r5, r0, r1, lsl #28
    3eb4:	02040400 	andeq	r0, r4, #0
    3eb8:	0a002302 	beq	cac8 <__bss_end+0x87e8>
    3ebc:	00001176 	andeq	r1, r0, r6, ror r1
    3ec0:	5e019c04 	cdppl	12, 0, cr9, cr1, cr4, {0}
    3ec4:	04000000 	streq	r0, [r0]
    3ec8:	23020101 	movwcs	r0, #8449	; 0x2101
    3ecc:	111d0a00 	tstne	sp, r0, lsl #20
    3ed0:	9d040000 	stcls	0, cr0, [r4]
    3ed4:	00005e01 	andeq	r5, r0, r1, lsl #28
    3ed8:	00010400 	andeq	r0, r1, r0, lsl #8
    3edc:	00002302 	andeq	r2, r0, r2, lsl #6
    3ee0:	00104f0b 	andseq	r4, r0, fp, lsl #30
    3ee4:	019f0400 	orrseq	r0, pc, r0, lsl #8
    3ee8:	0000146e 	andeq	r1, r0, lr, ror #8
    3eec:	0011da0c 	andseq	sp, r1, ip, lsl #20
    3ef0:	a5040400 	strge	r0, [r4, #-1024]	; 0x400
    3ef4:	00156e01 	andseq	r6, r5, r1, lsl #28
    3ef8:	0f200a00 	svceq	0x00200a00
    3efc:	a6040000 	strge	r0, [r4], -r0
    3f00:	00005e01 	andeq	r5, r0, r1, lsl #28
    3f04:	08180400 	ldmdaeq	r8, {sl}
    3f08:	0a002302 	beq	cb18 <__bss_end+0x8838>
    3f0c:	0000127b 	andeq	r1, r0, fp, ror r2
    3f10:	5e01a704 	cdppl	7, 0, cr10, cr1, cr4, {0}
    3f14:	04000000 	streq	r0, [r0]
    3f18:	23020602 	movwcs	r0, #9730	; 0x2602
    3f1c:	0f2a0a00 	svceq	0x002a0a00
    3f20:	a8040000 	stmdage	r4, {}
    3f24:	00005e01 	andeq	r5, r0, r1, lsl #28
    3f28:	03030400 	movweq	r0, #13312	; 0x3400
    3f2c:	0a002302 	beq	cb3c <__bss_end+0x885c>
    3f30:	00000437 	andeq	r0, r0, r7, lsr r4
    3f34:	5e01a904 	cdppl	9, 0, cr10, cr1, cr4, {0}
    3f38:	04000000 	streq	r0, [r0]
    3f3c:	23020201 	movwcs	r0, #8705	; 0x2201
    3f40:	11730a00 	cmnne	r3, r0, lsl #20
    3f44:	aa040000 	bge	103f4c <__bss_end+0xffc6c>
    3f48:	00005e01 	andeq	r5, r0, r1, lsl #28
    3f4c:	01010400 	tsteq	r1, r0, lsl #8
    3f50:	0a002302 	beq	cb60 <__bss_end+0x8880>
    3f54:	0000111d 	andeq	r1, r0, sp, lsl r1
    3f58:	5e01ab04 	vmlapl.f64	d10, d1, d4
    3f5c:	04000000 	streq	r0, [r0]
    3f60:	23020001 	movwcs	r0, #8193	; 0x2001
    3f64:	280b0000 	stmdacs	fp, {}
    3f68:	04000006 	streq	r0, [r0], #-6
    3f6c:	14f401ad 	ldrbtne	r0, [r4], #429	; 0x1ad
    3f70:	2e0c0000 	cdpcs	0, 0, cr0, cr12, cr0, {0}
    3f74:	0400000c 	streq	r0, [r0], #-12
    3f78:	2a01b304 	bcs	70b90 <__bss_end+0x6c8b0>
    3f7c:	0a000016 	beq	3fdc <hpcr_value+0x5c>
    3f80:	000012d7 	ldrdeq	r1, [r0], -r7
    3f84:	5e01b404 	cdppl	4, 0, cr11, cr1, cr4, {0}
    3f88:	04000000 	streq	r0, [r0]
    3f8c:	23021c04 	movwcs	r1, #11268	; 0x2c04
    3f90:	0f200a00 	svceq	0x00200a00
    3f94:	b5040000 	strlt	r0, [r4]
    3f98:	00005e01 	andeq	r5, r0, r1, lsl #28
    3f9c:	15070400 	strne	r0, [r7, #-1024]	; 0x400
    3fa0:	0a002302 	beq	cbb0 <__bss_end+0x88d0>
    3fa4:	00000696 	muleq	r0, r6, r6
    3fa8:	5e01b604 	cfmadd32pl	mvax0, mvfx11, mvfx1, mvfx4
    3fac:	04000000 	streq	r0, [r0]
    3fb0:	23021401 	movwcs	r1, #9217	; 0x2401
    3fb4:	0f2a0a00 	svceq	0x002a0a00
    3fb8:	b7040000 	strlt	r0, [r4, -r0]
    3fbc:	00005e01 	andeq	r5, r0, r1, lsl #28
    3fc0:	11030400 	tstne	r3, r0, lsl #8
    3fc4:	0a002302 	beq	cbd4 <__bss_end+0x88f4>
    3fc8:	00000f82 	andeq	r0, r0, r2, lsl #31
    3fcc:	5e01b804 	cdppl	8, 0, cr11, cr1, cr4, {0}
    3fd0:	04000000 	streq	r0, [r0]
    3fd4:	23021001 	movwcs	r1, #8193	; 0x2001
    3fd8:	0f340a00 	svceq	0x00340a00
    3fdc:	b9040000 	stmdblt	r4, {}
    3fe0:	00005e01 	andeq	r5, r0, r1, lsl #28
    3fe4:	08080400 	stmdaeq	r8, {sl}
    3fe8:	0a002302 	beq	cbf8 <__bss_end+0x8918>
    3fec:	00000f99 	muleq	r0, r9, pc
    3ff0:	5e01ba04 	vmlapl.f32	s22, s2, s8
    3ff4:	04000000 	streq	r0, [r0]
    3ff8:	23020602 	movwcs	r0, #9730	; 0x2602
    3ffc:	0f3e0a00 	svceq	0x003e0a00
    4000:	bb040000 	bllt	104008 <__bss_end+0xffd28>
    4004:	00005e01 	andeq	r5, r0, r1, lsl #28
    4008:	01050400 	tsteq	r5, r0, lsl #8
    400c:	0a002302 	beq	cc1c <__bss_end+0x893c>
    4010:	00000a19 	andeq	r0, r0, r9, lsl sl
    4014:	5e01bc04 	cdppl	12, 0, cr11, cr1, cr4, {0}
    4018:	04000000 	streq	r0, [r0]
    401c:	23020001 	movwcs	r0, #8193	; 0x2001
    4020:	a40b0000 	strge	r0, [fp]
    4024:	0400000e 	streq	r0, [r0], #-14
    4028:	157a01be 	ldrbne	r0, [sl, #-446]!	; 0x1be
    402c:	6d0c0000 	stcvs	0, cr0, [ip]
    4030:	04000009 	streq	r0, [r0], #-9
    4034:	b001c404 	andlt	ip, r1, r4, lsl #8
    4038:	0a000016 	beq	4098 <mem_para_info+0x44>
    403c:	000012d7 	ldrdeq	r1, [r0], -r7
    4040:	5e01c504 	cfsh32pl	mvfx12, mvfx1, #4
    4044:	04000000 	streq	r0, [r0]
    4048:	23021b05 	movwcs	r1, #11013	; 0x2b05
    404c:	0f200a00 	svceq	0x00200a00
    4050:	c6040000 	strgt	r0, [r4], -r0
    4054:	00005e01 	andeq	r5, r0, r1, lsl #28
    4058:	08130400 	ldmdaeq	r3, {sl}
    405c:	0a002302 	beq	cc6c <__bss_end+0x898c>
    4060:	0000127b 	andeq	r1, r0, fp, ror r2
    4064:	5e01c704 	cdppl	7, 0, cr12, cr1, cr4, {0}
    4068:	04000000 	streq	r0, [r0]
    406c:	23020503 	movwcs	r0, #9475	; 0x2503
    4070:	0f2a0a00 	svceq	0x002a0a00
    4074:	c8040000 	stmdagt	r4, {}
    4078:	00005e01 	andeq	r5, r0, r1, lsl #28
    407c:	02030400 	andeq	r0, r3, #0
    4080:	0a002302 	beq	cc90 <__bss_end+0x89b0>
    4084:	00001176 	andeq	r1, r0, r6, ror r1
    4088:	5e01c904 	cdppl	9, 0, cr12, cr1, cr4, {0}
    408c:	04000000 	streq	r0, [r0]
    4090:	23020101 	movwcs	r0, #8449	; 0x2101
    4094:	111d0a00 	tstne	sp, r0, lsl #20
    4098:	ca040000 	bgt	1040a0 <__bss_end+0xffdc0>
    409c:	00005e01 	andeq	r5, r0, r1, lsl #28
    40a0:	00010400 	andeq	r0, r1, r0, lsl #8
    40a4:	00002302 	andeq	r2, r0, r2, lsl #6
    40a8:	0008c80b 	andeq	ip, r8, fp, lsl #16
    40ac:	01cb0400 	biceq	r0, fp, r0, lsl #8
    40b0:	00001636 	andeq	r1, r0, r6, lsr r6
    40b4:	0011f50c 	andseq	pc, r1, ip, lsl #10
    40b8:	cf040400 	svcgt	0x00040400
    40bc:	00172401 	andseq	r2, r7, r1, lsl #8
    40c0:	11760a00 	cmnne	r6, r0, lsl #20
    40c4:	d0040000 	andle	r0, r4, r0
    40c8:	00005e01 	andeq	r5, r0, r1, lsl #28
    40cc:	1f010400 	svcne	0x00010400
    40d0:	0a002302 	beq	cce0 <__bss_end+0x8a00>
    40d4:	00000f20 	andeq	r0, r0, r0, lsr #30
    40d8:	5e01d104 	mvfpls	f5, f4
    40dc:	04000000 	streq	r0, [r0]
    40e0:	2302100f 	movwcs	r1, #8207	; 0x200f
    40e4:	12d70a00 	sbcsne	r0, r7, #0
    40e8:	d2040000 	andle	r0, r4, #0
    40ec:	00005e01 	andeq	r5, r0, r1, lsl #28
    40f0:	0d030400 	cfstrseq	mvf0, [r3]
    40f4:	0a002302 	beq	cd04 <__bss_end+0x8a24>
    40f8:	00000f2a 	andeq	r0, r0, sl, lsr #30
    40fc:	5e01d304 	cdppl	3, 0, cr13, cr1, cr4, {0}
    4100:	04000000 	streq	r0, [r0]
    4104:	2302010c 	movwcs	r0, #8460	; 0x210c
    4108:	111d0a00 	tstne	sp, r0, lsl #20
    410c:	d4040000 	strle	r0, [r4]
    4110:	00005e01 	andeq	r5, r0, r1, lsl #28
    4114:	00010400 	andeq	r0, r1, r0, lsl #8
    4118:	00002302 	andeq	r2, r0, r2, lsl #6
    411c:	000e170b 	andeq	r1, lr, fp, lsl #14
    4120:	01d50400 	bicseq	r0, r5, r0, lsl #8
    4124:	000016bc 	undefined instruction 0x000016bc
    4128:	000c880c 	andeq	r8, ip, ip, lsl #16
    412c:	d8040400 	stmdale	r4, {sl}
    4130:	00176201 	andseq	r6, r7, r1, lsl #4
    4134:	0f200a00 	svceq	0x00200a00
    4138:	d9040000 	stmdble	r4, {}
    413c:	00005e01 	andeq	r5, r0, r1, lsl #28
    4140:	011f0400 	tsteq	pc, r0, lsl #8
    4144:	0a002302 	beq	cd54 <__bss_end+0x8a74>
    4148:	0000111d 	andeq	r1, r0, sp, lsl r1
    414c:	5e01da04 	vmlapl.f32	s26, s2, s8
    4150:	04000000 	streq	r0, [r0]
    4154:	23020001 	movwcs	r0, #8193	; 0x2001
    4158:	050b0000 	streq	r0, [fp]
    415c:	04000005 	streq	r0, [r0], #-5
    4160:	173001db 	undefined instruction 0x173001db
    4164:	400c0000 	andmi	r0, ip, r0
    4168:	04000008 	streq	r0, [r0], #-8
    416c:	a001de04 	andge	sp, r1, r4, lsl #28
    4170:	0a000017 	beq	41d4 <mem_para_info+0x180>
    4174:	00000f20 	andeq	r0, r0, r0, lsr #30
    4178:	5e01df04 	cdppl	15, 0, cr13, cr1, cr4, {0}
    417c:	04000000 	streq	r0, [r0]
    4180:	2302011f 	movwcs	r0, #8479	; 0x211f
    4184:	111d0a00 	tstne	sp, r0, lsl #20
    4188:	e0040000 	and	r0, r4, r0
    418c:	00005e01 	andeq	r5, r0, r1, lsl #28
    4190:	00010400 	andeq	r0, r1, r0, lsl #8
    4194:	00002302 	andeq	r2, r0, r2, lsl #6
    4198:	00114b0b 	andseq	r4, r1, fp, lsl #22
    419c:	01e10400 	mvneq	r0, r0, lsl #8
    41a0:	0000176e 	andeq	r1, r0, lr, ror #14
    41a4:	0005970c 	andeq	r9, r5, ip, lsl #14
    41a8:	e5040400 	str	r0, [r4, #-1024]	; 0x400
    41ac:	0017de01 	andseq	sp, r7, r1, lsl #28
    41b0:	11760a00 	cmnne	r6, r0, lsl #20
    41b4:	e6040000 	str	r0, [r4], -r0
    41b8:	00005e01 	andeq	r5, r0, r1, lsl #28
    41bc:	1f010400 	svcne	0x00010400
    41c0:	0a002302 	beq	cdd0 <__bss_end+0x8af0>
    41c4:	00000150 	andeq	r0, r0, r0, asr r1
    41c8:	5e01e704 	cdppl	7, 0, cr14, cr1, cr4, {0}
    41cc:	04000000 	streq	r0, [r0]
    41d0:	2302001f 	movwcs	r0, #8223	; 0x201f
    41d4:	f50b0000 	undefined instruction 0xf50b0000
    41d8:	0400000d 	streq	r0, [r0], #-13
    41dc:	17ac01e8 	strne	r0, [ip, r8, ror #3]!
    41e0:	610c0000 	tstvs	ip, r0
    41e4:	04000006 	streq	r0, [r0], #-6
    41e8:	5201ec04 	andpl	lr, r1, #1024	; 0x400
    41ec:	0a000018 	beq	4254 <mem_para_info+0x200>
    41f0:	000012d7 	ldrdeq	r1, [r0], -r7
    41f4:	5e01ed04 	cdppl	13, 0, cr14, cr1, cr4, {0}
    41f8:	04000000 	streq	r0, [r0]
    41fc:	23021c04 	movwcs	r1, #11268	; 0x2c04
    4200:	0f200a00 	svceq	0x00200a00
    4204:	ee040000 	cdp	0, 0, cr0, cr4, cr0, {0}
    4208:	00005e01 	andeq	r5, r0, r1, lsl #28
    420c:	08140400 	ldmdaeq	r4, {sl}
    4210:	0a002302 	beq	ce20 <__bss_end+0x8b40>
    4214:	0000127b 	andeq	r1, r0, fp, ror r2
    4218:	5e01ef04 	cdppl	15, 0, cr14, cr1, cr4, {0}
    421c:	04000000 	streq	r0, [r0]
    4220:	23020602 	movwcs	r0, #9730	; 0x2602
    4224:	0f2a0a00 	svceq	0x002a0a00
    4228:	f0040000 	undefined instruction 0xf0040000
    422c:	00005e01 	andeq	r5, r0, r1, lsl #28
    4230:	01050400 	tsteq	r5, r0, lsl #8
    4234:	0a002302 	beq	ce44 <__bss_end+0x8b64>
    4238:	0000111d 	andeq	r1, r0, sp, lsl r1
    423c:	5e01f104 	mvfpls	f7, f4
    4240:	04000000 	streq	r0, [r0]
    4244:	23020001 	movwcs	r0, #8193	; 0x2001
    4248:	400b0000 	andmi	r0, fp, r0
    424c:	04000004 	streq	r0, [r0], #-4
    4250:	17ea01f2 	undefined instruction 0x17ea01f2
    4254:	4f0c0000 	svcmi	0x000c0000
    4258:	0400000a 	streq	r0, [r0], #-10
    425c:	d801f604 	stmdale	r1, {r2, r9, sl, ip, sp, lr, pc}
    4260:	0a000018 	beq	42c8 <TmrReg>
    4264:	000012d7 	ldrdeq	r1, [r0], -r7
    4268:	5e01f704 	cdppl	7, 0, cr15, cr1, cr4, {0}
    426c:	04000000 	streq	r0, [r0]
    4270:	23021c04 	movwcs	r1, #11268	; 0x2c04
    4274:	0f200a00 	svceq	0x00200a00
    4278:	f8040000 	undefined instruction 0xf8040000
    427c:	00005e01 	andeq	r5, r0, r1, lsl #28
    4280:	08140400 	ldmdaeq	r4, {sl}
    4284:	0a002302 	beq	ce94 <__bss_end+0x8bb4>
    4288:	0000127b 	andeq	r1, r0, fp, ror r2
    428c:	5e01f904 	cdppl	9, 0, cr15, cr1, cr4, {0}
    4290:	04000000 	streq	r0, [r0]
    4294:	23020503 	movwcs	r0, #9475	; 0x2503
    4298:	0f2a0a00 	svceq	0x002a0a00
    429c:	fa040000 	blx	1042a4 <__bss_end+0xfffc4>
    42a0:	00005e01 	andeq	r5, r0, r1, lsl #28
    42a4:	02030400 	andeq	r0, r3, #0
    42a8:	0a002302 	beq	ceb8 <__bss_end+0x8bd8>
    42ac:	00001176 	andeq	r1, r0, r6, ror r1
    42b0:	5e01fb04 	vmlapl.f64	d15, d1, d4
    42b4:	04000000 	streq	r0, [r0]
    42b8:	23020101 	movwcs	r0, #8449	; 0x2101
    42bc:	111d0a00 	tstne	sp, r0, lsl #20
    42c0:	fc040000 	stc2	0, cr0, [r4], {0}
    42c4:	00005e01 	andeq	r5, r0, r1, lsl #28
    42c8:	00010400 	andeq	r0, r1, r0, lsl #8
    42cc:	00002302 	andeq	r2, r0, r2, lsl #6
    42d0:	00090c0b 	andeq	r0, r9, fp, lsl #24
    42d4:	01fd0400 	mvnseq	r0, r0, lsl #8
    42d8:	0000185e 	andeq	r1, r0, lr, asr r8
    42dc:	0007bb0c 	andeq	fp, r7, ip, lsl #22
    42e0:	01040400 	tsteq	r4, r0, lsl #8
    42e4:	00197002 	andseq	r7, r9, r2
    42e8:	12d70a00 	sbcsne	r0, r7, #0
    42ec:	02040000 	andeq	r0, r4, #0
    42f0:	00005e02 	andeq	r5, r0, r2, lsl #28
    42f4:	1c040400 	cfstrsne	mvf0, [r4], {0}
    42f8:	0a002302 	beq	cf08 <__bss_end+0x8c28>
    42fc:	00000f20 	andeq	r0, r0, r0, lsr #30
    4300:	5e020304 	cdppl	3, 0, cr0, cr2, cr4, {0}
    4304:	04000000 	streq	r0, [r0]
    4308:	2302100c 	movwcs	r1, #8204	; 0x200c
    430c:	056c0a00 	strbeq	r0, [ip, #-2560]!	; 0xa00
    4310:	04040000 	streq	r0, [r4]
    4314:	00005e02 	andeq	r5, r0, r2, lsl #28
    4318:	0e020400 	cfcpyseq	mvf0, mvf2
    431c:	0a002302 	beq	cf2c <__bss_end+0x8c4c>
    4320:	00000f2a 	andeq	r0, r0, sl, lsr #30
    4324:	5e020504 	cfsh32pl	mvfx0, mvfx2, #4
    4328:	04000000 	streq	r0, [r0]
    432c:	23020806 	movwcs	r0, #10246	; 0x2806
    4330:	127b0a00 	rsbsne	r0, fp, #0
    4334:	06040000 	streq	r0, [r4], -r0
    4338:	00005e02 	andeq	r5, r0, r2, lsl #28
    433c:	06020400 	streq	r0, [r2], -r0, lsl #8
    4340:	0a002302 	beq	cf50 <__bss_end+0x8c70>
    4344:	00000f34 	andeq	r0, r0, r4, lsr pc
    4348:	5e020704 	cdppl	7, 0, cr0, cr2, cr4, {0}
    434c:	04000000 	streq	r0, [r0]
    4350:	23020105 	movwcs	r0, #8453	; 0x2105
    4354:	11210a00 	teqne	r1, r0, lsl #20
    4358:	08040000 	stmdaeq	r4, {}
    435c:	00005e02 	andeq	r5, r0, r2, lsl #28
    4360:	00010400 	andeq	r0, r1, r0, lsl #8
    4364:	00002302 	andeq	r2, r0, r2, lsl #6
    4368:	0006470b 	andeq	r4, r6, fp, lsl #14
    436c:	020a0400 	andeq	r0, sl, #0
    4370:	000018e4 	andeq	r1, r0, r4, ror #17
    4374:	000ed90c 	andeq	sp, lr, ip, lsl #18
    4378:	0e040400 	cfcpyseq	mvf0, mvf4
    437c:	0019c002 	andseq	ip, r9, r2
    4380:	01500a00 	cmpeq	r0, r0, lsl #20
    4384:	0f040000 	svceq	0x00040000
    4388:	00005e02 	andeq	r5, r0, r2, lsl #28
    438c:	021e0400 	andseq	r0, lr, #0
    4390:	0a002302 	beq	cfa0 <__bss_end+0x8cc0>
    4394:	00001176 	andeq	r1, r0, r6, ror r1
    4398:	5e021004 	cdppl	0, 0, cr1, cr2, cr4, {0}
    439c:	04000000 	streq	r0, [r0]
    43a0:	23020101 	movwcs	r0, #8449	; 0x2101
    43a4:	11210a00 	teqne	r1, r0, lsl #20
    43a8:	11040000 	tstne	r4, r0
    43ac:	00005e02 	andeq	r5, r0, r2, lsl #28
    43b0:	00010400 	andeq	r0, r1, r0, lsl #8
    43b4:	00002302 	andeq	r2, r0, r2, lsl #6
    43b8:	000b3b0b 	andeq	r3, fp, fp, lsl #22
    43bc:	02130400 	andseq	r0, r3, #0
    43c0:	0000197c 	andeq	r1, r0, ip, ror r9
    43c4:	0012aa0d 	andseq	sl, r2, sp, lsl #20
    43c8:	04016400 	streq	r6, [r1], #-1024	; 0x400
    43cc:	1e310216 	mrcne	2, 1, r0, cr1, cr6, {0}
    43d0:	a10e0000 	tstge	lr, r0
    43d4:	04000009 	streq	r0, [r0], #-9
    43d8:	1e310217 	mrcne	2, 1, r0, cr1, cr7, {0}
    43dc:	23020000 	movwcs	r0, #8192	; 0x2000
    43e0:	087f0e00 	ldmdaeq	pc!, {r9, sl, fp}^
    43e4:	18040000 	stmdane	r4, {}
    43e8:	001e3602 	andseq	r3, lr, r2, lsl #12
    43ec:	04230200 	strteq	r0, [r3], #-512	; 0x200
    43f0:	0012a20e 	andseq	sl, r2, lr, lsl #4
    43f4:	02190400 	andseq	r0, r9, #0
    43f8:	00001e3b 	andeq	r1, r0, fp, lsr lr
    43fc:	0e082302 	cdpeq	3, 0, cr2, cr8, cr2, {0}
    4400:	000010ab 	andeq	r1, r0, fp, lsr #1
    4404:	40021a04 	andmi	r1, r2, r4, lsl #20
    4408:	0200001e 	andeq	r0, r0, #30
    440c:	ba0e0c23 	blt	3874a0 <__bss_end+0x3831c0>
    4410:	04000011 	streq	r0, [r0], #-17
    4414:	1e45021b 	mcrne	2, 2, r0, cr5, cr11, {0}
    4418:	23020000 	movwcs	r0, #8192	; 0x2000
    441c:	0f200e10 	svceq	0x00200e10
    4420:	1c040000 	stcne	0, cr0, [r4], {0}
    4424:	001e4a02 	andseq	r4, lr, r2, lsl #20
    4428:	14230200 	strtne	r0, [r3], #-512	; 0x200
    442c:	0005b70e 	andeq	fp, r5, lr, lsl #14
    4430:	021d0400 	andseq	r0, sp, #0
    4434:	00001e4f 	andeq	r1, r0, pc, asr #28
    4438:	0e182302 	cdpeq	3, 1, cr2, cr8, cr2, {0}
    443c:	00000f2a 	andeq	r0, r0, sl, lsr #30
    4440:	4a021e04 	bmi	8bc58 <__bss_end+0x87978>
    4444:	0200001e 	andeq	r0, r0, #30
    4448:	0f0e1c23 	svceq	0x000e1c23
    444c:	0400000e 	streq	r0, [r0], #-14
    4450:	1e54021f 	mrcne	2, 2, r0, cr4, cr15, {0}
    4454:	23020000 	movwcs	r0, #8192	; 0x2000
    4458:	03f70e20 	mvnseq	r0, #512	; 0x200
    445c:	20040000 	andcs	r0, r4, r0
    4460:	001e5902 	andseq	r5, lr, r2, lsl #18
    4464:	24230200 	strtcs	r0, [r3], #-512	; 0x200
    4468:	0011d20e 	andseq	sp, r1, lr, lsl #4
    446c:	02210400 	eoreq	r0, r1, #0
    4470:	00001e5e 	andeq	r1, r0, lr, asr lr
    4474:	0e282302 	cdpeq	3, 2, cr2, cr8, cr2, {0}
    4478:	00000f34 	andeq	r0, r0, r4, lsr pc
    447c:	4a022204 	bmi	8cc94 <__bss_end+0x889b4>
    4480:	0200001e 	andeq	r0, r0, #30
    4484:	ee0e2c23 	cdp	12, 0, cr2, cr14, cr3, {1}
    4488:	04000010 	streq	r0, [r0], #-16
    448c:	1e630223 	cdpne	2, 6, cr0, cr3, cr3, {1}
    4490:	23020000 	movwcs	r0, #8192	; 0x2000
    4494:	0f3e0e30 	svceq	0x003e0e30
    4498:	24040000 	strcs	r0, [r4]
    449c:	001e4a02 	andseq	r4, lr, r2, lsl #20
    44a0:	34230200 	strtcc	r0, [r3], #-512	; 0x200
    44a4:	000dd00e 	andeq	sp, sp, lr
    44a8:	02250400 	eoreq	r0, r5, #0
    44ac:	00001e68 	andeq	r1, r0, r8, ror #28
    44b0:	0e382302 	cdpeq	3, 3, cr2, cr8, cr2, {0}
    44b4:	00000427 	andeq	r0, r0, r7, lsr #8
    44b8:	6d022604 	stcvs	6, cr2, [r2, #-16]
    44bc:	0200001e 	andeq	r0, r0, #30
    44c0:	480e3c23 	stmdami	lr, {r0, r1, r5, sl, fp, ip, sp}
    44c4:	0400000f 	streq	r0, [r0], #-15
    44c8:	1e820227 	cdpne	2, 8, cr0, cr2, cr7, {1}
    44cc:	23020000 	movwcs	r0, #8192	; 0x2000
    44d0:	06c70e40 	strbeq	r0, [r7], r0, asr #28
    44d4:	28040000 	stmdacs	r4, {}
    44d8:	001e8702 	andseq	r8, lr, r2, lsl #14
    44dc:	50230200 	eorpl	r0, r3, r0, lsl #4
    44e0:	000beb0e 	andeq	lr, fp, lr, lsl #22
    44e4:	02290400 	eoreq	r0, r9, #0
    44e8:	00001e8c 	andeq	r1, r0, ip, lsl #29
    44ec:	0e542302 	cdpeq	3, 5, cr2, cr4, cr2, {0}
    44f0:	00000a2d 	andeq	r0, r0, sp, lsr #20
    44f4:	91022a04 	tstls	r2, r4, lsl #20
    44f8:	0200001e 	andeq	r0, r0, #30
    44fc:	c20e5823 	andgt	r5, lr, #2293760	; 0x230000
    4500:	04000011 	streq	r0, [r0], #-17
    4504:	1e96022b 	cdpne	2, 9, cr0, cr6, cr11, {1}
    4508:	23020000 	movwcs	r0, #8192	; 0x2000
    450c:	09540e5c 	ldmdbeq	r4, {r2, r3, r4, r6, r9, sl, fp}^
    4510:	2c040000 	stccs	0, cr0, [r4], {0}
    4514:	001e9b02 	andseq	r9, lr, r2, lsl #22
    4518:	60230200 	eorvs	r0, r3, r0, lsl #4
    451c:	00095d0e 	andeq	r5, r9, lr, lsl #26
    4520:	022d0400 	eoreq	r0, sp, #0
    4524:	00001ea0 	andeq	r1, r0, r0, lsr #29
    4528:	0e642302 	cdpeq	3, 6, cr2, cr4, cr2, {0}
    452c:	00000683 	andeq	r0, r0, r3, lsl #13
    4530:	a5022e04 	strge	r2, [r2, #-3588]	; 0xe04
    4534:	0200001e 	andeq	r0, r0, #30
    4538:	430e6823 	movwmi	r6, #59427	; 0xe823
    453c:	04000007 	streq	r0, [r0], #-7
    4540:	1eaa022f 	cdpne	2, 10, cr0, cr10, cr15, {1}
    4544:	23020000 	movwcs	r0, #8192	; 0x2000
    4548:	06790e6c 	ldrbteq	r0, [r9], -ip, ror #28
    454c:	30040000 	andcc	r0, r4, r0
    4550:	001eaf02 	andseq	sl, lr, r2, lsl #30
    4554:	70230200 	eorvc	r0, r3, r0, lsl #4
    4558:	0011100e 	andseq	r1, r1, lr
    455c:	02310400 	eorseq	r0, r1, #0
    4560:	00001eb4 	undefined instruction 0x00001eb4
    4564:	01802303 	orreq	r2, r0, r3, lsl #6
    4568:	00076f0e 	andeq	r6, r7, lr, lsl #30
    456c:	02320400 	eorseq	r0, r2, #0
    4570:	00001eb4 	undefined instruction 0x00001eb4
    4574:	01842303 	orreq	r2, r4, r3, lsl #6
    4578:	00055f0e 	andeq	r5, r5, lr, lsl #30
    457c:	02330400 	eorseq	r0, r3, #0
    4580:	00001eb4 	undefined instruction 0x00001eb4
    4584:	01882303 	orreq	r2, r8, r3, lsl #6
    4588:	000ecf0e 	andeq	ip, lr, lr, lsl #30
    458c:	02340400 	eorseq	r0, r4, #0
    4590:	00001eb4 	undefined instruction 0x00001eb4
    4594:	018c2303 	orreq	r2, ip, r3, lsl #6
    4598:	000b050e 	andeq	r0, fp, lr, lsl #10
    459c:	02350400 	eorseq	r0, r5, #0
    45a0:	00001eb4 	undefined instruction 0x00001eb4
    45a4:	01902303 	orrseq	r2, r0, r3, lsl #6
    45a8:	000f6e0e 	andeq	r6, pc, lr, lsl #28
    45ac:	02360400 	eorseq	r0, r6, #0
    45b0:	00001e4a 	andeq	r1, r0, sl, asr #28
    45b4:	01942303 	orrseq	r2, r4, r3, lsl #6
    45b8:	0010140e 	andseq	r1, r0, lr, lsl #8
    45bc:	02370400 	eorseq	r0, r7, #0
    45c0:	00001eb4 	undefined instruction 0x00001eb4
    45c4:	01982303 	orrseq	r2, r8, r3, lsl #6
    45c8:	00061b0e 	andeq	r1, r6, lr, lsl #22
    45cc:	02380400 	eorseq	r0, r8, #0
    45d0:	00001eb4 	undefined instruction 0x00001eb4
    45d4:	019c2303 	orrseq	r2, ip, r3, lsl #6
    45d8:	000b0f0e 	andeq	r0, fp, lr, lsl #30
    45dc:	02390400 	eorseq	r0, r9, #0
    45e0:	00001eb4 	undefined instruction 0x00001eb4
    45e4:	01a02303 	lsleq	r2, r3, #6
    45e8:	0004850e 	andeq	r8, r4, lr, lsl #10
    45ec:	023a0400 	eorseq	r0, sl, #0
    45f0:	00001eb4 	undefined instruction 0x00001eb4
    45f4:	01a42303 	undefined instruction 0x01a42303
    45f8:	000d020e 	andeq	r0, sp, lr, lsl #4
    45fc:	023b0400 	eorseq	r0, fp, #0
    4600:	00001eb4 	undefined instruction 0x00001eb4
    4604:	01a82303 	undefined instruction 0x01a82303
    4608:	000f780e 	andeq	r7, pc, lr, lsl #16
    460c:	023c0400 	eorseq	r0, ip, #0
    4610:	00001e4a 	andeq	r1, r0, sl, asr #28
    4614:	01ac2303 	undefined instruction 0x01ac2303
    4618:	000a260e 	andeq	r2, sl, lr, lsl #12
    461c:	023d0400 	eorseq	r0, sp, #0
    4620:	00001eb4 	undefined instruction 0x00001eb4
    4624:	01b02303 	lslseq	r2, r3, #6
    4628:	00068c0e 	andeq	r8, r6, lr, lsl #24
    462c:	023e0400 	eorseq	r0, lr, #0
    4630:	00001e4a 	andeq	r1, r0, sl, asr #28
    4634:	01b42303 	undefined instruction 0x01b42303
    4638:	0009660e 	andeq	r6, r9, lr, lsl #12
    463c:	023f0400 	eorseq	r0, pc, #0
    4640:	00001eb9 	undefined instruction 0x00001eb9
    4644:	01b82303 	undefined instruction 0x01b82303
    4648:	000f8f0e 	andeq	r8, pc, lr, lsl #30
    464c:	02400400 	subeq	r0, r0, #0
    4650:	00001e4a 	andeq	r1, r0, sl, asr #28
    4654:	01bc2303 	undefined instruction 0x01bc2303
    4658:	000ca00e 	andeq	sl, ip, lr
    465c:	02410400 	subeq	r0, r1, #0
    4660:	00001eb9 	undefined instruction 0x00001eb9
    4664:	01c02303 	biceq	r2, r0, r3, lsl #6
    4668:	00102d0e 	andseq	r2, r0, lr, lsl #26
    466c:	02420400 	subeq	r0, r2, #0
    4670:	00001ebe 	undefined instruction 0x00001ebe
    4674:	01c42303 	biceq	r2, r4, r3, lsl #6
    4678:	000a6a0e 	andeq	r6, sl, lr, lsl #20
    467c:	02430400 	subeq	r0, r3, #0
    4680:	00001e4a 	andeq	r1, r0, sl, asr #28
    4684:	01c82303 	biceq	r2, r8, r3, lsl #6
    4688:	0006210e 	andeq	r2, r6, lr, lsl #2
    468c:	02440400 	subeq	r0, r4, #0
    4690:	00001ec3 	andeq	r1, r0, r3, asr #29
    4694:	01cc2303 	biceq	r2, ip, r3, lsl #6
    4698:	000c810e 	andeq	r8, ip, lr, lsl #2
    469c:	02450400 	subeq	r0, r5, #0
    46a0:	00001ec8 	andeq	r1, r0, r8, asr #29
    46a4:	01d02303 	bicseq	r2, r0, r3, lsl #6
    46a8:	000a750e 	andeq	r7, sl, lr, lsl #10
    46ac:	02460400 	subeq	r0, r6, #0
    46b0:	00001e4a 	andeq	r1, r0, sl, asr #28
    46b4:	01d42303 	bicseq	r2, r4, r3, lsl #6
    46b8:	000a800e 	andeq	r8, sl, lr
    46bc:	02470400 	subeq	r0, r7, #0
    46c0:	00001edd 	ldrdeq	r1, [r0], -sp
    46c4:	01d82303 	bicseq	r2, r8, r3, lsl #6
    46c8:	000d140e 	andeq	r1, sp, lr, lsl #8
    46cc:	02480400 	subeq	r0, r8, #0
    46d0:	00001ee2 	andeq	r1, r0, r2, ror #29
    46d4:	02802303 	addeq	r2, r0, #201326592	; 0xc000000
    46d8:	000d500e 	andeq	r5, sp, lr
    46dc:	02490400 	subeq	r0, r9, #0
    46e0:	00001ee7 	andeq	r1, r0, r7, ror #29
    46e4:	02842303 	addeq	r2, r4, #201326592	; 0xc000000
    46e8:	000b830e 	andeq	r8, fp, lr, lsl #6
    46ec:	024a0400 	subeq	r0, sl, #0
    46f0:	00001e4a 	andeq	r1, r0, sl, asr #28
    46f4:	02882303 	addeq	r2, r8, #201326592	; 0xc000000
    46f8:	0009e20e 	andeq	lr, r9, lr, lsl #4
    46fc:	024b0400 	subeq	r0, fp, #0
    4700:	00001ee7 	andeq	r1, r0, r7, ror #29
    4704:	028c2303 	addeq	r2, ip, #201326592	; 0xc000000
    4708:	000aa20e 	andeq	sl, sl, lr, lsl #4
    470c:	024c0400 	subeq	r0, ip, #0
    4710:	00001e4a 	andeq	r1, r0, sl, asr #28
    4714:	02902303 	addseq	r2, r0, #201326592	; 0xc000000
    4718:	000aad0e 	andeq	sl, sl, lr, lsl #26
    471c:	024d0400 	subeq	r0, sp, #0
    4720:	00001e4a 	andeq	r1, r0, sl, asr #28
    4724:	02942303 	addseq	r2, r4, #201326592	; 0xc000000
    4728:	00048d0e 	andeq	r8, r4, lr, lsl #26
    472c:	024e0400 	subeq	r0, lr, #0
    4730:	00001eec 	andeq	r1, r0, ip, ror #29
    4734:	02982303 	addseq	r2, r8, #201326592	; 0xc000000
    4738:	000ab80e 	andeq	fp, sl, lr, lsl #16
    473c:	024f0400 	subeq	r0, pc, #0
    4740:	00001ef1 	strdeq	r1, [r0], -r1
    4744:	029c2303 	addseq	r2, ip, #201326592	; 0xc000000
    4748:	00063c0e 	andeq	r3, r6, lr, lsl #24
    474c:	02500400 	subseq	r0, r0, #0
    4750:	00001ef6 	strdeq	r1, [r0], -r6
    4754:	02ac2303 	adceq	r2, ip, #201326592	; 0xc000000
    4758:	000ac30e 	andeq	ip, sl, lr, lsl #6
    475c:	02510400 	subseq	r0, r1, #0
    4760:	00001e4a 	andeq	r1, r0, sl, asr #28
    4764:	02b02303 	adcseq	r2, r0, #201326592	; 0xc000000
    4768:	0009290e 	andeq	r2, r9, lr, lsl #18
    476c:	02520400 	subseq	r0, r2, #0
    4770:	00001efb 	strdeq	r1, [r0], -fp
    4774:	02b42303 	adcseq	r2, r4, #201326592	; 0xc000000
    4778:	000ace0e 	andeq	ip, sl, lr, lsl #28
    477c:	02530400 	subseq	r0, r3, #0
    4780:	00001e4a 	andeq	r1, r0, sl, asr #28
    4784:	02b82303 	adcseq	r2, r8, #201326592	; 0xc000000
    4788:	0004310e 	andeq	r3, r4, lr, lsl #2
    478c:	02540400 	subseq	r0, r4, #0
    4790:	00001f00 	andeq	r1, r0, r0, lsl #30
    4794:	02bc2303 	adcseq	r2, ip, #201326592	; 0xc000000
    4798:	00100c0e 	andseq	r0, r0, lr, lsl #24
    479c:	02550400 	subseq	r0, r5, #0
    47a0:	00001f05 	andeq	r1, r0, r5, lsl #30
    47a4:	02c02303 	sbceq	r2, r0, #201326592	; 0xc000000
    47a8:	00116c0e 	andseq	r6, r1, lr, lsl #24
    47ac:	02560400 	subseq	r0, r6, #0
    47b0:	00001f0a 	andeq	r1, r0, sl, lsl #30
    47b4:	02c42303 	sbceq	r2, r4, #201326592	; 0xc000000
    47b8:	000b540e 	andeq	r5, fp, lr, lsl #8
    47bc:	02570400 	subseq	r0, r7, #0
    47c0:	00001e4a 	andeq	r1, r0, sl, asr #28
    47c4:	02c82303 	sbceq	r2, r8, #201326592	; 0xc000000
    47c8:	000bbf0e 	andeq	fp, fp, lr, lsl #30
    47cc:	02580400 	subseq	r0, r8, #0
    47d0:	00001f0f 	andeq	r1, r0, pc, lsl #30
    47d4:	02cc2303 	sbceq	r2, ip, #201326592	; 0xc000000
    47d8:	000b710e 	andeq	r7, fp, lr, lsl #2
    47dc:	02590400 	subseq	r0, r9, #0
    47e0:	00001f14 	andeq	r1, r0, r4, lsl pc
    47e4:	02d02303 	sbcseq	r2, r0, #201326592	; 0xc000000
    47e8:	0011640e 	andseq	r6, r1, lr, lsl #8
    47ec:	025a0400 	subseq	r0, sl, #0
    47f0:	00001f19 	andeq	r1, r0, r9, lsl pc
    47f4:	02d42303 	sbcseq	r2, r4, #201326592	; 0xc000000
    47f8:	000b5f0e 	andeq	r5, fp, lr, lsl #30
    47fc:	025b0400 	subseq	r0, fp, #0
    4800:	00001e4a 	andeq	r1, r0, sl, asr #28
    4804:	02d82303 	sbcseq	r2, r8, #201326592	; 0xc000000
    4808:	0004760e 	andeq	r7, r4, lr, lsl #12
    480c:	025c0400 	subseq	r0, ip, #0
    4810:	00001f1e 	andeq	r1, r0, lr, lsl pc
    4814:	02dc2303 	sbcseq	r2, ip, #201326592	; 0xc000000
    4818:	0011440e 	andseq	r4, r1, lr, lsl #8
    481c:	025d0400 	subseq	r0, sp, #0
    4820:	00001f23 	andeq	r1, r0, r3, lsr #30
    4824:	02e02303 	rsceq	r2, r0, #201326592	; 0xc000000
    4828:	02310f00 	eorseq	r0, r1, #0
    482c:	af0f0000 	svcge	0x000f0000
    4830:	0f000002 	svceq	0x00000002
    4834:	00000360 	andeq	r0, r0, r0, ror #6
    4838:	0003de0f 	andeq	sp, r3, pc, lsl #28
    483c:	04b10f00 	ldrteq	r0, [r1], #3840	; 0xf00
    4840:	5e0f0000 	cdppl	0, 0, cr0, cr15, cr0, {0}
    4844:	0f000000 	svceq	0x00000000
    4848:	000005b7 	undefined instruction 0x000005b7
    484c:	0006ce0f 	andeq	ip, r6, pc, lsl #28
    4850:	075d0f00 	ldrbeq	r0, [sp, -r0, lsl #30]
    4854:	410f0000 	mrsmi	r0, CPSR
    4858:	0f000008 	svceq	0x00000008
    485c:	00000914 	andeq	r0, r0, r4, lsl r9
    4860:	0009920f 	andeq	r9, r9, pc, lsl #4
    4864:	0a100f00 	beq	40846c <__bss_end+0x40418c>
    4868:	5e100000 	cdppl	0, 1, cr0, cr0, cr0, {0}
    486c:	82000000 	andhi	r0, r0, #0
    4870:	1100001e 	tstne	r0, lr, lsl r0
    4874:	00000133 	andeq	r0, r0, r3, lsr r1
    4878:	720f0003 	andvc	r0, pc, #3
    487c:	0f00001e 	svceq	0x0000001e
    4880:	00000ad2 	ldrdeq	r0, [r0], -r2
    4884:	000b720f 	andeq	r7, fp, pc, lsl #4
    4888:	0bf00f00 	bleq	ffc08490 <__bss_end+0xffc041b0>
    488c:	2a0f0000 	bcs	3c4894 <__bss_end+0x3c05b4>
    4890:	0f00000c 	svceq	0x0000000c
    4894:	00000e0e 	andeq	r0, r0, lr, lsl #28
    4898:	000f480f 	andeq	r4, pc, pc, lsl #16
    489c:	10160f00 	andsne	r0, r6, r0, lsl #30
    48a0:	d20f0000 	andle	r0, pc, #0
    48a4:	0f000010 	svceq	0x00000010
    48a8:	00001e72 	andeq	r1, r0, r2, ror lr
    48ac:	00116a0f 	andseq	r6, r1, pc, lsl #20
    48b0:	11cc0f00 	bicne	r0, ip, r0, lsl #30
    48b4:	640f0000 	strvs	r0, [pc], #0	; 48bc <__bss_end+0x5dc>
    48b8:	0f000012 	svceq	0x00000012
    48bc:	000012fc 	strdeq	r1, [r0], -ip
    48c0:	0013820f 	andseq	r8, r3, pc, lsl #4
    48c4:	005e1000 	subseq	r1, lr, r0
    48c8:	1edd0000 	cdpne	0, 13, cr0, cr13, cr0, {0}
    48cc:	33110000 	tstcc	r1, #0
    48d0:	09000001 	stmdbeq	r0, {r0}
    48d4:	1ecd0f00 	cdpne	15, 12, cr0, cr13, cr0, {0}
    48d8:	620f0000 	andvs	r0, pc, #0
    48dc:	0f000014 	svceq	0x00000014
    48e0:	000014e8 	andeq	r1, r0, r8, ror #9
    48e4:	00156e0f 	andseq	r6, r5, pc, lsl #28
    48e8:	1e720f00 	cdpne	15, 7, cr0, cr2, cr0, {0}
    48ec:	2a0f0000 	bcs	3c48f4 <__bss_end+0x3c0614>
    48f0:	0f000016 	svceq	0x00000016
    48f4:	000016b0 	undefined instruction 0x000016b0
    48f8:	0017240f 	andseq	r2, r7, pc, lsl #8
    48fc:	17620f00 	strbne	r0, [r2, -r0, lsl #30]!
    4900:	a00f0000 	andge	r0, pc, r0
    4904:	0f000017 	svceq	0x00000017
    4908:	000017de 	ldrdeq	r1, [r0], -lr
    490c:	0018520f 	andseq	r5, r8, pc, lsl #4
    4910:	18d80f00 	ldmne	r8, {r8, r9, sl, fp}^
    4914:	700f0000 	andvc	r0, pc, r0
    4918:	0f000019 	svceq	0x00000019
    491c:	000019c0 	andeq	r1, r0, r0, asr #19
    4920:	0010fe0b 	andseq	pc, r0, fp, lsl #28
    4924:	025f0400 	subseq	r0, pc, #0
    4928:	000019cc 	andeq	r1, r0, ip, asr #19
    492c:	13ce0112 	bicne	r0, lr, #-2147483644	; 0x80000004
    4930:	2c010000 	stccs	0, cr0, [r1], {0}
    4934:	00004c01 	andeq	r4, r0, r1, lsl #24
    4938:	000ed400 	andeq	sp, lr, r0, lsl #8
    493c:	000ef000 	andeq	pc, lr, r0
    4940:	125d0100 	subsne	r0, sp, #0
    4944:	0013db01 	andseq	sp, r3, r1, lsl #22
    4948:	013e0100 	teqeq	lr, r0, lsl #2
    494c:	0000004c 	andeq	r0, r0, ip, asr #32
    4950:	00000ef0 	strdeq	r0, [r0], -r0
    4954:	00000f4c 	andeq	r0, r0, ip, asr #30
    4958:	01125d01 	tsteq	r2, r1, lsl #26
    495c:	0000139a 	muleq	r0, sl, r3
    4960:	4c015701 	stcmi	7, cr5, [r1], {1}
    4964:	4c000000 	stcmi	0, cr0, [r0], {0}
    4968:	a800000f 	stmdage	r0, {r0, r1, r2, r3}
    496c:	0100000f 	tsteq	r0, pc
    4970:	6f01135d 	svcvs	0x0001135d
    4974:	01000013 	tsteq	r0, r3, lsl r0
    4978:	004c0170 	subeq	r0, ip, r0, ror r1
    497c:	0fa80000 	svceq	0x00a80000
    4980:	100c0000 	andne	r0, ip, r0
    4984:	5d010000 	stcpl	0, cr0, [r1]
    4988:	00001fa4 	andeq	r1, r0, r4, lsr #31
    498c:	00002d14 	andeq	r2, r0, r4, lsl sp
    4990:	a4700100 	ldrbtge	r0, [r0], #-256	; 0x100
    4994:	0400001f 	streq	r0, [r0], #-31
    4998:	00000003 	andeq	r0, r0, r3
    499c:	007e0415 	rsbseq	r0, lr, r5, lsl r4
    49a0:	01130000 	tsteq	r3, r0
    49a4:	00001349 	andeq	r1, r0, r9, asr #6
    49a8:	4c018a01 	stcmi	10, cr8, [r1], {1}
    49ac:	0c000000 	stceq	0, cr0, [r0], {0}
    49b0:	68000010 	stmdavs	r0, {r4}
    49b4:	01000010 	tsteq	r0, r0, lsl r0
    49b8:	001fd55d 	andseq	sp, pc, sp, asr r5
    49bc:	002d1400 	eoreq	r1, sp, r0, lsl #8
    49c0:	8a010000 	bhi	449c8 <__bss_end+0x406e8>
    49c4:	00001fa4 	andeq	r1, r0, r4, lsr #31
    49c8:	00000322 	andeq	r0, r0, r2, lsr #6
    49cc:	32011300 	andcc	r1, r1, #0
    49d0:	01000013 	tsteq	r0, r3, lsl r0
    49d4:	004c01a6 	subeq	r0, ip, r6, lsr #3
    49d8:	10680000 	rsbne	r0, r8, r0
    49dc:	10c80000 	sbcne	r0, r8, r0
    49e0:	5d010000 	stcpl	0, cr0, [r1]
    49e4:	00002000 	andeq	r2, r0, r0
    49e8:	00136414 	andseq	r6, r3, r4, lsl r4
    49ec:	00a60100 	adceq	r0, r6, r0, lsl #2
    49f0:	40000020 	andmi	r0, r0, r0, lsr #32
    49f4:	00000003 	andeq	r0, r0, r3
    49f8:	00e00415 	rsceq	r0, r0, r5, lsl r4
    49fc:	01130000 	tsteq	r3, r0
    4a00:	00001358 	andeq	r1, r0, r8, asr r3
    4a04:	4c01c001 	stcmi	0, cr12, [r1], {1}
    4a08:	c8000000 	stmdagt	r0, {}
    4a0c:	18000010 	stmdane	r0, {r4}
    4a10:	01000011 	tsteq	r0, r1, lsl r0
    4a14:	0020315d 	eoreq	r3, r0, sp, asr r1
    4a18:	13641400 	cmnne	r4, #0
    4a1c:	c0010000 	andgt	r0, r1, r0
    4a20:	00002000 	andeq	r2, r0, r0
    4a24:	0000035e 	andeq	r0, r0, lr, asr r3
    4a28:	ac011600 	stcge	6, cr1, [r1], {0}
    4a2c:	01000013 	tsteq	r0, r3, lsl r0
    4a30:	111801da 	undefined instruction 0x111801da
    4a34:	11480000 	cmpne	r8, r0
    4a38:	5d010000 	stcpl	0, cr0, [r1]
    4a3c:	00002056 	andeq	r2, r0, r6, asr r0
    4a40:	00137e17 	andseq	r7, r3, r7, lsl lr
    4a44:	57da0100 	ldrbpl	r0, [sl, r0, lsl #2]
    4a48:	01000000 	tsteq	r0, r0
    4a4c:	71180050 	tstvc	r8, r0, asr r0
    4a50:	01000010 	tsteq	r0, r0, lsl r0
    4a54:	00206716 	eoreq	r6, r0, r6, lsl r7
    4a58:	9c030500 	cfstr32ls	mvfx0, [r3], {0}
    4a5c:	15000042 	strne	r0, [r0, #-66]	; 0x42
    4a60:	001f2804 	andseq	r2, pc, r4, lsl #16
    4a64:	13bf1900 	undefined instruction 0x13bf1900
    4a68:	17010000 	strne	r0, [r1, -r0]
    4a6c:	0000005e 	andeq	r0, r0, lr, asr r0
    4a70:	dc030501 	cfstr32le	mvfx0, [r3], {1}
    4a74:	00000042 	andeq	r0, r0, r2, asr #32
    4a78:	000004c9 	andeq	r0, r0, r9, asr #9
    4a7c:	05d40002 	ldrbeq	r0, [r4, #2]
    4a80:	01040000 	tsteq	r4, r0
    4a84:	00000055 	andeq	r0, r0, r5, asr r0
    4a88:	0014af01 	andseq	sl, r4, r1, lsl #30
    4a8c:	00029700 	andeq	r9, r2, r0, lsl #14
    4a90:	00114800 	andseq	r4, r1, r0, lsl #16
    4a94:	00203800 	eoreq	r3, r0, r0, lsl #16
    4a98:	0005bb00 	andeq	fp, r5, r0, lsl #22
    4a9c:	06010200 	streq	r0, [r1], -r0, lsl #4
    4aa0:	000001a8 	andeq	r0, r0, r8, lsr #3
    4aa4:	00030503 	andeq	r0, r3, r3, lsl #10
    4aa8:	370f0300 	strcc	r0, [pc, -r0, lsl #6]
    4aac:	02000000 	andeq	r0, r0, #0
    4ab0:	01a60801 	undefined instruction 0x01a60801
    4ab4:	02020000 	andeq	r0, r2, #0
    4ab8:	00006105 	andeq	r6, r0, r5, lsl #2
    4abc:	07020200 	streq	r0, [r2, -r0, lsl #4]
    4ac0:	000002ed 	andeq	r0, r0, sp, ror #5
    4ac4:	0001e403 	andeq	lr, r1, r3, lsl #8
    4ac8:	57120300 	ldrpl	r0, [r2, -r0, lsl #6]
    4acc:	04000000 	streq	r0, [r0]
    4ad0:	6e690504 	cdpvs	5, 6, cr0, cr9, cr4, {0}
    4ad4:	16030074 	undefined instruction 0x16030074
    4ad8:	03000001 	movweq	r0, #1
    4adc:	00006913 	andeq	r6, r0, r3, lsl r9
    4ae0:	07040200 	streq	r0, [r4, -r0, lsl #4]
    4ae4:	0000022a 	andeq	r0, r0, sl, lsr #4
    4ae8:	2a050802 	bcs	146af8 <__bss_end+0x142818>
    4aec:	02000001 	andeq	r0, r0, #1
    4af0:	02200708 	eoreq	r0, r0, #2097152	; 0x200000
    4af4:	04050000 	streq	r0, [r5]
    4af8:	02580607 	subseq	r0, r8, #7340032	; 0x700000
    4afc:	04040000 	streq	r0, [r4]
    4b00:	0000b817 	andeq	fp, r0, r7, lsl r8
    4b04:	00e60700 	rsceq	r0, r6, r0, lsl #14
    4b08:	07000000 	streq	r0, [r0, -r0]
    4b0c:	000000f6 	strdeq	r0, [r0], -r6
    4b10:	01060701 	tsteq	r6, r1, lsl #14
    4b14:	07020000 	streq	r0, [r2, -r0]
    4b18:	00000279 	andeq	r0, r0, r9, ror r2
    4b1c:	02880703 	addeq	r0, r8, #786432	; 0xc0000
    4b20:	07040000 	streq	r0, [r4, -r0]
    4b24:	0000020c 	andeq	r0, r0, ip, lsl #4
    4b28:	02d00705 	sbcseq	r0, r0, #1310720	; 0x140000
    4b2c:	00060000 	andeq	r0, r6, r0
    4b30:	00146008 	andseq	r6, r4, r8
    4b34:	4b041c00 	blmi	10bb3c <__bss_end+0x10785c>
    4b38:	00000126 	andeq	r0, r0, r6, lsr #2
    4b3c:	00646909 	rsbeq	r6, r4, r9, lsl #18
    4b40:	00814c04 	addeq	r4, r1, r4, lsl #24
    4b44:	23020000 	movwcs	r0, #8192	; 0x2000
    4b48:	14fa0a00 	ldrbtne	r0, [sl], #2560	; 0xa00
    4b4c:	4d040000 	stcmi	0, cr0, [r4]
    4b50:	00000057 	andeq	r0, r0, r7, asr r0
    4b54:	0a042302 	beq	10d764 <__bss_end+0x109484>
    4b58:	00001401 	andeq	r1, r0, r1, lsl #8
    4b5c:	00574e04 	subseq	r4, r7, r4, lsl #28
    4b60:	23020000 	movwcs	r0, #8192	; 0x2000
    4b64:	14140a08 	ldrne	r0, [r4], #-2568	; 0xa08
    4b68:	4f040000 	svcmi	0x00040000
    4b6c:	00000057 	andeq	r0, r0, r7, asr r0
    4b70:	0a0c2302 	beq	30d780 <__bss_end+0x3094a0>
    4b74:	00001426 	andeq	r1, r0, r6, lsr #8
    4b78:	00575004 	subseq	r5, r7, r4
    4b7c:	23020000 	movwcs	r0, #8192	; 0x2000
    4b80:	143d0a10 	ldrtne	r0, [sp], #-2576	; 0xa10
    4b84:	51040000 	tstpl	r4, r0
    4b88:	00000057 	andeq	r0, r0, r7, asr r0
    4b8c:	0a142302 	beq	50d79c <__bss_end+0x5094bc>
    4b90:	0000141c 	andeq	r1, r0, ip, lsl r4
    4b94:	00575204 	subseq	r5, r7, r4, lsl #4
    4b98:	23020000 	movwcs	r0, #8192	; 0x2000
    4b9c:	71060018 	tstvc	r6, r8, lsl r0
    4ba0:	04000008 	streq	r0, [r0], #-8
    4ba4:	013f2905 	teqeq	pc, r5, lsl #18
    4ba8:	0d070000 	stceq	0, cr0, [r7]
    4bac:	0000000f 	andeq	r0, r0, pc
    4bb0:	0004de07 	andeq	sp, r4, r7, lsl #28
    4bb4:	0b000100 	bleq	4fbc <__bss_end+0xcdc>
    4bb8:	000013f7 	strdeq	r1, [r0], -r7
    4bbc:	6e012b01 	vmlavs.f64	d2, d1, d1
    4bc0:	03000001 	movweq	r0, #1
    4bc4:	0000016e 	andeq	r0, r0, lr, ror #2
    4bc8:	0064690c 	rsbeq	r6, r4, ip, lsl #18
    4bcc:	00572b01 	subseq	r2, r7, r1, lsl #22
    4bd0:	720d0000 	andvc	r0, sp, #0
    4bd4:	2d010069 	stccs	0, cr0, [r1, #-420]	; 0xfffffe5c
    4bd8:	0000016e 	andeq	r0, r0, lr, ror #2
    4bdc:	0100690d 	tsteq	r0, sp, lsl #18
    4be0:	0000572e 	andeq	r5, r0, lr, lsr #14
    4be4:	040e0000 	streq	r0, [lr]
    4be8:	000000b8 	strheq	r0, [r0], -r8
    4bec:	0014ee0b 	andseq	lr, r4, fp, lsl #28
    4bf0:	01140100 	tsteq	r4, r0, lsl #2
    4bf4:	00000057 	andeq	r0, r0, r7, asr r0
    4bf8:	00019c03 	andeq	r9, r1, r3, lsl #24
    4bfc:	145b0f00 	ldrbne	r0, [fp], #-3840	; 0xf00
    4c00:	14010000 	strne	r0, [r1]
    4c04:	0000016e 	andeq	r0, r0, lr, ror #2
    4c08:	0014900f 	andseq	r9, r4, pc
    4c0c:	4c140100 	ldfmis	f0, [r4], {0}
    4c10:	00000000 	andeq	r0, r0, r0
    4c14:	0015090b 	andseq	r0, r5, fp, lsl #18
    4c18:	01480200 	cmpeq	r8, r0, lsl #4
    4c1c:	0000005e 	andeq	r0, r0, lr, asr r0
    4c20:	0001e503 	andeq	lr, r1, r3, lsl #10
    4c24:	14e50f00 	strbtne	r0, [r5], #3840	; 0xf00
    4c28:	48020000 	stmdami	r2, {}
    4c2c:	0000005e 	andeq	r0, r0, lr, asr r0
    4c30:	0013ee0f 	andseq	lr, r3, pc, lsl #28
    4c34:	5e480200 	cdppl	2, 4, cr0, cr8, cr0, {0}
    4c38:	10000000 	andne	r0, r0, r0
    4c3c:	00001408 	andeq	r1, r0, r8, lsl #8
    4c40:	005e4a02 	subseq	r4, lr, r2, lsl #20
    4c44:	01100000 	tsteq	r0, r0
    4c48:	02000015 	andeq	r0, r0, #21
    4c4c:	00005e4b 	andeq	r5, r0, fp, asr #28
    4c50:	14411000 	strbne	r1, [r1]
    4c54:	4c020000 	stcmi	0, cr0, [r2], {0}
    4c58:	0000004c 	andeq	r0, r0, ip, asr #32
    4c5c:	74011100 	strvc	r1, [r1], #-256	; 0x100
    4c60:	01000014 	tsteq	r0, r4, lsl r0
    4c64:	4c0102b4 	sfmmi	f0, 4, [r1], {180}	; (stcmi 2, cr0, [r1], {180})	; 0xb4
    4c68:	48000000 	stmdami	r0, {}
    4c6c:	e8000011 	stmda	r0, {r0, r4}
    4c70:	7c000011 	stcvc	0, cr0, [r0], {17}
    4c74:	14000003 	strne	r0, [r0], #-3
    4c78:	12000002 	andne	r0, r0, #2
    4c7c:	00001498 	muleq	r0, r8, r4
    4c80:	2c02b601 	stccs	6, cr11, [r2], {1}
    4c84:	9b000000 	blls	4c8c <__bss_end+0x9ac>
    4c88:	00000003 	andeq	r0, r0, r3
    4c8c:	14470111 	strbne	r0, [r7], #-273	; 0x111
    4c90:	76010000 	strvc	r0, [r1], -r0
    4c94:	004c0102 	subeq	r0, ip, r2, lsl #2
    4c98:	11e80000 	mvnne	r0, r0
    4c9c:	12880000 	addne	r0, r8, #0
    4ca0:	03dd0000 	bicseq	r0, sp, #0
    4ca4:	02430000 	subeq	r0, r3, #0
    4ca8:	98120000 	ldmdals	r2, {}
    4cac:	01000014 	tsteq	r0, r4, lsl r0
    4cb0:	002c0278 	eoreq	r0, ip, r8, ror r2
    4cb4:	03fc0000 	mvnseq	r0, #0
    4cb8:	11000000 	tstne	r0, r0
    4cbc:	00142e01 	andseq	r2, r4, r1, lsl #28
    4cc0:	01f90100 	mvnseq	r0, r0, lsl #2
    4cc4:	00004c01 	andeq	r4, r0, r1, lsl #24
    4cc8:	00128800 	andseq	r8, r2, r0, lsl #16
    4ccc:	00159c00 	andseq	r9, r5, r0, lsl #24
    4cd0:	00043e00 	andeq	r3, r4, r0, lsl #28
    4cd4:	00028200 	andeq	r8, r2, r0, lsl #4
    4cd8:	14691300 	strbtne	r1, [r9], #-768	; 0x300
    4cdc:	f9010000 	undefined instruction 0xf9010000
    4ce0:	00005e01 	andeq	r5, r0, r1, lsl #28
    4ce4:	00045d00 	andeq	r5, r4, r0, lsl #26
    4ce8:	14981200 	ldrne	r1, [r8], #512	; 0x200
    4cec:	fb010000 	blx	44cf6 <__bss_end+0x40a16>
    4cf0:	00002c01 	andeq	r2, r0, r1, lsl #24
    4cf4:	00049c00 	andeq	r9, r4, r0, lsl #24
    4cf8:	01140000 	tsteq	r4, r0
    4cfc:	00001488 	andeq	r1, r0, r8, lsl #9
    4d00:	4c018d01 	stcmi	13, cr8, [r1], {1}
    4d04:	9c000000 	stcls	0, cr0, [r0], {0}
    4d08:	44000015 	strmi	r0, [r0], #-21
    4d0c:	74000016 	strvc	r0, [r0], #-22
    4d10:	fb000005 	blx	4d2e <__bss_end+0xa4e>
    4d14:	15000002 	strne	r0, [r0, #-2]
    4d18:	00001e56 	andeq	r1, r0, r6, asr lr
    4d1c:	00818d01 	addeq	r8, r1, r1, lsl #26
    4d20:	05930000 	ldreq	r0, [r3]
    4d24:	5b160000 	blpl	584d2c <__bss_end+0x580a4c>
    4d28:	01000014 	tsteq	r0, r4, lsl r0
    4d2c:	00016e8f 	andeq	r6, r1, pc, lsl #29
    4d30:	17540100 	ldrbne	r0, [r4, -r0, lsl #2]
    4d34:	006c6176 	rsbeq	r6, ip, r6, ror r1
    4d38:	002c9001 	eoreq	r9, ip, r1
    4d3c:	05bc0000 	ldreq	r0, [ip]!
    4d40:	0f100000 	svceq	0x00100000
    4d44:	01000014 	tsteq	r0, r4, lsl r0
    4d48:	00002c90 	muleq	r0, r0, ip
    4d4c:	013f1800 	teqeq	pc, r0, lsl #16
    4d50:	15b00000 	ldrne	r0, [r0]!
    4d54:	00000000 	andeq	r0, r0, r0
    4d58:	92010000 	andls	r0, r1, #0
    4d5c:	00015019 	andeq	r5, r1, r9, lsl r0
    4d60:	00181a00 	andseq	r1, r8, r0, lsl #20
    4d64:	5a1b0000 	bpl	6c4d6c <__bss_end+0x6c0a8c>
    4d68:	1b000001 	blne	4d74 <__bss_end+0xa94>
    4d6c:	00000164 	andeq	r0, r0, r4, ror #2
    4d70:	14000000 	strne	r0, [r0]
    4d74:	0014d501 	andseq	sp, r4, r1, lsl #10
    4d78:	01470100 	cmpeq	r7, r0, lsl #2
    4d7c:	0000004c 	andeq	r0, r0, ip, asr #32
    4d80:	00001644 	andeq	r1, r0, r4, asr #12
    4d84:	00001838 	andeq	r1, r0, r8, lsr r8
    4d88:	000005e6 	andeq	r0, r0, r6, ror #11
    4d8c:	00000449 	andeq	r0, r0, r9, asr #8
    4d90:	001e5615 	andseq	r5, lr, r5, lsl r6
    4d94:	81470100 	cmphi	r7, r0, lsl #2
    4d98:	05000000 	streq	r0, [r0]
    4d9c:	15000006 	strne	r0, [r0, #-6]
    4da0:	00001490 	muleq	r0, r0, r4
    4da4:	004c4701 	subeq	r4, ip, r1, lsl #14
    4da8:	064f0000 	strbeq	r0, [pc], -r0
    4dac:	5b160000 	blpl	584db4 <__bss_end+0x580ad4>
    4db0:	01000014 	tsteq	r0, r4, lsl r0
    4db4:	00016e49 	andeq	r6, r1, r9, asr #28
    4db8:	17540100 	ldrbne	r0, [r4, -r0, lsl #2]
    4dbc:	006c6176 	rsbeq	r6, ip, r6, ror r1
    4dc0:	002c4a01 	eoreq	r4, ip, r1, lsl #20
    4dc4:	06990000 	ldreq	r0, [r9], r0
    4dc8:	0f1c0000 	svceq	0x001c0000
    4dcc:	01000014 	tsteq	r0, r4, lsl r0
    4dd0:	00002c4a 	andeq	r2, r0, sl, asr #24
    4dd4:	0006ee00 	andeq	lr, r6, r0, lsl #28
    4dd8:	14981c00 	ldrne	r1, [r8], #3072	; 0xc00
    4ddc:	4a010000 	bmi	44de4 <__bss_end+0x40b04>
    4de0:	0000002c 	andeq	r0, r0, ip, lsr #32
    4de4:	00000701 	andeq	r0, r0, r1, lsl #14
    4de8:	74657217 	strbtvc	r7, [r5], #-535	; 0x217
    4dec:	4c4b0100 	stfmie	f0, [fp], {0}
    4df0:	39000000 	stmdbcc	r0, {}
    4df4:	1d000007 	stcne	0, cr0, [r0, #-28]	; 0xffffffe4
    4df8:	0000013f 	andeq	r0, r0, pc, lsr r1
    4dfc:	00001654 	andeq	r1, r0, r4, asr r6
    4e00:	00000030 	andeq	r0, r0, r0, lsr r0
    4e04:	03a84d01 	undefined instruction 0x03a84d01
    4e08:	50190000 	andspl	r0, r9, r0
    4e0c:	1a000001 	bne	4e18 <__bss_end+0xb38>
    4e10:	00000048 	andeq	r0, r0, r8, asr #32
    4e14:	00015a1b 	andeq	r5, r1, fp, lsl sl
    4e18:	01641b00 	cmneq	r4, r0, lsl #22
    4e1c:	00000000 	andeq	r0, r0, r0
    4e20:	0001741e 	andeq	r7, r1, lr, lsl r4
    4e24:	00167c00 	andseq	r7, r6, r0, lsl #24
    4e28:	00169800 	andseq	r9, r6, r0, lsl #16
    4e2c:	c6520100 	ldrbgt	r0, [r2], -r0, lsl #2
    4e30:	19000003 	stmdbne	r0, {r0, r1}
    4e34:	00000190 	muleq	r0, r0, r1
    4e38:	00018519 	andeq	r8, r1, r9, lsl r5
    4e3c:	9c1d0000 	ldcls	0, cr0, [sp], {0}
    4e40:	9c000001 	stcls	0, cr0, [r0], {1}
    4e44:	60000016 	andvs	r0, r0, r6, lsl r0
    4e48:	01000000 	tsteq	r0, r0
    4e4c:	00040957 	andeq	r0, r4, r7, asr r9
    4e50:	01b81900 	undefined instruction 0x01b81900
    4e54:	ad1f0000 	ldcge	0, cr0, [pc]
    4e58:	57000001 	strpl	r0, [r0, -r1]
    4e5c:	1a000007 	bne	4e80 <__bss_end+0xba0>
    4e60:	00000080 	andeq	r0, r0, r0, lsl #1
    4e64:	0001c320 	andeq	ip, r1, r0, lsr #6
    4e68:	00078000 	andeq	r8, r7, r0
    4e6c:	01ce2000 	biceq	r2, lr, r0
    4e70:	07a90000 	streq	r0, [r9, r0]!
    4e74:	d9200000 	stmdble	r0!, {}
    4e78:	f3000001 	vhadd.u8	d0, d0, d1
    4e7c:	00000007 	andeq	r0, r0, r7
    4e80:	019c1800 	orrseq	r1, ip, r0, lsl #16
    4e84:	17080000 	strne	r0, [r8, -r0]
    4e88:	00a00000 	adceq	r0, r0, r0
    4e8c:	5d010000 	stcpl	0, cr0, [r1]
    4e90:	0001b819 	andeq	fp, r1, r9, lsl r8
    4e94:	01ad1f00 	undefined instruction 0x01ad1f00
    4e98:	081c0000 	ldmdaeq	ip, {}
    4e9c:	c01a0000 	andsgt	r0, sl, r0
    4ea0:	20000000 	andcs	r0, r0, r0
    4ea4:	000001c3 	andeq	r0, r0, r3, asr #3
    4ea8:	0000083a 	andeq	r0, r0, sl, lsr r8
    4eac:	0001ce20 	andeq	ip, r1, r0, lsr #28
    4eb0:	00084d00 	andeq	r4, r8, r0, lsl #26
    4eb4:	01d92000 	bicseq	r2, r9, r0
    4eb8:	088c0000 	stmeq	ip, {}
    4ebc:	00000000 	andeq	r0, r0, r0
    4ec0:	a0011400 	andge	r1, r1, r0, lsl #8
    4ec4:	01000014 	tsteq	r0, r4, lsl r0
    4ec8:	004c01af 	subeq	r0, ip, pc, lsr #3
    4ecc:	18380000 	ldmdane	r8!, {}
    4ed0:	20380000 	eorscs	r0, r8, r0
    4ed4:	089f0000 	ldmeq	pc, {}
    4ed8:	04850000 	streq	r0, [r5]
    4edc:	69150000 	ldmdbvs	r5, {}
    4ee0:	01000014 	tsteq	r0, r4, lsl r0
    4ee4:	00005eaf 	andeq	r5, r0, pc, lsr #29
    4ee8:	0008be00 	andeq	fp, r8, r0, lsl #28
    4eec:	14981c00 	ldrne	r1, [r8], #3072	; 0xc00
    4ef0:	b1010000 	tstlt	r1, r0
    4ef4:	0000002c 	andeq	r0, r0, ip, lsr #32
    4ef8:	000008f2 	strdeq	r0, [r0], -r2
    4efc:	00572100 	subseq	r2, r7, r0, lsl #2
    4f00:	04950000 	ldreq	r0, [r5]
    4f04:	7e220000 	cdpvc	0, 2, cr0, cr2, cr0, {0}
    4f08:	0f000000 	svceq	0x00000000
    4f0c:	14c51600 	strbne	r1, [r5], #1536	; 0x600
    4f10:	1c010000 	stcne	0, cr0, [r1], {0}
    4f14:	000004a6 	andeq	r0, r0, r6, lsr #9
    4f18:	3e940305 	cdpcc	3, 9, cr0, cr4, cr5, {0}
    4f1c:	85230000 	strhi	r0, [r3]!
    4f20:	21000004 	tstcs	r0, r4
    4f24:	000000b8 	strheq	r0, [r0], -r8
    4f28:	000004bb 	undefined instruction 0x000004bb
    4f2c:	00007e22 	andeq	r7, r0, r2, lsr #28
    4f30:	16000500 	strne	r0, [r0], -r0, lsl #10
    4f34:	00001455 	andeq	r1, r0, r5, asr r4
    4f38:	04ab2201 	strteq	r2, [fp], #513	; 0x201
    4f3c:	03050000 	movweq	r0, #20480	; 0x5000
    4f40:	00003ed8 	ldrdeq	r3, [r0], -r8
    4f44:	00034c00 	andeq	r4, r3, r0, lsl #24
    4f48:	a6000200 	strge	r0, [r0], -r0, lsl #4
    4f4c:	04000007 	streq	r0, [r0], #-7
    4f50:	00005501 	andeq	r5, r0, r1, lsl #10
    4f54:	16ac0100 	strtne	r0, [ip], r0, lsl #2
    4f58:	02970000 	addseq	r0, r7, #0
    4f5c:	20380000 	eorscs	r0, r8, r0
    4f60:	21a80000 	undefined instruction 0x21a80000
    4f64:	08040000 	stmdaeq	r4, {}
    4f68:	01020000 	tsteq	r2, r0
    4f6c:	0001a806 	andeq	sl, r1, r6, lsl #16
    4f70:	08010200 	stmdaeq	r1, {r9}
    4f74:	000001a6 	andeq	r0, r0, r6, lsr #3
    4f78:	61050202 	tstvs	r5, r2, lsl #4
    4f7c:	02000000 	andeq	r0, r0, #0
    4f80:	02ed0702 	rsceq	r0, sp, #524288	; 0x80000
    4f84:	e4030000 	str	r0, [r3]
    4f88:	02000001 	andeq	r0, r0, #1
    4f8c:	00004c12 	andeq	r4, r0, r2, lsl ip
    4f90:	05040400 	streq	r0, [r4, #-1024]	; 0x400
    4f94:	00746e69 	rsbseq	r6, r4, r9, ror #28
    4f98:	00011603 	andeq	r1, r1, r3, lsl #12
    4f9c:	5e130200 	cdppl	2, 1, cr0, cr3, cr0, {0}
    4fa0:	02000000 	andeq	r0, r0, #0
    4fa4:	022a0704 	eoreq	r0, sl, #1048576	; 0x100000
    4fa8:	08020000 	stmdaeq	r2, {}
    4fac:	00012a05 	andeq	r2, r1, r5, lsl #20
    4fb0:	07080200 	streq	r0, [r8, -r0, lsl #4]
    4fb4:	00000220 	andeq	r0, r0, r0, lsr #4
    4fb8:	06070405 	streq	r0, [r7], -r5, lsl #8
    4fbc:	00000053 	andeq	r0, r0, r3, asr r0
    4fc0:	00005307 	andeq	r5, r0, r7, lsl #6
    4fc4:	00008b00 	andeq	r8, r0, r0, lsl #22
    4fc8:	00730800 	rsbseq	r0, r3, r0, lsl #16
    4fcc:	00040000 	andeq	r0, r4, r0
    4fd0:	00152b09 	andseq	r2, r5, r9, lsl #22
    4fd4:	19030400 	stmdbne	r3, {sl}
    4fd8:	000000ee 	andeq	r0, r0, lr, ror #1
    4fdc:	0016540a 	andseq	r5, r6, sl, lsl #8
    4fe0:	ad0a0000 	stcge	0, cr0, [sl]
    4fe4:	05000015 	streq	r0, [r0, #-21]
    4fe8:	0015bc0a 	andseq	fp, r5, sl, lsl #24
    4fec:	6e0a0600 	cfmadd32vs	mvax0, mvfx0, mvfx10, mvfx0
    4ff0:	15000015 	strne	r0, [r0, #-21]
    4ff4:	0015d80a 	andseq	sp, r5, sl, lsl #16
    4ff8:	ea0a1600 	b	28a800 <__bss_end+0x286520>
    4ffc:	17000015 	smladne	r0, r5, r0, r0
    5000:	0015800a 	andseq	r8, r5, sl
    5004:	990a1800 	stmdbls	sl, {fp, ip}
    5008:	1d000015 	stcne	0, cr0, [r0, #-84]	; 0xffffffac
    500c:	00168a0a 	andseq	r8, r6, sl, lsl #20
    5010:	fc0a1f00 	stc2	15, cr1, [sl], {0}
    5014:	26000015 	undefined instruction 0x26000015
    5018:	00160c0a 	andseq	r0, r6, sl, lsl #24
    501c:	1c0a2700 	stcne	7, cr2, [sl], {0}
    5020:	28000016 	stmdacs	r0, {r1, r2, r4}
    5024:	00162c0a 	andseq	r2, r6, sl, lsl #24
    5028:	0a00c000 	beq	35030 <__bss_end+0x30d50>
    502c:	0000163c 	andeq	r1, r0, ip, lsr r6
    5030:	0b0000c1 	bleq	533c <__bss_end+0x105c>
    5034:	0000166e 	andeq	r1, r0, lr, ror #12
    5038:	062d0394 	undefined instruction 0x062d0394
    503c:	0c000002 	stceq	0, cr0, [r0], {2}
    5040:	00001683 	andeq	r1, r0, r3, lsl #13
    5044:	00762f03 	rsbseq	r2, r6, r3, lsl #30
    5048:	23020000 	movwcs	r0, #8192	; 0x2000
    504c:	169b0c00 	ldrne	r0, [fp], r0, lsl #24
    5050:	30030000 	andcc	r0, r3, r0
    5054:	00000076 	andeq	r0, r0, r6, ror r0
    5058:	0c042302 	stceq	3, cr2, [r4], {2}
    505c:	00000f20 	andeq	r0, r0, r0, lsr #30
    5060:	00763103 	rsbseq	r3, r6, r3, lsl #2
    5064:	23020000 	movwcs	r0, #8192	; 0x2000
    5068:	16660c08 	strbtne	r0, [r6], -r8, lsl #24
    506c:	32030000 	andcc	r0, r3, #0
    5070:	00000076 	andeq	r0, r0, r6, ror r0
    5074:	0c0c2302 	stceq	3, cr2, [ip], {2}
    5078:	00001554 	andeq	r1, r0, r4, asr r5
    507c:	02163403 	andseq	r3, r6, #50331648	; 0x3000000
    5080:	23020000 	movwcs	r0, #8192	; 0x2000
    5084:	0f2a0c10 	svceq	0x002a0c10
    5088:	35030000 	strcc	r0, [r3]
    508c:	00000076 	andeq	r0, r0, r6, ror r0
    5090:	0c1c2302 	ldceq	3, cr2, [ip], {2}
    5094:	00001516 	andeq	r1, r0, r6, lsl r5
    5098:	021b3703 	andseq	r3, fp, #786432	; 0xc0000
    509c:	23020000 	movwcs	r0, #8192	; 0x2000
    50a0:	0f340c20 	svceq	0x00340c20
    50a4:	38030000 	stmdacc	r3, {}
    50a8:	00000076 	andeq	r0, r0, r6, ror r0
    50ac:	0c2c2302 	stceq	3, cr2, [ip], #-8
    50b0:	0000164c 	andeq	r1, r0, ip, asr #12
    50b4:	02203a03 	eoreq	r3, r0, #12288	; 0x3000
    50b8:	23020000 	movwcs	r0, #8192	; 0x2000
    50bc:	0f3e0c30 	svceq	0x003e0c30
    50c0:	3b030000 	blcc	c50c8 <__bss_end+0xc0de8>
    50c4:	00000076 	andeq	r0, r0, r6, ror r0
    50c8:	0c3c2302 	ldceq	3, cr2, [ip], #-8
    50cc:	0000171d 	andeq	r1, r0, sp, lsl r7
    50d0:	02253d03 	eoreq	r3, r5, #192	; 0xc0
    50d4:	23020000 	movwcs	r0, #8192	; 0x2000
    50d8:	0f480c40 	svceq	0x00480c40
    50dc:	3e030000 	cdpcc	0, 0, cr0, cr3, cr0, {0}
    50e0:	00000076 	andeq	r0, r0, r6, ror r0
    50e4:	0c4c2302 	mcrreq	3, 0, r2, ip, cr2
    50e8:	000016a4 	andeq	r1, r0, r4, lsr #13
    50ec:	022a4003 	eoreq	r4, sl, #3
    50f0:	23020000 	movwcs	r0, #8192	; 0x2000
    50f4:	06790c50 	undefined instruction 0x06790c50
    50f8:	41030000 	tstmi	r3, r0
    50fc:	00000076 	andeq	r0, r0, r6, ror r0
    5100:	0c5c2302 	mrrceq	3, 0, r2, ip, cr2
    5104:	00001591 	muleq	r0, r1, r5
    5108:	022f4303 	eoreq	r4, pc, #201326592	; 0xc000000
    510c:	23020000 	movwcs	r0, #8192	; 0x2000
    5110:	0f6e0c60 	svceq	0x006e0c60
    5114:	44030000 	strmi	r0, [r3]
    5118:	00000076 	andeq	r0, r0, r6, ror r0
    511c:	0c6c2302 	stcleq	3, cr2, [ip], #-8
    5120:	0000155c 	andeq	r1, r0, ip, asr r5
    5124:	02344603 	eorseq	r4, r4, #3145728	; 0x300000
    5128:	23020000 	movwcs	r0, #8192	; 0x2000
    512c:	0f780c70 	svceq	0x00780c70
    5130:	47030000 	strmi	r0, [r3, -r0]
    5134:	00000076 	andeq	r0, r0, r6, ror r0
    5138:	0c7c2302 	ldcleq	3, cr2, [ip], #-8
    513c:	0000153e 	andeq	r1, r0, lr, lsr r5
    5140:	02394903 	eorseq	r4, r9, #49152	; 0xc000
    5144:	23030000 	movwcs	r0, #12288	; 0x3000
    5148:	07000180 	streq	r0, [r0, -r0, lsl #3]
    514c:	00000053 	andeq	r0, r0, r3, asr r0
    5150:	00000216 	andeq	r0, r0, r6, lsl r2
    5154:	00007308 	andeq	r7, r0, r8, lsl #6
    5158:	06000200 	streq	r0, [r0], -r0, lsl #4
    515c:	00000206 	andeq	r0, r0, r6, lsl #4
    5160:	00020606 	andeq	r0, r2, r6, lsl #12
    5164:	02060600 	andeq	r0, r6, #0
    5168:	06060000 	streq	r0, [r6], -r0
    516c:	06000002 	streq	r0, [r0], -r2
    5170:	00000206 	andeq	r0, r0, r6, lsl #4
    5174:	00020606 	andeq	r0, r2, r6, lsl #12
    5178:	02060600 	andeq	r0, r6, #0
    517c:	7b060000 	blvc	185184 <__bss_end+0x180ea4>
    5180:	0d000000 	stceq	0, cr0, [r0]
    5184:	0015cb01 	andseq	ip, r5, r1, lsl #22
    5188:	01250100 	teqeq	r5, r0, lsl #2
    518c:	00000041 	andeq	r0, r0, r1, asr #32
    5190:	00002038 	andeq	r2, r0, r8, lsr r0
    5194:	000020d4 	ldrdeq	r2, [r0], -r4
    5198:	00000b3a 	andeq	r0, r0, sl, lsr fp
    519c:	151e010e 	ldrne	r0, [lr, #-270]	; 0x10e
    51a0:	51010000 	tstpl	r1, r0
    51a4:	00004101 	andeq	r4, r0, r1, lsl #2
    51a8:	0020d400 	eoreq	sp, r0, r0, lsl #8
    51ac:	00213000 	eoreq	r3, r1, r0
    51b0:	0f5d0100 	svceq	0x005d0100
    51b4:	0016eb01 	andseq	lr, r6, r1, lsl #22
    51b8:	016d0100 	cmneq	sp, r0, lsl #2
    51bc:	00000041 	andeq	r0, r0, r1, asr #32
    51c0:	00002130 	andeq	r2, r0, r0, lsr r1
    51c4:	00002178 	andeq	r2, r0, r8, ror r1
    51c8:	00000b59 	andeq	r0, r0, r9, asr fp
    51cc:	000002b5 	undefined instruction 0x000002b5
    51d0:	63727310 	cmnvs	r2, #1073741824	; 0x40000000
    51d4:	8b6d0100 	blhi	1b455dc <__bss_end+0x1b412fc>
    51d8:	78000000 	stmdavc	r0, {}
    51dc:	1100000b 	tstne	r0, fp
    51e0:	000016c0 	andeq	r1, r0, r0, asr #13
    51e4:	00536f01 	subseq	r6, r3, r1, lsl #30
    51e8:	0b8b0000 	bleq	fe2c51f0 <__bss_end+0xfe2c0f10>
    51ec:	e4120000 	ldr	r0, [r2]
    51f0:	01000016 	tsteq	r0, r6, lsl r0
    51f4:	00005370 	andeq	r5, r0, r0, ror r3
    51f8:	01130000 	tsteq	r3, r0
    51fc:	00001546 	andeq	r1, r0, r6, asr #10
    5200:	41018501 	tstmi	r1, r1, lsl #10
    5204:	78000000 	stmdavc	r0, {}
    5208:	a8000021 	stmdage	r0, {r0, r5}
    520c:	01000021 	tsteq	r0, r1, lsr #32
    5210:	0003055d 	andeq	r0, r3, sp, asr r5
    5214:	72731000 	rsbsvc	r1, r3, #0
    5218:	85010063 	strhi	r0, [r1, #-99]	; 0x63
    521c:	0000008b 	andeq	r0, r0, fp, lsl #1
    5220:	00000b9e 	muleq	r0, lr, fp
    5224:	00167c12 	andseq	r7, r6, r2, lsl ip
    5228:	41870100 	orrmi	r0, r7, r0, lsl #2
    522c:	11000000 	tstne	r0, r0
    5230:	000016c0 	andeq	r1, r0, r0, asr #13
    5234:	00538801 	subseq	r8, r3, r1, lsl #16
    5238:	0bb10000 	bleq	fec45240 <__bss_end+0xfec40f60>
    523c:	e4120000 	ldr	r0, [r2]
    5240:	01000016 	tsteq	r0, r6, lsl r0
    5244:	00005389 	andeq	r5, r0, r9, lsl #7
    5248:	65140000 	ldrvs	r0, [r4]
    524c:	01000015 	tsteq	r0, r5, lsl r0
    5250:	00020614 	andeq	r0, r2, r4, lsl r6
    5254:	a4030500 	strge	r0, [r3], #-1280	; 0x500
    5258:	14000042 	strne	r0, [r0], #-66	; 0x42
    525c:	000016c7 	andeq	r1, r0, r7, asr #13
    5260:	02061401 	andeq	r1, r6, #16777216	; 0x1000000
    5264:	03050000 	movweq	r0, #20480	; 0x5000
    5268:	000042b0 	undefined instruction 0x000042b0
    526c:	0016da14 	andseq	sp, r6, r4, lsl sl
    5270:	06140100 	ldreq	r0, [r4], -r0, lsl #2
    5274:	05000002 	streq	r0, [r0, #-2]
    5278:	0042bc03 	subeq	fp, r2, r3, lsl #24
    527c:	16d21400 	ldrbne	r1, [r2], r0, lsl #8
    5280:	15010000 	strne	r0, [r1]
    5284:	00000349 	andeq	r0, r0, r9, asr #6
    5288:	42a00305 	adcmi	r0, r0, #335544320	; 0x14000000
    528c:	04150000 	ldreq	r0, [r5]
    5290:	000000ee 	andeq	r0, r0, lr, ror #1
    5294:	00040600 	andeq	r0, r4, r0, lsl #12
    5298:	d8000200 	stmdale	r0, {r9}
    529c:	04000008 	streq	r0, [r0], #-8
    52a0:	00005501 	andeq	r5, r0, r1, lsl #10
    52a4:	18640100 	stmdane	r4!, {r8}^
    52a8:	02970000 	addseq	r0, r7, #0
    52ac:	21a80000 	undefined instruction 0x21a80000
    52b0:	21e80000 	mvncs	r0, r0
    52b4:	08d90000 	ldmeq	r9, {}^
    52b8:	01020000 	tsteq	r2, r0
    52bc:	0001a806 	andeq	sl, r1, r6, lsl #16
    52c0:	08010200 	stmdaeq	r1, {r9}
    52c4:	000001a6 	andeq	r0, r0, r6, lsr #3
    52c8:	61050202 	tstvs	r5, r2, lsl #4
    52cc:	02000000 	andeq	r0, r0, #0
    52d0:	02ed0702 	rsceq	r0, sp, #524288	; 0x80000
    52d4:	04030000 	streq	r0, [r3]
    52d8:	746e6905 	strbtvc	r6, [lr], #-2309	; 0x905
    52dc:	01160400 	tsteq	r6, r0, lsl #8
    52e0:	13030000 	movwne	r0, #12288	; 0x3000
    52e4:	00000053 	andeq	r0, r0, r3, asr r0
    52e8:	2a070402 	bcs	1c62f8 <__bss_end+0x1c2018>
    52ec:	02000002 	andeq	r0, r0, #2
    52f0:	012a0508 	teqeq	sl, r8, lsl #10
    52f4:	08020000 	stmdaeq	r2, {}
    52f8:	00022007 	andeq	r2, r2, r7
    52fc:	07040500 	streq	r0, [r4, -r0, lsl #10]
    5300:	00004806 	andeq	r4, r0, r6, lsl #16
    5304:	00480700 	subeq	r0, r8, r0, lsl #14
    5308:	00800000 	addeq	r0, r0, r0
    530c:	68080000 	stmdavs	r8, {}
    5310:	03000000 	movweq	r0, #0
    5314:	17810900 	strne	r0, [r1, r0, lsl #18]
    5318:	01300000 	teqeq	r0, r0
    531c:	03261a02 	teqeq	r6, #8192	; 0x2000
    5320:	520a0000 	andpl	r0, sl, #0
    5324:	02000018 	andeq	r0, r0, #24
    5328:	00006b1c 	andeq	r6, r0, ip, lsl fp
    532c:	00230200 	eoreq	r0, r3, r0, lsl #4
    5330:	0018340a 	andseq	r3, r8, sl, lsl #8
    5334:	6b1d0200 	blvs	745b3c <__bss_end+0x74185c>
    5338:	02000000 	andeq	r0, r0, #0
    533c:	200a0423 	andcs	r0, sl, r3, lsr #8
    5340:	0200000f 	andeq	r0, r0, #15
    5344:	0003361e 	andeq	r3, r3, lr, lsl r6
    5348:	08230200 	stmdaeq	r3!, {r9}
    534c:	00189d0a 	andseq	r9, r8, sl, lsl #26
    5350:	6b200200 	blvs	805b58 <__bss_end+0x801878>
    5354:	02000000 	andeq	r0, r0, #0
    5358:	390a1023 	stmdbcc	sl, {r0, r1, r5, ip}
    535c:	02000017 	andeq	r0, r0, #23
    5360:	00006b21 	andeq	r6, r0, r1, lsr #22
    5364:	14230200 	strtne	r0, [r3], #-512	; 0x200
    5368:	0017530a 	andseq	r5, r7, sl, lsl #6
    536c:	6b220200 	blvs	885b74 <__bss_end+0x881894>
    5370:	02000000 	andeq	r0, r0, #0
    5374:	2a0a1823 	bcs	28b408 <__bss_end+0x287128>
    5378:	0200000f 	andeq	r0, r0, #15
    537c:	00006b23 	andeq	r6, r0, r3, lsr #22
    5380:	1c230200 	sfmne	f0, 4, [r3]	; (stcne 2, cr0, [r3])
    5384:	00174b0a 	andseq	r4, r7, sl, lsl #22
    5388:	6b250200 	blvs	945b90 <__bss_end+0x9418b0>
    538c:	02000000 	andeq	r0, r0, #0
    5390:	130a2023 	movwne	r2, #40995	; 0xa023
    5394:	02000018 	andeq	r0, r0, #24
    5398:	00006b26 	andeq	r6, r0, r6, lsr #22
    539c:	24230200 	strtcs	r0, [r3], #-512	; 0x200
    53a0:	0018440a 	andseq	r4, r8, sl, lsl #8
    53a4:	6b270200 	blvs	9c5bac <__bss_end+0x9c18cc>
    53a8:	02000000 	andeq	r0, r0, #0
    53ac:	340a2823 	strcc	r2, [sl], #-2083	; 0x823
    53b0:	0200000f 	andeq	r0, r0, #15
    53b4:	00006b28 	andeq	r6, r0, r8, lsr #22
    53b8:	2c230200 	sfmcs	f0, 4, [r3]	; (stccs 2, cr0, [r3])
    53bc:	0017c40a 	andseq	ip, r7, sl, lsl #8
    53c0:	6b2a0200 	blvs	a85bc8 <__bss_end+0xa818e8>
    53c4:	02000000 	andeq	r0, r0, #0
    53c8:	660a3023 	strvs	r3, [sl], -r3, lsr #32
    53cc:	02000017 	andeq	r0, r0, #23
    53d0:	00006b2b 	andeq	r6, r0, fp, lsr #22
    53d4:	34230200 	strtcc	r0, [r3], #-512	; 0x200
    53d8:	0017930a 	andseq	r9, r7, sl, lsl #6
    53dc:	6b2c0200 	blvs	b05be4 <__bss_end+0xb01904>
    53e0:	02000000 	andeq	r0, r0, #0
    53e4:	3e0a3823 	cdpcc	8, 0, cr3, cr10, cr3, {1}
    53e8:	0200000f 	andeq	r0, r0, #15
    53ec:	00006b2d 	andeq	r6, r0, sp, lsr #22
    53f0:	3c230200 	sfmcc	f0, 4, [r3]	; (stccc 2, cr0, [r3])
    53f4:	0018250a 	andseq	r2, r8, sl, lsl #10
    53f8:	6b2f0200 	blvs	bc5c00 <__bss_end+0xbc1920>
    53fc:	02000000 	andeq	r0, r0, #0
    5400:	590a4023 	stmdbpl	sl, {r0, r1, r5, lr}
    5404:	02000018 	andeq	r0, r0, #24
    5408:	00006b30 	andeq	r6, r0, r0, lsr fp
    540c:	44230200 	strtmi	r0, [r3], #-512	; 0x200
    5410:	000f480a 	andeq	r4, pc, sl, lsl #16
    5414:	3b310200 	blcc	c45c1c <__bss_end+0xc4193c>
    5418:	02000003 	andeq	r0, r0, #3
    541c:	a50a4823 	strge	r4, [sl, #-2083]	; 0x823
    5420:	02000018 	andeq	r0, r0, #24
    5424:	00006b33 	andeq	r6, r0, r3, lsr fp
    5428:	50230200 	eorpl	r0, r3, r0, lsl #4
    542c:	00179e0a 	andseq	r9, r7, sl, lsl #28
    5430:	6b340200 	blvs	d05c38 <__bss_end+0xd01958>
    5434:	02000000 	andeq	r0, r0, #0
    5438:	a90a5423 	stmdbge	sl, {r0, r1, r5, sl, ip, lr}
    543c:	02000017 	andeq	r0, r0, #23
    5440:	00006b35 	andeq	r6, r0, r5, lsr fp
    5444:	58230200 	stmdapl	r3!, {r9}
    5448:	0006790a 	andeq	r7, r6, sl, lsl #18
    544c:	6b360200 	blvs	d85c54 <__bss_end+0xd81974>
    5450:	02000000 	andeq	r0, r0, #0
    5454:	5e0a5c23 	cdppl	12, 0, cr5, cr10, cr3, {1}
    5458:	02000017 	andeq	r0, r0, #23
    545c:	00006b38 	andeq	r6, r0, r8, lsr fp
    5460:	60230200 	eorvs	r0, r3, r0, lsl #4
    5464:	0018800a 	andseq	r8, r8, sl
    5468:	6b390200 	blvs	e45c70 <__bss_end+0xe41990>
    546c:	02000000 	andeq	r0, r0, #0
    5470:	8b0a6423 	blhi	29e504 <__bss_end+0x29a224>
    5474:	02000018 	andeq	r0, r0, #24
    5478:	00006b3a 	andeq	r6, r0, sl, lsr fp
    547c:	68230200 	stmdavs	r3!, {r9}
    5480:	000f6e0a 	andeq	r6, pc, sl, lsl #28
    5484:	503b0200 	eorspl	r0, fp, r0, lsl #4
    5488:	02000003 	andeq	r0, r0, #3
    548c:	2d0a6c23 	stccs	12, cr6, [sl, #-140]	; 0xffffff74
    5490:	02000018 	andeq	r0, r0, #24
    5494:	00006b3d 	andeq	r6, r0, sp, lsr fp
    5498:	80230300 	eorhi	r0, r3, r0, lsl #6
    549c:	18780a01 	ldmdane	r8!, {r0, r9, fp}^
    54a0:	3e020000 	cdpcc	0, 0, cr0, cr2, cr0, {0}
    54a4:	0000006b 	andeq	r0, r0, fp, rrx
    54a8:	01842303 	orreq	r2, r4, r3, lsl #6
    54ac:	0017100a 	andseq	r1, r7, sl
    54b0:	6b3f0200 	blvs	fc5cb8 <__bss_end+0xfc19d8>
    54b4:	03000000 	movweq	r0, #0
    54b8:	0a018823 	beq	6754c <__bss_end+0x6326c>
    54bc:	0000181e 	andeq	r1, r0, lr, lsl r8
    54c0:	006b4002 	rsbeq	r4, fp, r2
    54c4:	23030000 	movwcs	r0, #12288	; 0x3000
    54c8:	2b0a018c 	blcs	285b00 <__bss_end+0x281820>
    54cc:	02000017 	andeq	r0, r0, #23
    54d0:	00006b42 	andeq	r6, r0, r2, asr #22
    54d4:	90230300 	eorls	r0, r3, r0, lsl #6
    54d8:	17d90a01 	ldrbne	r0, [r9, r1, lsl #20]
    54dc:	43020000 	movwmi	r0, #8192	; 0x2000
    54e0:	0000006b 	andeq	r0, r0, fp, rrx
    54e4:	01942303 	orrseq	r2, r4, r3, lsl #6
    54e8:	000f780a 	andeq	r7, pc, sl, lsl #16
    54ec:	55440200 	strbpl	r0, [r4, #-512]	; 0x200
    54f0:	03000003 	movweq	r0, #3
    54f4:	0a019823 	beq	6b588 <__bss_end+0x672a8>
    54f8:	0000180a 	andeq	r1, r0, sl, lsl #16
    54fc:	006b4602 	rsbeq	r4, fp, r2, lsl #12
    5500:	23030000 	movwcs	r0, #12288	; 0x3000
    5504:	e10a01a0 	smlatb	sl, r0, r1, r0
    5508:	02000017 	andeq	r0, r0, #23
    550c:	00006b47 	andeq	r6, r0, r7, asr #22
    5510:	a4230300 	strtge	r0, [r3], #-768	; 0x300
    5514:	17bc0a01 	ldrne	r0, [ip, r1, lsl #20]!
    5518:	48020000 	stmdami	r2, {}
    551c:	0000006b 	andeq	r0, r0, fp, rrx
    5520:	01a82303 	undefined instruction 0x01a82303
    5524:	00068c0a 	andeq	r8, r6, sl, lsl #24
    5528:	6a490200 	bvs	1245d30 <__bss_end+0x1241a50>
    552c:	03000003 	movweq	r0, #3
    5530:	0a01ac23 	beq	705c4 <__bss_end+0x6c2e4>
    5534:	00001802 	andeq	r1, r0, r2, lsl #16
    5538:	006b4b02 	rsbeq	r4, fp, r2, lsl #22
    553c:	23030000 	movwcs	r0, #12288	; 0x3000
    5540:	320a0280 	andcc	r0, sl, #8
    5544:	02000017 	andeq	r0, r0, #23
    5548:	00006b4c 	andeq	r6, r0, ip, asr #22
    554c:	84230300 	strthi	r0, [r3], #-768	; 0x300
    5550:	17440a02 	strbne	r0, [r4, -r2, lsl #20]
    5554:	4d020000 	stcmi	0, cr0, [r2]
    5558:	0000006b 	andeq	r0, r0, fp, rrx
    555c:	02882303 	addeq	r2, r8, #201326592	; 0xc000000
    5560:	0017230a 	andseq	r2, r7, sl, lsl #6
    5564:	6b4e0200 	blvs	1385d6c <__bss_end+0x1381a8c>
    5568:	03000000 	movweq	r0, #0
    556c:	0a028c23 	beq	a8600 <__bss_end+0xa4320>
    5570:	000016fa 	strdeq	r1, [r0], -sl
    5574:	006b5002 	rsbeq	r5, fp, r2
    5578:	23030000 	movwcs	r0, #12288	; 0x3000
    557c:	b40a0290 	strlt	r0, [sl], #-656	; 0x290
    5580:	02000017 	andeq	r0, r0, #23
    5584:	00006b51 	andeq	r6, r0, r1, asr fp
    5588:	94230300 	strtls	r0, [r3], #-768	; 0x300
    558c:	17180a02 	ldrne	r0, [r8, -r2, lsl #20]
    5590:	52020000 	andpl	r0, r2, #0
    5594:	0000006b 	andeq	r0, r0, fp, rrx
    5598:	02982303 	addseq	r2, r8, #201326592	; 0xc000000
    559c:	0017040a 	andseq	r0, r7, sl, lsl #8
    55a0:	6b530200 	blvs	14c5da8 <__bss_end+0x14c1ac8>
    55a4:	03000000 	movweq	r0, #0
    55a8:	0a029c23 	beq	ac63c <__bss_end+0xa835c>
    55ac:	0000183b 	andeq	r1, r0, fp, lsr r8
    55b0:	036f5502 	cmneq	pc, #8388608	; 0x800000
    55b4:	23030000 	movwcs	r0, #12288	; 0x3000
    55b8:	070002a0 	streq	r0, [r0, -r0, lsr #5]
    55bc:	00000048 	andeq	r0, r0, r8, asr #32
    55c0:	00000336 	andeq	r0, r0, r6, lsr r3
    55c4:	00006808 	andeq	r6, r0, r8, lsl #16
    55c8:	06000100 	streq	r0, [r0], -r0, lsl #2
    55cc:	00000326 	andeq	r0, r0, r6, lsr #6
    55d0:	00032606 	andeq	r2, r3, r6, lsl #12
    55d4:	00480700 	subeq	r0, r8, r0, lsl #14
    55d8:	03500000 	cmpeq	r0, #0
    55dc:	68080000 	stmdavs	r8, {}
    55e0:	04000000 	streq	r0, [r0]
    55e4:	03400600 	movteq	r0, #1536	; 0x600
    55e8:	26060000 	strcs	r0, [r6], -r0
    55ec:	07000003 	streq	r0, [r0, -r3]
    55f0:	00000048 	andeq	r0, r0, r8, asr #32
    55f4:	0000036a 	andeq	r0, r0, sl, ror #6
    55f8:	00006808 	andeq	r6, r0, r8, lsl #16
    55fc:	06001400 	streq	r1, [r0], -r0, lsl #8
    5600:	0000035a 	andeq	r0, r0, sl, asr r3
    5604:	00007006 	andeq	r7, r0, r6
    5608:	17710400 	ldrbne	r0, [r1, -r0, lsl #8]!
    560c:	57020000 	strpl	r0, [r2, -r0]
    5610:	00000080 	andeq	r0, r0, r0, lsl #1
    5614:	17cc010b 	strbne	r0, [ip, fp, lsl #2]
    5618:	22010000 	andcs	r0, r1, #0
    561c:	0021a801 	eoreq	sl, r1, r1, lsl #16
    5620:	0021c000 	eoreq	ip, r1, r0
    5624:	0b5d0100 	bleq	1745a2c <__bss_end+0x174174c>
    5628:	0017e901 	andseq	lr, r7, r1, lsl #18
    562c:	01380100 	teqeq	r8, r0, lsl #2
    5630:	000021c0 	andeq	r2, r0, r0, asr #3
    5634:	000021e8 	andeq	r2, r0, r8, ror #3
    5638:	960c5d01 	strls	r5, [ip], -r1, lsl #26
    563c:	01000018 	tsteq	r0, r8, lsl r0
    5640:	0003b616 	andeq	fp, r3, r6, lsl r6
    5644:	c8030500 	stmdagt	r3, {r8, sl}
    5648:	0d000042 	stceq	0, cr0, [r0, #-264]	; 0xfffffef8
    564c:	00037404 	andeq	r7, r3, r4, lsl #8
    5650:	184f0e00 	stmdane	pc, {r9, sl, fp}^
    5654:	14010000 	strne	r0, [r1]
    5658:	00000048 	andeq	r0, r0, r8, asr #32
    565c:	00189d0e 	andseq	r9, r8, lr, lsl #26
    5660:	48140100 	ldmdami	r4, {r8}
    5664:	0e000000 	cdpeq	0, 0, cr0, cr0, cr0, {0}
    5668:	00001739 	andeq	r1, r0, r9, lsr r7
    566c:	00481401 	subeq	r1, r8, r1, lsl #8
    5670:	530e0000 	movwpl	r0, #57344	; 0xe000
    5674:	01000017 	tsteq	r0, r7, lsl r0
    5678:	00004814 	andeq	r4, r0, r4, lsl r8
    567c:	174b0e00 	strbne	r0, [fp, -r0, lsl #28]
    5680:	14010000 	strne	r0, [r1]
    5684:	00000048 	andeq	r0, r0, r8, asr #32
    5688:	0018130e 	andseq	r1, r8, lr, lsl #6
    568c:	48140100 	ldmdami	r4, {r8}
    5690:	0e000000 	cdpeq	0, 0, cr0, cr0, cr0, {0}
    5694:	00001844 	andeq	r1, r0, r4, asr #16
    5698:	00481401 	subeq	r1, r8, r1, lsl #8
    569c:	8f000000 	svchi	0x00000000
    56a0:	02000006 	andeq	r0, r0, #6
    56a4:	00098900 	andeq	r8, r9, r0, lsl #18
    56a8:	55010400 	strpl	r0, [r1, #-1024]	; 0x400
    56ac:	01000000 	tsteq	r0, r0
    56b0:	00001acd 	andeq	r1, r0, sp, asr #21
    56b4:	00000297 	muleq	r0, r7, r2
    56b8:	000021e8 	andeq	r2, r0, r8, ror #3
    56bc:	00002694 	muleq	r0, r4, r6
    56c0:	0000094f 	andeq	r0, r0, pc, asr #18
    56c4:	2f050402 	svccs	0x00050402
    56c8:	03000001 	movweq	r0, #1
    56cc:	04020704 	streq	r0, [r2], #-1796	; 0x704
    56d0:	00022507 	andeq	r2, r2, r7, lsl #10
    56d4:	07020200 	streq	r0, [r2, -r0, lsl #4]
    56d8:	000002ed 	andeq	r0, r0, sp, ror #5
    56dc:	2a070402 	bcs	1c66ec <__bss_end+0x1c240c>
    56e0:	02000002 	andeq	r0, r0, #2
    56e4:	01af0801 	undefined instruction 0x01af0801
    56e8:	01020000 	tsteq	r2, r0
    56ec:	0001a806 	andeq	sl, r1, r6, lsl #16
    56f0:	03050400 	movweq	r0, #21504	; 0x5400
    56f4:	0f020000 	svceq	0x00020000
    56f8:	0000005d 	andeq	r0, r0, sp, asr r0
    56fc:	a6080102 	strge	r0, [r8], -r2, lsl #2
    5700:	02000001 	andeq	r0, r0, #1
    5704:	00610502 	rsbeq	r0, r1, r2, lsl #10
    5708:	e4040000 	str	r0, [r4]
    570c:	02000001 	andeq	r0, r0, #1
    5710:	00007612 	andeq	r7, r0, r2, lsl r6
    5714:	05040500 	streq	r0, [r4, #-1280]	; 0x500
    5718:	00746e69 	rsbseq	r6, r4, r9, ror #28
    571c:	00011604 	andeq	r1, r1, r4, lsl #12
    5720:	3d130200 	lfmcc	f0, 4, [r3]	; (ldccc 2, cr0, [r3])
    5724:	02000000 	andeq	r0, r0, #0
    5728:	012a0508 	teqeq	sl, r8, lsl #10
    572c:	08020000 	stmdaeq	r2, {}
    5730:	00022007 	andeq	r2, r2, r7
    5734:	08710600 	ldmdaeq	r1!, {r9, sl}^
    5738:	03040000 	movweq	r0, #16384	; 0x4000
    573c:	0000af29 	andeq	sl, r0, r9, lsr #30
    5740:	0f0d0700 	svceq	0x000d0700
    5744:	07000000 	streq	r0, [r0, -r0]
    5748:	000004de 	ldrdeq	r0, [r0], -lr
    574c:	01080001 	tsteq	r8, r1
    5750:	000019eb 	andeq	r1, r0, fp, ror #19
    5754:	0101a501 	tsteq	r1, r1, lsl #10
    5758:	000000de 	ldrdeq	r0, [r0], -lr
    575c:	001b3b09 	andseq	r3, fp, r9, lsl #22
    5760:	7da50100 	stfvcs	f0, [r5]
    5764:	0a000000 	beq	576c <__bss_end+0x148c>
    5768:	01006e6f 	tsteq	r0, pc, ror #28
    576c:	00007da5 	andeq	r7, r0, r5, lsr #27
    5770:	14980b00 	ldrne	r0, [r8], #2816	; 0xb00
    5774:	a7010000 	strge	r0, [r1, -r0]
    5778:	0000007d 	andeq	r0, r0, sp, ror r0
    577c:	c6010c00 	strgt	r0, [r1], -r0, lsl #24
    5780:	01000019 	tsteq	r0, r9, lsl r0
    5784:	007d01c1 	rsbseq	r0, sp, r1, asr #3
    5788:	07010000 	streq	r0, [r1, -r0]
    578c:	09000001 	stmdbeq	r0, {r0}
    5790:	00001b3b 	andeq	r1, r0, fp, lsr fp
    5794:	007dc101 	rsbseq	ip, sp, r1, lsl #2
    5798:	980b0000 	stmdals	fp, {}
    579c:	01000014 	tsteq	r0, r4, lsl r0
    57a0:	00007dc3 	andeq	r7, r0, r3, asr #27
    57a4:	010d0000 	tsteq	sp, r0
    57a8:	00001a14 	andeq	r1, r0, r4, lsl sl
    57ac:	01019101 	tsteq	r1, r1, lsl #2
    57b0:	001ae90e 	andseq	lr, sl, lr, lsl #18
    57b4:	016a0100 	cmneq	sl, r0, lsl #2
    57b8:	00006b01 	andeq	r6, r0, r1, lsl #22
    57bc:	01600100 	cmneq	r0, r0, lsl #2
    57c0:	3c0f0000 	stccc	0, cr0, [pc], {0}
    57c4:	01000021 	tsteq	r0, r1, lsr #32
    57c8:	007d016d 	rsbseq	r0, sp, sp, ror #2
    57cc:	160f0000 	strne	r0, [pc], -r0
    57d0:	01000019 	tsteq	r0, r9, lsl r0
    57d4:	0052016e 	subseq	r0, r2, lr, ror #2
    57d8:	a20f0000 	andge	r0, pc, #0
    57dc:	0100001a 	tsteq	r0, sl, lsl r0
    57e0:	0052016f 	subseq	r0, r2, pc, ror #2
    57e4:	950f0000 	strls	r0, [pc, #0]	; 57ec <__bss_end+0x150c>
    57e8:	0100001a 	tsteq	r0, sl, lsl r0
    57ec:	00520170 	subseq	r0, r2, r0, ror r1
    57f0:	980f0000 	stmdals	pc, {}
    57f4:	01000014 	tsteq	r0, r4, lsl r0
    57f8:	00520171 	subseq	r0, r2, r1, ror r1
    57fc:	10000000 	andne	r0, r0, r0
    5800:	000000af 	andeq	r0, r0, pc, lsr #1
    5804:	000021e8 	andeq	r2, r0, r8, ror #3
    5808:	00002210 	andeq	r2, r0, r0, lsl r2
    580c:	01895d01 	orreq	r5, r9, r1, lsl #26
    5810:	bd110000 	ldclt	0, cr0, [r1]
    5814:	01000000 	tsteq	r0, r0
    5818:	00c81150 	sbceq	r1, r8, r0, asr r1
    581c:	51010000 	tstpl	r1, r0
    5820:	0000d212 	andeq	sp, r0, r2, lsl r2
    5824:	00520100 	subseq	r0, r2, r0, lsl #2
    5828:	0000de10 	andeq	sp, r0, r0, lsl lr
    582c:	00221000 	eoreq	r1, r2, r0
    5830:	00223000 	eoreq	r3, r2, r0
    5834:	ad5d0100 	ldfgee	f0, [sp]
    5838:	13000001 	movwne	r0, #1
    583c:	000000f0 	strdeq	r0, [r0], -r0
    5840:	00000bc4 	andeq	r0, r0, r4, asr #23
    5844:	0000fb12 	andeq	pc, r0, r2, lsl fp
    5848:	00530100 	subseq	r0, r3, r0, lsl #2
    584c:	18b60114 	ldmne	r6!, {r2, r4, r8}
    5850:	de010000 	cdple	0, 0, cr0, cr1, cr0, {0}
    5854:	00223001 	eoreq	r3, r2, r1
    5858:	00227800 	eoreq	r7, r2, r0, lsl #16
    585c:	000be200 	andeq	lr, fp, r0, lsl #4
    5860:	00021000 	andeq	r1, r2, r0
    5864:	1b3b1500 	blne	ecac6c <__bss_end+0xec698c>
    5868:	de010000 	cdple	0, 0, cr0, cr1, cr0, {0}
    586c:	0000007d 	andeq	r0, r0, sp, ror r0
    5870:	e2165001 	ands	r5, r6, #1
    5874:	01000018 	tsteq	r0, r8, lsl r0
    5878:	00007dde 	ldrdeq	r7, [r0], -lr
    587c:	000c0100 	andeq	r0, ip, r0, lsl #2
    5880:	1b0c1600 	blne	30b088 <__bss_end+0x306da8>
    5884:	de010000 	cdple	0, 0, cr0, cr1, cr0, {0}
    5888:	0000007d 	andeq	r0, r0, sp, ror r0
    588c:	00000c14 	andeq	r0, r0, r4, lsl ip
    5890:	0018da16 	andseq	sp, r8, r6, lsl sl
    5894:	7dde0100 	ldfvce	f0, [lr]
    5898:	27000000 	strcs	r0, [r0, -r0]
    589c:	1700000c 	strne	r0, [r0, -ip]
    58a0:	00001498 	muleq	r0, r8, r4
    58a4:	007de001 	rsbseq	lr, sp, r1
    58a8:	0c3a0000 	ldceq	0, cr0, [sl]
    58ac:	18000000 	stmdane	r0, {}
    58b0:	0019a701 	andseq	sl, r9, r1, lsl #14
    58b4:	01c20100 	biceq	r0, r2, r0, lsl #2
    58b8:	00227801 	eoreq	r7, r2, r1, lsl #16
    58bc:	0022a000 	eoreq	sl, r2, r0
    58c0:	705d0100 	subsvc	r0, sp, r0, lsl #2
    58c4:	19000002 	stmdbne	r0, {r1}
    58c8:	00001b3b 	andeq	r1, r0, fp, lsr fp
    58cc:	7d01c201 	sfmvc	f4, 1, [r1, #-4]	; (stcvc 2, cr12, [r1, #-4])
    58d0:	01000000 	tsteq	r0, r0
    58d4:	6e6f1a50 	mcrvs	10, 3, r1, cr15, cr0, {2}
    58d8:	01c20100 	biceq	r0, r2, r0, lsl #2
    58dc:	0000007d 	andeq	r0, r0, sp, ror r0
    58e0:	af1b5101 	svcge	0x001b5101
    58e4:	78000000 	stmdavc	r0, {}
    58e8:	a0000022 	andge	r0, r0, r2, lsr #32
    58ec:	01000022 	tsteq	r0, r2, lsr #32
    58f0:	7a1c01c4 	bvc	706008 <__bss_end+0x701d28>
    58f4:	1c000001 	stcne	0, cr0, [r0], {1}
    58f8:	00000173 	andeq	r0, r0, r3, ror r1
    58fc:	0022781d 	eoreq	r7, r2, sp, lsl r8
    5900:	0022a000 	eoreq	sl, r2, r0
    5904:	00d21200 	sbcseq	r1, r2, r0, lsl #4
    5908:	52010000 	andpl	r0, r1, #0
    590c:	1e000000 	cdpne	0, 0, cr0, cr0, cr0, {0}
    5910:	001a4501 	andseq	r4, sl, r1, lsl #10
    5914:	01c80100 	biceq	r0, r8, r0, lsl #2
    5918:	00007d01 	andeq	r7, r0, r1, lsl #26
    591c:	0022a000 	eoreq	sl, r2, r0
    5920:	0022c000 	eoreq	ip, r2, r0
    5924:	c45d0100 	ldrbgt	r0, [sp], #-256	; 0x100
    5928:	1f000002 	svcne	0x00000002
    592c:	00001b3b 	andeq	r1, r0, fp, lsr fp
    5930:	7d01c801 	stcvc	8, cr12, [r1, #-4]
    5934:	58000000 	stmdapl	r0, {}
    5938:	1b00000c 	blne	5970 <__bss_end+0x1690>
    593c:	000000de 	ldrdeq	r0, [r0], -lr
    5940:	000022a0 	andeq	r2, r0, r0, lsr #5
    5944:	000022b8 	undefined instruction 0x000022b8
    5948:	1c01ca01 	stcne	10, cr12, [r1], {1}
    594c:	0000019c 	muleq	r0, ip, r1
    5950:	0022a01d 	eoreq	sl, r2, sp, lsl r0
    5954:	0022b800 	eoreq	fp, r2, r0, lsl #16
    5958:	00fb1200 	rscseq	r1, fp, r0, lsl #4
    595c:	53010000 	movwpl	r0, #4096	; 0x1000
    5960:	18000000 	stmdane	r0, {}
    5964:	00198b01 	andseq	r8, r9, r1, lsl #22
    5968:	01ce0100 	biceq	r0, lr, r0, lsl #2
    596c:	0022c001 	eoreq	ip, r2, r1
    5970:	0022c400 	eoreq	ip, r2, r0, lsl #8
    5974:	1d5d0100 	ldfnee	f0, [sp]
    5978:	1f000003 	svcne	0x00000003
    597c:	00001b99 	muleq	r0, r9, fp
    5980:	7d01ce01 	stcvc	14, cr12, [r1, #-4]
    5984:	76000000 	strvc	r0, [r0], -r0
    5988:	1f00000c 	svcne	0x0000000c
    598c:	00001b6b 	andeq	r1, r0, fp, ror #22
    5990:	7d01ce01 	stcvc	14, cr12, [r1, #-4]
    5994:	89000000 	stmdbhi	r0, {}
    5998:	1f00000c 	svcne	0x0000000c
    599c:	00001b11 	andeq	r1, r0, r1, lsl fp
    59a0:	7d01ce01 	stcvc	14, cr12, [r1, #-4]
    59a4:	9c000000 	stcls	0, cr0, [r0], {0}
    59a8:	1f00000c 	svcne	0x0000000c
    59ac:	000018da 	ldrdeq	r1, [r0], -sl
    59b0:	7d01ce01 	stcvc	14, cr12, [r1, #-4]
    59b4:	af000000 	svcge	0x00000000
    59b8:	0000000c 	andeq	r0, r0, ip
    59bc:	1afd0120 	bne	fff45e44 <__bss_end+0xfff41b64>
    59c0:	fb010000 	blx	459ca <__bss_end+0x416ea>
    59c4:	00007d01 	andeq	r7, r0, r1, lsl #26
    59c8:	0022c400 	eoreq	ip, r2, r0, lsl #8
    59cc:	0022f400 	eoreq	pc, r2, r0, lsl #8
    59d0:	000cc200 	andeq	ip, ip, r0, lsl #4
    59d4:	00035300 	andeq	r5, r3, r0, lsl #6
    59d8:	00692100 	rsbeq	r2, r9, r0, lsl #2
    59dc:	007dfd01 	rsbseq	pc, sp, r1, lsl #26
    59e0:	98170000 	ldmdals	r7, {}
    59e4:	01000014 	tsteq	r0, r4, lsl r0
    59e8:	00007dfe 	strdeq	r7, [r0], -lr
    59ec:	000ce100 	andeq	lr, ip, r0, lsl #2
    59f0:	01220000 	teqeq	r2, r0
    59f4:	00001ab6 	undefined instruction 0x00001ab6
    59f8:	f4018201 	vst1.8	{d8-d11}, [r1], r1
    59fc:	24000022 	strcs	r0, [r0], #-34	; 0x22
    5a00:	01000023 	tsteq	r0, r3, lsr #32
    5a04:	0003835d 	andeq	r8, r3, sp, asr r3
    5a08:	00692100 	rsbeq	r2, r9, r0, lsl #2
    5a0c:	007d8401 	rsbseq	r8, sp, r1, lsl #8
    5a10:	98170000 	ldmdals	r7, {}
    5a14:	01000014 	tsteq	r0, r4, lsl r0
    5a18:	00007d85 	andeq	r7, r0, r5, lsl #27
    5a1c:	000cff00 	andeq	pc, ip, r0, lsl #30
    5a20:	01230000 	teqeq	r3, r0
    5a24:	00001a7f 	andeq	r1, r0, pc, ror sl
    5a28:	0101b601 	tsteq	r1, r1, lsl #12
    5a2c:	00002324 	andeq	r2, r0, r4, lsr #6
    5a30:	00002328 	andeq	r2, r0, r8, lsr #6
    5a34:	01225d01 	teqeq	r2, r1, lsl #26
    5a38:	000018cb 	andeq	r1, r0, fp, asr #17
    5a3c:	28014a01 	stmdacs	r1, {r0, r9, fp, lr}
    5a40:	58000023 	stmdapl	r0, {r0, r1, r5}
    5a44:	01000023 	tsteq	r0, r3, lsr #32
    5a48:	0003c75d 	andeq	ip, r3, sp, asr r7
    5a4c:	00692100 	rsbeq	r2, r9, r0, lsl #2
    5a50:	007d4c01 	rsbseq	r4, sp, r1, lsl #24
    5a54:	98170000 	ldmdals	r7, {}
    5a58:	01000014 	tsteq	r0, r4, lsl r0
    5a5c:	00007d4d 	andeq	r7, r0, sp, asr #26
    5a60:	000d1200 	andeq	r1, sp, r0, lsl #4
    5a64:	07240000 	streq	r0, [r4, -r0]!
    5a68:	58000001 	stmdapl	r0, {r0}
    5a6c:	5c000023 	stcpl	0, cr0, [r0], {35}	; 0x23
    5a70:	01000023 	tsteq	r0, r3, lsr #32
    5a74:	4401185d 	strmi	r1, [r1], #-2141	; 0x85d
    5a78:	0100001b 	tsteq	r0, fp, lsl r0
    5a7c:	5c0101bc 	stfpls	f0, [r1], {188}	; 0xbc
    5a80:	60000023 	andvs	r0, r0, r3, lsr #32
    5a84:	01000023 	tsteq	r0, r3, lsr #32
    5a88:	0003ff5d 	andeq	pc, r3, sp, asr pc
    5a8c:	01072500 	tsteq	r7, r0, lsl #10
    5a90:	235c0000 	cmpcs	ip, #0
    5a94:	23600000 	cmncs	r0, #0
    5a98:	be010000 	cdplt	0, 0, cr0, cr1, cr0, {0}
    5a9c:	01140001 	tsteq	r4, r1
    5aa0:	00001923 	andeq	r1, r0, r3, lsr #18
    5aa4:	60015901 	andvs	r5, r1, r1, lsl #18
    5aa8:	d8000023 	stmdale	r0, {r0, r1, r5}
    5aac:	25000023 	strcs	r0, [r0, #-35]	; 0x23
    5ab0:	5a00000d 	bpl	5aec <__bss_end+0x180c>
    5ab4:	26000004 	strcs	r0, [r0], -r4
    5ab8:	5b010069 	blpl	45c64 <__bss_end+0x41984>
    5abc:	0000007d 	andeq	r0, r0, sp, ror r0
    5ac0:	98175301 	ldmdals	r7, {r0, r8, r9, ip, lr}
    5ac4:	01000014 	tsteq	r0, r4, lsl r0
    5ac8:	00007d5c 	andeq	r7, r0, ip, asr sp
    5acc:	000d4400 	andeq	r4, sp, r0, lsl #8
    5ad0:	00af2700 	adceq	r2, pc, r0, lsl #14
    5ad4:	23a80000 	undefined instruction 0x23a80000
    5ad8:	00e00000 	rsceq	r0, r0, r0
    5adc:	71010000 	tstvc	r1, r0
    5ae0:	00017a1c 	andeq	r7, r1, ip, lsl sl
    5ae4:	01731c00 	cmneq	r3, r0, lsl #24
    5ae8:	00280000 	eoreq	r0, r8, r0
    5aec:	12000001 	andne	r0, r0, #1
    5af0:	000000d2 	ldrdeq	r0, [r0], -r2
    5af4:	00005101 	andeq	r5, r0, r1, lsl #2
    5af8:	69012300 	stmdbvs	r1, {r8, r9, sp}
    5afc:	0100001a 	tsteq	r0, sl, lsl r0
    5b00:	d80101b0 	stmdale	r1, {r4, r5, r7, r8}
    5b04:	dc000023 	stcle	0, cr0, [r0], {35}	; 0x23
    5b08:	01000023 	tsteq	r0, r3, lsr #32
    5b0c:	0101225d 	tsteq	r1, sp, asr r2
    5b10:	0100001a 	tsteq	r0, sl, lsl r0
    5b14:	23dc011d 	bicscs	r0, ip, #1073741831	; 0x40000007
    5b18:	240c0000 	strcs	r0, [ip]
    5b1c:	5d010000 	stcpl	0, cr0, [r1]
    5b20:	0000049e 	muleq	r0, lr, r4
    5b24:	01006921 	tsteq	r0, r1, lsr #18
    5b28:	00007d1f 	andeq	r7, r0, pc, lsl sp
    5b2c:	14981700 	ldrne	r1, [r8], #1792	; 0x700
    5b30:	20010000 	andcs	r0, r1, r0
    5b34:	0000007d 	andeq	r0, r0, sp, ror r0
    5b38:	00000d62 	andeq	r0, r0, r2, ror #26
    5b3c:	73011400 	movwvc	r1, #5120	; 0x1400
    5b40:	01000019 	tsteq	r0, r9, lsl r0
    5b44:	240c012c 	strcs	r0, [ip], #-300	; 0x12c
    5b48:	24800000 	strcs	r0, [r0]
    5b4c:	0d750000 	ldcleq	0, cr0, [r5]
    5b50:	04fd0000 	ldrbteq	r0, [sp]
    5b54:	69290000 	stmdbvs	r9!, {}
    5b58:	7d2e0100 	stfvcs	f0, [lr]
    5b5c:	94000000 	strls	r0, [r0]
    5b60:	1700000d 	strne	r0, [r0, -sp]
    5b64:	00001498 	muleq	r0, r8, r4
    5b68:	007d2f01 	rsbseq	r2, sp, r1, lsl #30
    5b6c:	0da70000 	stceq	0, cr0, [r7]
    5b70:	af270000 	svcge	0x00270000
    5b74:	14000000 	strne	r0, [r0]
    5b78:	20000024 	andcs	r0, r0, r4, lsr #32
    5b7c:	01000001 	tsteq	r0, r1
    5b80:	017a1c34 	cmneq	sl, r4, lsr ip
    5b84:	731c0000 	tstvc	ip, #0
    5b88:	28000001 	stmdacs	r0, {r0}
    5b8c:	00000140 	andeq	r0, r0, r0, asr #2
    5b90:	0000d22a 	andeq	sp, r0, sl, lsr #4
    5b94:	000dba00 	andeq	fp, sp, r0, lsl #20
    5b98:	00000000 	andeq	r0, r0, r0
    5b9c:	1b240123 	blne	906030 <__bss_end+0x901d50>
    5ba0:	aa010000 	bge	45ba8 <__bss_end+0x418c8>
    5ba4:	24800101 	strcs	r0, [r0], #257	; 0x101
    5ba8:	24840000 	strcs	r0, [r4]
    5bac:	5d010000 	stcpl	0, cr0, [r1]
    5bb0:	195b012b 	ldmdbne	fp, {r0, r1, r3, r5, r8}^
    5bb4:	89010000 	stmdbhi	r1, {}
    5bb8:	006b0101 	rsbeq	r0, fp, r1, lsl #2
    5bbc:	24840000 	strcs	r0, [r4]
    5bc0:	25400000 	strbcs	r0, [r0]
    5bc4:	0dcd0000 	stcleq	0, cr0, [sp]
    5bc8:	05750000 	ldrbeq	r0, [r5]!
    5bcc:	102c0000 	eorne	r0, ip, r0
    5bd0:	01000019 	tsteq	r0, r9, lsl r0
    5bd4:	006b018d 	rsbeq	r0, fp, sp, lsl #3
    5bd8:	55010000 	strpl	r0, [r1]
    5bdc:	0001112d 	andeq	r1, r1, sp, lsr #2
    5be0:	00248800 	eoreq	r8, r4, r0, lsl #16
    5be4:	00016000 	andeq	r6, r1, r0
    5be8:	01900100 	orrseq	r0, r0, r0, lsl #2
    5bec:	00017828 	andeq	r7, r1, r8, lsr #16
    5bf0:	01232a00 	teqeq	r3, r0, lsl #20
    5bf4:	0dec0000 	stcleq	0, cr0, [ip]
    5bf8:	2f2e0000 	svccs	0x002e0000
    5bfc:	12000001 	andne	r0, r0, #1
    5c00:	00000153 	andeq	r0, r0, r3, asr r1
    5c04:	2e077d02 	cdpcs	13, 0, cr7, cr7, cr2, {0}
    5c08:	0000013b 	andeq	r0, r0, fp, lsr r1
    5c0c:	0001472e 	andeq	r4, r1, lr, lsr #14
    5c10:	00000000 	andeq	r0, r0, r0
    5c14:	194a012b 	stmdbne	sl, {r0, r1, r3, r5, r8}^
    5c18:	0a010000 	beq	45c20 <__bss_end+0x41940>
    5c1c:	006b0101 	rsbeq	r0, fp, r1, lsl #2
    5c20:	25400000 	strbcs	r0, [r0]
    5c24:	26900000 	ldrcs	r0, [r0], r0
    5c28:	0e200000 	cdpeq	0, 2, cr0, cr0, cr0, {0}
    5c2c:	067a0000 	ldrbteq	r0, [sl], -r0
    5c30:	692f0000 	stmdbvs	pc!, {}
    5c34:	010c0100 	tsteq	ip, r0, lsl #2
    5c38:	0000007d 	andeq	r0, r0, sp, ror r0
    5c3c:	00149830 	andseq	r9, r4, r0, lsr r8
    5c40:	010d0100 	tsteq	sp, r0, lsl #2
    5c44:	0000007d 	andeq	r0, r0, sp, ror r0
    5c48:	00000e4c 	andeq	r0, r0, ip, asr #28
    5c4c:	001b1c0f 	andseq	r1, fp, pc, lsl #24
    5c50:	010e0100 	tsteq	lr, r0, lsl #2
    5c54:	0000007d 	andeq	r0, r0, sp, ror r0
    5c58:	00193a2c 	andseq	r3, r9, ip, lsr #20
    5c5c:	010f0100 	tsteq	pc, r0, lsl #2
    5c60:	0000007d 	andeq	r0, r0, sp, ror r0
    5c64:	2c187d02 	ldccs	13, cr7, [r8], {2}
    5c68:	00001942 	andeq	r1, r0, r2, asr #18
    5c6c:	7d010f01 	stcvc	15, cr0, [r1, #-4]
    5c70:	01000000 	tsteq	r0, r0
    5c74:	1a2a2c5b 	bne	a90de8 <__bss_end+0xa8cb08>
    5c78:	0f010000 	svceq	0x00010000
    5c7c:	00007d01 	andeq	r7, r0, r1, lsl #26
    5c80:	2c590100 	ldfcse	f0, [r9], {0}
    5c84:	00001a33 	andeq	r1, r0, r3, lsr sl
    5c88:	7d010f01 	stcvc	15, cr0, [r1, #-4]
    5c8c:	01000000 	tsteq	r0, r0
    5c90:	1a3c2c5a 	bne	f10e00 <__bss_end+0xf0cb20>
    5c94:	0f010000 	svceq	0x00010000
    5c98:	00007d01 	andeq	r7, r0, r1, lsl #26
    5c9c:	2c580100 	ldfcse	f0, [r8], {0}
    5ca0:	00001aaf 	andeq	r1, r0, pc, lsr #21
    5ca4:	7d010f01 	stcvc	15, cr0, [r1, #-4]
    5ca8:	01000000 	tsteq	r0, r0
    5cac:	1ae12c57 	bne	ff850e10 <__bss_end+0xff84cb30>
    5cb0:	0f010000 	svceq	0x00010000
    5cb4:	00007d01 	andeq	r7, r0, r1, lsl #26
    5cb8:	147d0200 	ldrbtne	r0, [sp], #-512	; 0x200
    5cbc:	001b592c 	andseq	r5, fp, ip, lsr #18
    5cc0:	010f0100 	tsteq	pc, r0, lsl #2
    5cc4:	0000007d 	andeq	r0, r0, sp, ror r0
    5cc8:	2c107d02 	ldccs	13, cr7, [r0], {2}
    5ccc:	00001b62 	andeq	r1, r0, r2, ror #22
    5cd0:	7d010f01 	stcvc	15, cr0, [r1, #-4]
    5cd4:	02000000 	andeq	r0, r0, #0
    5cd8:	bc300c7d 	ldclt	12, cr0, [r0], #-500	; 0xfffffe0c
    5cdc:	01000019 	tsteq	r0, r9, lsl r0
    5ce0:	007d0110 	rsbseq	r0, sp, r0, lsl r1
    5ce4:	0e6a0000 	cdpeq	0, 6, cr0, cr10, cr0, {0}
    5ce8:	ad2c0000 	stcge	0, cr0, [ip]
    5cec:	01000018 	tsteq	r0, r8, lsl r0
    5cf0:	007d0110 	rsbseq	r0, sp, r0, lsl r1
    5cf4:	7d020000 	stcvc	0, cr0, [r2]
    5cf8:	199f2c08 	ldmibne	pc, {r3, sl, fp, sp}
    5cfc:	10010000 	andne	r0, r1, r0
    5d00:	00007d01 	andeq	r7, r0, r1, lsl #26
    5d04:	047d0200 	ldrbteq	r0, [sp], #-512	; 0x200
    5d08:	00190730 	andseq	r0, r9, r0, lsr r7
    5d0c:	01100100 	tsteq	r0, r0, lsl #2
    5d10:	0000007d 	andeq	r0, r0, sp, ror r0
    5d14:	00000e7d 	andeq	r0, r0, sp, ror lr
    5d18:	f1013100 	undefined instruction 0xf1013100
    5d1c:	01000018 	tsteq	r0, r8, lsl r0
    5d20:	7d0101a4 	stfvcs	f0, [r1, #-656]	; 0xfffffd70
    5d24:	90000000 	andls	r0, r0, r0
    5d28:	94000026 	strls	r0, [r0], #-38	; 0x26
    5d2c:	01000026 	tsteq	r0, r6, lsr #32
    5d30:	0938005d 	ldmdbeq	r8!, {r0, r2, r3, r4, r6}
    5d34:	00020000 	andeq	r0, r2, r0
    5d38:	00000c67 	andeq	r0, r0, r7, ror #24
    5d3c:	00550104 	subseq	r0, r5, r4, lsl #2
    5d40:	cb010000 	blgt	45d48 <__bss_end+0x41a68>
    5d44:	9700001d 	smladls	r0, sp, r0, r0
    5d48:	94000002 	strls	r0, [r0], #-2
    5d4c:	cc000026 	stcgt	0, cr0, [r0], {38}	; 0x26
    5d50:	5d00002e 	stcpl	0, cr0, [r0, #-184]	; 0xffffff48
    5d54:	0200000b 	andeq	r0, r0, #11
    5d58:	012f0504 	teqeq	pc, r4, lsl #10
    5d5c:	04030000 	streq	r0, [r3]
    5d60:	07040207 	streq	r0, [r4, -r7, lsl #4]
    5d64:	00000225 	andeq	r0, r0, r5, lsr #4
    5d68:	ed070202 	sfm	f0, 4, [r7, #-8]	; (stc 2, cr0, [r7, #-8])
    5d6c:	02000002 	andeq	r0, r0, #2
    5d70:	022a0704 	eoreq	r0, sl, #1048576	; 0x100000
    5d74:	01020000 	tsteq	r2, r0
    5d78:	0001af08 	andeq	sl, r1, r8, lsl #30
    5d7c:	06010200 	streq	r0, [r1], -r0, lsl #4
    5d80:	000001a8 	andeq	r0, r0, r8, lsr #3
    5d84:	a6080102 	strge	r0, [r8], -r2, lsl #2
    5d88:	02000001 	andeq	r0, r0, #1
    5d8c:	00610502 	rsbeq	r0, r1, r2, lsl #10
    5d90:	e4040000 	str	r0, [r4]
    5d94:	03000001 	movweq	r0, #1
    5d98:	00006b12 	andeq	r6, r0, r2, lsl fp
    5d9c:	05040500 	streq	r0, [r4, #-1280]	; 0x500
    5da0:	00746e69 	rsbseq	r6, r4, r9, ror #28
    5da4:	00011604 	andeq	r1, r1, r4, lsl #12
    5da8:	3d130300 	ldccc	3, cr0, [r3]
    5dac:	02000000 	andeq	r0, r0, #0
    5db0:	012a0508 	teqeq	sl, r8, lsl #10
    5db4:	9e040000 	cdpls	0, 0, cr0, cr4, cr0, {0}
    5db8:	0300001b 	movweq	r0, #27
    5dbc:	00008f15 	andeq	r8, r0, r5, lsl pc
    5dc0:	07080200 	streq	r0, [r8, -r0, lsl #4]
    5dc4:	00000220 	andeq	r0, r0, r0, lsr #4
    5dc8:	001ceb06 	andseq	lr, ip, r6, lsl #22
    5dcc:	10015000 	andne	r5, r1, r0
    5dd0:	000001bb 	undefined instruction 0x000001bb
    5dd4:	001d8807 	andseq	r8, sp, r7, lsl #16
    5dd8:	72110100 	andsvc	r0, r1, #0
    5ddc:	02000000 	andeq	r0, r0, #0
    5de0:	0d070023 	stceq	0, cr0, [r7, #-140]	; 0xffffff74
    5de4:	0100001e 	tsteq	r0, lr, lsl r0
    5de8:	00007212 	andeq	r7, r0, r2, lsl r2
    5dec:	04230200 	strteq	r0, [r3], #-512	; 0x200
    5df0:	001e5107 	andseq	r5, lr, r7, lsl #2
    5df4:	72130100 	andsvc	r0, r3, #0
    5df8:	02000000 	andeq	r0, r0, #0
    5dfc:	7a070823 	bvc	1c7e90 <__bss_end+0x1c3bb0>
    5e00:	0100001d 	tsteq	r0, sp, lsl r0
    5e04:	00007214 	andeq	r7, r0, r4, lsl r2
    5e08:	0c230200 	sfmeq	f0, 4, [r3]	; (stceq 2, cr0, [r3])
    5e0c:	001cbd07 	andseq	fp, ip, r7, lsl #26
    5e10:	72150100 	andsvc	r0, r5, #0
    5e14:	02000000 	andeq	r0, r0, #0
    5e18:	43071023 	movwmi	r1, #28707	; 0x7023
    5e1c:	0100001e 	tsteq	r0, lr, lsl r0
    5e20:	00007216 	andeq	r7, r0, r6, lsl r2
    5e24:	14230200 	strtne	r0, [r3], #-512	; 0x200
    5e28:	001d4f07 	andseq	r4, sp, r7, lsl #30
    5e2c:	72170100 	andsvc	r0, r7, #0
    5e30:	02000000 	andeq	r0, r0, #0
    5e34:	63071823 	movwvs	r1, #30755	; 0x7823
    5e38:	0100001e 	tsteq	r0, lr, lsl r0
    5e3c:	00007218 	andeq	r7, r0, r8, lsl r2
    5e40:	1c230200 	sfmne	f0, 4, [r3]	; (stcne 2, cr0, [r3])
    5e44:	001daf07 	andseq	sl, sp, r7, lsl #30
    5e48:	72190100 	andsvc	r0, r9, #0
    5e4c:	02000000 	andeq	r0, r0, #0
    5e50:	07072023 	streq	r2, [r7, -r3, lsr #32]
    5e54:	0100001d 	tsteq	r0, sp, lsl r0
    5e58:	0000721a 	andeq	r7, r0, sl, lsl r2
    5e5c:	24230200 	strtcs	r0, [r3], #-512	; 0x200
    5e60:	001bd207 	andseq	sp, fp, r7, lsl #4
    5e64:	721b0100 	andsvc	r0, fp, #0
    5e68:	02000000 	andeq	r0, r0, #0
    5e6c:	47072823 	strmi	r2, [r7, -r3, lsr #16]
    5e70:	0100001c 	tsteq	r0, ip, lsl r0
    5e74:	0000721c 	andeq	r7, r0, ip, lsl r2
    5e78:	2c230200 	sfmcs	f0, 4, [r3]	; (stccs 2, cr0, [r3])
    5e7c:	001c5107 	andseq	r5, ip, r7, lsl #2
    5e80:	721d0100 	andsvc	r0, sp, #0
    5e84:	02000000 	andeq	r0, r0, #0
    5e88:	5b073023 	blpl	1d1f1c <__bss_end+0x1cdc3c>
    5e8c:	0100001c 	tsteq	r0, ip, lsl r0
    5e90:	0000721e 	andeq	r7, r0, lr, lsl r2
    5e94:	34230200 	strtcc	r0, [r3], #-512	; 0x200
    5e98:	001c6507 	andseq	r6, ip, r7, lsl #10
    5e9c:	721f0100 	andsvc	r0, pc, #0
    5ea0:	02000000 	andeq	r0, r0, #0
    5ea4:	6f073823 	svcvs	0x00073823
    5ea8:	0100001c 	tsteq	r0, ip, lsl r0
    5eac:	00007220 	andeq	r7, r0, r0, lsr #4
    5eb0:	3c230200 	sfmcc	f0, 4, [r3]	; (stccc 2, cr0, [r3])
    5eb4:	001c7907 	andseq	r7, ip, r7, lsl #18
    5eb8:	72210100 	eorvc	r0, r1, #0
    5ebc:	02000000 	andeq	r0, r0, #0
    5ec0:	96074023 	strls	r4, [r7], -r3, lsr #32
    5ec4:	0100001c 	tsteq	r0, ip, lsl r0
    5ec8:	00007222 	andeq	r7, r0, r2, lsr #4
    5ecc:	44230200 	strtmi	r0, [r3], #-512	; 0x200
    5ed0:	001db707 	andseq	fp, sp, r7, lsl #14
    5ed4:	72230100 	eorvc	r0, r3, #0
    5ed8:	02000000 	andeq	r0, r0, #0
    5edc:	c1074823 	tstgt	r7, r3, lsr #16
    5ee0:	0100001d 	tsteq	r0, sp, lsl r0
    5ee4:	00007224 	andeq	r7, r0, r4, lsr #4
    5ee8:	4c230200 	sfmmi	f0, 4, [r3]	; (stcmi 2, cr0, [r3])
    5eec:	1cec0400 	cfstrdne	mvd0, [ip]
    5ef0:	25010000 	strcs	r0, [r1]
    5ef4:	00000096 	muleq	r0, r6, r0
    5ef8:	001beb04 	andseq	lr, fp, r4, lsl #22
    5efc:	bb670100 	bllt	19c6304 <__bss_end+0x19c2024>
    5f00:	08000001 	stmdaeq	r0, {r0}
    5f04:	001d1301 	andseq	r1, sp, r1, lsl #6
    5f08:	01d10100 	bicseq	r0, r1, r0, lsl #2
    5f0c:	00006001 	andeq	r6, r0, r1
    5f10:	01090100 	tsteq	r9, r0, lsl #2
    5f14:	00001de4 	andeq	r1, r0, r4, ror #27
    5f18:	01019b01 	tsteq	r1, r1, lsl #22
    5f1c:	000001fa 	strdeq	r0, [r0], -sl
    5f20:	0014980a 	andseq	r9, r4, sl, lsl #16
    5f24:	729d0100 	addsvc	r0, sp, #0
    5f28:	00000000 	andeq	r0, r0, r0
    5f2c:	1d5e010b 	ldfnee	f0, [lr, #-44]	; 0xffffffd4
    5f30:	2e010000 	cdpcs	0, 0, cr0, cr1, cr0, {0}
    5f34:	2e010102 	adfcss	f0, f1, f2
    5f38:	0c000002 	stceq	0, cr0, [r0], {2}
    5f3c:	006b6c63 	rsbeq	r6, fp, r3, ror #24
    5f40:	72022e01 	andvc	r2, r2, #16
    5f44:	0d000000 	stceq	0, cr0, [r0]
    5f48:	00001498 	muleq	r0, r8, r4
    5f4c:	72023001 	andvc	r3, r2, #1
    5f50:	0d000000 	stceq	0, cr0, [r0]
    5f54:	00001da7 	andeq	r1, r0, r7, lsr #27
    5f58:	72023201 	andvc	r3, r2, #268435456	; 0x10000000
    5f5c:	00000000 	andeq	r0, r0, r0
    5f60:	1c14010e 	ldfnes	f0, [r4], {14}
    5f64:	e3010000 	movw	r0, #4096	; 0x1000
    5f68:	00600101 	rsbeq	r0, r0, r1, lsl #2
    5f6c:	4e010000 	cdpmi	0, 0, cr0, cr1, cr0, {0}
    5f70:	0d000002 	stceq	0, cr0, [r0, #-8]
    5f74:	00001498 	muleq	r0, r8, r4
    5f78:	7201e501 	andvc	lr, r1, #4194304	; 0x400000
    5f7c:	00000000 	andeq	r0, r0, r0
    5f80:	001bad0f 	andseq	sl, fp, pc, lsl #26
    5f84:	01150200 	tsteq	r5, r0, lsl #4
    5f88:	00000084 	andeq	r0, r0, r4, lsl #1
    5f8c:	00029703 	andeq	r9, r2, r3, lsl #14
    5f90:	14e51000 	strbtne	r1, [r5]
    5f94:	15020000 	strne	r0, [r2]
    5f98:	00000084 	andeq	r0, r0, r4, lsl #1
    5f9c:	0013ee10 	andseq	lr, r3, r0, lsl lr
    5fa0:	72150200 	andsvc	r0, r5, #0
    5fa4:	0a000000 	beq	5fac <__bss_end+0x1ccc>
    5fa8:	00001408 	andeq	r1, r0, r8, lsl #8
    5fac:	00841702 	addeq	r1, r4, r2, lsl #14
    5fb0:	010a0000 	tsteq	sl, r0
    5fb4:	02000015 	andeq	r0, r0, #21
    5fb8:	00008418 	andeq	r8, r0, r8, lsl r4
    5fbc:	14410a00 	strbne	r0, [r1], #-2560	; 0xa00
    5fc0:	19020000 	stmdbne	r2, {}
    5fc4:	00000060 	andeq	r0, r0, r0, rrx
    5fc8:	39010b00 	stmdbcc	r1, {r8, r9, fp}
    5fcc:	0100001d 	tsteq	r0, sp, lsl r0
    5fd0:	01010216 	tsteq	r1, r6, lsl r2
    5fd4:	000002be 	undefined instruction 0x000002be
    5fd8:	006e6f0c 	rsbeq	r6, lr, ip, lsl #30
    5fdc:	72021601 	andvc	r1, r2, #1048576	; 0x100000
    5fe0:	0d000000 	stceq	0, cr0, [r0]
    5fe4:	00001498 	muleq	r0, r8, r4
    5fe8:	72021801 	andvc	r1, r2, #65536	; 0x10000
    5fec:	00000000 	andeq	r0, r0, r0
    5ff0:	1d960109 	ldfnes	f0, [r6, #36]	; 0x24
    5ff4:	a6010000 	strge	r0, [r1], -r0
    5ff8:	02d80101 	sbcseq	r0, r8, #1073741824	; 0x40000000
    5ffc:	980a0000 	stmdals	sl, {}
    6000:	01000014 	tsteq	r0, r4, lsl r0
    6004:	000072a8 	andeq	r7, r0, r8, lsr #5
    6008:	01090000 	tsteq	r9, r0
    600c:	00001e16 	andeq	r1, r0, r6, lsl lr
    6010:	0101af01 	tsteq	r1, r1, lsl #30
    6014:	000002f2 	strdeq	r0, [r0], -r2
    6018:	0014980a 	andseq	r9, r4, sl, lsl #16
    601c:	72b10100 	adcsvc	r0, r1, #0
    6020:	00000000 	andeq	r0, r0, r0
    6024:	1b86010b 	blne	fe186458 <__bss_end+0xfe182178>
    6028:	12010000 	andne	r0, r1, #0
    602c:	0c010101 	stfeqs	f0, [r1], {1}
    6030:	11000003 	tstne	r0, r3
    6034:	14010069 	strne	r0, [r1], #-105	; 0x69
    6038:	00007201 	andeq	r7, r0, r1, lsl #4
    603c:	e0120000 	ands	r0, r2, r0
    6040:	94000001 	strls	r0, [r0], #-1
    6044:	b4000026 	strlt	r0, [r0], #-38	; 0x26
    6048:	01000026 	tsteq	r0, r6, lsr #32
    604c:	0003275d 	andeq	r2, r3, sp, asr r7
    6050:	01ee1300 	mvneq	r1, r0, lsl #6
    6054:	53010000 	movwpl	r0, #4096	; 0x1000
    6058:	02be1200 	adcseq	r1, lr, #0
    605c:	26b40000 	ldrtcs	r0, [r4], r0
    6060:	26cc0000 	strbcs	r0, [ip], r0
    6064:	5d010000 	stcpl	0, cr0, [r1]
    6068:	00000342 	andeq	r0, r0, r2, asr #6
    606c:	0002cc13 	andeq	ip, r2, r3, lsl ip
    6070:	00520100 	subseq	r0, r2, r0, lsl #2
    6074:	0002d812 	andeq	sp, r2, r2, lsl r8
    6078:	0026cc00 	eoreq	ip, r6, r0, lsl #24
    607c:	0026e400 	eoreq	lr, r6, r0, lsl #8
    6080:	5d5d0100 	ldfple	f0, [sp]
    6084:	13000003 	movwne	r0, #3
    6088:	000002e6 	andeq	r0, r0, r6, ror #5
    608c:	14005201 	strne	r5, [r0], #-513	; 0x201
    6090:	001cda01 	andseq	sp, ip, r1, lsl #20
    6094:	01e90100 	mvneq	r0, r0, lsl #2
    6098:	000026e4 	andeq	r2, r0, r4, ror #13
    609c:	00002740 	andeq	r2, r0, r0, asr #14
    60a0:	03825d01 	orreq	r5, r2, #64	; 0x40
    60a4:	98150000 	ldmdals	r5, {}
    60a8:	01000014 	tsteq	r0, r4, lsl r0
    60ac:	000072eb 	andeq	r7, r0, fp, ror #5
    60b0:	00520100 	subseq	r0, r2, r0, lsl #2
    60b4:	0002f212 	andeq	pc, r2, r2, lsl r2
    60b8:	00274000 	eoreq	r4, r7, r0
    60bc:	00277400 	eoreq	r7, r7, r0, lsl #8
    60c0:	9d5d0100 	ldflse	f0, [sp]
    60c4:	13000003 	movwne	r0, #3
    60c8:	00000301 	andeq	r0, r0, r1, lsl #6
    60cc:	16005301 	strne	r5, [r0], -r1, lsl #6
    60d0:	000001d1 	ldrdeq	r0, [r0], -r1
    60d4:	00002774 	andeq	r2, r0, r4, ror r7
    60d8:	0000277c 	andeq	r2, r0, ip, ror r7
    60dc:	2e125d01 	cdpcs	13, 1, cr5, cr2, cr1, {0}
    60e0:	7c000002 	stcvc	0, cr0, [r0], {2}
    60e4:	b4000027 	strlt	r0, [r0], #-39	; 0x27
    60e8:	01000027 	tsteq	r0, r7, lsr #32
    60ec:	0003c95d 	andeq	ip, r3, sp, asr r9
    60f0:	02411700 	subeq	r1, r1, #0
    60f4:	0e900000 	cdpeq	0, 9, cr0, cr0, cr0, {0}
    60f8:	12000000 	andne	r0, r0, #0
    60fc:	00000297 	muleq	r0, r7, r2
    6100:	000027b4 	undefined instruction 0x000027b4
    6104:	000027d8 	ldrdeq	r2, [r0], -r8
    6108:	03eb5d01 	mvneq	r5, #64	; 0x40
    610c:	a6180000 	ldrge	r0, [r8], -r0
    6110:	01000002 	tsteq	r0, r2
    6114:	02b11350 	adcseq	r1, r1, #1073741825	; 0x40000001
    6118:	53010000 	movwpl	r0, #4096	; 0x1000
    611c:	01fa1200 	mvnseq	r1, r0, lsl #4
    6120:	27d80000 	ldrbcs	r0, [r8, r0]
    6124:	280c0000 	stmdacs	ip, {}
    6128:	5d010000 	stcpl	0, cr0, [r1]
    612c:	00000412 	andeq	r0, r0, r2, lsl r4
    6130:	00020918 	andeq	r0, r2, r8, lsl r9
    6134:	13500100 	cmpne	r0, #0
    6138:	00000215 	andeq	r0, r0, r5, lsl r2
    613c:	21195201 	tstcs	r9, r1, lsl #4
    6140:	00000002 	andeq	r0, r0, r2
    6144:	1bc8011a 	blne	ff2065b4 <__bss_end+0xff2022d4>
    6148:	5a010000 	bpl	46150 <__bss_end+0x41e70>
    614c:	00720102 	rsbseq	r0, r2, r2, lsl #2
    6150:	280c0000 	stmdacs	ip, {}
    6154:	28800000 	stmcs	r0, {}
    6158:	5d010000 	stcpl	0, cr0, [r1]
    615c:	0000045f 	andeq	r0, r0, pc, asr r4
    6160:	0014981b 	andseq	r9, r4, fp, lsl r8
    6164:	025c0100 	subseq	r0, ip, #0
    6168:	00000072 	andeq	r0, r0, r2, ror r0
    616c:	00000eae 	andeq	r0, r0, lr, lsr #29
    6170:	001bd21b 	andseq	sp, fp, fp, lsl r2
    6174:	025d0100 	subseq	r0, sp, #0
    6178:	00000072 	andeq	r0, r0, r2, ror r0
    617c:	00000ec1 	andeq	r0, r0, r1, asr #29
    6180:	001ba41b 	andseq	sl, fp, fp, lsl r4
    6184:	025e0100 	subseq	r0, lr, #0
    6188:	00000072 	andeq	r0, r0, r2, ror r0
    618c:	00000ed4 	ldrdeq	r0, [r0], -r4
    6190:	1e011c00 	cdpne	12, 0, cr1, cr1, cr0, {0}
    6194:	0100001d 	tsteq	r0, sp, lsl r0
    6198:	6001027a 	andvs	r0, r1, sl, ror r2
    619c:	80000000 	andhi	r0, r0, r0
    61a0:	88000028 	stmdahi	r0, {r3, r5}
    61a4:	01000028 	tsteq	r0, r8, lsr #32
    61a8:	f3011c5d 	undefined instruction 0xf3011c5d
    61ac:	0100001d 	tsteq	r0, sp, lsl r0
    61b0:	600102a2 	andvs	r0, r1, r2, lsr #5
    61b4:	88000000 	stmdahi	r0, {}
    61b8:	90000028 	andls	r0, r0, r8, lsr #32
    61bc:	01000028 	tsteq	r0, r8, lsr #32
    61c0:	af011c5d 	svcge	0x00011c5d
    61c4:	0100001c 	tsteq	r0, ip, lsl r0
    61c8:	600102a7 	andvs	r0, r1, r7, lsr #5
    61cc:	90000000 	andls	r0, r0, r0
    61d0:	94000028 	strls	r0, [r0], #-40	; 0x28
    61d4:	01000028 	tsteq	r0, r8, lsr #32
    61d8:	a0011d5d 	andge	r1, r1, sp, asr sp
    61dc:	0100001c 	tsteq	r0, ip, lsl r0
    61e0:	940102b1 	strls	r0, [r1], #-689	; 0x2b1
    61e4:	b4000028 	strlt	r0, [r0], #-40	; 0x28
    61e8:	01000028 	tsteq	r0, r8, lsr #32
    61ec:	0004e25d 	andeq	lr, r4, sp, asr r2
    61f0:	01e01e00 	mvneq	r1, r0, lsl #28
    61f4:	28940000 	ldmcs	r4, {}
    61f8:	28ac0000 	stmiacs	ip!, {}
    61fc:	b3010000 	movwlt	r0, #4096	; 0x1000
    6200:	28941f02 	ldmcs	r4, {r1, r8, r9, sl, fp, ip}
    6204:	28ac0000 	stmiacs	ip!, {}
    6208:	ee130000 	cdp	0, 1, cr0, cr3, cr0, {0}
    620c:	01000001 	tsteq	r0, r1
    6210:	00000053 	andeq	r0, r0, r3, asr r0
    6214:	1bf9011d 	blne	ffe46690 <__bss_end+0xffe423b0>
    6218:	b6010000 	strlt	r0, [r1], -r0
    621c:	28b40102 	ldmcs	r4!, {r1, r8}
    6220:	28e80000 	stmiacs	r8!, {}^
    6224:	5d010000 	stcpl	0, cr0, [r1]
    6228:	00000535 	andeq	r0, r0, r5, lsr r5
    622c:	6b6c6320 	blvs	1b1eeb4 <__bss_end+0x1b1abd4>
    6230:	02b60100 	adcseq	r0, r6, #0
    6234:	00000072 	andeq	r0, r0, r2, ror r0
    6238:	fa1e5001 	blx	79a244 <__bss_end+0x795f64>
    623c:	b4000001 	strlt	r0, [r0], #-1
    6240:	dc000028 	stcle	0, cr0, [r0], {40}	; 0x28
    6244:	01000028 	tsteq	r0, r8, lsr #32
    6248:	fe2102b8 	mcr2	2, 1, r0, cr1, cr8, {5}
    624c:	1f000003 	svcne	0x00000003
    6250:	000028b4 	undefined instruction 0x000028b4
    6254:	000028dc 	ldrdeq	r2, [r0], -ip
    6258:	00021513 	andeq	r1, r2, r3, lsl r5
    625c:	19520100 	ldmdbne	r2, {r8}^
    6260:	00000221 	andeq	r0, r0, r1, lsr #4
    6264:	1a000000 	bne	626c <__bss_end+0x1f8c>
    6268:	001c8301 	andseq	r8, ip, r1, lsl #6
    626c:	02bb0100 	adcseq	r0, fp, #0
    6270:	00006001 	andeq	r6, r0, r1
    6274:	0028e800 	eoreq	lr, r8, r0, lsl #16
    6278:	00292000 	eoreq	r2, r9, r0
    627c:	765d0100 	ldrbvc	r0, [sp], -r0, lsl #2
    6280:	1e000005 	cdpne	0, 0, cr0, cr0, cr5, {0}
    6284:	0000022e 	andeq	r0, r0, lr, lsr #4
    6288:	000028e8 	andeq	r2, r0, r8, ror #17
    628c:	00002910 	andeq	r2, r0, r0, lsl r9
    6290:	1f02bd01 	svcne	0x0002bd01
    6294:	000028e8 	andeq	r2, r0, r8, ror #17
    6298:	00002910 	andeq	r2, r0, r0, lsl r9
    629c:	00024117 	andeq	r4, r2, r7, lsl r1
    62a0:	000f1300 	andeq	r1, pc, r0, lsl #6
    62a4:	00000000 	andeq	r0, r0, r0
    62a8:	1c33011d 	ldfnes	f0, [r3], #-116	; 0xffffff8c
    62ac:	81010000 	tsthi	r1, r0
    62b0:	29200102 	stmdbcs	r0!, {r1, r8}
    62b4:	29300000 	ldmdbcs	r0!, {}
    62b8:	5d010000 	stcpl	0, cr0, [r1]
    62bc:	0000059f 	muleq	r0, pc, r5
    62c0:	001e3122 	andseq	r3, lr, r2, lsr #2
    62c4:	02810100 	addeq	r0, r1, #0
    62c8:	0000059f 	muleq	r0, pc, r5
    62cc:	00000f31 	andeq	r0, r0, r1, lsr pc
    62d0:	bb042300 	bllt	10eed8 <__bss_end+0x10abf8>
    62d4:	24000001 	strcs	r0, [r0], #-1
    62d8:	001b7001 	andseq	r7, fp, r1
    62dc:	011c0100 	tsteq	ip, r0, lsl #2
    62e0:	00293001 	eoreq	r3, r9, r1
    62e4:	002a3c00 	eoreq	r3, sl, r0, lsl #24
    62e8:	000f4400 	andeq	r4, pc, r0, lsl #8
    62ec:	00062300 	andeq	r2, r6, r0, lsl #6
    62f0:	6c632500 	cfstr64vs	mvdx2, [r3]
    62f4:	1c01006b 	stcne	0, cr0, [r1], {107}	; 0x6b
    62f8:	00007201 	andeq	r7, r0, r1, lsl #4
    62fc:	000f6300 	andeq	r6, pc, r0, lsl #6
    6300:	14981b00 	ldrne	r1, [r8], #2816	; 0xb00
    6304:	1e010000 	cdpne	0, 0, cr0, cr1, cr0, {0}
    6308:	00007201 	andeq	r7, r0, r1, lsl #4
    630c:	000f8100 	andeq	r8, pc, r0, lsl #2
    6310:	024e2600 	subeq	r2, lr, #0
    6314:	29480000 	stmdbcs	r8, {}^
    6318:	01900000 	orrseq	r0, r0, r0
    631c:	27010000 	strcs	r0, [r1, -r0]
    6320:	026a2101 	rsbeq	r2, sl, #1073741824	; 0x40000000
    6324:	5f180000 	svcpl	0x00180000
    6328:	06000002 	streq	r0, [r0], -r2
    632c:	57049356 	smlsdpl	r4, r6, r3, r9
    6330:	a8270493 	stmdage	r7!, {r0, r1, r4, r7, sl}
    6334:	17000001 	strne	r0, [r0, -r1]
    6338:	00000275 	andeq	r0, r0, r5, ror r2
    633c:	00000fc0 	andeq	r0, r0, r0, asr #31
    6340:	00028017 	andeq	r8, r2, r7, lsl r0
    6344:	000fd800 	andeq	sp, pc, r0, lsl #16
    6348:	028b1700 	addeq	r1, fp, #0
    634c:	10000000 	andne	r0, r0, r0
    6350:	00000000 	andeq	r0, r0, r0
    6354:	dc011d00 	stcle	13, cr1, [r1], {0}
    6358:	0100001b 	tsteq	r0, fp, lsl r0
    635c:	3c0102ac 	sfmcc	f0, 4, [r1], {172}	; (stccc 2, cr0, [r1], {172})	; 0xac
    6360:	4000002a 	andmi	r0, r0, sl, lsr #32
    6364:	0100002a 	tsteq	r0, sl, lsr #32
    6368:	00064c5d 	andeq	r4, r6, sp, asr ip
    636c:	6c632500 	cfstr64vs	mvdx2, [r3]
    6370:	ac01006b 	stcge	0, cr0, [r1], {107}	; 0x6b
    6374:	00006b02 	andeq	r6, r0, r2, lsl #22
    6378:	00101300 	andseq	r1, r0, r0, lsl #6
    637c:	01280000 	teqeq	r8, r0
    6380:	00001bb7 	undefined instruction 0x00001bb7
    6384:	4001c601 	andmi	ip, r1, r1, lsl #12
    6388:	0000002a 	andeq	r0, r0, sl, lsr #32
    638c:	2600002b 	strcs	r0, [r0], -fp, lsr #32
    6390:	8f000010 	svchi	0x00000010
    6394:	29000006 	stmdbcs	r0, {r1, r2}
    6398:	c8010069 	stmdagt	r1, {r0, r3, r5, r6}
    639c:	00000072 	andeq	r0, r0, r2, ror r0
    63a0:	00001045 	andeq	r1, r0, r5, asr #32
    63a4:	0014982a 	andseq	r9, r4, sl, lsr #16
    63a8:	72c90100 	sbcvc	r0, r9, #0
    63ac:	6e000000 	cdpvs	0, 0, cr0, cr0, cr0, {0}
    63b0:	15000010 	strne	r0, [r0, #-16]
    63b4:	00001e5b 	andeq	r1, r0, fp, asr lr
    63b8:	0072ca01 	rsbseq	ip, r2, r1, lsl #20
    63bc:	54010000 	strpl	r0, [r1]
    63c0:	28012800 	stmdacs	r1, {fp, sp}
    63c4:	0100001d 	tsteq	r0, sp, lsl r0
    63c8:	2b0001b8 	blcs	6ab0 <__bss_end+0x27d0>
    63cc:	2b540000 	blcs	15063d4 <__bss_end+0x15020f4>
    63d0:	10810000 	addne	r0, r1, r0
    63d4:	06b20000 	ldrteq	r0, [r2], r0
    63d8:	692b0000 	stmdbvs	fp!, {}
    63dc:	72ba0100 	adcsvc	r0, sl, #0
    63e0:	00000000 	andeq	r0, r0, r0
    63e4:	1dfd0128 	ldfnee	f0, [sp, #160]!	; 0xa0
    63e8:	8e010000 	cdphi	0, 0, cr0, cr1, cr0, {0}
    63ec:	002b5401 	eoreq	r5, fp, r1, lsl #8
    63f0:	002b8400 	eoreq	r8, fp, r0, lsl #8
    63f4:	0010a000 	andseq	sl, r0, r0
    63f8:	0006db00 	andeq	sp, r6, r0, lsl #22
    63fc:	14982a00 	ldrne	r2, [r8], #2560	; 0xa00
    6400:	90010000 	andls	r0, r1, r0
    6404:	00000072 	andeq	r0, r0, r2, ror r0
    6408:	000010bf 	strheq	r1, [r0], -pc
    640c:	cf012c00 	svcgt	0x00012c00
    6410:	0100001c 	tsteq	r0, ip, lsl r0
    6414:	60010142 	andvs	r0, r1, r2, asr #2
    6418:	84000000 	strhi	r0, [r0]
    641c:	e000002b 	and	r0, r0, fp, lsr #32
    6420:	dd00002d 	stcle	0, cr0, [r0, #-180]	; 0xffffff4c
    6424:	78000010 	stmdavc	r0, {r4}
    6428:	22000008 	andcs	r0, r0, #8
    642c:	00001c2e 	andeq	r1, r0, lr, lsr #24
    6430:	78014201 	stmdavc	r1, {r0, r9, lr}
    6434:	fc000008 	stc2	0, cr0, [r0], {8}
    6438:	11000010 	tstne	r0, r0, lsl r0
    643c:	44010069 	strmi	r0, [r1], #-105	; 0x69
    6440:	00007201 	andeq	r7, r0, r1, lsl #4
    6444:	14981b00 	ldrne	r1, [r8], #2816	; 0xb00
    6448:	45010000 	strmi	r0, [r1]
    644c:	00007201 	andeq	r7, r0, r1, lsl #4
    6450:	00111a00 	andseq	r1, r1, r0, lsl #20
    6454:	1b1c0d00 	blne	70985c <__bss_end+0x70557c>
    6458:	46010000 	strmi	r0, [r1], -r0
    645c:	00006001 	andeq	r6, r0, r1
    6460:	01e02d00 	mvneq	r2, r0, lsl #26
    6464:	2bac0000 	blcs	feb0646c <__bss_end+0xfeb0218c>
    6468:	2bc00000 	blcs	ff006470 <__bss_end+0xff002190>
    646c:	57010000 	strpl	r0, [r1, -r0]
    6470:	00075701 	andeq	r5, r7, r1, lsl #14
    6474:	2bac1f00 	blcs	feb0e07c <__bss_end+0xfeb09d9c>
    6478:	2bc00000 	blcs	ff006480 <__bss_end+0xff0021a0>
    647c:	ee170000 	cdp	0, 1, cr0, cr7, cr0, {0}
    6480:	7a000001 	bvc	648c <__bss_end+0x21ac>
    6484:	00000011 	andeq	r0, r0, r1, lsl r0
    6488:	02972d00 	addseq	r2, r7, #0
    648c:	2bc00000 	blcs	ff006494 <__bss_end+0xff0021b4>
    6490:	2bcc0000 	blcs	ff306498 <__bss_end+0xff3021b8>
    6494:	5a010000 	bpl	4649c <__bss_end+0x421bc>
    6498:	00078401 	andeq	r8, r7, r1, lsl #8
    649c:	03dc2100 	bicseq	r2, ip, #0
    64a0:	c01f0000 	andsgt	r0, pc, r0
    64a4:	cc00002b 	stcgt	0, cr0, [r0], {43}	; 0x2b
    64a8:	1700002b 	strne	r0, [r0, -fp, lsr #32]
    64ac:	000002b1 	undefined instruction 0x000002b1
    64b0:	0000118d 	andeq	r1, r0, sp, lsl #3
    64b4:	be2d0000 	cdplt	0, 2, cr0, cr13, cr0, {0}
    64b8:	cc000002 	stcgt	0, cr0, [r0], {2}
    64bc:	d800002b 	stmdale	r0, {r0, r1, r3, r5}
    64c0:	0100002b 	tsteq	r0, fp, lsr #32
    64c4:	07ac015d 	sbfxeq	r0, sp, #2, #13
    64c8:	cc1f0000 	ldcgt	0, cr0, [pc], {0}
    64cc:	d800002b 	stmdale	r0, {r0, r1, r3, r5}
    64d0:	1700002b 	strne	r0, [r0, -fp, lsr #32]
    64d4:	000002cc 	andeq	r0, r0, ip, asr #5
    64d8:	000011a0 	andeq	r1, r0, r0, lsr #3
    64dc:	972d0000 	strls	r0, [sp, -r0]!
    64e0:	88000002 	stmdahi	r0, {r1}
    64e4:	9400002c 	strls	r0, [r0], #-44	; 0x2c
    64e8:	0100002c 	tsteq	r0, ip, lsr #32
    64ec:	07d90181 	ldrbeq	r0, [r9, r1, lsl #3]
    64f0:	dc210000 	stcle	0, cr0, [r1]
    64f4:	1f000003 	svcne	0x00000003
    64f8:	00002c88 	andeq	r2, r0, r8, lsl #25
    64fc:	00002c94 	muleq	r0, r4, ip
    6500:	0002b117 	andeq	fp, r2, r7, lsl r1
    6504:	0011b300 	andseq	fp, r1, r0, lsl #6
    6508:	2d000000 	stccs	0, cr0, [r0]
    650c:	000001fa 	strdeq	r0, [r0], -sl
    6510:	00002cac 	andeq	r2, r0, ip, lsr #25
    6514:	00002cd8 	ldrdeq	r2, [r0], -r8
    6518:	0b018f01 	bleq	6a124 <__bss_end+0x65e44>
    651c:	21000008 	tstcs	r0, r8
    6520:	000003fe 	strdeq	r0, [r0], -lr
    6524:	002cac1f 	eoreq	sl, ip, pc, lsl ip
    6528:	002cd800 	eoreq	sp, ip, r0, lsl #16
    652c:	02151700 	andseq	r1, r5, #0
    6530:	11c60000 	bicne	r0, r6, r0
    6534:	21190000 	tstcs	r9, r0
    6538:	00000002 	andeq	r0, r0, r2
    653c:	02d82e00 	sbcseq	r2, r8, #0
    6540:	2d700000 	ldclcs	0, cr0, [r0]
    6544:	01c00000 	biceq	r0, r0, r0
    6548:	b7010000 	strlt	r0, [r1, -r0]
    654c:	00082f01 	andeq	r2, r8, r1, lsl #30
    6550:	01d82700 	bicseq	r2, r8, r0, lsl #14
    6554:	e6170000 	ldr	r0, [r7], -r0
    6558:	d9000002 	stmdble	r0, {r1}
    655c:	00000011 	andeq	r0, r0, r1, lsl r0
    6560:	022e2e00 	eoreq	r2, lr, #0
    6564:	2d740000 	ldclcs	0, cr0, [r4]
    6568:	01f00000 	mvnseq	r0, r0
    656c:	b8010000 	stmdalt	r1, {}
    6570:	00085301 	andeq	r5, r8, r1, lsl #6
    6574:	02082700 	andeq	r2, r8, #0
    6578:	41170000 	tstmi	r7, r0
    657c:	ec000002 	stc	0, cr0, [r0], {2}
    6580:	00000011 	andeq	r0, r0, r1, lsl r0
    6584:	02f21e00 	rscseq	r1, r2, #0
    6588:	2da80000 	stccs	0, cr0, [r8]
    658c:	2dcc0000 	stclcs	0, cr0, [ip]
    6590:	bf010000 	svclt	0x00010000
    6594:	2da81f01 	stccs	15, cr1, [r8, #4]!
    6598:	2dcc0000 	stclcs	0, cr0, [ip]
    659c:	01170000 	tsteq	r7, r0
    65a0:	0a000003 	beq	65b4 <__bss_end+0x22d4>
    65a4:	00000012 	andeq	r0, r0, r2, lsl r0
    65a8:	04230000 	strteq	r0, [r3]
    65ac:	000001c6 	andeq	r0, r0, r6, asr #3
    65b0:	1cfd012c 	ldfnee	f0, [sp], #176	; 0xb0
    65b4:	88010000 	stmdahi	r1, {}
    65b8:	00600102 	rsbeq	r0, r0, r2, lsl #2
    65bc:	2de00000 	stclcs	0, cr0, [r0]
    65c0:	2ecc0000 	cdpcs	0, 12, cr0, cr12, cr0, {0}
    65c4:	121d0000 	andsne	r0, sp, #0
    65c8:	09070000 	stmdbeq	r7, {}
    65cc:	692f0000 	stmdbvs	pc!, {}
    65d0:	028a0100 	addeq	r0, sl, #0
    65d4:	00000072 	andeq	r0, r0, r2, ror r0
    65d8:	1c305501 	cfldr32ne	mvfx5, [r0], #-4
    65dc:	0100001b 	tsteq	r0, fp, lsl r0
    65e0:	0060028b 	rsbeq	r0, r0, fp, lsl #5
    65e4:	54010000 	strpl	r0, [r1]
    65e8:	001c2830 	andseq	r2, ip, r0, lsr r8
    65ec:	028c0100 	addeq	r0, ip, #0
    65f0:	000001bb 	undefined instruction 0x000001bb
    65f4:	7f909103 	svcvc	0x00909103
    65f8:	00024e26 	andeq	r4, r2, r6, lsr #28
    65fc:	002e0800 	eoreq	r0, lr, r0, lsl #16
    6600:	00022000 	andeq	r2, r2, r0
    6604:	02910100 	addseq	r0, r1, #0
    6608:	00026a21 	andeq	r6, r2, r1, lsr #20
    660c:	025f3100 	subseq	r3, pc, #0
    6610:	12490000 	subne	r0, r9, #0
    6614:	38270000 	stmdacc	r7!, {}
    6618:	17000002 	strne	r0, [r0, -r2]
    661c:	00000275 	andeq	r0, r0, r5, ror r2
    6620:	00001261 	andeq	r1, r0, r1, ror #4
    6624:	00028017 	andeq	r8, r2, r7, lsl r0
    6628:	00127900 	andseq	r7, r2, r0, lsl #18
    662c:	028b1700 	addeq	r1, fp, #0
    6630:	12a10000 	adcne	r0, r1, #0
    6634:	00000000 	andeq	r0, r0, r0
    6638:	6d743200 	lfmvs	f3, 2, [r4]	; (ldclvs 2, cr3, [r4])
    663c:	69010070 	stmdbvs	r1, {r4, r5, r6}
    6640:	000001bb 	undefined instruction 0x000001bb
    6644:	40000305 	andmi	r0, r0, r5, lsl #6
    6648:	72330000 	eorsvc	r0, r3, #0
    664c:	28000000 	stmdacs	r0, {}
    6650:	34000009 	strcc	r0, [r0], #-9
    6654:	0000002c 	andeq	r0, r0, ip, lsr #32
    6658:	2635001f 	undefined instruction 0x2635001f
    665c:	0100001e 	tsteq	r0, lr, lsl r0
    6660:	09180107 	ldmdbeq	r8, {r0, r1, r2, r8}
    6664:	05010000 	streq	r0, [r1]
    6668:	003f8003 	eorseq	r8, pc, r3
    666c:	05c00000 	strbeq	r0, [r0]
    6670:	00020000 	andeq	r0, r2, r0
    6674:	00000f79 	andeq	r0, r0, r9, ror pc
    6678:	00550104 	subseq	r0, r5, r4, lsl #2
    667c:	75010000 	strvc	r0, [r1]
    6680:	9700001e 	smladls	r0, lr, r0, r0
    6684:	cc000002 	stcgt	0, cr0, [r0], {2}
    6688:	5000002e 	andpl	r0, r0, lr, lsr #32
    668c:	f4000032 	vst4.8	{d0-d3}, [r0, :256], r2
    6690:	0200000d 	andeq	r0, r0, #13
    6694:	01a80601 	undefined instruction 0x01a80601
    6698:	01020000 	tsteq	r2, r0
    669c:	0001a608 	andeq	sl, r1, r8, lsl #12
    66a0:	05020200 	streq	r0, [r2, #-512]	; 0x200
    66a4:	00000061 	andeq	r0, r0, r1, rrx
    66a8:	ed070202 	sfm	f0, 4, [r7, #-8]	; (stc 2, cr0, [r7, #-8])
    66ac:	03000002 	movweq	r0, #2
    66b0:	000001e4 	andeq	r0, r0, r4, ror #3
    66b4:	004c1203 	subeq	r1, ip, r3, lsl #4
    66b8:	04040000 	streq	r0, [r4]
    66bc:	746e6905 	strbtvc	r6, [lr], #-2309	; 0x905
    66c0:	01160300 	tsteq	r6, r0, lsl #6
    66c4:	13030000 	movwne	r0, #12288	; 0x3000
    66c8:	0000005e 	andeq	r0, r0, lr, asr r0
    66cc:	2a070402 	bcs	1c76dc <__bss_end+0x1c33fc>
    66d0:	02000002 	andeq	r0, r0, #2
    66d4:	012a0508 	teqeq	sl, r8, lsl #10
    66d8:	08020000 	stmdaeq	r2, {}
    66dc:	00022007 	andeq	r2, r2, r7
    66e0:	07040500 	streq	r0, [r4, -r0, lsl #10]
    66e4:	1ffc0106 	svcne	0x00fc0106
    66e8:	54010000 	strpl	r0, [r1]
    66ec:	00005301 	andeq	r5, r0, r1, lsl #6
    66f0:	00940100 	addseq	r0, r4, r0, lsl #2
    66f4:	3c070000 	stccc	0, cr0, [r7], {0}
    66f8:	01000021 	tsteq	r0, r1, lsr #32
    66fc:	00005356 	andeq	r5, r0, r6, asr r3
    6700:	09080000 	stmdbeq	r8, {}
    6704:	02000015 	andeq	r0, r0, #21
    6708:	00530148 	subseq	r0, r3, r8, asr #2
    670c:	dd030000 	stcle	0, cr0, [r3]
    6710:	09000000 	stmdbeq	r0, {}
    6714:	000014e5 	andeq	r1, r0, r5, ror #9
    6718:	00534802 	subseq	r4, r3, r2, lsl #16
    671c:	ee090000 	cdp	0, 0, cr0, cr9, cr0, {0}
    6720:	02000013 	andeq	r0, r0, #19
    6724:	00005348 	andeq	r5, r0, r8, asr #6
    6728:	14080700 	strne	r0, [r8], #-1792	; 0x700
    672c:	4a020000 	bmi	86734 <__bss_end+0x82454>
    6730:	00000053 	andeq	r0, r0, r3, asr r0
    6734:	00150107 	andseq	r0, r5, r7, lsl #2
    6738:	534b0200 	movtpl	r0, #45568	; 0xb200
    673c:	07000000 	streq	r0, [r0, -r0]
    6740:	00001441 	andeq	r1, r0, r1, asr #8
    6744:	00414c02 	subeq	r4, r1, r2, lsl #24
    6748:	0a000000 	beq	6750 <__bss_end+0x2470>
    674c:	001f8a01 	andseq	r8, pc, r1, lsl #20
    6750:	01120100 	tsteq	r2, r0, lsl #2
    6754:	00002ecc 	andeq	r2, r0, ip, asr #29
    6758:	00002eec 	andeq	r2, r0, ip, ror #29
    675c:	000012b4 	undefined instruction 0x000012b4
    6760:	00000106 	andeq	r0, r0, r6, lsl #2
    6764:	001ed60b 	andseq	sp, lr, fp, lsl #12
    6768:	06150100 	ldreq	r0, [r5], -r0, lsl #2
    676c:	d3000001 	movwle	r0, #1
    6770:	00000012 	andeq	r0, r0, r2, lsl r0
    6774:	0000530c 	andeq	r5, r0, ip, lsl #6
    6778:	85010a00 	strhi	r0, [r1, #-2560]	; 0xa00
    677c:	0100001f 	tsteq	r0, pc, lsl r0
    6780:	2eec011c 	mcrcs	1, 7, r0, cr12, cr12, {0}
    6784:	2f0c0000 	svccs	0x000c0000
    6788:	12f30000 	rscsne	r0, r3, #0
    678c:	01340000 	teqeq	r4, r0
    6790:	d60b0000 	strle	r0, [fp], -r0
    6794:	0100001e 	tsteq	r0, lr, lsl r0
    6798:	0001061f 	andeq	r0, r1, pc, lsl r6
    679c:	00131200 	andseq	r1, r3, r0, lsl #4
    67a0:	010d0000 	tsteq	sp, r0
    67a4:	00001f4c 	andeq	r1, r0, ip, asr #30
    67a8:	0c012a01 	stceq	10, cr2, [r1], {1}
    67ac:	2400002f 	strcs	r0, [r0], #-47	; 0x2f
    67b0:	0100002f 	tsteq	r0, pc, lsr #32
    67b4:	0001595d 	andeq	r5, r1, sp, asr r9
    67b8:	204a0e00 	subcs	r0, sl, r0, lsl #28
    67bc:	2c010000 	stccs	0, cr0, [r1], {0}
    67c0:	00000053 	andeq	r0, r0, r3, asr r0
    67c4:	0a005201 	beq	1afd0 <__bss_end+0x16cf0>
    67c8:	00205501 	eoreq	r5, r0, r1, lsl #10
    67cc:	01330100 	teqeq	r3, r0, lsl #2
    67d0:	00002f24 	andeq	r2, r0, r4, lsr #30
    67d4:	00002f34 	andeq	r2, r0, r4, lsr pc
    67d8:	00001332 	andeq	r1, r0, r2, lsr r3
    67dc:	00000180 	andeq	r0, r0, r0, lsl #3
    67e0:	6c61760f 	stclvs	6, cr7, [r1], #-60	; 0xffffffc4
    67e4:	06330100 	ldrteq	r0, [r3], -r0, lsl #2
    67e8:	01000001 	tsteq	r0, r1
    67ec:	01100050 	tsteq	r0, r0, asr r0
    67f0:	00001fd1 	ldrdeq	r1, [r0], -r1
    67f4:	53013901 	movwpl	r3, #6401	; 0x1901
    67f8:	34000000 	strcc	r0, [r0]
    67fc:	4400002f 	strmi	r0, [r0], #-47	; 0x2f
    6800:	0100002f 	tsteq	r0, pc, lsr #32
    6804:	0f010a5d 	svceq	0x00010a5d
    6808:	0100001f 	tsteq	r0, pc, lsl r0
    680c:	2f44013e 	svccs	0x0044013e
    6810:	2f540000 	svccs	0x00540000
    6814:	13510000 	cmpne	r1, #0
    6818:	01be0000 	undefined instruction 0x01be0000
    681c:	760f0000 	strvc	r0, [pc], -r0
    6820:	01006c61 	tsteq	r0, r1, ror #24
    6824:	0001063e 	andeq	r0, r1, lr, lsr r6
    6828:	00500100 	subseq	r0, r0, r0, lsl #2
    682c:	1e850111 	mcrne	1, 4, r0, cr5, cr1, {0}
    6830:	44010000 	strmi	r0, [r1]
    6834:	00005301 	andeq	r5, r0, r1, lsl #6
    6838:	002f5400 	eoreq	r5, pc, r0, lsl #8
    683c:	002f7800 	eoreq	r7, pc, r0, lsl #16
    6840:	00137000 	andseq	r7, r3, r0
    6844:	0001fa00 	andeq	pc, r1, r0, lsl #20
    6848:	61761200 	cmnvs	r6, r0, lsl #4
    684c:	4401006c 	strmi	r0, [r1], #-108	; 0x6c
    6850:	00000106 	andeq	r0, r0, r6, lsl #2
    6854:	0000138f 	andeq	r1, r0, pc, lsl #7
    6858:	706d7413 	rsbvc	r7, sp, r3, lsl r4
    685c:	53460100 	movtpl	r0, #24832	; 0x6100
    6860:	ae000000 	cdpge	0, 0, cr0, cr0, cr0, {0}
    6864:	00000013 	andeq	r0, r0, r3, lsl r0
    6868:	1fe00111 	svcne	0x00e00111
    686c:	4c010000 	stcmi	0, cr0, [r1], {0}
    6870:	00005301 	andeq	r5, r0, r1, lsl #6
    6874:	002f7800 	eoreq	r7, pc, r0, lsl #16
    6878:	002f9c00 	eoreq	r9, pc, r0, lsl #24
    687c:	0013c100 	andseq	ip, r3, r0, lsl #2
    6880:	00023600 	andeq	r3, r2, r0, lsl #12
    6884:	61761200 	cmnvs	r6, r0, lsl #4
    6888:	4c01006c 	stcmi	0, cr0, [r1], {108}	; 0x6c
    688c:	00000106 	andeq	r0, r0, r6, lsl #2
    6890:	000013e0 	andeq	r1, r0, r0, ror #7
    6894:	706d7413 	rsbvc	r7, sp, r3, lsl r4
    6898:	534e0100 	movtpl	r0, #57600	; 0xe100
    689c:	ff000000 	undefined instruction 0xff000000
    68a0:	00000013 	andeq	r0, r0, r3, lsl r0
    68a4:	00007614 	andeq	r7, r0, r4, lsl r6
    68a8:	002f9c00 	eoreq	r9, pc, r0, lsl #24
    68ac:	002fa400 	eoreq	sl, pc, r0, lsl #8
    68b0:	535d0100 	cmppl	sp, #0
    68b4:	15000002 	strne	r0, [r0, #-2]
    68b8:	00000088 	andeq	r0, r0, r8, lsl #1
    68bc:	00001412 	andeq	r1, r0, r2, lsl r4
    68c0:	62011600 	andvs	r1, r1, #0
    68c4:	0100001f 	tsteq	r0, pc, lsl r0
    68c8:	2fa4015c 	svccs	0x00a4015c
    68cc:	2fc00000 	svccs	0x00c00000
    68d0:	5d010000 	stcpl	0, cr0, [r1]
    68d4:	2014010d 	andscs	r0, r4, sp, lsl #2
    68d8:	66010000 	strvs	r0, [r1], -r0
    68dc:	002fc001 	eoreq	ip, pc, r1
    68e0:	002fec00 	eoreq	lr, pc, r0, lsl #24
    68e4:	a95d0100 	ldmdbge	sp, {r8}^
    68e8:	17000002 	strne	r0, [r0, -r2]
    68ec:	00001f7c 	andeq	r1, r0, ip, ror pc
    68f0:	00536601 	subseq	r6, r3, r1, lsl #12
    68f4:	14250000 	strtne	r0, [r5]
    68f8:	f2180000 	vhadd.s16	d0, d8, d0
    68fc:	0100001e 	tsteq	r0, lr, lsl r0
    6900:	00005366 	andeq	r5, r0, r6, ror #6
    6904:	0b510100 	bleq	1446d0c <__bss_end+0x1442a2c>
    6908:	0000213c 	andeq	r2, r0, ip, lsr r1
    690c:	00536901 	subseq	r6, r3, r1, lsl #18
    6910:	14380000 	ldrtne	r0, [r8]
    6914:	16000000 	strne	r0, [r0], -r0
    6918:	001ec201 	andseq	ip, lr, r1, lsl #4
    691c:	01840100 	orreq	r0, r4, r0, lsl #2
    6920:	00002fec 	andeq	r2, r0, ip, ror #31
    6924:	0000300c 	andeq	r3, r0, ip
    6928:	010d5d01 	tsteq	sp, r1, lsl #26
    692c:	00001f01 	andeq	r1, r0, r1, lsl #30
    6930:	0c018f01 	stceq	15, cr8, [r1], {1}
    6934:	20000030 	andcs	r0, r0, r0, lsr r0
    6938:	01000030 	tsteq	r0, r0, lsr r0
    693c:	0002df5d 	andeq	sp, r2, sp, asr pc
    6940:	213c0700 	teqcs	ip, r0, lsl #14
    6944:	91010000 	tstls	r1, r0
    6948:	00000053 	andeq	r0, r0, r3, asr r0
    694c:	af010a00 	svcge	0x00010a00
    6950:	0100001e 	tsteq	r0, lr, lsl r0
    6954:	3020019a 	mlacc	r0, sl, r1, r0
    6958:	31440000 	cmpcc	r4, r0
    695c:	144b0000 	strbne	r0, [fp]
    6960:	03e60000 	mvneq	r0, #0
    6964:	c0170000 	andsgt	r0, r7, r0
    6968:	0100001f 	tsteq	r0, pc, lsl r0
    696c:	0000539a 	muleq	r0, sl, r3
    6970:	00146a00 	andseq	r6, r4, r0, lsl #20
    6974:	20380700 	eorscs	r0, r8, r0, lsl #14
    6978:	9c010000 	stcls	0, cr0, [r1], {0}
    697c:	00000053 	andeq	r0, r0, r3, asr r0
    6980:	00202607 	eoreq	r2, r0, r7, lsl #12
    6984:	539d0100 	orrspl	r0, sp, #0
    6988:	07000000 	streq	r0, [r0, -r0]
    698c:	0000202f 	andeq	r2, r0, pc, lsr #32
    6990:	00539e01 	subseq	r9, r3, r1, lsl #28
    6994:	41070000 	tstmi	r7, r0
    6998:	01000020 	tsteq	r0, r0, lsr #32
    699c:	0000539f 	muleq	r0, pc, r3
    69a0:	01c70b00 	biceq	r0, r7, r0, lsl #22
    69a4:	a0010000 	andge	r0, r1, r0
    69a8:	00000053 	andeq	r0, r0, r3, asr r0
    69ac:	00001488 	andeq	r1, r0, r8, lsl #9
    69b0:	001f5a0b 	andseq	r5, pc, fp, lsl #20
    69b4:	53a10100 	undefined instruction 0x53a10100
    69b8:	9b000000 	blls	69c0 <__bss_end+0x26e0>
    69bc:	0b000014 	bleq	6a14 <__bss_end+0x2734>
    69c0:	00001498 	muleq	r0, r8, r4
    69c4:	0106a201 	tsteq	r6, r1, lsl #4
    69c8:	14b90000 	ldrtne	r0, [r9]
    69cc:	76190000 	ldrvc	r0, [r9], -r0
    69d0:	3c000000 	stccc	0, cr0, [r0], {0}
    69d4:	40000030 	andmi	r0, r0, r0, lsr r0
    69d8:	01000030 	tsteq	r0, r0, lsr r0
    69dc:	000383ac 	andeq	r8, r3, ip, lsr #7
    69e0:	303c1a00 	eorscc	r1, ip, r0, lsl #20
    69e4:	30400000 	subcc	r0, r0, r0
    69e8:	881b0000 	ldmdahi	fp, {}
    69ec:	00000000 	andeq	r0, r0, r0
    69f0:	00761900 	rsbseq	r1, r6, r0, lsl #18
    69f4:	30400000 	subcc	r0, r0, r0
    69f8:	30440000 	subcc	r0, r4, r0
    69fc:	ad010000 	stcge	0, cr0, [r1]
    6a00:	000003aa 	andeq	r0, r0, sl, lsr #7
    6a04:	0030401a 	eorseq	r4, r0, sl, lsl r0
    6a08:	00304400 	eorseq	r4, r0, r0, lsl #8
    6a0c:	00881500 	addeq	r1, r8, r0, lsl #10
    6a10:	15130000 	ldrne	r0, [r3]
    6a14:	00000000 	andeq	r0, r0, r0
    6a18:	0000941c 	andeq	r9, r0, ip, lsl r4
    6a1c:	0030d000 	eorseq	sp, r0, r0
    6a20:	00025000 	andeq	r5, r2, r0
    6a24:	1dc50100 	stfnee	f0, [r5]
    6a28:	000000b0 	strheq	r0, [r0], -r0
    6a2c:	0000a51e 	andeq	sl, r0, lr, lsl r5
    6a30:	1f500100 	svcne	0x00500100
    6a34:	00000268 	andeq	r0, r0, r8, ror #4
    6a38:	0000bb20 	andeq	fp, r0, r0, lsr #22
    6a3c:	15520100 	ldrbne	r0, [r2, #-256]	; 0x100
    6a40:	000000c6 	andeq	r0, r0, r6, asr #1
    6a44:	00001531 	andeq	r1, r0, r1, lsr r5
    6a48:	0000d115 	andeq	sp, r0, r5, lsl r1
    6a4c:	00155a00 	andseq	r5, r5, r0, lsl #20
    6a50:	00000000 	andeq	r0, r0, r0
    6a54:	1ee0010a 	cdpne	1, 14, cr0, cr0, cr10, {0}
    6a58:	cf010000 	svcgt	0x00010000
    6a5c:	00314401 	eorseq	r4, r1, r1, lsl #8
    6a60:	0031c800 	eorseq	ip, r1, r0, lsl #16
    6a64:	00156d00 	andseq	r6, r5, r0, lsl #26
    6a68:	0004ba00 	andeq	fp, r4, r0, lsl #20
    6a6c:	73750f00 	cmnvc	r5, #0
    6a70:	53cf0100 	bicpl	r0, pc, #0
    6a74:	01000000 	tsteq	r0, r0
    6a78:	1f750750 	svcne	0x00750750
    6a7c:	d1010000 	tstle	r1, r0
    6a80:	00000053 	andeq	r0, r0, r3, asr r0
    6a84:	72756313 	rsbsvc	r6, r5, #1275068416	; 0x4c000000
    6a88:	53d20100 	bicspl	r0, r2, #0
    6a8c:	8c000000 	stchi	0, cr0, [r0], {0}
    6a90:	0e000015 	mcreq	0, 0, r0, cr0, cr5, {0}
    6a94:	00001e9b 	muleq	r0, fp, lr
    6a98:	0053d301 	subseq	sp, r3, r1, lsl #6
    6a9c:	51010000 	tstpl	r1, r0
    6aa0:	00009419 	andeq	r9, r0, r9, lsl r4
    6aa4:	00316000 	eorseq	r6, r1, r0
    6aa8:	00319400 	eorseq	r9, r1, r0, lsl #8
    6aac:	77d80100 	ldrbvc	r0, [r8, r0, lsl #2]
    6ab0:	1d000004 	stcne	0, cr0, [r0, #-16]
    6ab4:	000000b0 	strheq	r0, [r0], -r0
    6ab8:	0000a51e 	andeq	sl, r0, lr, lsl r5
    6abc:	1a5c0100 	bne	1706ec4 <__bss_end+0x1702be4>
    6ac0:	00003160 	andeq	r3, r0, r0, ror #2
    6ac4:	00003194 	muleq	r0, r4, r1
    6ac8:	0000bb15 	andeq	fp, r0, r5, lsl fp
    6acc:	0015aa00 	andseq	sl, r5, r0, lsl #20
    6ad0:	00c61500 	sbceq	r1, r6, r0, lsl #10
    6ad4:	15bd0000 	ldrne	r0, [sp]!
    6ad8:	d1150000 	tstle	r5, r0
    6adc:	f1000000 	cps	#0
    6ae0:	00000015 	andeq	r0, r0, r5, lsl r0
    6ae4:	00761900 	rsbseq	r1, r6, r0, lsl #18
    6ae8:	31940000 	orrscc	r0, r4, r0
    6aec:	31980000 	orrscc	r0, r8, r0
    6af0:	de010000 	cdple	0, 0, cr0, cr1, cr0, {0}
    6af4:	0000049a 	muleq	r0, sl, r4
    6af8:	0031941a 	eorseq	r9, r1, sl, lsl r4
    6afc:	00319800 	eorseq	r9, r1, r0, lsl #16
    6b00:	00881b00 	addeq	r1, r8, r0, lsl #22
    6b04:	00000000 	andeq	r0, r0, r0
    6b08:	00007621 	andeq	r7, r0, r1, lsr #12
    6b0c:	0031b000 	eorseq	fp, r1, r0
    6b10:	0031b400 	eorseq	fp, r1, r0, lsl #8
    6b14:	1ae30100 	bne	ff8c6f1c <__bss_end+0xff8c2c3c>
    6b18:	000031b0 	undefined instruction 0x000031b0
    6b1c:	000031b4 	undefined instruction 0x000031b4
    6b20:	0000881b 	andeq	r8, r0, fp, lsl r8
    6b24:	00000000 	andeq	r0, r0, r0
    6b28:	1e6c0122 	powneep	f0, f4, f2
    6b2c:	06010000 	streq	r0, [r1], -r0
    6b30:	31c80101 	biccc	r0, r8, r1, lsl #2
    6b34:	31d40000 	bicscc	r0, r4, r0
    6b38:	5d010000 	stcpl	0, cr0, [r1]
    6b3c:	000004e2 	andeq	r0, r0, r2, ror #9
    6b40:	00736d23 	rsbseq	r6, r3, r3, lsr #26
    6b44:	53010601 	movwpl	r0, #5633	; 0x1601
    6b48:	04000000 	streq	r0, [r0]
    6b4c:	00000016 	andeq	r0, r0, r6, lsl r0
    6b50:	1fc90124 	svcne	0x00c90124
    6b54:	10010000 	andne	r0, r1, r0
    6b58:	31d40101 	bicscc	r0, r4, r1, lsl #2
    6b5c:	31ec0000 	mvncc	r0, r0
    6b60:	5d010000 	stcpl	0, cr0, [r1]
    6b64:	1ea20122 	fdvnesp	f0, f2, f2
    6b68:	18010000 	stmdane	r1, {}
    6b6c:	31ec0101 	mvncc	r0, r1, lsl #2
    6b70:	32040000 	andcc	r0, r4, #0
    6b74:	5d010000 	stcpl	0, cr0, [r1]
    6b78:	0000051d 	andeq	r0, r0, sp, lsl r5
    6b7c:	0014d025 	andseq	sp, r4, r5, lsr #32
    6b80:	011a0100 	tsteq	sl, r0, lsl #2
    6b84:	00000053 	andeq	r0, r0, r3, asr r0
    6b88:	22005201 	andcs	r5, r0, #268435456	; 0x10000000
    6b8c:	001fb401 	andseq	fp, pc, r1, lsl #8
    6b90:	01240100 	teqeq	r4, r0, lsl #2
    6b94:	00320401 	eorseq	r0, r2, r1, lsl #8
    6b98:	00321c00 	eorseq	r1, r2, r0, lsl #24
    6b9c:	445d0100 	ldrbmi	r0, [sp], #-256	; 0x100
    6ba0:	25000005 	strcs	r0, [r0, #-5]
    6ba4:	000014d0 	ldrdeq	r1, [r0], -r0
    6ba8:	53012601 	movwpl	r2, #5633	; 0x1601
    6bac:	01000000 	tsteq	r0, r0
    6bb0:	01260052 	qsubeq	r0, r2, r6
    6bb4:	00001f25 	andeq	r1, r0, r5, lsr #30
    6bb8:	01013301 	tsteq	r1, r1, lsl #6
    6bbc:	0000321c 	andeq	r3, r0, ip, lsl r2
    6bc0:	00003250 	andeq	r3, r0, r0, asr r2
    6bc4:	00001617 	andeq	r1, r0, r7, lsl r6
    6bc8:	0000057f 	andeq	r0, r0, pc, ror r5
    6bcc:	6d756e23 	ldclvs	14, cr6, [r5, #-140]!	; 0xffffff74
    6bd0:	01330100 	teqeq	r3, r0, lsl #2
    6bd4:	0000004c 	andeq	r0, r0, ip, asr #32
    6bd8:	00001636 	andeq	r1, r0, r6, lsr r6
    6bdc:	0014d027 	andseq	sp, r4, r7, lsr #32
    6be0:	01350100 	teqeq	r5, r0, lsl #2
    6be4:	00000053 	andeq	r0, r0, r3, asr r0
    6be8:	00001649 	andeq	r1, r0, r9, asr #12
    6bec:	200b0e00 	andcs	r0, fp, r0, lsl #28
    6bf0:	04010000 	streq	r0, [r1]
    6bf4:	00000053 	andeq	r0, r0, r3, asr r0
    6bf8:	42d80305 	sbcsmi	r0, r8, #335544320	; 0x14000000
    6bfc:	e90e0000 	stmdb	lr, {}
    6c00:	0100001e 	tsteq	r0, lr, lsl r0
    6c04:	00005305 	andeq	r5, r0, r5, lsl #6
    6c08:	d4030500 	strle	r0, [r3], #-1280	; 0x500
    6c0c:	0e000042 	cdpeq	0, 0, cr0, cr0, cr2, {2}
    6c10:	00001f97 	muleq	r0, r7, pc
    6c14:	00530601 	subseq	r0, r3, r1, lsl #12
    6c18:	03050000 	movweq	r0, #20480	; 0x5000
    6c1c:	000042cc 	andeq	r4, r0, ip, asr #5
    6c20:	001f2d0e 	andseq	r2, pc, lr, lsl #26
    6c24:	53070100 	movwpl	r0, #28928	; 0x7100
    6c28:	05000000 	streq	r0, [r0]
    6c2c:	0042d003 	subeq	sp, r2, r3
    6c30:	01630000 	cmneq	r3, r0
    6c34:	00020000 	andeq	r0, r2, r0
    6c38:	000011c5 	andeq	r1, r0, r5, asr #3
    6c3c:	00550104 	subseq	r0, r5, r4, lsl #2
    6c40:	90010000 	andls	r0, r1, r0
    6c44:	97000020 	strls	r0, [r0, -r0, lsr #32]
    6c48:	60000002 	andvs	r0, r0, r2
    6c4c:	10000032 	andne	r0, r0, r2, lsr r0
    6c50:	11000033 	tstne	r0, r3, lsr r0
    6c54:	0200000f 	andeq	r0, r0, #15
    6c58:	022a0704 	eoreq	r0, sl, #1048576	; 0x100000
    6c5c:	01020000 	tsteq	r2, r0
    6c60:	0001a608 	andeq	sl, r1, r8, lsl #12
    6c64:	05040300 	streq	r0, [r4, #-768]	; 0x300
    6c68:	00746e69 	rsbseq	r6, r4, r9, ror #28
    6c6c:	02070404 	andeq	r0, r7, #67108864	; 0x4000000
    6c70:	01a80601 	undefined instruction 0x01a80601
    6c74:	02020000 	andeq	r0, r2, #0
    6c78:	00006105 	andeq	r6, r0, r5, lsl #2
    6c7c:	07020200 	streq	r0, [r2, -r0, lsl #4]
    6c80:	000002ed 	andeq	r0, r0, sp, ror #5
    6c84:	00011605 	andeq	r1, r1, r5, lsl #12
    6c88:	25130300 	ldrcs	r0, [r3, #-768]	; 0x300
    6c8c:	02000000 	andeq	r0, r0, #0
    6c90:	012a0508 	teqeq	sl, r8, lsl #10
    6c94:	08020000 	stmdaeq	r2, {}
    6c98:	00022007 	andeq	r2, r2, r7
    6c9c:	00830600 	addeq	r0, r3, r0, lsl #12
    6ca0:	02240000 	eoreq	r0, r4, #0
    6ca4:	0000f520 	andeq	pc, r0, r0, lsr #10
    6ca8:	00b30700 	adcseq	r0, r3, r0, lsl #14
    6cac:	22020000 	andcs	r0, r2, #0
    6cb0:	00000052 	andeq	r0, r0, r2, asr r0
    6cb4:	08002302 	stmdaeq	r0, {r1, r8, r9, sp}
    6cb8:	02007263 	andeq	r7, r0, #805306374	; 0x30000006
    6cbc:	00005224 	andeq	r5, r0, r4, lsr #4
    6cc0:	04230200 	strteq	r0, [r3], #-512	; 0x200
    6cc4:	0003b907 	andeq	fp, r3, r7, lsl #18
    6cc8:	52250200 	eorpl	r0, r5, #0
    6ccc:	02000000 	andeq	r0, r0, #0
    6cd0:	59070823 	stmdbpl	r7, {r0, r1, r5, fp}
    6cd4:	02000001 	andeq	r0, r0, #1
    6cd8:	00005227 	andeq	r5, r0, r7, lsr #4
    6cdc:	0c230200 	sfmeq	f0, 4, [r3]	; (stceq 2, cr0, [r3])
    6ce0:	00034507 	andeq	r4, r3, r7, lsl #10
    6ce4:	52280200 	eorpl	r0, r8, #0
    6ce8:	02000000 	andeq	r0, r0, #0
    6cec:	86071023 	strhi	r1, [r7], -r3, lsr #32
    6cf0:	02000003 	andeq	r0, r0, #3
    6cf4:	00005229 	andeq	r5, r0, r9, lsr #4
    6cf8:	14230200 	strtne	r0, [r3], #-512	; 0x200
    6cfc:	0000c507 	andeq	ip, r0, r7, lsl #10
    6d00:	522c0200 	eorpl	r0, ip, #0
    6d04:	02000000 	andeq	r0, r0, #0
    6d08:	b4071823 	strlt	r1, [r7], #-2083	; 0x823
    6d0c:	02000001 	andeq	r0, r0, #1
    6d10:	0000522f 	andeq	r5, r0, pc, lsr #4
    6d14:	1c230200 	sfmne	f0, 4, [r3]	; (stcne 2, cr0, [r3])
    6d18:	00038107 	andeq	r8, r3, r7, lsl #2
    6d1c:	52300200 	eorspl	r0, r0, #0
    6d20:	02000000 	andeq	r0, r0, #0
    6d24:	09002023 	stmdbeq	r0, {r0, r1, r5, sp}
    6d28:	00208101 	eoreq	r8, r0, r1, lsl #2
    6d2c:	01070100 	tsteq	r7, r0, lsl #2
    6d30:	00003260 	andeq	r3, r0, r0, ror #4
    6d34:	0000329c 	muleq	r0, ip, r2
    6d38:	011a5d01 	tsteq	sl, r1, lsl #26
    6d3c:	7d0a0000 	stcvc	0, cr0, [sl]
    6d40:	01000000 	tsteq	r0, r0
    6d44:	00011a07 	andeq	r1, r1, r7, lsl #20
    6d48:	00500100 	subseq	r0, r0, r0, lsl #2
    6d4c:	006b040b 	rsbeq	r0, fp, fp, lsl #8
    6d50:	01090000 	tsteq	r9, r0
    6d54:	0000206f 	andeq	r2, r0, pc, rrx
    6d58:	9c011d01 	stcls	13, cr1, [r1], {1}
    6d5c:	00000032 	andeq	r0, r0, r2, lsr r0
    6d60:	01000033 	tsteq	r0, r3, lsr r0
    6d64:	0001455d 	andeq	r4, r1, sp, asr r5
    6d68:	007d0a00 	rsbseq	r0, sp, r0, lsl #20
    6d6c:	1d010000 	stcne	0, cr0, [r1]
    6d70:	0000011a 	andeq	r0, r0, sl, lsl r1
    6d74:	0c005001 	stceq	0, cr5, [r0], {1}
    6d78:	00206501 	eoreq	r6, r0, r1, lsl #10
    6d7c:	01520100 	cmpeq	r2, r0, lsl #2
    6d80:	00003300 	andeq	r3, r0, r0, lsl #6
    6d84:	00003310 	andeq	r3, r0, r0, lsl r3
    6d88:	740d5d01 	strvc	r5, [sp], #-3329	; 0xd01
    6d8c:	01006274 	tsteq	r0, r4, ror r2
    6d90:	00005254 	andeq	r5, r0, r4, asr r2
    6d94:	00530100 	subseq	r0, r3, r0, lsl #2
    6d98:	00007300 	andeq	r7, r0, r0, lsl #6
    6d9c:	85000200 	strhi	r0, [r0, #-512]	; 0x200
    6da0:	04000012 	streq	r0, [r0], #-18
    6da4:	000f8e01 	andeq	r8, pc, r1, lsl #28
    6da8:	00332000 	eorseq	r2, r3, r0
    6dac:	00347000 	eorseq	r7, r4, r0
    6db0:	2e2f2e00 	cdpcs	14, 2, cr2, cr15, cr0, {0}
    6db4:	656d2f2e 	strbvs	r2, [sp, #-3886]!	; 0xf2e
    6db8:	6d6d5f6d 	stclvs	15, cr5, [sp, #-436]!	; 0xfffffe4c
    6dbc:	63705f75 	cmnvs	r0, #468	; 0x1d4
    6dc0:	6d73615f 	ldfvse	f6, [r3, #-380]!	; 0xfffffe84
    6dc4:	2f00532e 	svccs	0x0000532e
    6dc8:	656d6f68 	strbvs	r6, [sp, #-3944]!	; 0xf68
    6dcc:	6b696d2f 	blvs	1a62290 <__bss_end+0x1a5dfb0>
    6dd0:	6f772f65 	svcvs	0x00772f65
    6dd4:	6c2f6b72 	stcvs	11, cr6, [pc], #-456	; 0xfffffe38
    6dd8:	78756e69 	ldmdavc	r5!, {r0, r3, r5, r6, r9, sl, fp, sp, lr}^
    6ddc:	3432365f 	ldrtcc	r3, [r2], #-1631	; 0x65f
    6de0:	6372612f 	cmnvs	r2, #-1073741813	; 0xc000000b
    6de4:	72612f68 	rsbvc	r2, r1, #416	; 0x1a0
    6de8:	616d2f6d 	cmnvs	sp, sp, ror #30
    6dec:	732d6863 	teqvc	sp, #6488064	; 0x630000
    6df0:	69356e75 	ldmdbvs	r5!, {r0, r2, r4, r5, r6, r9, sl, fp, sp, lr}
    6df4:	2f6d702f 	svccs	0x006d702f
    6df8:	6e617473 	mcrvs	4, 3, r7, cr1, cr3, {3}
    6dfc:	00796264 	rsbseq	r6, r9, r4, ror #4
    6e00:	20554e47 	subscs	r4, r5, r7, asr #28
    6e04:	32205341 	eorcc	r5, r0, #67108865	; 0x4000001
    6e08:	2e30322e 	cdpcs	2, 3, cr3, cr0, cr14, {1}
    6e0c:	80010031 	andhi	r0, r1, r1, lsr r0
    6e10:	000004cb 	andeq	r0, r0, fp, asr #9
    6e14:	12990002 	addsne	r0, r9, #2
    6e18:	01040000 	tsteq	r4, r0
    6e1c:	00000055 	andeq	r0, r0, r5, asr r0
    6e20:	0020ec01 	eoreq	lr, r0, r1, lsl #24
    6e24:	00029700 	andeq	r9, r2, r0, lsl #14
    6e28:	00347000 	eorseq	r7, r4, r0
    6e2c:	003e8800 	eorseq	r8, lr, r0, lsl #16
    6e30:	00101800 	andseq	r1, r0, r0, lsl #16
    6e34:	06010200 	streq	r0, [r1], -r0, lsl #4
    6e38:	000001a8 	andeq	r0, r0, r8, lsr #3
    6e3c:	a6080102 	strge	r0, [r8], -r2, lsl #2
    6e40:	02000001 	andeq	r0, r0, #1
    6e44:	00610502 	rsbeq	r0, r1, r2, lsl #10
    6e48:	02020000 	andeq	r0, r2, #0
    6e4c:	0002ed07 	andeq	lr, r2, r7, lsl #26
    6e50:	05040300 	streq	r0, [r4, #-768]	; 0x300
    6e54:	00746e69 	rsbseq	r6, r4, r9, ror #28
    6e58:	00011604 	andeq	r1, r1, r4, lsl #12
    6e5c:	53130300 	tstpl	r3, #0
    6e60:	02000000 	andeq	r0, r0, #0
    6e64:	022a0704 	eoreq	r0, sl, #1048576	; 0x100000
    6e68:	08020000 	stmdaeq	r2, {}
    6e6c:	00012a05 	andeq	r2, r1, r5, lsl #20
    6e70:	07080200 	streq	r0, [r8, -r0, lsl #4]
    6e74:	00000220 	andeq	r0, r0, r0, lsr #4
    6e78:	06070405 	streq	r0, [r7], -r5, lsl #8
    6e7c:	00000198 	muleq	r0, r8, r1
    6e80:	361b02c4 	ldrcc	r0, [fp], -r4, asr #5
    6e84:	07000003 	streq	r0, [r0, -r3]
    6e88:	000000b3 	strheq	r0, [r0], -r3
    6e8c:	00482002 	subeq	r2, r8, r2
    6e90:	23020000 	movwcs	r0, #8192	; 0x2000
    6e94:	72630800 	rsbvc	r0, r3, #0
    6e98:	48230200 	stmdami	r3!, {r9}
    6e9c:	02000000 	andeq	r0, r0, #0
    6ea0:	61080423 	tstvs	r8, r3, lsr #8
    6ea4:	02007263 	andeq	r7, r0, #805306374	; 0x30000006
    6ea8:	00004824 	andeq	r4, r0, r4, lsr #16
    6eac:	08230200 	stmdaeq	r3!, {r9}
    6eb0:	0003b907 	andeq	fp, r3, r7, lsl #18
    6eb4:	48250200 	stmdami	r5!, {r9}
    6eb8:	02000000 	andeq	r0, r0, #0
    6ebc:	26070c23 	strcs	r0, [r7], -r3, lsr #24
    6ec0:	02000000 	andeq	r0, r0, #0
    6ec4:	00004826 	andeq	r4, r0, r6, lsr #16
    6ec8:	10230200 	eorne	r0, r3, r0, lsl #4
    6ecc:	00013807 	andeq	r3, r1, r7, lsl #16
    6ed0:	48270200 	stmdami	r7!, {r9}
    6ed4:	02000000 	andeq	r0, r0, #0
    6ed8:	d7071423 	strle	r1, [r7, -r3, lsr #8]
    6edc:	02000001 	andeq	r0, r0, #1
    6ee0:	00004828 	andeq	r4, r0, r8, lsr #16
    6ee4:	18230200 	stmdane	r3!, {r9}
    6ee8:	00015907 	andeq	r5, r1, r7, lsl #18
    6eec:	48320200 	ldmdami	r2!, {r9}
    6ef0:	02000000 	andeq	r0, r0, #0
    6ef4:	45071c23 	strmi	r1, [r7, #-3107]	; 0xc23
    6ef8:	02000003 	andeq	r0, r0, #3
    6efc:	00004833 	andeq	r4, r0, r3, lsr r8
    6f00:	20230200 	eorcs	r0, r3, r0, lsl #4
    6f04:	00038607 	andeq	r8, r3, r7, lsl #12
    6f08:	48340200 	ldmdami	r4!, {r9}
    6f0c:	02000000 	andeq	r0, r0, #0
    6f10:	c5072423 	strgt	r2, [r7, #-1059]	; 0x423
    6f14:	02000000 	andeq	r0, r0, #0
    6f18:	00004836 	andeq	r4, r0, r6, lsr r8
    6f1c:	28230200 	stmdacs	r3!, {r9}
    6f20:	00004f07 	andeq	r4, r0, r7, lsl #30
    6f24:	48380200 	ldmdami	r8!, {r9}
    6f28:	02000000 	andeq	r0, r0, #0
    6f2c:	62072c23 	andvs	r2, r7, #8960	; 0x2300
    6f30:	02000003 	andeq	r0, r0, #3
    6f34:	00004839 	andeq	r4, r0, r9, lsr r8
    6f38:	30230200 	eorcc	r0, r3, r0, lsl #4
    6f3c:	00019107 	andeq	r9, r1, r7, lsl #2
    6f40:	483a0200 	ldmdami	sl!, {r9}
    6f44:	02000000 	andeq	r0, r0, #0
    6f48:	95073423 	strls	r3, [r7, #-1059]	; 0x423
    6f4c:	02000003 	andeq	r0, r0, #3
    6f50:	0000483b 	andeq	r4, r0, fp, lsr r8
    6f54:	38230200 	stmdacc	r3!, {r9}
    6f58:	00011c07 	andeq	r1, r1, r7, lsl #24
    6f5c:	483d0200 	ldmdami	sp!, {r9}
    6f60:	02000000 	andeq	r0, r0, #0
    6f64:	18073c23 	stmdane	r7, {r0, r1, r5, sl, fp, ip, sp}
    6f68:	02000000 	andeq	r0, r0, #0
    6f6c:	0000483e 	andeq	r4, r0, lr, lsr r8
    6f70:	40230200 	eormi	r0, r3, r0, lsl #4
    6f74:	72617008 	rsbvc	r7, r1, #8
    6f78:	48400200 	stmdami	r0, {r9}^
    6f7c:	02000000 	andeq	r0, r0, #0
    6f80:	28074423 	stmdacs	r7, {r0, r1, r5, sl, lr}
    6f84:	02000003 	andeq	r0, r0, #3
    6f88:	00004842 	andeq	r4, r0, r2, asr #16
    6f8c:	48230200 	stmdami	r3!, {r9}
    6f90:	00033307 	andeq	r3, r3, r7, lsl #6
    6f94:	48430200 	stmdami	r3, {r9}^
    6f98:	02000000 	andeq	r0, r0, #0
    6f9c:	1b074c23 	blne	1da030 <__bss_end+0x1d5d50>
    6fa0:	02000002 	andeq	r0, r0, #2
    6fa4:	00004844 	andeq	r4, r0, r4, asr #16
    6fa8:	50230200 	eorpl	r0, r3, r0, lsl #4
    6fac:	00032307 	andeq	r2, r3, r7, lsl #6
    6fb0:	48450200 	stmdami	r5, {r9}^
    6fb4:	02000000 	andeq	r0, r0, #0
    6fb8:	73085423 	movwvc	r5, #33827	; 0x8423
    6fbc:	02007269 	andeq	r7, r0, #-1879048186	; 0x90000006
    6fc0:	00004847 	andeq	r4, r0, r7, asr #16
    6fc4:	58230200 	stmdapl	r3!, {r9}
    6fc8:	00016007 	andeq	r6, r1, r7
    6fcc:	48490200 	stmdami	r9, {r9}^
    6fd0:	02000000 	andeq	r0, r0, #0
    6fd4:	63085c23 	movwvs	r5, #35875	; 0x8c23
    6fd8:	02007263 	andeq	r7, r0, #805306374	; 0x30000006
    6fdc:	0000484a 	andeq	r4, r0, sl, asr #16
    6fe0:	60230200 	eorvs	r0, r3, r0, lsl #4
    6fe4:	72736508 	rsbsvc	r6, r3, #33554432	; 0x2000000
    6fe8:	484b0200 	stmdami	fp, {r9}^
    6fec:	02000000 	andeq	r0, r0, #0
    6ff0:	8c076423 	cfstrshi	mvf6, [r7], {35}	; 0x23
    6ff4:	02000003 	andeq	r0, r0, #3
    6ff8:	0000484c 	andeq	r4, r0, ip, asr #16
    6ffc:	68230200 	stmdavs	r3!, {r9}
    7000:	72657508 	rsbvc	r7, r5, #33554432	; 0x2000000
    7004:	484d0200 	stmdami	sp, {r9}^
    7008:	02000000 	andeq	r0, r0, #0
    700c:	43076c23 	movwmi	r6, #31779	; 0x7c23
    7010:	02000001 	andeq	r0, r0, #1
    7014:	0000484e 	andeq	r4, r0, lr, asr #16
    7018:	70230200 	eorvc	r0, r3, r0, lsl #4
    701c:	00023707 	andeq	r3, r2, r7, lsl #14
    7020:	484f0200 	stmdami	pc, {r9}^
    7024:	02000000 	andeq	r0, r0, #0
    7028:	df077423 	svcle	0x00077423
    702c:	02000002 	andeq	r0, r0, #2
    7030:	00004851 	andeq	r4, r0, r1, asr r8
    7034:	78230200 	stmdavc	r3!, {r9}
    7038:	0000da07 	andeq	sp, r0, r7, lsl #20
    703c:	48520200 	ldmdami	r2, {r9}^
    7040:	02000000 	andeq	r0, r0, #0
    7044:	e5077c23 	str	r7, [r7, #-3107]	; 0xc23
    7048:	02000002 	andeq	r0, r0, #2
    704c:	00004856 	andeq	r4, r0, r6, asr r8
    7050:	80230300 	eorhi	r0, r3, r0, lsl #6
    7054:	01b90701 	undefined instruction 0x01b90701
    7058:	58020000 	stmdapl	r2, {}
    705c:	00000048 	andeq	r0, r0, r8, asr #32
    7060:	01842303 	orreq	r2, r4, r3, lsl #6
    7064:	0001b407 	andeq	fp, r1, r7, lsl #8
    7068:	485a0200 	ldmdami	sl, {r9}^
    706c:	03000000 	movweq	r0, #0
    7070:	07018823 	streq	r8, [r1, -r3, lsr #16]
    7074:	00000381 	andeq	r0, r0, r1, lsl #7
    7078:	00485b02 	subeq	r5, r8, r2, lsl #22
    707c:	23030000 	movwcs	r0, #12288	; 0x3000
    7080:	7707018c 	strvc	r0, [r7, -ip, lsl #3]
    7084:	02000001 	andeq	r0, r0, #1
    7088:	0000485e 	andeq	r4, r0, lr, asr r8
    708c:	90230300 	eorls	r0, r3, r0, lsl #6
    7090:	03ab0701 	undefined instruction 0x03ab0701
    7094:	5f020000 	svcpl	0x00020000
    7098:	00000048 	andeq	r0, r0, r8, asr #32
    709c:	01942303 	orrseq	r2, r4, r3, lsl #6
    70a0:	0001ea07 	andeq	lr, r1, r7, lsl #20
    70a4:	48600200 	stmdami	r0!, {r9}^
    70a8:	03000000 	movweq	r0, #0
    70ac:	07019823 	streq	r9, [r1, -r3, lsr #16]
    70b0:	000000d2 	ldrdeq	r0, [r0], -r2
    70b4:	00486102 	subeq	r6, r8, r2, lsl #2
    70b8:	23030000 	movwcs	r0, #12288	; 0x3000
    70bc:	5a07019c 	bpl	1c7734 <__bss_end+0x1c3454>
    70c0:	02000003 	andeq	r0, r0, #3
    70c4:	00004862 	andeq	r4, r0, r2, ror #16
    70c8:	a0230300 	eorge	r0, r3, r0, lsl #6
    70cc:	02690701 	rsbeq	r0, r9, #262144	; 0x40000
    70d0:	63020000 	movwvs	r0, #8192	; 0x2000
    70d4:	00000048 	andeq	r0, r0, r8, asr #32
    70d8:	01a42303 	undefined instruction 0x01a42303
    70dc:	00023c07 	andeq	r3, r2, r7, lsl #24
    70e0:	48670200 	stmdami	r7!, {r9}^
    70e4:	03000000 	movweq	r0, #0
    70e8:	0701a823 	streq	sl, [r1, -r3, lsr #16]
    70ec:	0000008d 	andeq	r0, r0, sp, lsl #1
    70f0:	00486802 	subeq	r6, r8, r2, lsl #16
    70f4:	23030000 	movwcs	r0, #12288	; 0x3000
    70f8:	000701ac 	andeq	r0, r7, ip, lsr #3
    70fc:	02000003 	andeq	r0, r0, #3
    7100:	00004870 	andeq	r4, r0, r0, ror r8
    7104:	b0230300 	eorlt	r0, r3, r0, lsl #6
    7108:	69630801 	stmdbvs	r3!, {r0, fp}^
    710c:	71020064 	tstvc	r2, r4, rrx
    7110:	00000048 	andeq	r0, r0, r8, asr #32
    7114:	01b42303 	undefined instruction 0x01b42303
    7118:	00006b07 	andeq	r6, r0, r7, lsl #22
    711c:	48720200 	ldmdami	r2!, {r9}^
    7120:	03000000 	movweq	r0, #0
    7124:	0701b823 	streq	fp, [r1, -r3, lsr #16]
    7128:	00000271 	andeq	r0, r0, r1, ror r2
    712c:	00487302 	subeq	r7, r8, r2, lsl #6
    7130:	23030000 	movwcs	r0, #12288	; 0x3000
    7134:	b20701bc 	andlt	r0, r7, #47	; 0x2f
    7138:	02000003 	andeq	r0, r0, #3
    713c:	00004874 	andeq	r4, r0, r4, ror r8
    7140:	c0230300 	eorgt	r0, r3, r0, lsl #6
    7144:	01090001 	tsteq	r9, r1
    7148:	00002117 	andeq	r2, r0, r7, lsl r1
    714c:	70014f01 	andvc	r4, r1, r1, lsl #30
    7150:	14000034 	strne	r0, [r0], #-52	; 0x34
    7154:	0100003a 	tsteq	r0, sl, lsr r0
    7158:	00035b5d 	andeq	r5, r3, sp, asr fp
    715c:	20e70a00 	rsccs	r0, r7, r0, lsl #20
    7160:	4f010000 	svcmi	0x00010000
    7164:	0000035b 	andeq	r0, r0, fp, asr r3
    7168:	0b005001 	bleq	1b174 <__bss_end+0x16e94>
    716c:	00006b04 	andeq	r6, r0, r4, lsl #22
    7170:	cd010900 	stcgt	9, cr0, [r1]
    7174:	01000020 	tsteq	r0, r0, lsr #32
    7178:	3a1401c5 	bcc	507894 <__bss_end+0x5035b4>
    717c:	3d980000 	ldccc	0, cr0, [r8]
    7180:	5d010000 	stcpl	0, cr0, [r1]
    7184:	00000386 	andeq	r0, r0, r6, lsl #7
    7188:	0020e70a 	eoreq	lr, r0, sl, lsl #14
    718c:	5bc50100 	blpl	ff147594 <__bss_end+0xff1432b4>
    7190:	01000003 	tsteq	r0, r3
    7194:	010c0050 	qaddeq	r0, r0, ip
    7198:	000020fb 	strdeq	r2, [r0], -fp
    719c:	01012b01 	tsteq	r1, r1, lsl #22
    71a0:	00003d98 	muleq	r0, r8, sp
    71a4:	00003d9c 	muleq	r0, ip, sp
    71a8:	03ad5d01 	undefined instruction 0x03ad5d01
    71ac:	e70d0000 	str	r0, [sp, -r0]
    71b0:	01000020 	tsteq	r0, r0, lsr #32
    71b4:	035b012b 	cmpeq	fp, #-1073741814	; 0xc000000a
    71b8:	50010000 	andpl	r0, r1, r0
    71bc:	b4010c00 	strlt	r0, [r1], #-3072	; 0xc00
    71c0:	01000020 	tsteq	r0, r0, lsr #32
    71c4:	9c010130 	stflss	f0, [r1], {48}	; 0x30
    71c8:	b400003d 	strlt	r0, [r0], #-61	; 0x3d
    71cc:	0100003d 	tsteq	r0, sp, lsr r0
    71d0:	0003d45d 	andeq	sp, r3, sp, asr r4
    71d4:	61760e00 	cmnvs	r6, r0, lsl #28
    71d8:	3301006c 	movwcc	r0, #4204	; 0x106c
    71dc:	00004801 	andeq	r4, r0, r1, lsl #16
    71e0:	00520100 	subseq	r0, r2, r0, lsl #2
    71e4:	20a2010c 	adccs	r0, r2, ip, lsl #2
    71e8:	3b010000 	blcc	471f0 <__bss_end+0x42f10>
    71ec:	3db40101 	ldfccs	f0, [r4, #4]!
    71f0:	3e880000 	cdpcc	0, 8, cr0, cr8, cr0, {0}
    71f4:	5d010000 	stcpl	0, cr0, [r1]
    71f8:	000003f9 	strdeq	r0, [r0], -r9
    71fc:	0020e70f 	eoreq	lr, r0, pc, lsl #14
    7200:	013d0100 	teqeq	sp, r0, lsl #2
    7204:	0000035b 	andeq	r0, r0, fp, asr r3
    7208:	212e1000 	teqcs	lr, r0
    720c:	0f010000 	svceq	0x00010000
    7210:	000004c9 	andeq	r0, r0, r9, asr #9
    7214:	000002c4 	andeq	r0, r0, r4, asr #5
    7218:	c5207800 	strgt	r7, [r0, #-2048]!	; 0x800
    721c:	00000200 	andeq	r0, r0, r0, lsl #4
	...
    7290:	00004200 	andeq	r4, r0, r0, lsl #4
	...
    729c:	098aa400 	stmibeq	sl, {sl, sp, pc}
    72a0:	e048e000 	sub	lr, r8, r0
    72a4:	00000044 	andeq	r0, r0, r4, asr #32
	...
    72d8:	006b1100 	rsbeq	r1, fp, r0, lsl #2
    72dc:	Address 0x000072dc is out of bounds.


Disassembly of section .debug_line:

00000000 <.debug_line>:
       0:	000000f2 	strdeq	r0, [r0], -r2
       4:	00910002 	addseq	r0, r1, r2
       8:	01020000 	tsteq	r2, r0
       c:	000d0efb 	strdeq	r0, [sp], -fp
      10:	01010101 	tsteq	r1, r1, lsl #2
      14:	01000000 	tsteq	r0, r0
      18:	2e010000 	cdpcs	0, 0, cr0, cr1, cr0, {0}
      1c:	7075732f 	rsbsvc	r7, r5, pc, lsr #6
      20:	722f7265 	eorvc	r7, pc, #1342177286	; 0x50000006
      24:	6d757365 	ldclvs	3, cr7, [r5, #-404]!	; 0xfffffe6c
      28:	2f2e0065 	svccs	0x002e0065
      2c:	65707573 	ldrbvs	r7, [r0, #-1395]!	; 0x573
      30:	65722f72 	ldrbvs	r2, [r2, #-3954]!	; 0xf72
      34:	656d7573 	strbvs	r7, [sp, #-1395]!	; 0x573
      38:	2e2f2e2f 	cdpcs	14, 2, cr2, cr15, cr15, {1}
      3c:	2e2e2f2e 	cdpcs	15, 2, cr2, cr14, cr14, {1}
      40:	002e2e2f 	eoreq	r2, lr, pc, lsr #28
      44:	75732f2e 	ldrbvc	r2, [r3, #-3886]!	; 0xf2e
      48:	2f726570 	svccs	0x00726570
      4c:	75736572 	ldrbvc	r6, [r3, #-1394]!	; 0x572
      50:	2e2f656d 	cfsh64cs	mvdx6, mvdx15, #61
      54:	002e2e2f 	eoreq	r2, lr, pc, lsr #28
      58:	73657200 	cmnvc	r5, #0
      5c:	31656d75 	smccc	22229	; 0x56d5
      60:	0100632e 	tsteq	r0, lr, lsr #6
      64:	6d700000 	ldclvs	0, cr0, [r0]
      68:	7079745f 	rsbsvc	r7, r9, pc, asr r4
      6c:	682e7365 	stmdavs	lr!, {r0, r2, r5, r6, r8, r9, ip, sp, lr}
      70:	00000200 	andeq	r0, r0, r0, lsl #4
      74:	5f6d656d 	svcpl	0x006d656d
      78:	2e757063 	cdpcs	0, 7, cr7, cr5, cr3, {3}
      7c:	00020068 	andeq	r0, r2, r8, rrx
      80:	2e6d7000 	cdpcs	0, 6, cr7, cr13, cr0, {0}
      84:	00020068 	andeq	r0, r2, r8, rrx
      88:	70757300 	rsbsvc	r7, r5, r0, lsl #6
      8c:	705f7265 	subsvc	r7, pc, r5, ror #4
      90:	7265776f 	rsbvc	r7, r5, #29097984	; 0x1bc0000
      94:	0300682e 	movweq	r6, #2094	; 0x82e
      98:	00000000 	andeq	r0, r0, r0
      9c:	00000205 	andeq	r0, r0, r5, lsl #4
      a0:	3a030000 	bcc	c00a8 <__bss_end+0xbbdc8>
      a4:	2e483001 	cdpcs	0, 4, cr3, cr8, cr1, {0}
      a8:	2d038930 	stccs	9, cr8, [r3, #-192]	; 0xffffff40
      ac:	2e4c034a 	cdpcs	3, 4, cr0, cr12, cr10, {2}
      b0:	4a090335 	bmi	240d8c <__bss_end+0x23caac>
      b4:	4d854c31 	stcmi	12, cr4, [r5, #196]	; 0xc4
      b8:	2f512f4b 	svccs	0x00512f4b
      bc:	4b324d30 	blmi	c93584 <__bss_end+0xc8f2a4>
      c0:	034c2f30 	movteq	r2, #53040	; 0xcf30
      c4:	2f494a2c 	svccs	0x00494a2c
      c8:	2f496b2d 	svccs	0x00496b2d
      cc:	2b314e2d 	blcs	c53988 <__bss_end+0xc4f6a8>
      d0:	302f2d2f 	eorcc	r2, pc, pc, lsr #26
      d4:	4c4bbea1 	mcrrmi	14, 10, fp, fp, cr1
      d8:	4f4b4b4b 	svcmi	0x004b4b4b
      dc:	6b2d2f49 	blvs	b4be08 <__bss_end+0xb47b28>
      e0:	032d2f49 	teqeq	sp, #292	; 0x124
      e4:	684a7fbd 	stmdavs	sl, {r0, r2, r3, r4, r5, r7, r8, r9, sl, fp, ip, sp, lr}^
      e8:	4b352f4c 	blmi	d4be20 <__bss_end+0xd47b40>
      ec:	4d324b34 	vldmdbmi	r2!, {d4-d29}
      f0:	000e022b 	andeq	r0, lr, fp, lsr #4
      f4:	00430101 	subeq	r0, r3, r1, lsl #2
      f8:	00020000 	andeq	r0, r2, r0
      fc:	00000027 	andeq	r0, r0, r7, lsr #32
     100:	0efb0102 	cdpeq	1, 15, cr0, cr11, cr2, {0}
     104:	0101000d 	tsteq	r1, sp
     108:	00000101 	andeq	r0, r0, r1, lsl #2
     10c:	00000100 	andeq	r0, r0, r0, lsl #2
     110:	732f2e01 	teqvc	pc, #16
     114:	72657075 	rsbvc	r7, r5, #117	; 0x75
     118:	6f630000 	svcvs	0x00630000
     11c:	6e6f6d6d 	cdpvs	13, 6, cr6, cr15, cr13, {3}
     120:	0100632e 	tsteq	r0, lr, lsr #6
     124:	00000000 	andeq	r0, r0, r0
     128:	01e00205 	mvneq	r0, r5, lsl #4
     12c:	23030000 	movwcs	r0, #12288	; 0x3000
     130:	09030101 	stmdbeq	r3, {r0, r8}
     134:	87492f2e 	strbhi	r2, [r9, -lr, lsr #30]
     138:	01000202 	tsteq	r0, r2, lsl #4
     13c:	00014c01 	andeq	r4, r1, r1, lsl #24
     140:	26000200 	strcs	r0, [r0], -r0, lsl #4
     144:	02000000 	andeq	r0, r0, #0
     148:	0d0efb01 	vstreq	d15, [lr, #-4]
     14c:	01010100 	tsteq	r1, r0, lsl #2
     150:	00000001 	andeq	r0, r0, r1
     154:	01000001 	tsteq	r0, r1
     158:	75732f2e 	ldrbvc	r2, [r3, #-3886]!	; 0xf2e
     15c:	00726570 	rsbseq	r6, r2, r0, ror r5
     160:	61747300 	cmnvs	r4, r0, lsl #6
     164:	532e6b63 	teqpl	lr, #101376	; 0x18c00
     168:	00000100 	andeq	r0, r0, r0, lsl #2
     16c:	02050000 	andeq	r0, r5, #0
     170:	00000220 	andeq	r0, r0, r0, lsr #4
     174:	2f010903 	svccs	0x00010903
     178:	2f2f332f 	svccs	0x002f332f
     17c:	2f342f33 	svccs	0x00342f33
     180:	2f30302f 	svccs	0x0030302f
     184:	2f302f2f 	svccs	0x00302f2f
     188:	302f2f30 	eorcc	r2, pc, r0, lsr pc
     18c:	2f2f332f 	svccs	0x002f332f
     190:	2f2f2f2f 	svccs	0x002f2f2f
     194:	2f2f2f30 	svccs	0x002f2f30
     198:	2f2f2f2f 	svccs	0x002f2f2f
     19c:	2f2f2f2f 	svccs	0x002f2f2f
     1a0:	302f2f2f 	eorcc	r2, pc, pc, lsr #30
     1a4:	2f2f2f30 	svccs	0x002f2f30
     1a8:	302f2f2f 	eorcc	r2, pc, pc, lsr #30
     1ac:	30302f2f 	eorscc	r2, r0, pc, lsr #30
     1b0:	2f2f2f2f 	svccs	0x002f2f2f
     1b4:	2f2f2f34 	svccs	0x002f2f34
     1b8:	2f332f2f 	svccs	0x00332f2f
     1bc:	2f2f2f2f 	svccs	0x002f2f2f
     1c0:	2f2f2f33 	svccs	0x002f2f33
     1c4:	2f2f2f2f 	svccs	0x002f2f2f
     1c8:	2f2f2f33 	svccs	0x002f2f33
     1cc:	332f2f2f 	teqcc	pc, #188	; 0xbc
     1d0:	2f2f2f2f 	svccs	0x002f2f2f
     1d4:	2f332f2f 	svccs	0x00332f2f
     1d8:	2f2f2f2f 	svccs	0x002f2f2f
     1dc:	2f2f332f 	svccs	0x002f332f
     1e0:	2f2f2f2f 	svccs	0x002f2f2f
     1e4:	2f2f2f33 	svccs	0x002f2f33
     1e8:	332f2f2f 	teqcc	pc, #188	; 0xbc
     1ec:	2f2f2f2f 	svccs	0x002f2f2f
     1f0:	332f2f2f 	teqcc	pc, #188	; 0xbc
     1f4:	2f2f2f2f 	svccs	0x002f2f2f
     1f8:	2f332f2f 	svccs	0x00332f2f
     1fc:	2f312f30 	svccs	0x00312f30
     200:	2f2f2f2f 	svccs	0x002f2f2f
     204:	2f2f2f2f 	svccs	0x002f2f2f
     208:	2f2f2f2f 	svccs	0x002f2f2f
     20c:	2f312f2f 	svccs	0x00312f2f
     210:	2f2f2f2f 	svccs	0x002f2f2f
     214:	2f2f2f2f 	svccs	0x002f2f2f
     218:	2f2f2f2f 	svccs	0x002f2f2f
     21c:	2f2f2f2f 	svccs	0x002f2f2f
     220:	312f3030 	teqcc	pc, r0, lsr r0
     224:	2f2f2f2f 	svccs	0x002f2f2f
     228:	2f2f2f2f 	svccs	0x002f2f2f
     22c:	2f2f2f2f 	svccs	0x002f2f2f
     230:	2f2f2f2f 	svccs	0x002f2f2f
     234:	332f302f 	teqcc	pc, #47	; 0x2f
     238:	312f302f 	teqcc	pc, pc, lsr #32
     23c:	2f2f2f2f 	svccs	0x002f2f2f
     240:	2f2f2f2f 	svccs	0x002f2f2f
     244:	2f2f2f2f 	svccs	0x002f2f2f
     248:	312f2f2f 	teqcc	pc, pc, lsr #30
     24c:	2f2f2f2f 	svccs	0x002f2f2f
     250:	2f2f2f2f 	svccs	0x002f2f2f
     254:	2f2f2f2f 	svccs	0x002f2f2f
     258:	2f2f2f2f 	svccs	0x002f2f2f
     25c:	2f30302f 	svccs	0x0030302f
     260:	2f2f2f31 	svccs	0x002f2f31
     264:	2f2f2f2f 	svccs	0x002f2f2f
     268:	2f2f2f2f 	svccs	0x002f2f2f
     26c:	2f2f2f2f 	svccs	0x002f2f2f
     270:	2f302f2f 	svccs	0x00302f2f
     274:	2f2f2f34 	svccs	0x002f2f34
     278:	2f30c02f 	svccs	0x0030c02f
     27c:	2f34302f 	svccs	0x0034302f
     280:	dc2f2f2f 	stcle	15, cr2, [pc], #-188	; 0xffffff44
     284:	302f2f30 	eorcc	r2, pc, r0, lsr pc
     288:	01003a02 	tsteq	r0, r2, lsl #20
     28c:	0001bb01 	andeq	fp, r1, r1, lsl #22
     290:	9f000200 	svcls	0x00000200
     294:	02000000 	andeq	r0, r0, #0
     298:	0d0efb01 	vstreq	d15, [lr, #-4]
     29c:	01010100 	tsteq	r1, r0, lsl #2
     2a0:	00000001 	andeq	r0, r0, r1
     2a4:	01000001 	tsteq	r0, r1
     2a8:	75732f2e 	ldrbvc	r2, [r3, #-3886]!	; 0xf2e
     2ac:	00726570 	rsbseq	r6, r2, r0, ror r5
     2b0:	75732f2e 	ldrbvc	r2, [r3, #-3886]!	; 0xf2e
     2b4:	2f726570 	svccs	0x00726570
     2b8:	2e2f2e2e 	cdpcs	14, 2, cr2, cr15, cr14, {1}
     2bc:	682f002e 	stmdavs	pc!, {r1, r2, r3, r5}
     2c0:	2f656d6f 	svccs	0x00656d6f
     2c4:	656b696d 	strbvs	r6, [fp, #-2413]!	; 0x96d
     2c8:	726f772f 	rsbvc	r7, pc, #12320768	; 0xbc0000
     2cc:	696c2f6b 	stmdbvs	ip!, {r0, r1, r3, r5, r6, r8, r9, sl, fp, sp}^
     2d0:	5f78756e 	svcpl	0x0078756e
     2d4:	2f343236 	svccs	0x00343236
     2d8:	68637261 	stmdavs	r3!, {r0, r5, r6, r9, ip, sp, lr}^
     2dc:	6d72612f 	ldfvse	f6, [r2, #-188]!	; 0xffffff44
     2e0:	63616d2f 	cmnvs	r1, #3008	; 0xbc0
     2e4:	75732d68 	ldrbvc	r2, [r3, #-3432]!	; 0xd68
     2e8:	2f69356e 	svccs	0x0069356e
     2ec:	6c636e69 	stclvs	14, cr6, [r3], #-420	; 0xfffffe5c
     2f0:	2f656475 	svccs	0x00656475
     2f4:	6863616d 	stmdavs	r3!, {r0, r2, r3, r5, r6, r8, sp, lr}^
     2f8:	75730000 	ldrbvc	r0, [r3]!
     2fc:	5f726570 	svcpl	0x00726570
     300:	2e697774 	mcrcs	7, 3, r7, cr9, cr4, {3}
     304:	00010063 	andeq	r0, r1, r3, rrx
     308:	5f6d7000 	svcpl	0x006d7000
     30c:	65707974 	ldrbvs	r7, [r0, #-2420]!	; 0x974
     310:	00682e73 	rsbeq	r2, r8, r3, ror lr
     314:	63000002 	movwvs	r0, #2
     318:	5f756d63 	svcpl	0x00756d63
     31c:	73676572 	cmnvc	r7, #478150656	; 0x1c800000
     320:	0300682e 	movweq	r6, #2094	; 0x82e
     324:	75730000 	ldrbvc	r0, [r3]!
     328:	5f726570 	svcpl	0x00726570
     32c:	2e697774 	mcrcs	7, 3, r7, cr9, cr4, {3}
     330:	00010068 	andeq	r0, r1, r8, rrx
     334:	05000000 	streq	r0, [r0]
     338:	00072002 	andeq	r2, r7, r2
     33c:	00e90300 	rsceq	r0, r9, r0, lsl #6
     340:	2f671301 	svccs	0x00671301
     344:	4c2f2f2c 	stcmi	15, cr2, [pc], #-176	; 0xffffff50
     348:	0369674c 	cmneq	r9, #19922944	; 0x1300000
     34c:	3016662e 	andscc	r6, r6, lr, lsr #12
     350:	bb31a02c 	bllt	c68408 <__bss_end+0xc64128>
     354:	bb6cbb6c 	bllt	1b2f10c <__bss_end+0x1b2ae2c>
     358:	4a0e0388 	bmi	381180 <__bss_end+0x37cea0>
     35c:	03472d18 	movteq	r2, #32024	; 0x7d18
     360:	78032e0b 	stmdavc	r3, {r0, r1, r3, r9, sl, fp, sp}
     364:	36622f2e 	strbtcc	r2, [r2], -lr, lsr #30
     368:	362e7803 	strtcc	r7, [lr], -r3, lsl #16
     36c:	13036a4d 	movwne	r6, #14925	; 0x3a4d
     370:	332917ba 	teqcc	r9, #48758784	; 0x2e80000
     374:	0b032f68 	bleq	cc11c <__bss_end+0xc7e3c>
     378:	4fbb8466 	svcmi	0x00bb8466
     37c:	2d2f6c2f 	stccs	12, cr6, [pc, #-188]!	; 0xffffff44
     380:	4ebb682f 	cdpmi	8, 11, cr6, cr11, cr15, {1}
     384:	842f6c2f 	strthi	r6, [pc], #3119	; 38c <disable_icache+0x8>
     388:	6b2f4ebb 	blvs	bd3e7c <__bss_end+0xbcfb9c>
     38c:	2f2d2f4d 	svccs	0x002d2f4d
     390:	2f4ebb68 	svccs	0x004ebb68
     394:	4ebba06e 	cdpmi	0, 11, cr10, cr11, cr14, {3}
     398:	2d2f6c2f 	stccs	12, cr6, [pc, #-188]!	; 0xffffff44
     39c:	4ebb682f 	cdpmi	8, 11, cr6, cr11, cr15, {1}
     3a0:	bb846c2f 	bllt	fe11b464 <__bss_end+0xfe117184>
     3a4:	032f4b4e 	teqeq	pc, #79872	; 0x13800
     3a8:	2c667dc8 	stclcs	13, cr7, [r6], #-800	; 0xfffffce0
     3ac:	322a684c 	eorcc	r6, sl, #4980736	; 0x4c0000
     3b0:	03674c4c 	cmneq	r7, #19456	; 0x4c00
     3b4:	4c2c9e79 	stcmi	14, cr9, [ip], #-484	; 0xfffffe1c
     3b8:	4c322a68 	ldcmi	10, cr2, [r2], #-416	; 0xfffffe60
     3bc:	c403674c 	strgt	r6, [r3], #-1868	; 0x74c
     3c0:	03318202 	teqeq	r1, #536870912	; 0x20000000
     3c4:	1b034a78 	blne	d2dac <__bss_end+0xceacc>
     3c8:	342917d6 	strtcc	r1, [r9], #-2006	; 0x7d6
     3cc:	46322b4c 	ldrtmi	r2, [r2], -ip, asr #22
     3d0:	2e0b0332 	mcrcs	3, 0, r0, cr11, cr2, {1}
     3d4:	d7682c30 	undefined instruction 0xd7682c30
     3d8:	316c2f4f 	cmncc	ip, pc, asr #30
     3dc:	d7842f2b 	strle	r2, [r4, fp, lsr #30]
     3e0:	316c2f4e 	cmncc	ip, lr, asr #30
     3e4:	4ed7842c 	cdpmi	4, 13, cr8, cr7, cr12, {1}
     3e8:	314d6b2f 	cmpcc	sp, pc, lsr #22
     3ec:	682f2d2c 	stmdavs	pc!, {r2, r3, r5, r8, sl, fp, sp}
     3f0:	6e4b4ebb 	mcrvs	14, 2, r4, cr11, cr11, {5}
     3f4:	d7842c30 	undefined instruction 0xd7842c30
     3f8:	316c2f4e 	cmncc	ip, lr, asr #30
     3fc:	d7842f2b 	strle	r2, [r4, fp, lsr #30]
     400:	306c2f4e 	rsbcc	r2, ip, lr, asr #30
     404:	4ed7682c 	cdpmi	8, 13, cr6, cr7, cr12, {1}
     408:	c1032f4b 	tstgt	r3, fp, asr #30
     40c:	0332667c 	teqeq	r2, #130023424	; 0x7c00000
     410:	35302e7a 	ldrcc	r2, [r0, #-3706]!	; 0xe7a
     414:	302e7703 	eorcc	r7, lr, r3, lsl #14
     418:	4c322a4c 	ldcmi	10, cr2, [r2], #-304	; 0xfffffed0
     41c:	7903674c 	stmdbvc	r3, {r2, r3, r6, r8, r9, sl, sp, lr}
     420:	7a03329e 	bvc	ccea0 <__bss_end+0xc8bc0>
     424:	0335302e 	teqeq	r5, #46	; 0x2e
     428:	4c302e77 	ldcmi	14, cr2, [r0], #-476	; 0xfffffe24
     42c:	4c4c322a 	sfmmi	f3, 2, [ip], {42}	; (stclmi 2, cr3, [ip], {42})	; 0x2a
     430:	03cc0367 	biceq	r0, ip, #-1677721599	; 0x9c000001
     434:	2e7a0382 	cdpcs	3, 7, cr0, cr10, cr2, {4}
     438:	f27ce903 	vmla.i<illegal width 64>	d30, d12, d3
     43c:	852b3130 	strhi	r3, [fp, #-304]!	; 0x130
     440:	2c4e4d2f 	mcrrcs	13, 2, r4, lr, cr15
     444:	0268302c 	rsbeq	r3, r8, #44	; 0x2c
     448:	01010004 	tsteq	r1, r4
     44c:	0000004a 	andeq	r0, r0, sl, asr #32
     450:	002c0002 	eoreq	r0, ip, r2
     454:	01020000 	tsteq	r2, r0
     458:	000d0efb 	strdeq	r0, [sp], -fp
     45c:	01010101 	tsteq	r1, r1, lsl #2
     460:	01000000 	tsteq	r0, r0
     464:	2e010000 	cdpcs	0, 0, cr0, cr1, cr0, {0}
     468:	7075732f 	rsbsvc	r7, r5, pc, lsr #6
     46c:	00007265 	andeq	r7, r0, r5, ror #4
     470:	65707573 	ldrbvs	r7, [r0, #-1395]!	; 0x573
     474:	65645f72 	strbvs	r5, [r4, #-3954]!	; 0xf72
     478:	2e79616c 	rpwcsez	f6, f1, #4.0
     47c:	00010053 	andeq	r0, r1, r3, asr r0
     480:	05000000 	streq	r0, [r0]
     484:	000eac02 	andeq	sl, lr, r2, lsl #24
     488:	010d0300 	tsteq	sp, r0, lsl #6
     48c:	2f302f2f 	svccs	0x00302f2f
     490:	302f2f2f 	eorcc	r2, pc, pc, lsr #30
     494:	0002022f 	andeq	r0, r2, pc, lsr #4
     498:	011d0101 	tsteq	sp, r1, lsl #2
     49c:	00020000 	andeq	r0, r2, r0
     4a0:	0000009a 	muleq	r0, sl, r0
     4a4:	0efb0102 	cdpeq	1, 15, cr0, cr11, cr2, {0}
     4a8:	0101000d 	tsteq	r1, sp
     4ac:	00000101 	andeq	r0, r0, r1, lsl #2
     4b0:	00000100 	andeq	r0, r0, r0, lsl #2
     4b4:	732f2e01 	teqvc	pc, #16
     4b8:	72657075 	rsbvc	r7, r5, #117	; 0x75
     4bc:	732f2e00 	teqvc	pc, #0
     4c0:	72657075 	rsbvc	r7, r5, #117	; 0x75
     4c4:	2f2e2e2f 	svccs	0x002e2e2f
     4c8:	2f002e2e 	svccs	0x00002e2e
     4cc:	656d6f68 	strbvs	r6, [sp, #-3944]!	; 0xf68
     4d0:	6b696d2f 	blvs	1a5b994 <__bss_end+0x1a576b4>
     4d4:	6f772f65 	svcvs	0x00772f65
     4d8:	6c2f6b72 	stcvs	11, cr6, [pc], #-456	; 0xfffffe38
     4dc:	78756e69 	ldmdavc	r5!, {r0, r3, r5, r6, r9, sl, fp, sp, lr}^
     4e0:	3432365f 	ldrtcc	r3, [r2], #-1631	; 0x65f
     4e4:	6372612f 	cmnvs	r2, #-1073741813	; 0xc000000b
     4e8:	72612f68 	rsbvc	r2, r1, #416	; 0x1a0
     4ec:	616d2f6d 	cmnvs	sp, sp, ror #30
     4f0:	732d6863 	teqvc	sp, #6488064	; 0x630000
     4f4:	69356e75 	ldmdbvs	r5!, {r0, r2, r4, r5, r6, r9, sl, fp, sp, lr}
     4f8:	636e692f 	cmnvs	lr, #770048	; 0xbc000
     4fc:	6564756c 	strbvs	r7, [r4, #-1388]!	; 0x56c
     500:	63616d2f 	cmnvs	r1, #3008	; 0xbc0
     504:	73000068 	movwvc	r0, #104	; 0x68
     508:	72657075 	rsbvc	r7, r5, #117	; 0x75
     50c:	6f6c635f 	svcvs	0x006c635f
     510:	632e6b63 	teqvs	lr, #101376	; 0x18c00
     514:	00000100 	andeq	r0, r0, r0, lsl #2
     518:	745f6d70 	ldrbvc	r6, [pc], #3440	; 520 <mem_preload_tlb+0xf0>
     51c:	73657079 	cmnvc	r5, #121	; 0x79
     520:	0200682e 	andeq	r6, r0, #3014656	; 0x2e0000
     524:	6d700000 	ldclvs	0, cr0, [r0]
     528:	0200682e 	andeq	r6, r0, #3014656	; 0x2e0000
     52c:	63630000 	cmnvs	r3, #0
     530:	725f756d 	subsvc	r7, pc, #457179136	; 0x1b400000
     534:	2e736765 	cdpcs	7, 7, cr6, cr3, cr5, {3}
     538:	00030068 	andeq	r0, r3, r8, rrx
     53c:	05000000 	streq	r0, [r0]
     540:	000ed402 	andeq	sp, lr, r2, lsl #8
     544:	012c0300 	teqeq	ip, r0, lsl #6
     548:	4d2b3113 	stfmis	f3, [fp, #-76]!	; 0xffffffb4
     54c:	13660e03 	cmnne	r6, #48	; 0x30
     550:	032e0903 	teqeq	lr, #49152	; 0xc000
     554:	67832e77 	undefined instruction 0x67832e77
     558:	69676867 	stmdbvs	r7!, {r0, r1, r2, r5, r6, fp, sp, lr}^
     55c:	134a0f03 	movtne	r0, #44803	; 0xaf03
     560:	032e0903 	teqeq	lr, #49152	; 0xc000
     564:	67832e77 	undefined instruction 0x67832e77
     568:	69676867 	stmdbvs	r7!, {r0, r1, r2, r5, r6, fp, sp, lr}^
     56c:	134a0f03 	movtne	r0, #44803	; 0xaf03
     570:	302a326a 	eorcc	r3, sl, sl, ror #4
     574:	9f83302c 	svcls	0x0083302c
     578:	660e03a1 	strvs	r0, [lr], -r1, lsr #7
     57c:	2a326a13 	bcs	c9add0 <__bss_end+0xc96af0>
     580:	83302c30 	teqhi	r0, #12288	; 0x3000
     584:	10038583 	andne	r8, r3, r3, lsl #11
     588:	302c1466 	eorcc	r1, ip, r6, ror #8
     58c:	032e0903 	teqeq	lr, #49152	; 0xc000
     590:	2f2d2e78 	svccs	0x002d2e78
     594:	87838367 	strhi	r8, [r3, r7, ror #6]
     598:	13660f03 	cmnne	r6, #12
     59c:	0a032f2d 	beq	cc258 <__bss_end+0xc7f78>
     5a0:	2e78032e 	cdpcs	3, 7, cr0, cr8, cr14, {1}
     5a4:	674b302c 	strbvs	r3, [fp, -ip, lsr #32]
     5a8:	0f036b67 	svceq	0x00036b67
     5ac:	312f2f66 	teqcc	pc, r6, ror #30
     5b0:	312b312b 	teqcc	fp, fp, lsr #2
     5b4:	0602312b 	streq	r3, [r2], -fp, lsr #2
     5b8:	45010100 	strmi	r0, [r1, #-256]	; 0x100
     5bc:	02000002 	andeq	r0, r0, #2
     5c0:	00007000 	andeq	r7, r0, r0
     5c4:	fb010200 	blx	40dce <__bss_end+0x3caee>
     5c8:	01000d0e 	tsteq	r0, lr, lsl #26
     5cc:	00010101 	andeq	r0, r1, r1, lsl #2
     5d0:	00010000 	andeq	r0, r1, r0
     5d4:	2f2e0100 	svccs	0x002e0100
     5d8:	65707573 	ldrbvs	r7, [r0, #-1395]!	; 0x573
     5dc:	2f2e0072 	svccs	0x002e0072
     5e0:	65707573 	ldrbvs	r7, [r0, #-1395]!	; 0x573
     5e4:	2e2e2f72 	mcrcs	15, 1, r2, cr14, cr2, {3}
     5e8:	002e2e2f 	eoreq	r2, lr, pc, lsr #28
     5ec:	70757300 	rsbsvc	r7, r5, r0, lsl #6
     5f0:	705f7265 	subsvc	r7, pc, r5, ror #4
     5f4:	7265776f 	rsbvc	r7, r5, #29097984	; 0x1bc0000
     5f8:	0100632e 	tsteq	r0, lr, lsr #6
     5fc:	6d700000 	ldclvs	0, cr0, [r0]
     600:	0200682e 	andeq	r6, r0, #3014656	; 0x2e0000
     604:	6d700000 	ldclvs	0, cr0, [r0]
     608:	7079745f 	rsbsvc	r7, r9, pc, asr r4
     60c:	682e7365 	stmdavs	lr!, {r0, r2, r5, r6, r8, r9, ip, sp, lr}
     610:	00000200 	andeq	r0, r0, r0, lsl #4
     614:	65707573 	ldrbvs	r7, [r0, #-1395]!	; 0x573
     618:	6f705f72 	svcvs	0x00705f72
     61c:	2e726577 	mrccs	5, 3, r6, cr2, cr7, {3}
     620:	00010068 	andeq	r0, r1, r8, rrx
     624:	70757300 	rsbsvc	r7, r5, r0, lsl #6
     628:	745f7265 	ldrbvc	r7, [pc], #613	; 630 <disable_mmu+0x18>
     62c:	682e6977 	stmdavs	lr!, {r0, r1, r2, r4, r5, r6, r8, fp, sp, lr}
     630:	00000100 	andeq	r0, r0, r0, lsl #2
     634:	02050000 	andeq	r0, r5, #0
     638:	00001148 	andeq	r1, r0, r8, asr #2
     63c:	0105b403 	tsteq	r5, r3, lsl #8
     640:	31474d2f 	cmpcc	r7, pc, lsr #26
     644:	4b812fa1 	blmi	fe04c4d0 <__bss_end+0xfe0481f0>
     648:	812fbd6d 	teqhi	pc, sp, ror #26
     64c:	6612034b 	ldrvs	r0, [r2], -fp, asr #6
     650:	032e0903 	teqeq	lr, #49152	; 0xc000
     654:	2f4a7f94 	svccs	0x004a7f94
     658:	a131474d 	teqge	r1, sp, asr #14
     65c:	6d4b812f 	stfvsp	f0, [fp, #-188]	; 0xffffff44
     660:	4b812fbd 	blmi	fe04c55c <__bss_end+0xfe04827c>
     664:	03661303 	cmneq	r6, #201326592	; 0xc000000
     668:	d4032e09 	strle	r2, [r3], #-3593	; 0xe09
     66c:	29174a7e 	ldmdbcs	r7, {r1, r2, r3, r4, r5, r6, r9, fp, lr}
     670:	f52f332e 	undefined instruction 0xf52f332e
     674:	6c4b812f 	stfvsp	f0, [fp], {47}	; 0x2f
     678:	812ff54b 	msrhi	CPSR_fsxc, fp, asr #10
     67c:	f54b6c4b 	undefined instruction 0xf54b6c4b
     680:	6c4b812f 	stfvsp	f0, [fp], {47}	; 0x2f
     684:	812ff54b 	msrhi	CPSR_fsxc, fp, asr #10
     688:	f54b6c4b 	undefined instruction 0xf54b6c4b
     68c:	6c4b812f 	stfvsp	f0, [fp], {47}	; 0x2f
     690:	812ff54b 	msrhi	CPSR_fsxc, fp, asr #10
     694:	f54b6d4b 	undefined instruction 0xf54b6d4b
     698:	6a4b812f 	bvs	12e0b5c <__bss_end+0x12dc87c>
     69c:	6a4b81be 	bvs	12e0d9c <__bss_end+0x12dcabc>
     6a0:	4b812fbd 	blmi	fe04c59c <__bss_end+0xfe0482bc>
     6a4:	2ff54b6c 	svccs	0x00f54b6c
     6a8:	03c04b81 	biceq	r4, r0, #132096	; 0x20400
     6ac:	4a2e7ca6 	bmi	b9f94c <__bss_end+0xb9b66c>
     6b0:	7fa5032d 	svcvc	0x00a5032d
     6b4:	dd03644a 	cfstrsle	mvf6, [r3, #-296]	; 0xfffffed8
     6b8:	a3032e00 	movwge	r2, #15872	; 0x3e00
     6bc:	e3032e7f 	movw	r2, #15999	; 0x3e7f
     6c0:	db4e4a00 	blle	1392ec8 <__bss_end+0x138ebe8>
     6c4:	4c2d3049 	stcmi	0, cr3, [sp], #-292	; 0xfffffedc
     6c8:	2c4e2a30 	vmovcs	s1, s2, r2, lr
     6cc:	302c322c 	eorcc	r3, ip, ip, lsr #4
     6d0:	7fa70367 	svcvc	0x00a70367
     6d4:	6b034966 	blvs	d2c74 <__bss_end+0xce994>
     6d8:	1703644a 	strne	r6, [r3, -sl, asr #8]
     6dc:	2e6b032e 	cdpcs	3, 6, cr0, cr11, cr14, {1}
     6e0:	4a1e032c 	bmi	781398 <__bss_end+0x77d0b8>
     6e4:	034a4803 	movteq	r4, #43011	; 0xa803
     6e8:	04d600c1 	ldrbeq	r0, [r6], #193	; 0xc1
     6ec:	2e770302 	cdpcs	3, 7, cr0, cr7, cr2, {0}
     6f0:	09030104 	stmdbeq	r3, {r2, r8}
     6f4:	0302042e 	movweq	r0, #9262	; 0x242e
     6f8:	2f6e2e77 	svccs	0x006e2e77
     6fc:	4d01042b 	cfstrsmi	mvf0, [r1, #-172]	; 0xffffff54
     700:	4c870204 	sfmmi	f0, 4, [r7], {4}	; (stcmi 2, cr0, [r7], {4})
     704:	2c32322f 	lfmcs	f3, 4, [r2], #-188	; (ldccs 2, cr3, [r2], #-188)	; 0xffffff44
     708:	03010430 	movweq	r0, #5168	; 0x1430
     70c:	04864a72 	streq	r4, [r6], #2674	; 0xa72
     710:	2e710302 	cdpcs	3, 7, cr0, cr1, cr2, {0}
     714:	0f030104 	svceq	0x00030104
     718:	0302042e 	movweq	r0, #9262	; 0x242e
     71c:	2f6e2e71 	svccs	0x006e2e71
     720:	0301042b 	movweq	r0, #5163	; 0x142b
     724:	02044a09 	andeq	r4, r4, #36864	; 0x9000
     728:	322f4c81 	eorcc	r4, pc, #33024	; 0x8100
     72c:	48302c32 	ldmdami	r0!, {r1, r4, r5, sl, fp, sp}
     730:	78030104 	stmdavc	r3, {r2, r8}
     734:	684b2f2e 	stmdavs	fp, {r1, r2, r3, r5, r8, r9, sl, fp, sp}^
     738:	03312d2f 	teqeq	r1, #3008	; 0xbc0
     73c:	2f9b820c 	svccs	0x009b820c
     740:	352d6430 	strcc	r6, [sp, #-1072]!	; 0x430
     744:	2d2e7a03 	vstmdbcs	lr!, {s14-s16}
     748:	2f676c2f 	svccs	0x00676c2f
     74c:	2f2d2f2d 	svccs	0x002d2f2d
     750:	2e5a03dc 	mrccs	3, 2, r0, cr10, cr12, {6}
     754:	ba00da03 	blt	36f68 <__bss_end+0x32c88>
     758:	4b4c312e 	blmi	130cc18 <__bss_end+0x1308938>
     75c:	4b812ff5 	blmi	fe04c738 <__bss_end+0xfe048458>
     760:	2ff54b6c 	svccs	0x00f54b6c
     764:	4b6c4b81 	blmi	1b13570 <__bss_end+0x1b0f290>
     768:	4b812ff5 	blmi	fe04c744 <__bss_end+0xfe048464>
     76c:	2ff54b6c 	svccs	0x00f54b6c
     770:	4b6c4b81 	blmi	1b1357c <__bss_end+0x1b0f29c>
     774:	4b812ff5 	blmi	fe04c750 <__bss_end+0xfe048470>
     778:	2ff54b6c 	svccs	0x00f54b6c
     77c:	816c4b81 	cmnhi	ip, r1, lsl #23
     780:	f54b6c4b 	undefined instruction 0xf54b6c4b
     784:	6a4b812f 	bvs	12e0c48 <__bss_end+0x12dc968>
     788:	6a4b81be 	bvs	12e0e88 <__bss_end+0x12dcba8>
     78c:	4b812fbd 	blmi	fe04c688 <__bss_end+0xfe0483a8>
     790:	2ff54b6c 	svccs	0x00f54b6c
     794:	4b6a4b81 	blmi	1a935a0 <__bss_end+0x1a8f2c0>
     798:	4b812ff7 	blmi	fe04c77c <__bss_end+0xfe04849c>
     79c:	6430c16b 	ldrtvs	ip, [r0], #-363	; 0x16b
     7a0:	6a4c2c30 	bvs	130b868 <__bss_end+0x1307588>
     7a4:	812ff74b 	msrhi	CPSR_fsxc, fp, asr #14
     7a8:	30c16b4b 	sbccc	r6, r1, fp, asr #22
     7ac:	842c3064 	strthi	r3, [ip], #-100	; 0x64
     7b0:	2ff74b6a 	svccs	0x00f74b6a
     7b4:	c16b4b81 	cmngt	fp, r1, lsl #23
     7b8:	2c306430 	cfldrscs	mvf6, [r0], #-192	; 0xffffff40
     7bc:	f74b6a4c 	undefined instruction 0xf74b6a4c
     7c0:	6b4b812f 	blvs	12e0c84 <__bss_end+0x12dc9a4>
     7c4:	306430c1 	rsbcc	r3, r4, r1, asr #1
     7c8:	4b6a842c 	blmi	1aa1880 <__bss_end+0x1a9d5a0>
     7cc:	4b812ff7 	blmi	fe04c7b0 <__bss_end+0xfe0484d0>
     7d0:	6430c16b 	ldrtvs	ip, [r0], #-363	; 0x16b
     7d4:	6a4c2c30 	bvs	130b89c <__bss_end+0x13075bc>
     7d8:	812ff74b 	msrhi	CPSR_fsxc, fp, asr #14
     7dc:	30c16b4b 	sbccc	r6, r1, fp, asr #22
     7e0:	842c3064 	strthi	r3, [ip], #-100	; 0x64
     7e4:	2ff74b6a 	svccs	0x00f74b6a
     7e8:	c16b4b81 	cmngt	fp, r1, lsl #23
     7ec:	2c306430 	cfldrscs	mvf6, [r0], #-192	; 0xffffff40
     7f0:	f74b6a4c 	undefined instruction 0xf74b6a4c
     7f4:	6b4b812f 	blvs	12e0cb8 <__bss_end+0x12dc9d8>
     7f8:	306430c1 	rsbcc	r3, r4, r1, asr #1
     7fc:	02c0842c 	sbceq	r8, r0, #738197504	; 0x2c000000
     800:	01010002 	tsteq	r1, r2
     804:	000000d1 	ldrdeq	r0, [r0], -r1
     808:	00550002 	subseq	r0, r5, r2
     80c:	01020000 	tsteq	r2, r0
     810:	000d0efb 	strdeq	r0, [sp], -fp
     814:	01010101 	tsteq	r1, r1, lsl #2
     818:	01000000 	tsteq	r0, r0
     81c:	2e010000 	cdpcs	0, 0, cr0, cr1, cr0, {0}
     820:	7075732f 	rsbsvc	r7, r5, pc, lsr #6
     824:	2e007265 	cdpcs	2, 0, cr7, cr0, cr5, {3}
     828:	7075732f 	rsbsvc	r7, r5, pc, lsr #6
     82c:	2e2f7265 	cdpcs	2, 2, cr7, cr15, cr5, {3}
     830:	2e2e2f2e 	cdpcs	15, 2, cr2, cr14, cr14, {1}
     834:	75730000 	ldrbvc	r0, [r3]!
     838:	5f726570 	svcpl	0x00726570
     83c:	2e746e69 	cdpcs	14, 7, cr6, cr4, cr9, {3}
     840:	00010063 	andeq	r0, r1, r3, rrx
     844:	5f6d7000 	svcpl	0x006d7000
     848:	65707974 	ldrbvs	r7, [r0, #-2420]!	; 0x974
     84c:	00682e73 	rsbeq	r2, r8, r3, ror lr
     850:	73000002 	movwvc	r0, #2
     854:	72657075 	rsbvc	r7, r5, #117	; 0x75
     858:	746e695f 	strbtvc	r6, [lr], #-2399	; 0x95f
     85c:	0100682e 	tsteq	r0, lr, lsr #16
     860:	00000000 	andeq	r0, r0, r0
     864:	20380205 	eorscs	r0, r8, r5, lsl #4
     868:	25030000 	strcs	r0, [r3]
     86c:	0e031301 	cdpeq	3, 0, cr1, cr3, cr1, {0}
     870:	2e72032e 	cdpcs	3, 7, cr0, cr2, cr14, {1}
     874:	032e1103 	teqeq	lr, #-1073741824	; 0xc0000000
     878:	2f322e6e 	svccs	0x00322e6e
     87c:	032e1803 	teqeq	lr, #196608	; 0x30000
     880:	2f2f2e69 	svccs	0x002f2e69
     884:	032f2f2f 	teqeq	pc, #188	; 0xbc
     888:	0a032e76 	beq	cc268 <__bss_end+0xc7f88>
     88c:	78032f2e 	stmdavc	r3, {r1, r2, r3, r5, r8, r9, sl, fp, sp}
     890:	03352f2e 	teqeq	r5, #184	; 0xb8
     894:	2f2f2e7a 	svccs	0x002f2e7a
     898:	10032f2f 	andne	r2, r3, pc, lsr #30
     89c:	2e75032e 	cdpcs	3, 7, cr0, cr5, cr14, {1}
     8a0:	2f2f2f2f 	svccs	0x002f2f2f
     8a4:	2f2f2f2f 	svccs	0x002f2f2f
     8a8:	0f033131 	svceq	0x00033131
     8ac:	0b031466 	bleq	c5a4c <__bss_end+0xc176c>
     8b0:	2e75032e 	cdpcs	3, 7, cr0, cr5, cr14, {1}
     8b4:	4b4b4b67 	blmi	12d3658 <__bss_end+0x12cf378>
     8b8:	4b4b4b4b 	blmi	12d35ec <__bss_end+0x12cf30c>
     8bc:	4a0f034d 	bmi	3c15f8 <__bss_end+0x3bd318>
     8c0:	45322a17 	ldrmi	r2, [r2, #-2583]!	; 0xa17
     8c4:	2a314b33 	bcs	c53598 <__bss_end+0xc4f2b8>
     8c8:	0f036983 	svceq	0x00036983
     8cc:	2930174a 	ldmdbcs	r0!, {r1, r3, r6, r8, r9, sl, ip}
     8d0:	2f682c33 	svccs	0x00682c33
     8d4:	01000802 	tsteq	r0, r2, lsl #16
     8d8:	00007201 	andeq	r7, r0, r1, lsl #4
     8dc:	55000200 	strpl	r0, [r0, #-512]	; 0x200
     8e0:	02000000 	andeq	r0, r0, #0
     8e4:	0d0efb01 	vstreq	d15, [lr, #-4]
     8e8:	01010100 	tsteq	r1, r0, lsl #2
     8ec:	00000001 	andeq	r0, r0, r1
     8f0:	01000001 	tsteq	r0, r1
     8f4:	75732f2e 	ldrbvc	r2, [r3, #-3886]!	; 0xf2e
     8f8:	00726570 	rsbseq	r6, r2, r0, ror r5
     8fc:	75732f2e 	ldrbvc	r2, [r3, #-3886]!	; 0xf2e
     900:	2f726570 	svccs	0x00726570
     904:	2e2f2e2e 	cdpcs	14, 2, cr2, cr15, cr14, {1}
     908:	7300002e 	movwvc	r0, #46	; 0x2e
     90c:	72657075 	rsbvc	r7, r5, #117	; 0x75
     910:	726d745f 	rsbvc	r7, sp, #1593835520	; 0x5f000000
     914:	0100632e 	tsteq	r0, lr, lsr #6
     918:	75730000 	ldrbvc	r0, [r3]!
     91c:	5f726570 	svcpl	0x00726570
     920:	2e726d74 	mrccs	13, 3, r6, cr2, cr4, {3}
     924:	00010068 	andeq	r0, r1, r8, rrx
     928:	5f6d7000 	svcpl	0x006d7000
     92c:	65707974 	ldrbvs	r7, [r0, #-2420]!	; 0x974
     930:	00682e73 	rsbeq	r2, r8, r3, ror lr
     934:	00000002 	andeq	r0, r0, r2
     938:	a8020500 	stmdage	r2, {r8, sl}
     93c:	03000021 	movweq	r0, #33	; 0x21
     940:	69140122 	ldmdbvs	r4, {r1, r5, r8}
     944:	16661103 	strbtne	r1, [r6], -r3, lsl #2
     948:	040269a0 	streq	r6, [r2], #-2464	; 0x9a0
     94c:	0a010100 	beq	40d54 <__bss_end+0x3ca74>
     950:	02000002 	andeq	r0, r0, #2
     954:	00007100 	andeq	r7, r0, r0, lsl #2
     958:	fb010200 	blx	41162 <__bss_end+0x3ce82>
     95c:	01000d0e 	tsteq	r0, lr, lsl #26
     960:	00010101 	andeq	r0, r1, r1, lsl #2
     964:	00010000 	andeq	r0, r1, r0
     968:	2f2e0100 	svccs	0x002e0100
     96c:	65707573 	ldrbvs	r7, [r0, #-1395]!	; 0x573
     970:	72642f72 	rsbvc	r2, r4, #456	; 0x1c8
     974:	2e006d61 	cdpcs	13, 0, cr6, cr0, cr1, {3}
     978:	7075732f 	rsbsvc	r7, r5, pc, lsr #6
     97c:	642f7265 	strtvs	r7, [pc], #613	; 984 <twi_byte_rw+0x120>
     980:	2f6d6172 	svccs	0x006d6172
     984:	2e2e2f2e 	cdpcs	15, 2, cr2, cr14, cr14, {1}
     988:	2f2e2e2f 	svccs	0x002e2e2f
     98c:	2e002e2e 	cdpcs	14, 0, cr2, cr0, cr14, {1}
     990:	7075732f 	rsbsvc	r7, r5, pc, lsr #6
     994:	642f7265 	strtvs	r7, [pc], #613	; 99c <twi_byte_rw+0x138>
     998:	2f6d6172 	svccs	0x006d6172
     99c:	2e2e2f2e 	cdpcs	15, 2, cr2, cr14, cr14, {1}
     9a0:	72640000 	rsbvc	r0, r4, #0
     9a4:	632e6d61 	teqvs	lr, #6208	; 0x1840
     9a8:	00000100 	andeq	r0, r0, r0, lsl #2
     9ac:	745f6d70 	ldrbvc	r6, [pc], #3440	; 9b4 <twi_byte_rw+0x150>
     9b0:	73657079 	cmnvc	r5, #121	; 0x79
     9b4:	0200682e 	andeq	r6, r0, #3014656	; 0x2e0000
     9b8:	75730000 	ldrbvc	r0, [r3]!
     9bc:	5f726570 	svcpl	0x00726570
     9c0:	2e697774 	mcrcs	7, 3, r7, cr9, cr4, {3}
     9c4:	00030068 	andeq	r0, r3, r8, rrx
     9c8:	05000000 	streq	r0, [r0]
     9cc:	0021e802 	eoreq	lr, r1, r2, lsl #16
     9d0:	01a50300 	undefined instruction 0x01a50300
     9d4:	2f4c1501 	svccs	0x004c1501
     9d8:	2f30302d 	svccs	0x0030302d
     9dc:	15661203 	strbne	r1, [r6, #-515]!	; 0x203
     9e0:	03504b4c 	cmpeq	r0, #77824	; 0x13000
     9e4:	2b154a11 	blcs	553230 <__bss_end+0x54ef50>
     9e8:	48323031 	ldmdami	r2!, {r0, r4, r5, ip, sp}
     9ec:	2e7a0332 	mrccs	3, 3, r0, cr10, cr2, {1}
     9f0:	2f2f2f2f 	svccs	0x002f2f2f
     9f4:	032f2f2f 	teqeq	pc, #188	; 0xbc
     9f8:	036601d8 	cmneq	r6, #54	; 0x36
     9fc:	4c017de6 	stcmi	13, cr7, [r1], {230}	; 0xe6
     a00:	30302d2f 	eorscc	r2, r0, pc, lsr #26
     a04:	0299032f 	addseq	r0, r9, #-1140850688	; 0xbc000000
     a08:	7dfc0366 	ldclvc	3, cr0, [ip, #408]!	; 0x198
     a0c:	034b4c01 	movteq	r4, #48129	; 0xbc01
     a10:	4e4a0283 	cdpmi	2, 4, cr0, cr10, cr3, {4}
     a14:	ac031114 	stfges	f1, [r3], {20}
     a18:	31322e7e 	teqcc	r2, lr, ror lr
     a1c:	2f2f2f2b 	svccs	0x002f2f2b
     a20:	2f2f2f30 	svccs	0x002f2f30
     a24:	4a7efb03 	bmi	1fbf638 <__bss_end+0x1fbb358>
     a28:	7a033416 	bvc	cda88 <__bss_end+0xc97a8>
     a2c:	2f2f2f2e 	svccs	0x002f2f2e
     a30:	112f6731 	teqne	pc, r1, lsr r7
     a34:	4a02a903 	bmi	aae48 <__bss_end+0xa6b68>
     a38:	93031114 	movwls	r1, #12564	; 0x3114
     a3c:	34162e7d 	ldrcc	r2, [r6], #-3709	; 0xe7d
     a40:	2f2e7a03 	svccs	0x002e7a03
     a44:	67312f2f 	ldrvs	r2, [r1, -pc, lsr #30]!
     a48:	3c03112f 	stfccs	f1, [r3], {47}	; 0x2f
     a4c:	0311144a 	tsteq	r1, #1241513984	; 0x4a000000
     a50:	142e02aa 	strtne	r0, [lr], #-682	; 0x2aa
     a54:	017dd403 	cmneq	sp, r3, lsl #8
     a58:	332e4703 	teqcc	lr, #786432	; 0xc0000
     a5c:	2f2a3231 	svccs	0x002a3231
     a60:	832f2f2f 	teqhi	pc, #188	; 0xbc
     a64:	2f2d304d 	svccs	0x002d304d
     a68:	032e3f03 	teqeq	lr, #12
     a6c:	3c034a44 	stccc	10, cr4, [r3], {68}	; 0x44
     a70:	2e44032e 	cdpcs	3, 4, cr0, cr4, cr14, {1}
     a74:	302e3c03 	eorcc	r3, lr, r3, lsl #24
     a78:	7fbf0331 	svcvc	0x00bf0331
     a7c:	be03322e 	cdplt	2, 0, cr3, cr3, cr14, {1}
     a80:	11146602 	tstne	r4, r2, lsl #12
     a84:	2e7cec03 	cdpcs	12, 7, cr14, cr12, cr3, {0}
     a88:	7a033416 	bvc	cdae8 <__bss_end+0xc9808>
     a8c:	2f2f2f2e 	svccs	0x002f2f2e
     a90:	112f6731 	teqne	pc, r1, lsr r7
     a94:	00fe034e 	rscseq	r0, lr, lr, asr #6
     a98:	7f87034a 	svcvc	0x0087034a
     a9c:	00f9034a 	rscseq	r0, r9, sl, asr #6
     aa0:	7f87032e 	svcvc	0x0087032e
     aa4:	00f9032e 	rscseq	r0, r9, lr, lsr #6
     aa8:	032f322e 	teqeq	pc, #-536870910	; 0xe0000002
     aac:	032e7f82 	teqeq	lr, #520	; 0x208
     ab0:	32312e0b 	eorscc	r2, r1, #176	; 0xb0
     ab4:	2f2f2f2a 	svccs	0x002f2f2a
     ab8:	674d672f 	strbvs	r6, [sp, -pc, lsr #14]
     abc:	6602e203 	strvs	lr, [r2], -r3, lsl #4
     ac0:	5e031114 	mcrpl	1, 0, r1, cr3, cr4, {0}
     ac4:	2e6a032e 	cdpcs	3, 6, cr0, cr10, cr14, {1}
     ac8:	032e1603 	teqeq	lr, #3145728	; 0x300000
     acc:	322a2e6e 	eorcc	r2, sl, #1760	; 0x6e0
     ad0:	312a3262 	teqcc	sl, r2, ror #4
     ad4:	4b816b2f 	blmi	fe05b798 <__bss_end+0xfe0574b8>
     ad8:	034b816b 	movteq	r8, #45419	; 0xb16b
     adc:	0a03660e 	beq	da31c <__bss_end+0xd603c>
     ae0:	4c313166 	ldfmis	f3, [r1], #-408	; 0xfffffe68
     ae4:	2e70034b 	cdpcs	3, 7, cr0, cr0, cr11, {2}
     ae8:	827ef803 	rsbshi	pc, lr, #196608	; 0x30000
     aec:	2e78031a 	mrccs	3, 3, r0, cr8, cr10, {0}
     af0:	2e180352 	mrccs	3, 0, r0, cr8, cr2, {2}
     af4:	032e6903 	teqeq	lr, #49152	; 0xc000
     af8:	59032e28 	stmdbpl	r3, {r3, r5, r9, sl, fp, sp}
     afc:	2f2f2f2e 	svccs	0x002f2f2e
     b00:	2e7a032f 	cdpcs	3, 7, cr0, cr10, cr15, {1}
     b04:	2d302d35 	ldccs	13, cr2, [r0, #-212]!	; 0xffffff2c
     b08:	4b2f2f2f 	blmi	bcc7cc <__bss_end+0xbc84ec>
     b0c:	2e12032f 	cdpcs	3, 1, cr0, cr2, cr15, {1}
     b10:	032e6d03 	teqeq	lr, #192	; 0xc0
     b14:	4c302e13 	ldcmi	14, cr2, [r0], #-76	; 0xffffffb4
     b18:	6c032f2d 	stcvs	15, cr2, [r3], {45}	; 0x2d
     b1c:	302f304a 	eorcc	r3, pc, sl, asr #32
     b20:	03313130 	teqeq	r1, #12
     b24:	032b2e0b 	teqeq	fp, #176	; 0xb0
     b28:	36312e75 	undefined instruction 0x36312e75
     b2c:	684b3031 	stmdavs	fp, {r0, r4, r5, ip, sp}^
     b30:	2e0c0331 	mcrcs	3, 0, r0, cr12, cr1, {1}
     b34:	2e73032f 	cdpcs	3, 7, cr0, cr3, cr15, {1}
     b38:	032e0e03 	teqeq	lr, #48	; 0x30
     b3c:	2f312e75 	svccs	0x00312e75
     b40:	2f2f312f 	svccs	0x002f312f
     b44:	2f2f312f 	svccs	0x002f312f
     b48:	2d2f692f 	stccs	9, cr6, [pc, #-188]!	; 0xffffff44
     b4c:	4d2f312f 	stfmis	f3, [pc, #-188]!	; 0xffffff44
     b50:	c0034d30 	andgt	r4, r3, r0, lsr sp
     b54:	11148200 	tstne	r4, r0, lsl #4
     b58:	01000202 	tsteq	r0, r2, lsl #4
     b5c:	00029301 	andeq	r9, r2, r1, lsl #6
     b60:	73000200 	movwvc	r0, #512	; 0x200
     b64:	02000000 	andeq	r0, r0, #0
     b68:	0d0efb01 	vstreq	d15, [lr, #-4]
     b6c:	01010100 	tsteq	r1, r0, lsl #2
     b70:	00000001 	andeq	r0, r0, r1
     b74:	01000001 	tsteq	r0, r1
     b78:	75732f2e 	ldrbvc	r2, [r3, #-3886]!	; 0xf2e
     b7c:	2f726570 	svccs	0x00726570
     b80:	6d617264 	sfmvs	f7, 2, [r1, #-400]!	; (stclvs 2, cr7, [r1, #-400]!)	; 0xfffffe70
     b84:	732f2e00 	teqvc	pc, #0
     b88:	72657075 	rsbvc	r7, r5, #117	; 0x75
     b8c:	6172642f 	cmnvs	r2, pc, lsr #8
     b90:	2f2e2f6d 	svccs	0x002e2f6d
     b94:	2e002e2e 	cdpcs	14, 0, cr2, cr0, cr14, {1}
     b98:	7075732f 	rsbsvc	r7, r5, pc, lsr #6
     b9c:	642f7265 	strtvs	r7, [pc], #613	; ba4 <twi_byte_rw_nommu+0x68>
     ba0:	2f6d6172 	svccs	0x006d6172
     ba4:	2e2e2f2e 	cdpcs	15, 2, cr2, cr14, cr14, {1}
     ba8:	2f2e2e2f 	svccs	0x002e2e2f
     bac:	00002e2e 	andeq	r2, r0, lr, lsr #28
     bb0:	6d617264 	sfmvs	f7, 2, [r1, #-400]!	; (stclvs 2, cr7, [r1, #-400]!)	; 0xfffffe70
     bb4:	696e695f 	stmdbvs	lr!, {r0, r1, r2, r3, r4, r6, r8, fp, sp, lr}^
     bb8:	00632e74 	rsbeq	r2, r3, r4, ror lr
     bbc:	63000001 	movwvs	r0, #1
     bc0:	6f6d6d6f 	svcvs	0x006d6d6f
     bc4:	00682e6e 	rsbeq	r2, r8, lr, ror #28
     bc8:	70000002 	andvc	r0, r0, r2
     bcc:	79745f6d 	ldmdbvc	r4!, {r0, r2, r3, r5, r6, r8, r9, sl, fp, ip, lr}^
     bd0:	2e736570 	mrccs	5, 3, r6, cr3, cr0, {3}
     bd4:	00030068 	andeq	r0, r3, r8, rrx
     bd8:	05000000 	streq	r0, [r0]
     bdc:	00269402 	eoreq	r9, r6, r2, lsl #8
     be0:	019b0300 	orrseq	r0, fp, r0, lsl #6
     be4:	4b4c1501 	blmi	1305ff0 <__bss_end+0x1301d10>
     be8:	154d2f2f 	strbne	r2, [sp, #-3887]	; 0xf2f
     bec:	4d2f2f4b 	stcmi	15, cr2, [pc, #-300]!	; 0xfffffed4
     bf0:	2f2f4b15 	svccs	0x002f4b15
     bf4:	154a3403 	strbne	r3, [sl, #-1027]	; 0x403
     bf8:	302f2f4b 	eorcc	r2, pc, fp, asr #30
     bfc:	302f2f2f 	eorcc	r2, pc, pc, lsr #30
     c00:	302f2f2f 	eorcc	r2, pc, pc, lsr #30
     c04:	302f2f2f 	eorcc	r2, pc, pc, lsr #30
     c08:	2f2f2f2f 	svccs	0x002f2f2f
     c0c:	174a0e03 	strbne	r0, [sl, -r3, lsl #28]
     c10:	30643329 	rsbcc	r3, r4, r9, lsr #6
     c14:	322c302c 	eorcc	r3, ip, #44	; 0x2c
     c18:	6601b803 	strvs	fp, [r1], -r3, lsl #16
     c1c:	4a100314 	bmi	401874 <__bss_end+0x3fd594>
     c20:	2f293316 	svccs	0x00293316
     c24:	5169312f 	cmnpl	r9, pc, lsr #2
     c28:	15822003 	strne	r2, [r2, #3]
     c2c:	79033330 	stmdbvc	r3, {r4, r5, r8, r9, ip, sp}
     c30:	3030312e 	eorscc	r3, r0, lr, lsr #2
     c34:	4a0d032f 	bmi	3418f8 <__bss_end+0x33d618>
     c38:	4c011103 	stfmis	f1, [r1], {3}
     c3c:	4b2d692c 	blmi	b5b0f4 <__bss_end+0xb56e14>
     c40:	66120334 	undefined instruction 0x66120334
     c44:	682f4b17 	stmdavs	pc!, {r0, r1, r2, r4, r8, r9, fp, lr}
     c48:	6b686868 	blvs	1a1adf0 <__bss_end+0x1a16b10>
     c4c:	302f2d4c 	eorcc	r2, pc, ip, asr #26
     c50:	312f2f2d 	teqcc	pc, sp, lsr #30
     c54:	2503154e 	strcs	r1, [r3, #-1358]	; 0x54e
     c58:	144d144a 	strbne	r1, [sp], #-1098	; 0x44a
     c5c:	2e090311 	mcrcs	3, 0, r0, cr9, cr1, {0}
     c60:	017bed03 	cmneq	fp, r3, lsl #26
     c64:	032f4b4c 	teqeq	pc, #77824	; 0x13000
     c68:	4d2e0491 	cfstrsmi	mvf0, [lr, #-580]!	; 0xfffffdbc
     c6c:	017f8903 	cmneq	pc, r3, lsl #18
     c70:	2d692c4c 	stclcs	12, cr2, [r9, #-304]!	; 0xfffffed0
     c74:	00f6034b 	rscseq	r0, r6, fp, asr #6
     c78:	ac03692e 	stcge	9, cr6, [r3], {46}	; 0x2e
     c7c:	2933017e 	ldmdbcs	r3!, {r1, r2, r3, r4, r5, r6, r8}
     c80:	69312f2f 	ldmdbvs	r1!, {r0, r1, r2, r3, r5, r8, r9, sl, fp, sp}
     c84:	4a01ce03 	bmi	74498 <__bss_end+0x701b8>
     c88:	13824403 	orrne	r4, r2, #50331648	; 0x3000000
     c8c:	9a030f4d 	bls	c49c8 <__bss_end+0xc06e8>
     c90:	46164a7d 	undefined instruction 0x46164a7d
     c94:	03020432 	movweq	r0, #9266	; 0x2432
     c98:	2f667e82 	svccs	0x00667e82
     c9c:	01042c2d 	tsteq	r4, sp, lsr #24
     ca0:	4a028603 	bmi	a24b4 <__bss_end+0x9e1d4>
     ca4:	85030204 	strhi	r0, [r3, #-516]	; 0x204
     ca8:	a147827e 	cmpge	r7, lr, ror r2
     cac:	4e4e4b65 	vmlsmi.f64	d20, d14, d21
     cb0:	03010448 	movweq	r0, #5192	; 0x1448
     cb4:	326601f1 	rsbcc	r0, r6, #1073741884	; 0x4000003c
     cb8:	7a03352c 	bvc	ce170 <__bss_end+0xc9e90>
     cbc:	7a03352e 	bvc	ce17c <__bss_end+0xc9e9c>
     cc0:	2f2f2f2e 	svccs	0x002f2f2e
     cc4:	2f2f2f2f 	svccs	0x002f2f2f
     cc8:	032e0d03 	teqeq	lr, #192	; 0xc0
     ccc:	322f2e74 	eorcc	r2, pc, #1856	; 0x740
     cd0:	2f2f2f4e 	svccs	0x002f2f4e
     cd4:	302d3030 	eorcc	r3, sp, r0, lsr r0
     cd8:	02ee0349 	rsceq	r0, lr, #603979777	; 0x24000001
     cdc:	03111466 	tsteq	r1, #1711276032	; 0x66000000
     ce0:	172e7c99 	undefined instruction 0x172e7c99
     ce4:	2e780331 	mrccs	3, 3, r0, cr8, cr1, {1}
     ce8:	48893133 	stmmi	r9, {r0, r1, r4, r5, r8, ip, sp}
     cec:	80302c30 	eorshi	r2, r0, r0, lsr ip
     cf0:	30486a33 	subcc	r6, r8, r3, lsr sl
     cf4:	3364302c 	cmncc	r4, #44	; 0x2c
     cf8:	2c30486a 	ldccs	8, cr4, [r0], #-424	; 0xfffffe58
     cfc:	2f328030 	svccs	0x00328030
     d00:	6653032d 	ldrbvs	r0, [r3], -sp, lsr #6
     d04:	832d2f31 	teqhi	sp, #196	; 0xc4
     d08:	4b2d2f30 	blmi	b4c9d0 <__bss_end+0xb486f0>
     d0c:	682d2f30 	stmdavs	sp!, {r4, r5, r8, r9, sl, fp, sp}
     d10:	4a4c032d 	bmi	13019cc <__bss_end+0x12fd6ec>
     d14:	2f2b3131 	svccs	0x002b3131
     d18:	2f2f2f2f 	svccs	0x002f2f2f
     d1c:	aa032f2f 	bge	cc9e0 <__bss_end+0xc8700>
     d20:	03344a01 	teqeq	r4, #4096	; 0x1000
     d24:	4d2b660a 	stcmi	6, cr6, [fp, #-40]!	; 0xffffffd8
     d28:	7ec9034d 	cdpvc	3, 12, cr0, cr9, cr13, {2}
     d2c:	2f4b302e 	svccs	0x004b302e
     d30:	2e02f703 	cdpcs	7, 0, cr15, cr2, cr3, {0}
     d34:	89033033 	stmdbhi	r3, {r0, r1, r4, r5, ip, sp}
     d38:	2f2f2e7d 	svccs	0x002f2e7d
     d3c:	2e01b203 	cdpcs	2, 0, cr11, cr1, cr3, {0}
     d40:	842c4c34 	strthi	r4, [ip], #-3124	; 0xc34
     d44:	2f30302c 	svccs	0x0030302c
     d48:	2d2f302d 	stccs	0, cr3, [pc, #-180]!	; 0xffffff4c
     d4c:	302d2f30 	eorcc	r2, sp, r0, lsr pc
     d50:	2f302d2f 	svccs	0x00302d2f
     d54:	2e0d0332 	mcrcs	3, 0, r0, cr13, cr2, {1}
     d58:	2d2e7403 	cfstrscs	mvf7, [lr, #-12]!
     d5c:	2f2d2c31 	svccs	0x002d2c31
     d60:	2f2f2f2d 	svccs	0x002f2f2d
     d64:	302d2f31 	eorcc	r2, sp, r1, lsr pc
     d68:	032f2f2d 	teqeq	pc, #180	; 0xb4
     d6c:	312e019c 	undefined instruction 0x312e019c
     d70:	7ee10332 	mcrvc	3, 7, r0, cr1, cr2, {1}
     d74:	03842f2e 	orreq	r2, r4, #184	; 0xb8
     d78:	bc2e01bb 	stflts	f0, [lr], #-748	; 0xfffffd14
     d7c:	7ecf0383 	cdpvc	3, 12, cr0, cr15, cr3, {4}
     d80:	4d4b4b2e 	vstrmi	d20, [fp, #-184]	; 0xffffff48
     d84:	8432a04e 	ldrthi	sl, [r2], #-78	; 0x4e
     d88:	032e1103 	teqeq	lr, #-1073741824	; 0xc0000000
     d8c:	4b302e6f 	blmi	c0c750 <__bss_end+0xc08470>
     d90:	2f2f4d4b 	svccs	0x002f4d4b
     d94:	2f2f312f 	svccs	0x002f312f
     d98:	7dff0330 	ldclvc	3, cr0, [pc, #192]!	; 0xc0
     d9c:	02ba0382 	adcseq	r0, sl, #134217730	; 0x8000002
     da0:	7dc7032e 	stclvc	3, cr0, [r7, #184]	; 0xb8
     da4:	b3032f2e 	movwlt	r2, #16174	; 0x3f2e
     da8:	2f2f2e02 	svccs	0x002f2e02
     dac:	034b6931 	movteq	r6, #47409	; 0xb931
     db0:	804a7ea7 	subhi	r7, sl, r7, lsr #29
     db4:	2c302c30 	ldccs	12, cr2, [r0], #-192	; 0xffffff40
     db8:	2e01ac03 	cdpcs	12, 0, cr10, cr1, cr3, {0}
     dbc:	01c8032d 	biceq	r0, r8, sp, lsr #6
     dc0:	044b4f82 	strbeq	r4, [fp], #-3970	; 0xf82
     dc4:	7b940302 	blvc	fe5019d4 <__bss_end+0xfe4fd6f4>
     dc8:	2c2d2fba 	stccs	15, cr2, [sp], #-744	; 0xfffffd18
     dcc:	f0030104 	undefined instruction 0xf0030104
     dd0:	02044a04 	andeq	r4, r4, #16384	; 0x4000
     dd4:	667b9b03 	ldrbtvs	r9, [fp], -r3, lsl #22
     dd8:	4b65a147 	blmi	19692fc <__bss_end+0x196501c>
     ddc:	04484e4e 	strbeq	r4, [r8], #-3662	; 0xe4e
     de0:	04df0301 	ldrbeq	r0, [pc], #769	; de8 <twi_byte_rw_nommu+0x2ac>
     de4:	2c853466 	cfstrscs	mvf3, [r5], {102}	; 0x66
     de8:	2f4c4830 	svccs	0x004c4830
     dec:	024c332b 	subeq	r3, ip, #-1409286144	; 0xac000000
     df0:	01010008 	tsteq	r1, r8
     df4:	00000119 	andeq	r0, r0, r9, lsl r1
     df8:	003c0002 	eorseq	r0, ip, r2
     dfc:	01020000 	tsteq	r2, r0
     e00:	000d0efb 	strdeq	r0, [sp], -fp
     e04:	01010101 	tsteq	r1, r1, lsl #2
     e08:	01000000 	tsteq	r0, r0
     e0c:	2e010000 	cdpcs	0, 0, cr0, cr1, cr0, {0}
     e10:	002e2e2f 	eoreq	r2, lr, pc, lsr #28
     e14:	5f6d7000 	svcpl	0x006d7000
     e18:	75626564 	strbvc	r6, [r2, #-1380]!	; 0x564
     e1c:	00632e67 	rsbeq	r2, r3, r7, ror #28
     e20:	70000001 	andvc	r0, r0, r1
     e24:	00682e6d 	rsbeq	r2, r8, sp, ror #28
     e28:	70000001 	andvc	r0, r0, r1
     e2c:	79745f6d 	ldmdbvc	r4!, {r0, r2, r3, r5, r6, r8, r9, sl, fp, ip, lr}^
     e30:	2e736570 	mrccs	5, 3, r6, cr3, cr0, {3}
     e34:	00010068 	andeq	r0, r1, r8, rrx
     e38:	05000000 	streq	r0, [r0]
     e3c:	002ecc02 	eoreq	ip, lr, r2, lsl #24
     e40:	01120300 	tsteq	r2, r0, lsl #6
     e44:	4d6a4b30 	vstmdbmi	sl!, {d20-<overflow reg d43>}
     e48:	516a4b30 	cmnpl	sl, r0, lsr fp
     e4c:	302f4c13 	eorcc	r4, pc, r3, lsl ip
     e50:	4d312e4d 	ldcmi	14, cr2, [r1, #-308]!	; 0xfffffecc
     e54:	2e4d4b13 	vmovcs.8	d13[0], r4
     e58:	2c304d31 	ldccs	13, cr4, [r0], #-196	; 0xffffff3c
     e5c:	694c2f30 	stmdbvs	ip, {r4, r5, r8, r9, sl, fp, sp}^
     e60:	2f302c30 	svccs	0x00302c30
     e64:	3015694c 	andscc	r6, r5, ip, asr #18
     e68:	4c691431 	cfstrdmi	mvd1, [r9], #-196	; 0xffffff3c
     e6c:	2f6c174d 	svccs	0x006c174d
     e70:	314d4e33 	cmpcc	sp, r3, lsr lr
     e74:	68691531 	stmdavs	r9!, {r0, r4, r5, r8, sl, ip}^
     e78:	4b4e154d 	blmi	13863b4 <__bss_end+0x13820d4>
     e7c:	48303531 	ldmdami	r0!, {r0, r4, r5, r8, sl, ip, sp}
     e80:	7fb40330 	svcvc	0x00b40330
     e84:	00d5034a 	sbcseq	r0, r5, sl, asr #6
     e88:	674b6a4a 	strbvs	r6, [fp, -sl, asr #20]
     e8c:	322c4c67 	eorcc	r4, ip, #26368	; 0x6700
     e90:	30686768 	rsbcc	r6, r8, r8, ror #14
     e94:	2f302f2c 	svccs	0x00302f2c
     e98:	342b312c 	strtcc	r3, [fp], #-300	; 0x12c
     e9c:	89030204 	stmdbhi	r3, {r2, r9}
     ea0:	17034a7f 	smlsdxne	r3, pc, sl, r4
     ea4:	2e69032e 	cdpcs	3, 6, cr0, cr9, cr14, {1}
     ea8:	042b2f52 	strteq	r2, [fp], #-3922	; 0xf52
     eac:	00f10301 	rscseq	r0, r1, r1, lsl #6
     eb0:	0302044a 	movweq	r0, #9290	; 0x244a
     eb4:	4cd67f97 	ldclmi	15, cr7, [r6], {151}	; 0x97
     eb8:	2c32322f 	lfmcs	f3, 4, [r2], #-188	; (ldccs 2, cr3, [r2], #-188)	; 0xffffff44
     ebc:	03010430 	movweq	r0, #5168	; 0x1430
     ec0:	4f2e00de 	svcmi	0x002e00de
     ec4:	79031988 	stmdbvc	r3, {r3, r7, r8, fp, ip}
     ec8:	0204352e 	andeq	r3, r4, #192937984	; 0xb800000
     ecc:	9e7f8003 	cdpls	0, 7, cr8, cr15, cr3, {0}
     ed0:	4c6e2c2d 	stclmi	12, cr2, [lr], #-180	; 0xffffff4c
     ed4:	2c32322f 	lfmcs	f3, 4, [r2], #-188	; (ldccs 2, cr3, [r2], #-188)	; 0xffffff44
     ed8:	03010430 	movweq	r0, #5168	; 0x1430
     edc:	87032e71 	smlsdxhi	r3, r1, lr, r2
     ee0:	03a12e01 	undefined instruction 0x03a12e01
     ee4:	032e7ef6 	teqeq	lr, #3936	; 0xf60
     ee8:	032e018a 	teqeq	lr, #-2147483614	; 0x80000022
     eec:	4d139e25 	ldcmi	14, cr9, [r3, #-148]	; 0xffffff6c
     ef0:	2e09030f 	cdpcs	3, 0, cr0, cr9, cr15, {0}
     ef4:	16696914 	undefined instruction 0x16696914
     ef8:	4d312f4b 	ldcmi	15, cr2, [r1, #-300]!	; 0xfffffed4
     efc:	312f4c15 	teqcc	pc, r5, lsl ip
     f00:	2c303050 	ldccs	0, cr3, [r0], #-320	; 0xfffffec0
     f04:	2f2c3030 	svccs	0x002c3030
     f08:	312f302f 	teqcc	pc, pc, lsr #32
     f0c:	01000402 	tsteq	r0, r2, lsl #8
     f10:	00007901 	andeq	r7, r0, r1, lsl #18
     f14:	45000200 	strmi	r0, [r0, #-512]	; 0x200
     f18:	02000000 	andeq	r0, r0, #0
     f1c:	0d0efb01 	vstreq	d15, [lr, #-4]
     f20:	01010100 	tsteq	r1, r0, lsl #2
     f24:	00000001 	andeq	r0, r0, r1
     f28:	01000001 	tsteq	r0, r1
     f2c:	2e2e2f2e 	cdpcs	15, 2, cr2, cr14, cr14, {1}
     f30:	2e2f2e00 	cdpcs	14, 2, cr2, cr15, cr0, {0}
     f34:	002e2f2e 	eoreq	r2, lr, lr, lsr #30
     f38:	6d656d00 	stclvs	13, cr6, [r5]
     f3c:	756d6d5f 	strbvc	r6, [sp, #-3423]!	; 0xd5f
     f40:	2e63705f 	mcrcs	0, 3, r7, cr3, cr15, {2}
     f44:	00010063 	andeq	r0, r1, r3, rrx
     f48:	2e6d7000 	cdpcs	0, 6, cr7, cr13, cr0, {0}
     f4c:	00020068 	andeq	r0, r2, r8, rrx
     f50:	5f6d7000 	svcpl	0x006d7000
     f54:	65707974 	ldrbvs	r7, [r0, #-2420]!	; 0x974
     f58:	00682e73 	rsbeq	r2, r8, r3, ror lr
     f5c:	00000001 	andeq	r0, r0, r1
     f60:	60020500 	andvs	r0, r2, r0, lsl #10
     f64:	19000032 	stmdbne	r0, {r1, r4, r5}
     f68:	4f4d4c14 	svcmi	0x004d4c14
     f6c:	4c4d4b4b 	mcrrmi	11, 4, r4, sp, cr11
     f70:	4c4c1531 	cfstr64mi	mvdx1, [ip], {49}	; 0x31
     f74:	4b2f4b4e 	blmi	bd3cb4 <__bss_end+0xbcf9d4>
     f78:	131313bb 	tstne	r3, #-335544318	; 0xec000002
     f7c:	2f2f4c32 	svccs	0x002f4c32
     f80:	1703312f 	strne	r3, [r3, -pc, lsr #2]
     f84:	2f30152e 	svccs	0x0030152e
     f88:	00020230 	andeq	r0, r2, r0, lsr r2
     f8c:	00860101 	addeq	r0, r6, r1, lsl #2
     f90:	00020000 	andeq	r0, r2, r0
     f94:	0000002c 	andeq	r0, r0, ip, lsr #32
     f98:	0efb0102 	cdpeq	1, 15, cr0, cr11, cr2, {0}
     f9c:	0101000d 	tsteq	r1, sp
     fa0:	00000101 	andeq	r0, r0, r1, lsl #2
     fa4:	00000100 	andeq	r0, r0, r0, lsl #2
     fa8:	2e2f2e01 	cdpcs	14, 2, cr2, cr15, cr1, {0}
     fac:	6d00002e 	stcvs	0, cr0, [r0, #-184]	; 0xffffff48
     fb0:	6d5f6d65 	ldclvs	13, cr6, [pc, #-404]	; 0xfffffe6c
     fb4:	705f756d 	subsvc	r7, pc, sp, ror #10
     fb8:	73615f63 	cmnvc	r1, #396	; 0x18c
     fbc:	00532e6d 	subseq	r2, r3, sp, ror #28
     fc0:	00000001 	andeq	r0, r0, r1
     fc4:	20020500 	andcs	r0, r2, r0, lsl #10
     fc8:	17000033 	smladxne	r0, r3, r0, r0
     fcc:	2f2f2f2f 	svccs	0x002f2f2f
     fd0:	2f2f302f 	svccs	0x002f302f
     fd4:	2f2f2f2f 	svccs	0x002f2f2f
     fd8:	2f2f2f2f 	svccs	0x002f2f2f
     fdc:	2f2f2f2f 	svccs	0x002f2f2f
     fe0:	2f2f3030 	svccs	0x002f3030
     fe4:	2f2f2f2f 	svccs	0x002f2f2f
     fe8:	302f2f30 	eorcc	r2, pc, r0, lsr pc
     fec:	302f2f30 	eorcc	r2, pc, r0, lsr pc
     ff0:	2f2f2f8a 	svccs	0x002f2f8a
     ff4:	512f2f2f 	teqpl	pc, pc, lsr #30
     ff8:	2f2f6d2f 	svccs	0x002f6d2f
     ffc:	2f2f3030 	svccs	0x002f3030
    1000:	6c2f2f30 	stcvs	15, cr2, [pc], #-192	; 0xffffff40
    1004:	2f2f6d2f 	svccs	0x002f6d2f
    1008:	2f2f2f2f 	svccs	0x002f2f2f
    100c:	2f2f2f2f 	svccs	0x002f2f2f
    1010:	022f2f2f 	eoreq	r2, pc, #188	; 0xbc
    1014:	01010006 	tsteq	r1, r6
    1018:	000000ed 	andeq	r0, r0, sp, ror #1
    101c:	00470002 	subeq	r0, r7, r2
    1020:	01020000 	tsteq	r2, r0
    1024:	000d0efb 	strdeq	r0, [sp], -fp
    1028:	01010101 	tsteq	r1, r1, lsl #2
    102c:	01000000 	tsteq	r0, r0
    1030:	2e010000 	cdpcs	0, 0, cr0, cr1, cr0, {0}
    1034:	002e2e2f 	eoreq	r2, lr, pc, lsr #28
    1038:	2e2e2f2e 	cdpcs	15, 2, cr2, cr14, cr14, {1}
    103c:	00002e2f 	andeq	r2, r0, pc, lsr #28
    1040:	5f6d656d 	svcpl	0x006d656d
    1044:	2e757063 	cdpcs	0, 7, cr7, cr5, cr3, {3}
    1048:	00010063 	andeq	r0, r1, r3, rrx
    104c:	6d656d00 	stclvs	13, cr6, [r5]
    1050:	7570635f 	ldrbvc	r6, [r0, #-863]!	; 0x35f
    1054:	0200682e 	andeq	r6, r0, #3014656	; 0x2e0000
    1058:	6d700000 	ldclvs	0, cr0, [r0]
    105c:	7079745f 	rsbsvc	r7, r9, pc, asr r4
    1060:	682e7365 	stmdavs	lr!, {r0, r2, r5, r6, r8, r9, ip, sp, lr}
    1064:	00000100 	andeq	r0, r0, r0, lsl #2
    1068:	02050000 	andeq	r0, r5, #0
    106c:	00003470 	andeq	r3, r0, r0, ror r4
    1070:	0100cf03 	tsteq	r0, r3, lsl #30
    1074:	03f3f716 	mvnseq	pc, #5767168	; 0x580000
    1078:	f3f3f20c 	vsubl.u<illegal width 64>	<illegal reg q15.5>, d3, d12
    107c:	f3f3f6f6 	vqshlu.s64	<illegal reg q15.5>, q11, #51	; 0x33
    1080:	f6f3f6f3 	undefined instruction 0xf6f3f6f3
    1084:	f3f3f3f6 	vrsra.u64	<illegal reg q15.5>, q11, #13
    1088:	f3f3f6f6 	vqshlu.s64	<illegal reg q15.5>, q11, #51	; 0x33
    108c:	f3f3f3f3 	vrsra.u64	<illegal reg q15.5>, <illegal reg q9.5>, #13
    1090:	f6f7f3f6 	undefined instruction 0xf6f7f3f6
    1094:	f3f5f3f4 	vrsra.u64	<illegal reg q15.5>, q10, #11
    1098:	f3f3f3f3 	vrsra.u64	<illegal reg q15.5>, <illegal reg q9.5>, #13
    109c:	0903f3f6 	stmdbeq	r3, {r1, r2, r4, r5, r6, r7, r8, r9, ip, sp, lr, pc}
    10a0:	f3f3f3f2 	vrsra.u64	<illegal reg q15.5>, q9, #13
    10a4:	1431f9f3 	ldrtne	pc, [r1], #-2547	; 0x9f3
    10a8:	f20b03f7 	vcge.s8	q0, <illegal reg q13.5>, <illegal reg q11.5>
    10ac:	f32f2ff3 	undefined instruction 0xf32f2ff3
    10b0:	2ff32f2f 	svccs	0x00f32f2f
    10b4:	1103f432 	tstpne	r3, r2, lsr r4
    10b8:	f4f3f3f2 	undefined instruction 0xf4f3f3f2
    10bc:	f20a03f3 	vcge.s8	q0, q13, <illegal reg q9.5>
    10c0:	f3f3f5f3 	vsli.64	<illegal reg q15.5>, <illegal reg q9.5>, #51	; 0x33
    10c4:	f6f3f3f3 	undefined instruction 0xf6f3f3f3
    10c8:	f3f3f9f3 	undefined instruction 0xf3f3f9f3
    10cc:	2ff9f3f3 	svccs	0x00f9f3f3
    10d0:	31143130 	tstcc	r4, r0, lsr r1
    10d4:	312f4c14 	teqcc	pc, r4, lsl ip
    10d8:	4b4d154d 	blmi	1346614 <__bss_end+0x1342334>
    10dc:	2f2f4b4c 	svccs	0x002f4b4c
    10e0:	302f3033 	eorcc	r3, pc, r3, lsr r0
    10e4:	2f2f2f30 	svccs	0x002f2f30
    10e8:	03302f30 	teqeq	r0, #192	; 0xc0
    10ec:	2f2f2e0d 	svccs	0x002f2e0d
    10f0:	4c4d2f30 	mcrrmi	15, 3, r2, sp, cr0
    10f4:	4b4d4b30 	blmi	1353dbc <__bss_end+0x134fadc>
    10f8:	2f2f2f2f 	svccs	0x002f2f2f
    10fc:	2f312f31 	svccs	0x00312f31
    1100:	302f2f2f 	eorcc	r2, pc, pc, lsr #30
    1104:	01000802 	tsteq	r0, r2, lsl #16
    1108:	Address 0x00001108 is out of bounds.


Disassembly of section .debug_frame:

00000000 <.debug_frame>:
   0:	0000000c 	andeq	r0, r0, ip
   4:	ffffffff 	undefined instruction 0xffffffff
   8:	7c010001 	stcvc	0, cr0, [r1], {1}
   c:	000d0c0e 	andeq	r0, sp, lr, lsl #24
  10:	0000001c 	andeq	r0, r0, ip, lsl r0
	...
  1c:	000001e0 	andeq	r0, r0, r0, ror #3
  20:	11100e50 	tstne	r0, r0, asr lr
  24:	0611010e 	ldreq	r0, [r1], -lr, lsl #2
  28:	03051102 	movweq	r1, #20738	; 0x5102
  2c:	00040411 	andeq	r0, r4, r1, lsl r4
  30:	0000000c 	andeq	r0, r0, ip
  34:	ffffffff 	undefined instruction 0xffffffff
  38:	7c010001 	stcvc	0, cr0, [r1], {1}
  3c:	000d0c0e 	andeq	r0, sp, lr, lsl #24
  40:	0000000c 	andeq	r0, r0, ip
  44:	00000030 	andeq	r0, r0, r0, lsr r0
  48:	000001e0 	andeq	r0, r0, r0, ror #3
  4c:	00000024 	andeq	r0, r0, r4, lsr #32
  50:	0000000c 	andeq	r0, r0, ip
  54:	ffffffff 	undefined instruction 0xffffffff
  58:	7c010001 	stcvc	0, cr0, [r1], {1}
  5c:	000d0c0e 	andeq	r0, sp, lr, lsl #24
  60:	0000000c 	andeq	r0, r0, ip
  64:	00000050 	andeq	r0, r0, r0, asr r0
  68:	00000720 	andeq	r0, r0, r0, lsr #14
  6c:	00000050 	andeq	r0, r0, r0, asr r0
  70:	0000000c 	andeq	r0, r0, ip
  74:	00000050 	andeq	r0, r0, r0, asr r0
  78:	00000770 	andeq	r0, r0, r0, ror r7
  7c:	00000098 	muleq	r0, r8, r0
  80:	0000000c 	andeq	r0, r0, ip
  84:	00000050 	andeq	r0, r0, r0, asr r0
  88:	00000808 	andeq	r0, r0, r8, lsl #16
  8c:	0000005c 	andeq	r0, r0, ip, asr r0
  90:	00000018 	andeq	r0, r0, r8, lsl r0
  94:	00000050 	andeq	r0, r0, r0, asr r0
  98:	00000864 	andeq	r0, r0, r4, ror #16
  9c:	000002d8 	ldrdeq	r0, [r0], -r8
  a0:	11080e48 	tstne	r8, r8, asr #28
  a4:	0411010e 	ldreq	r0, [r1], #-270	; 0x10e
  a8:	00000002 	andeq	r0, r0, r2
  ac:	0000001c 	andeq	r0, r0, ip, lsl r0
  b0:	00000050 	andeq	r0, r0, r0, asr r0
  b4:	00000b3c 	andeq	r0, r0, ip, lsr fp
  b8:	00000320 	andeq	r0, r0, r0, lsr #6
  bc:	11100e48 	tstne	r0, r8, asr #28
  c0:	0611010e 	ldreq	r0, [r1], -lr, lsl #2
  c4:	03051102 	movweq	r1, #20738	; 0x5102
  c8:	00040411 	andeq	r0, r4, r1, lsl r4
  cc:	00000018 	andeq	r0, r0, r8, lsl r0
  d0:	00000050 	andeq	r0, r0, r0, asr r0
  d4:	00000e5c 	andeq	r0, r0, ip, asr lr
  d8:	00000050 	andeq	r0, r0, r0, asr r0
  dc:	11080e44 	tstne	r8, r4, asr #28
  e0:	0411010e 	ldreq	r0, [r1], #-270	; 0x10e
  e4:	00000002 	andeq	r0, r0, r2
  e8:	0000000c 	andeq	r0, r0, ip
  ec:	ffffffff 	undefined instruction 0xffffffff
  f0:	7c010001 	stcvc	0, cr0, [r1], {1}
  f4:	000d0c0e 	andeq	r0, sp, lr, lsl #24
  f8:	0000000c 	andeq	r0, r0, ip
  fc:	000000e8 	andeq	r0, r0, r8, ror #1
 100:	00000ed4 	ldrdeq	r0, [r0], -r4
 104:	0000001c 	andeq	r0, r0, ip, lsl r0
 108:	0000000c 	andeq	r0, r0, ip
 10c:	000000e8 	andeq	r0, r0, r8, ror #1
 110:	00000ef0 	strdeq	r0, [r0], -r0
 114:	0000005c 	andeq	r0, r0, ip, asr r0
 118:	0000000c 	andeq	r0, r0, ip
 11c:	000000e8 	andeq	r0, r0, r8, ror #1
 120:	00000f4c 	andeq	r0, r0, ip, asr #30
 124:	0000005c 	andeq	r0, r0, ip, asr r0
 128:	0000000c 	andeq	r0, r0, ip
 12c:	000000e8 	andeq	r0, r0, r8, ror #1
 130:	00000fa8 	andeq	r0, r0, r8, lsr #31
 134:	00000064 	andeq	r0, r0, r4, rrx
 138:	0000000c 	andeq	r0, r0, ip
 13c:	000000e8 	andeq	r0, r0, r8, ror #1
 140:	0000100c 	andeq	r1, r0, ip
 144:	0000005c 	andeq	r0, r0, ip, asr r0
 148:	0000000c 	andeq	r0, r0, ip
 14c:	000000e8 	andeq	r0, r0, r8, ror #1
 150:	00001068 	andeq	r1, r0, r8, rrx
 154:	00000060 	andeq	r0, r0, r0, rrx
 158:	0000000c 	andeq	r0, r0, ip
 15c:	000000e8 	andeq	r0, r0, r8, ror #1
 160:	000010c8 	andeq	r1, r0, r8, asr #1
 164:	00000050 	andeq	r0, r0, r0, asr r0
 168:	0000000c 	andeq	r0, r0, ip
 16c:	000000e8 	andeq	r0, r0, r8, ror #1
 170:	00001118 	andeq	r1, r0, r8, lsl r1
 174:	00000030 	andeq	r0, r0, r0, lsr r0
 178:	0000000c 	andeq	r0, r0, ip
 17c:	ffffffff 	undefined instruction 0xffffffff
 180:	7c010001 	stcvc	0, cr0, [r1], {1}
 184:	000d0c0e 	andeq	r0, sp, lr, lsl #24
 188:	0000001c 	andeq	r0, r0, ip, lsl r0
 18c:	00000178 	andeq	r0, r0, r8, ror r1
 190:	00001148 	andeq	r1, r0, r8, asr #2
 194:	000000a0 	andeq	r0, r0, r0, lsr #1
 198:	11100e44 	tstne	r0, r4, asr #28
 19c:	0411010e 	ldreq	r0, [r1], #-270	; 0x10e
 1a0:	03011102 	movweq	r1, #4354	; 0x1102
 1a4:	00040011 	andeq	r0, r4, r1, lsl r0
 1a8:	0000001c 	andeq	r0, r0, ip, lsl r0
 1ac:	00000178 	andeq	r0, r0, r8, ror r1
 1b0:	000011e8 	andeq	r1, r0, r8, ror #3
 1b4:	000000a0 	andeq	r0, r0, r0, lsr #1
 1b8:	11100e44 	tstne	r0, r4, asr #28
 1bc:	0411010e 	ldreq	r0, [r1], #-270	; 0x10e
 1c0:	03011102 	movweq	r1, #4354	; 0x1102
 1c4:	00040011 	andeq	r0, r4, r1, lsl r0
 1c8:	00000024 	andeq	r0, r0, r4, lsr #32
 1cc:	00000178 	andeq	r0, r0, r8, ror r1
 1d0:	00001288 	andeq	r1, r0, r8, lsl #5
 1d4:	00000314 	andeq	r0, r0, r4, lsl r3
 1d8:	11180e48 	tstne	r8, r8, asr #28
 1dc:	0511010e 	ldreq	r0, [r1, #-270]	; 0x10e
 1e0:	03041102 	movweq	r1, #16642	; 0x4102
 1e4:	11040211 	tstne	r4, r1, lsl r2
 1e8:	00110501 	andseq	r0, r1, r1, lsl #10
 1ec:	00000006 	andeq	r0, r0, r6
 1f0:	00000024 	andeq	r0, r0, r4, lsr #32
 1f4:	00000178 	andeq	r0, r0, r8, ror r1
 1f8:	0000159c 	muleq	r0, ip, r5
 1fc:	000000a8 	andeq	r0, r0, r8, lsr #1
 200:	11180e48 	tstne	r8, r8, asr #28
 204:	0511010e 	ldreq	r0, [r1, #-270]	; 0x10e
 208:	03041102 	movweq	r1, #16642	; 0x4102
 20c:	11040211 	tstne	r4, r1, lsl r2
 210:	00110501 	andseq	r0, r1, r1, lsl #10
 214:	00000006 	andeq	r0, r0, r6
 218:	00000028 	andeq	r0, r0, r8, lsr #32
 21c:	00000178 	andeq	r0, r0, r8, ror r1
 220:	00001644 	andeq	r1, r0, r4, asr #12
 224:	000001f4 	strdeq	r0, [r0], -r4
 228:	11200e48 	teqne	r0, r8, asr #28
 22c:	0811010e 	ldmdaeq	r1, {r1, r2, r3, r8}
 230:	03071102 	movweq	r1, #28930	; 0x7102
 234:	11040611 	tstne	r4, r1, lsl r6
 238:	04110505 	ldreq	r0, [r1], #-1285	; 0x505
 23c:	07011106 	streq	r1, [r1, -r6, lsl #2]
 240:	00080011 	andeq	r0, r8, r1, lsl r0
 244:	00000024 	andeq	r0, r0, r4, lsr #32
 248:	00000178 	andeq	r0, r0, r8, ror r1
 24c:	00001838 	andeq	r1, r0, r8, lsr r8
 250:	00000800 	andeq	r0, r0, r0, lsl #16
 254:	11180e44 	tstne	r8, r4, asr #28
 258:	0511010e 	ldreq	r0, [r1, #-270]	; 0x10e
 25c:	03041102 	movweq	r1, #16642	; 0x4102
 260:	11040211 	tstne	r4, r1, lsl r2
 264:	00110501 	andseq	r0, r1, r1, lsl #10
 268:	00000006 	andeq	r0, r0, r6
 26c:	0000000c 	andeq	r0, r0, ip
 270:	ffffffff 	undefined instruction 0xffffffff
 274:	7c010001 	stcvc	0, cr0, [r1], {1}
 278:	000d0c0e 	andeq	r0, sp, lr, lsl #24
 27c:	0000002c 	andeq	r0, r0, ip, lsr #32
 280:	0000026c 	andeq	r0, r0, ip, ror #4
 284:	00002038 	andeq	r2, r0, r8, lsr r0
 288:	0000009c 	muleq	r0, ip, r0
 28c:	11240e54 	teqne	r4, r4, asr lr
 290:	0b11010e 	bleq	4406d0 <__bss_end+0x43c3f0>
 294:	030a1102 	movweq	r1, #41218	; 0xa102
 298:	11040911 	tstne	r4, r1, lsl r9
 29c:	07110508 	ldreq	r0, [r1, -r8, lsl #10]
 2a0:	07061106 	streq	r1, [r6, -r6, lsl #2]
 2a4:	11080511 	tstne	r8, r1, lsl r5
 2a8:	00000904 	andeq	r0, r0, r4, lsl #18
 2ac:	0000000c 	andeq	r0, r0, ip
 2b0:	0000026c 	andeq	r0, r0, ip, ror #4
 2b4:	000020d4 	ldrdeq	r2, [r0], -r4
 2b8:	0000005c 	andeq	r0, r0, ip, asr r0
 2bc:	00000018 	andeq	r0, r0, r8, lsl r0
 2c0:	0000026c 	andeq	r0, r0, ip, ror #4
 2c4:	00002130 	andeq	r2, r0, r0, lsr r1
 2c8:	00000048 	andeq	r0, r0, r8, asr #32
 2cc:	11080e54 	tstne	r8, r4, asr lr
 2d0:	0411010e 	ldreq	r0, [r1], #-270	; 0x10e
 2d4:	00000002 	andeq	r0, r0, r2
 2d8:	0000000c 	andeq	r0, r0, ip
 2dc:	0000026c 	andeq	r0, r0, ip, ror #4
 2e0:	00002178 	andeq	r2, r0, r8, ror r1
 2e4:	00000030 	andeq	r0, r0, r0, lsr r0
 2e8:	0000000c 	andeq	r0, r0, ip
 2ec:	ffffffff 	undefined instruction 0xffffffff
 2f0:	7c010001 	stcvc	0, cr0, [r1], {1}
 2f4:	000d0c0e 	andeq	r0, sp, lr, lsl #24
 2f8:	0000000c 	andeq	r0, r0, ip
 2fc:	000002e8 	andeq	r0, r0, r8, ror #5
 300:	000021a8 	andeq	r2, r0, r8, lsr #3
 304:	00000018 	andeq	r0, r0, r8, lsl r0
 308:	0000000c 	andeq	r0, r0, ip
 30c:	000002e8 	andeq	r0, r0, r8, ror #5
 310:	000021c0 	andeq	r2, r0, r0, asr #3
 314:	00000028 	andeq	r0, r0, r8, lsr #32
 318:	0000000c 	andeq	r0, r0, ip
 31c:	ffffffff 	undefined instruction 0xffffffff
 320:	7c010001 	stcvc	0, cr0, [r1], {1}
 324:	000d0c0e 	andeq	r0, sp, lr, lsl #24
 328:	0000000c 	andeq	r0, r0, ip
 32c:	00000318 	andeq	r0, r0, r8, lsl r3
 330:	000021e8 	andeq	r2, r0, r8, ror #3
 334:	00000028 	andeq	r0, r0, r8, lsr #32
 338:	0000000c 	andeq	r0, r0, ip
 33c:	00000318 	andeq	r0, r0, r8, lsl r3
 340:	00002210 	andeq	r2, r0, r0, lsl r2
 344:	00000020 	andeq	r0, r0, r0, lsr #32
 348:	00000018 	andeq	r0, r0, r8, lsl r0
 34c:	00000318 	andeq	r0, r0, r8, lsl r3
 350:	00002230 	andeq	r2, r0, r0, lsr r2
 354:	00000048 	andeq	r0, r0, r8, asr #32
 358:	11080e48 	tstne	r8, r8, asr #28
 35c:	0411010e 	ldreq	r0, [r1], #-270	; 0x10e
 360:	00000002 	andeq	r0, r0, r2
 364:	0000000c 	andeq	r0, r0, ip
 368:	00000318 	andeq	r0, r0, r8, lsl r3
 36c:	00002278 	andeq	r2, r0, r8, ror r2
 370:	00000028 	andeq	r0, r0, r8, lsr #32
 374:	0000000c 	andeq	r0, r0, ip
 378:	00000318 	andeq	r0, r0, r8, lsl r3
 37c:	000022a0 	andeq	r2, r0, r0, lsr #5
 380:	00000020 	andeq	r0, r0, r0, lsr #32
 384:	0000000c 	andeq	r0, r0, ip
 388:	00000318 	andeq	r0, r0, r8, lsl r3
 38c:	000022c0 	andeq	r2, r0, r0, asr #5
 390:	00000004 	andeq	r0, r0, r4
 394:	00000018 	andeq	r0, r0, r8, lsl r0
 398:	00000318 	andeq	r0, r0, r8, lsl r3
 39c:	000022c4 	andeq	r2, r0, r4, asr #5
 3a0:	00000030 	andeq	r0, r0, r0, lsr r0
 3a4:	11080e44 	tstne	r8, r4, asr #28
 3a8:	0411010e 	ldreq	r0, [r1], #-270	; 0x10e
 3ac:	00000002 	andeq	r0, r0, r2
 3b0:	0000000c 	andeq	r0, r0, ip
 3b4:	00000318 	andeq	r0, r0, r8, lsl r3
 3b8:	000022f4 	strdeq	r2, [r0], -r4
 3bc:	00000030 	andeq	r0, r0, r0, lsr r0
 3c0:	0000000c 	andeq	r0, r0, ip
 3c4:	00000318 	andeq	r0, r0, r8, lsl r3
 3c8:	00002324 	andeq	r2, r0, r4, lsr #6
 3cc:	00000004 	andeq	r0, r0, r4
 3d0:	0000000c 	andeq	r0, r0, ip
 3d4:	00000318 	andeq	r0, r0, r8, lsl r3
 3d8:	00002328 	andeq	r2, r0, r8, lsr #6
 3dc:	00000030 	andeq	r0, r0, r0, lsr r0
 3e0:	0000000c 	andeq	r0, r0, ip
 3e4:	00000318 	andeq	r0, r0, r8, lsl r3
 3e8:	00002358 	andeq	r2, r0, r8, asr r3
 3ec:	00000004 	andeq	r0, r0, r4
 3f0:	0000000c 	andeq	r0, r0, ip
 3f4:	00000318 	andeq	r0, r0, r8, lsl r3
 3f8:	0000235c 	andeq	r2, r0, ip, asr r3
 3fc:	00000004 	andeq	r0, r0, r4
 400:	00000018 	andeq	r0, r0, r8, lsl r0
 404:	00000318 	andeq	r0, r0, r8, lsl r3
 408:	00002360 	andeq	r2, r0, r0, ror #6
 40c:	00000078 	andeq	r0, r0, r8, ror r0
 410:	11080e44 	tstne	r8, r4, asr #28
 414:	0411010e 	ldreq	r0, [r1], #-270	; 0x10e
 418:	00000002 	andeq	r0, r0, r2
 41c:	0000000c 	andeq	r0, r0, ip
 420:	00000318 	andeq	r0, r0, r8, lsl r3
 424:	000023d8 	ldrdeq	r2, [r0], -r8
 428:	00000004 	andeq	r0, r0, r4
 42c:	0000000c 	andeq	r0, r0, ip
 430:	00000318 	andeq	r0, r0, r8, lsl r3
 434:	000023dc 	ldrdeq	r2, [r0], -ip
 438:	00000030 	andeq	r0, r0, r0, lsr r0
 43c:	00000018 	andeq	r0, r0, r8, lsl r0
 440:	00000318 	andeq	r0, r0, r8, lsl r3
 444:	0000240c 	andeq	r2, r0, ip, lsl #8
 448:	00000074 	andeq	r0, r0, r4, ror r0
 44c:	11080e48 	tstne	r8, r8, asr #28
 450:	0411010e 	ldreq	r0, [r1], #-270	; 0x10e
 454:	00000002 	andeq	r0, r0, r2
 458:	0000000c 	andeq	r0, r0, ip
 45c:	00000318 	andeq	r0, r0, r8, lsl r3
 460:	00002480 	andeq	r2, r0, r0, lsl #9
 464:	00000004 	andeq	r0, r0, r4
 468:	00000028 	andeq	r0, r0, r8, lsr #32
 46c:	00000318 	andeq	r0, r0, r8, lsl r3
 470:	00002484 	andeq	r2, r0, r4, lsl #9
 474:	000000bc 	strheq	r0, [r0], -ip
 478:	11200e44 	teqne	r0, r4, asr #28
 47c:	0711010e 	ldreq	r0, [r1, -lr, lsl #2]
 480:	03061102 	movweq	r1, #24834	; 0x6102
 484:	11040511 	tstne	r4, r1, lsl r5
 488:	02110504 	andseq	r0, r1, #16777216	; 0x1000000
 48c:	07011106 	streq	r1, [r1, -r6, lsl #2]
 490:	00080011 	andeq	r0, r8, r1, lsl r0
 494:	00000030 	andeq	r0, r0, r0, lsr r0
 498:	00000318 	andeq	r0, r0, r8, lsl r3
 49c:	00002540 	andeq	r2, r0, r0, asr #10
 4a0:	00000150 	andeq	r0, r0, r0, asr r1
 4a4:	44240e48 	strtmi	r0, [r4], #-3656	; 0xe48
 4a8:	0e11480e 	cdpeq	8, 1, cr4, cr1, cr14, {0}
 4ac:	020b1101 	andeq	r1, fp, #1073741824	; 0x40000000
 4b0:	11030a11 	tstne	r3, r1, lsl sl
 4b4:	08110409 	ldmdaeq	r1, {r0, r3, sl}
 4b8:	06071105 	streq	r1, [r7], -r5, lsl #2
 4bc:	11070611 	tstne	r7, r1, lsl r6
 4c0:	04110805 	ldreq	r0, [r1], #-2053	; 0x805
 4c4:	00000009 	andeq	r0, r0, r9
 4c8:	0000000c 	andeq	r0, r0, ip
 4cc:	00000318 	andeq	r0, r0, r8, lsl r3
 4d0:	00002690 	muleq	r0, r0, r6
 4d4:	00000004 	andeq	r0, r0, r4
 4d8:	0000000c 	andeq	r0, r0, ip
 4dc:	ffffffff 	undefined instruction 0xffffffff
 4e0:	7c010001 	stcvc	0, cr0, [r1], {1}
 4e4:	000d0c0e 	andeq	r0, sp, lr, lsl #24
 4e8:	0000000c 	andeq	r0, r0, ip
 4ec:	000004d8 	ldrdeq	r0, [r0], -r8
 4f0:	00002694 	muleq	r0, r4, r6
 4f4:	00000020 	andeq	r0, r0, r0, lsr #32
 4f8:	0000000c 	andeq	r0, r0, ip
 4fc:	000004d8 	ldrdeq	r0, [r0], -r8
 500:	000026b4 	undefined instruction 0x000026b4
 504:	00000018 	andeq	r0, r0, r8, lsl r0
 508:	0000000c 	andeq	r0, r0, ip
 50c:	000004d8 	ldrdeq	r0, [r0], -r8
 510:	000026cc 	andeq	r2, r0, ip, asr #13
 514:	00000018 	andeq	r0, r0, r8, lsl r0
 518:	0000000c 	andeq	r0, r0, ip
 51c:	000004d8 	ldrdeq	r0, [r0], -r8
 520:	000026e4 	andeq	r2, r0, r4, ror #13
 524:	0000005c 	andeq	r0, r0, ip, asr r0
 528:	0000000c 	andeq	r0, r0, ip
 52c:	000004d8 	ldrdeq	r0, [r0], -r8
 530:	00002740 	andeq	r2, r0, r0, asr #14
 534:	00000034 	andeq	r0, r0, r4, lsr r0
 538:	0000000c 	andeq	r0, r0, ip
 53c:	000004d8 	ldrdeq	r0, [r0], -r8
 540:	00002774 	andeq	r2, r0, r4, ror r7
 544:	00000008 	andeq	r0, r0, r8
 548:	0000000c 	andeq	r0, r0, ip
 54c:	000004d8 	ldrdeq	r0, [r0], -r8
 550:	0000277c 	andeq	r2, r0, ip, ror r7
 554:	00000038 	andeq	r0, r0, r8, lsr r0
 558:	0000000c 	andeq	r0, r0, ip
 55c:	000004d8 	ldrdeq	r0, [r0], -r8
 560:	000027b4 	undefined instruction 0x000027b4
 564:	00000024 	andeq	r0, r0, r4, lsr #32
 568:	0000000c 	andeq	r0, r0, ip
 56c:	000004d8 	ldrdeq	r0, [r0], -r8
 570:	000027d8 	ldrdeq	r2, [r0], -r8
 574:	00000034 	andeq	r0, r0, r4, lsr r0
 578:	0000000c 	andeq	r0, r0, ip
 57c:	000004d8 	ldrdeq	r0, [r0], -r8
 580:	0000280c 	andeq	r2, r0, ip, lsl #16
 584:	00000074 	andeq	r0, r0, r4, ror r0
 588:	0000000c 	andeq	r0, r0, ip
 58c:	000004d8 	ldrdeq	r0, [r0], -r8
 590:	00002880 	andeq	r2, r0, r0, lsl #17
 594:	00000008 	andeq	r0, r0, r8
 598:	0000000c 	andeq	r0, r0, ip
 59c:	000004d8 	ldrdeq	r0, [r0], -r8
 5a0:	00002888 	andeq	r2, r0, r8, lsl #17
 5a4:	00000008 	andeq	r0, r0, r8
 5a8:	0000000c 	andeq	r0, r0, ip
 5ac:	000004d8 	ldrdeq	r0, [r0], -r8
 5b0:	00002890 	muleq	r0, r0, r8
 5b4:	00000004 	andeq	r0, r0, r4
 5b8:	0000000c 	andeq	r0, r0, ip
 5bc:	000004d8 	ldrdeq	r0, [r0], -r8
 5c0:	00002894 	muleq	r0, r4, r8
 5c4:	00000020 	andeq	r0, r0, r0, lsr #32
 5c8:	0000000c 	andeq	r0, r0, ip
 5cc:	000004d8 	ldrdeq	r0, [r0], -r8
 5d0:	000028b4 	undefined instruction 0x000028b4
 5d4:	00000034 	andeq	r0, r0, r4, lsr r0
 5d8:	0000000c 	andeq	r0, r0, ip
 5dc:	000004d8 	ldrdeq	r0, [r0], -r8
 5e0:	000028e8 	andeq	r2, r0, r8, ror #17
 5e4:	00000038 	andeq	r0, r0, r8, lsr r0
 5e8:	0000000c 	andeq	r0, r0, ip
 5ec:	000004d8 	ldrdeq	r0, [r0], -r8
 5f0:	00002920 	andeq	r2, r0, r0, lsr #18
 5f4:	00000010 	andeq	r0, r0, r0, lsl r0
 5f8:	00000030 	andeq	r0, r0, r0, lsr r0
 5fc:	000004d8 	ldrdeq	r0, [r0], -r8
 600:	00002930 	andeq	r2, r0, r0, lsr r9
 604:	0000010c 	andeq	r0, r0, ip, lsl #2
 608:	11280e4c 	teqne	r8, ip, asr #28
 60c:	0b11010e 	bleq	440a4c <__bss_end+0x43c76c>
 610:	030a1102 	movweq	r1, #41218	; 0xa102
 614:	11040911 	tstne	r4, r1, lsl r9
 618:	07110508 	ldreq	r0, [r1, -r8, lsl #10]
 61c:	07061106 	streq	r1, [r6, -r6, lsl #2]
 620:	11080511 	tstne	r8, r1, lsl r5
 624:	00110904 	andseq	r0, r1, r4, lsl #18
 628:	0000000a 	andeq	r0, r0, sl
 62c:	0000000c 	andeq	r0, r0, ip
 630:	000004d8 	ldrdeq	r0, [r0], -r8
 634:	00002a3c 	andeq	r2, r0, ip, lsr sl
 638:	00000004 	andeq	r0, r0, r4
 63c:	00000018 	andeq	r0, r0, r8, lsl r0
 640:	000004d8 	ldrdeq	r0, [r0], -r8
 644:	00002a40 	andeq	r2, r0, r0, asr #20
 648:	000000c0 	andeq	r0, r0, r0, asr #1
 64c:	11080e4c 	tstne	r8, ip, asr #28
 650:	0411010e 	ldreq	r0, [r1], #-270	; 0x10e
 654:	00000002 	andeq	r0, r0, r2
 658:	00000018 	andeq	r0, r0, r8, lsl r0
 65c:	000004d8 	ldrdeq	r0, [r0], -r8
 660:	00002b00 	andeq	r2, r0, r0, lsl #22
 664:	00000054 	andeq	r0, r0, r4, asr r0
 668:	11080e44 	tstne	r8, r4, asr #28
 66c:	0411010e 	ldreq	r0, [r1], #-270	; 0x10e
 670:	00000002 	andeq	r0, r0, r2
 674:	00000018 	andeq	r0, r0, r8, lsl r0
 678:	000004d8 	ldrdeq	r0, [r0], -r8
 67c:	00002b54 	andeq	r2, r0, r4, asr fp
 680:	00000030 	andeq	r0, r0, r0, lsr r0
 684:	11080e44 	tstne	r8, r4, asr #28
 688:	0411010e 	ldreq	r0, [r1], #-270	; 0x10e
 68c:	00000002 	andeq	r0, r0, r2
 690:	00000024 	andeq	r0, r0, r4, lsr #32
 694:	000004d8 	ldrdeq	r0, [r0], -r8
 698:	00002b84 	andeq	r2, r0, r4, lsl #23
 69c:	0000025c 	andeq	r0, r0, ip, asr r2
 6a0:	11180e44 	tstne	r8, r4, asr #28
 6a4:	0811010e 	ldmdaeq	r1, {r1, r2, r3, r8}
 6a8:	03071102 	movweq	r1, #28930	; 0x7102
 6ac:	11040611 	tstne	r4, r1, lsl r6
 6b0:	04110505 	ldreq	r0, [r1], #-1285	; 0x505
 6b4:	00000006 	andeq	r0, r0, r6
 6b8:	00000028 	andeq	r0, r0, r8, lsr #32
 6bc:	000004d8 	ldrdeq	r0, [r0], -r8
 6c0:	00002de0 	andeq	r2, r0, r0, ror #27
 6c4:	000000ec 	andeq	r0, r0, ip, ror #1
 6c8:	441c0e44 	ldrmi	r0, [ip], #-3652	; 0xe44
 6cc:	0e11700e 	cdpeq	0, 1, cr7, cr1, cr14, {0}
 6d0:	02091101 	andeq	r1, r9, #1073741824	; 0x40000000
 6d4:	11030811 	tstne	r3, r1, lsl r8
 6d8:	06110407 	ldreq	r0, [r1], -r7, lsl #8
 6dc:	06051105 	streq	r1, [r5], -r5, lsl #2
 6e0:	00070411 	andeq	r0, r7, r1, lsl r4
 6e4:	0000000c 	andeq	r0, r0, ip
 6e8:	ffffffff 	undefined instruction 0xffffffff
 6ec:	7c010001 	stcvc	0, cr0, [r1], {1}
 6f0:	000d0c0e 	andeq	r0, sp, lr, lsl #24
 6f4:	00000010 	andeq	r0, r0, r0, lsl r0
 6f8:	000006e4 	andeq	r0, r0, r4, ror #13
 6fc:	00002ecc 	andeq	r2, r0, ip, asr #29
 700:	00000020 	andeq	r0, r0, r0, lsr #32
 704:	00080e44 	andeq	r0, r8, r4, asr #28
 708:	00000010 	andeq	r0, r0, r0, lsl r0
 70c:	000006e4 	andeq	r0, r0, r4, ror #13
 710:	00002eec 	andeq	r2, r0, ip, ror #29
 714:	00000020 	andeq	r0, r0, r0, lsr #32
 718:	00080e44 	andeq	r0, r8, r4, asr #28
 71c:	0000000c 	andeq	r0, r0, ip
 720:	000006e4 	andeq	r0, r0, r4, ror #13
 724:	00002f0c 	andeq	r2, r0, ip, lsl #30
 728:	00000018 	andeq	r0, r0, r8, lsl r0
 72c:	00000010 	andeq	r0, r0, r0, lsl r0
 730:	000006e4 	andeq	r0, r0, r4, ror #13
 734:	00002f24 	andeq	r2, r0, r4, lsr #30
 738:	00000010 	andeq	r0, r0, r0, lsl r0
 73c:	00080e44 	andeq	r0, r8, r4, asr #28
 740:	0000000c 	andeq	r0, r0, ip
 744:	000006e4 	andeq	r0, r0, r4, ror #13
 748:	00002f34 	andeq	r2, r0, r4, lsr pc
 74c:	00000010 	andeq	r0, r0, r0, lsl r0
 750:	00000010 	andeq	r0, r0, r0, lsl r0
 754:	000006e4 	andeq	r0, r0, r4, ror #13
 758:	00002f44 	andeq	r2, r0, r4, asr #30
 75c:	00000010 	andeq	r0, r0, r0, lsl r0
 760:	00080e44 	andeq	r0, r8, r4, asr #28
 764:	00000010 	andeq	r0, r0, r0, lsl r0
 768:	000006e4 	andeq	r0, r0, r4, ror #13
 76c:	00002f54 	andeq	r2, r0, r4, asr pc
 770:	00000024 	andeq	r0, r0, r4, lsr #32
 774:	00080e44 	andeq	r0, r8, r4, asr #28
 778:	00000010 	andeq	r0, r0, r0, lsl r0
 77c:	000006e4 	andeq	r0, r0, r4, ror #13
 780:	00002f78 	andeq	r2, r0, r8, ror pc
 784:	00000024 	andeq	r0, r0, r4, lsr #32
 788:	00080e44 	andeq	r0, r8, r4, asr #28
 78c:	0000000c 	andeq	r0, r0, ip
 790:	000006e4 	andeq	r0, r0, r4, ror #13
 794:	00002f9c 	muleq	r0, ip, pc
 798:	00000008 	andeq	r0, r0, r8
 79c:	0000000c 	andeq	r0, r0, ip
 7a0:	000006e4 	andeq	r0, r0, r4, ror #13
 7a4:	00002fa4 	andeq	r2, r0, r4, lsr #31
 7a8:	0000001c 	andeq	r0, r0, ip, lsl r0
 7ac:	0000000c 	andeq	r0, r0, ip
 7b0:	000006e4 	andeq	r0, r0, r4, ror #13
 7b4:	00002fc0 	andeq	r2, r0, r0, asr #31
 7b8:	0000002c 	andeq	r0, r0, ip, lsr #32
 7bc:	0000000c 	andeq	r0, r0, ip
 7c0:	000006e4 	andeq	r0, r0, r4, ror #13
 7c4:	00002fec 	andeq	r2, r0, ip, ror #31
 7c8:	00000020 	andeq	r0, r0, r0, lsr #32
 7cc:	0000000c 	andeq	r0, r0, ip
 7d0:	000006e4 	andeq	r0, r0, r4, ror #13
 7d4:	0000300c 	andeq	r3, r0, ip
 7d8:	00000014 	andeq	r0, r0, r4, lsl r0
 7dc:	0000001c 	andeq	r0, r0, ip, lsl r0
 7e0:	000006e4 	andeq	r0, r0, r4, ror #13
 7e4:	00003020 	andeq	r3, r0, r0, lsr #32
 7e8:	00000124 	andeq	r0, r0, r4, lsr #2
 7ec:	11100e44 	tstne	r0, r4, asr #28
 7f0:	0411010e 	ldreq	r0, [r1], #-270	; 0x10e
 7f4:	03011102 	movweq	r1, #4354	; 0x1102
 7f8:	00040011 	andeq	r0, r4, r1, lsl r0
 7fc:	00000018 	andeq	r0, r0, r8, lsl r0
 800:	000006e4 	andeq	r0, r0, r4, ror #13
 804:	00003144 	andeq	r3, r0, r4, asr #2
 808:	00000084 	andeq	r0, r0, r4, lsl #1
 80c:	11080e48 	tstne	r8, r8, asr #28
 810:	0411010e 	ldreq	r0, [r1], #-270	; 0x10e
 814:	00000002 	andeq	r0, r0, r2
 818:	0000000c 	andeq	r0, r0, ip
 81c:	000006e4 	andeq	r0, r0, r4, ror #13
 820:	000031c8 	andeq	r3, r0, r8, asr #3
 824:	0000000c 	andeq	r0, r0, ip
 828:	0000000c 	andeq	r0, r0, ip
 82c:	000006e4 	andeq	r0, r0, r4, ror #13
 830:	000031d4 	ldrdeq	r3, [r0], -r4
 834:	00000018 	andeq	r0, r0, r8, lsl r0
 838:	0000000c 	andeq	r0, r0, ip
 83c:	000006e4 	andeq	r0, r0, r4, ror #13
 840:	000031ec 	andeq	r3, r0, ip, ror #3
 844:	00000018 	andeq	r0, r0, r8, lsl r0
 848:	0000000c 	andeq	r0, r0, ip
 84c:	000006e4 	andeq	r0, r0, r4, ror #13
 850:	00003204 	andeq	r3, r0, r4, lsl #4
 854:	00000018 	andeq	r0, r0, r8, lsl r0
 858:	0000001c 	andeq	r0, r0, ip, lsl r0
 85c:	000006e4 	andeq	r0, r0, r4, ror #13
 860:	0000321c 	andeq	r3, r0, ip, lsl r2
 864:	00000034 	andeq	r0, r0, r4, lsr r0
 868:	11100e44 	tstne	r0, r4, asr #28
 86c:	0611010e 	ldreq	r0, [r1], -lr, lsl #2
 870:	03051102 	movweq	r1, #20738	; 0x5102
 874:	00040411 	andeq	r0, r4, r1, lsl r4
 878:	0000000c 	andeq	r0, r0, ip
 87c:	ffffffff 	undefined instruction 0xffffffff
 880:	7c010001 	stcvc	0, cr0, [r1], {1}
 884:	000d0c0e 	andeq	r0, sp, lr, lsl #24
 888:	0000000c 	andeq	r0, r0, ip
 88c:	00000878 	andeq	r0, r0, r8, ror r8
 890:	00003260 	andeq	r3, r0, r0, ror #4
 894:	0000003c 	andeq	r0, r0, ip, lsr r0
 898:	0000000c 	andeq	r0, r0, ip
 89c:	00000878 	andeq	r0, r0, r8, ror r8
 8a0:	0000329c 	muleq	r0, ip, r2
 8a4:	00000064 	andeq	r0, r0, r4, rrx
 8a8:	0000000c 	andeq	r0, r0, ip
 8ac:	00000878 	andeq	r0, r0, r8, ror r8
 8b0:	00003300 	andeq	r3, r0, r0, lsl #6
 8b4:	00000010 	andeq	r0, r0, r0, lsl r0
 8b8:	0000000c 	andeq	r0, r0, ip
 8bc:	ffffffff 	undefined instruction 0xffffffff
 8c0:	7c010001 	stcvc	0, cr0, [r1], {1}
 8c4:	000d0c0e 	andeq	r0, sp, lr, lsl #24
 8c8:	0000000c 	andeq	r0, r0, ip
 8cc:	000008b8 	undefined instruction 0x000008b8
 8d0:	00003470 	andeq	r3, r0, r0, ror r4
 8d4:	000005a4 	andeq	r0, r0, r4, lsr #11
 8d8:	0000000c 	andeq	r0, r0, ip
 8dc:	000008b8 	undefined instruction 0x000008b8
 8e0:	00003a14 	andeq	r3, r0, r4, lsl sl
 8e4:	00000384 	andeq	r0, r0, r4, lsl #7
 8e8:	0000000c 	andeq	r0, r0, ip
 8ec:	000008b8 	undefined instruction 0x000008b8
 8f0:	00003d98 	muleq	r0, r8, sp
 8f4:	00000004 	andeq	r0, r0, r4
 8f8:	0000000c 	andeq	r0, r0, ip
 8fc:	000008b8 	undefined instruction 0x000008b8
 900:	00003d9c 	muleq	r0, ip, sp
 904:	00000018 	andeq	r0, r0, r8, lsl r0
 908:	0000000c 	andeq	r0, r0, ip
 90c:	000008b8 	undefined instruction 0x000008b8
 910:	00003db4 	undefined instruction 0x00003db4
 914:	000000d4 	ldrdeq	r0, [r0], -r4

Disassembly of section .debug_loc:

00000000 <.debug_loc>:
       0:	00000000 	andeq	r0, r0, r0
       4:	00000010 	andeq	r0, r0, r0, lsl r0
       8:	105d0001 	subsne	r0, sp, r1
       c:	e0000000 	and	r0, r0, r0
      10:	02000001 	andeq	r0, r0, #1
      14:	00107d00 	andseq	r7, r0, r0, lsl #26
      18:	00000000 	andeq	r0, r0, r0
      1c:	30000000 	andcc	r0, r0, r0
      20:	e4000000 	str	r0, [r0]
      24:	01000000 	tsteq	r0, r0
      28:	01545400 	cmpeq	r4, r0, lsl #8
      2c:	01880000 	orreq	r0, r8, r0
      30:	00010000 	andeq	r0, r1, r0
      34:	00000054 	andeq	r0, r0, r4, asr r0
	...
      40:	00001000 	andeq	r1, r0, r0
      44:	50000100 	andpl	r0, r0, r0, lsl #2
	...
      50:	00000070 	andeq	r0, r0, r0, ror r0
      54:	00000074 	andeq	r0, r0, r4, ror r0
      58:	00510001 	subseq	r0, r1, r1
      5c:	00000000 	andeq	r0, r0, r0
      60:	44000000 	strmi	r0, [r0]
      64:	4c000001 	stcmi	0, cr0, [r0], {1}
      68:	01000001 	tsteq	r0, r1
      6c:	014c5d00 	cmpeq	ip, r0, lsl #26
      70:	041c0000 	ldreq	r0, [ip]
      74:	00020000 	andeq	r0, r2, r0
      78:	0000087d 	andeq	r0, r0, sp, ror r8
      7c:	00000000 	andeq	r0, r0, r0
      80:	01440000 	cmpeq	r4, r0
      84:	02880000 	addeq	r0, r8, #0
      88:	00010000 	andeq	r0, r1, r0
      8c:	00035450 	andeq	r5, r3, r0, asr r4
      90:	00036000 	andeq	r6, r3, r0
      94:	50000100 	andpl	r0, r0, r0, lsl #2
      98:	00000400 	andeq	r0, r0, r0, lsl #8
      9c:	00000404 	andeq	r0, r0, r4, lsl #8
      a0:	00500001 	subseq	r0, r0, r1
      a4:	00000000 	andeq	r0, r0, r0
      a8:	44000000 	strmi	r0, [r0]
      ac:	ac000001 	stcge	0, cr0, [r0], {1}
      b0:	01000001 	tsteq	r0, r1
      b4:	03585100 	cmpeq	r8, #0
      b8:	03640000 	cmneq	r4, #0
      bc:	00010000 	andeq	r0, r1, r0
      c0:	00000051 	andeq	r0, r0, r1, asr r0
      c4:	00000000 	andeq	r0, r0, r0
      c8:	00014400 	andeq	r4, r1, r0, lsl #8
      cc:	0001f800 	andeq	pc, r1, r0, lsl #16
      d0:	52000100 	andpl	r0, r0, #0
      d4:	00000358 	andeq	r0, r0, r8, asr r3
      d8:	00000368 	andeq	r0, r0, r8, ror #6
      dc:	00520001 	subseq	r0, r2, r1
      e0:	00000000 	andeq	r0, r0, r0
      e4:	44000000 	strmi	r0, [r0]
      e8:	44000001 	strmi	r0, [r0], #-1
      ec:	01000002 	tsteq	r0, r2
      f0:	02845300 	addeq	r5, r4, #0
      f4:	034c0000 	movteq	r0, #49152	; 0xc000
      f8:	00010000 	andeq	r0, r1, r0
      fc:	00035853 	andeq	r5, r3, r3, asr r8
     100:	00035c00 	andeq	r5, r3, r0, lsl #24
     104:	53000100 	movwpl	r0, #256	; 0x100
	...
     110:	00000170 	andeq	r0, r0, r0, ror r1
     114:	0000019c 	muleq	r0, ip, r1
     118:	b05c0001 	subslt	r0, ip, r1
     11c:	e4000001 	str	r0, [r0], #-1
     120:	01000001 	tsteq	r0, r1
     124:	01f85c00 	mvnseq	r5, r0, lsl #24
     128:	02280000 	eoreq	r0, r8, #0
     12c:	00010000 	andeq	r0, r1, r0
     130:	00024452 	andeq	r4, r2, r2, asr r4
     134:	00027800 	andeq	r7, r2, r0, lsl #16
     138:	53000100 	movwpl	r0, #256	; 0x100
     13c:	0000028c 	andeq	r0, r0, ip, lsl #5
     140:	000002bc 	undefined instruction 0x000002bc
     144:	d0520001 	subsle	r0, r2, r1
     148:	04000002 	streq	r0, [r0], #-2
     14c:	01000003 	tsteq	r0, r3
     150:	03185200 	tsteq	r8, #0
     154:	03440000 	movteq	r0, #16384	; 0x4000
     158:	00010000 	andeq	r0, r1, r0
     15c:	00035852 	andeq	r5, r3, r2, asr r8
     160:	00036800 	andeq	r6, r3, r0, lsl #16
     164:	52000100 	andpl	r0, r0, #0
     168:	00000368 	andeq	r0, r0, r8, ror #6
     16c:	000003a8 	andeq	r0, r0, r8, lsr #7
     170:	f45c0001 	undefined instruction 0xf45c0001
     174:	f8000003 	undefined instruction 0xf8000003
     178:	01000003 	tsteq	r0, r3
     17c:	00005c00 	andeq	r5, r0, r0, lsl #24
     180:	00000000 	andeq	r0, r0, r0
     184:	03a40000 	undefined instruction 0x03a40000
     188:	03a80000 	undefined instruction 0x03a80000
     18c:	00010000 	andeq	r0, r1, r0
     190:	0003f454 	andeq	pc, r3, r4, asr r4
     194:	00040000 	andeq	r0, r4, r0
     198:	54000100 	strpl	r0, [r0], #-256	; 0x100
	...
     1a4:	0000041c 	andeq	r0, r0, ip, lsl r4
     1a8:	00000424 	andeq	r0, r0, r4, lsr #8
     1ac:	245d0001 	ldrbcs	r0, [sp], #-1
     1b0:	3c000004 	stccc	0, cr0, [r0], {4}
     1b4:	02000007 	andeq	r0, r0, #7
     1b8:	00107d00 	andseq	r7, r0, r0, lsl #26
     1bc:	00000000 	andeq	r0, r0, r0
     1c0:	1c000000 	stcne	0, cr0, [r0], {0}
     1c4:	38000004 	stmdacc	r0, {r2}
     1c8:	01000005 	tsteq	r0, r5
     1cc:	05805000 	streq	r5, [r0]
     1d0:	058c0000 	streq	r0, [ip]
     1d4:	00010000 	andeq	r0, r1, r0
     1d8:	00066c50 	andeq	r6, r6, r0, asr ip
     1dc:	00068400 	andeq	r8, r6, r0, lsl #8
     1e0:	50000100 	andpl	r0, r0, r0, lsl #2
	...
     1ec:	0000041c 	andeq	r0, r0, ip, lsl r4
     1f0:	00000490 	muleq	r0, r0, r4
     1f4:	6c510001 	mrrcvs	0, 0, r0, r1, cr1
     1f8:	7c000006 	stcvc	0, cr0, [r0], {6}
     1fc:	01000006 	tsteq	r0, r6
     200:	00005100 	andeq	r5, r0, r0, lsl #2
     204:	00000000 	andeq	r0, r0, r0
     208:	041c0000 	ldreq	r0, [ip]
     20c:	04e80000 	strbteq	r0, [r8]
     210:	00010000 	andeq	r0, r1, r0
     214:	00066c52 	andeq	r6, r6, r2, asr ip
     218:	00067000 	andeq	r7, r6, r0
     21c:	52000100 	andpl	r0, r0, #0
	...
     228:	0000041c 	andeq	r0, r0, ip, lsl r4
     22c:	0000053c 	andeq	r0, r0, ip, lsr r5
     230:	80530001 	subshi	r0, r3, r1
     234:	60000005 	andvs	r0, r0, r5
     238:	01000006 	tsteq	r0, r6
     23c:	066c5300 	strbteq	r5, [ip], -r0, lsl #6
     240:	06740000 	ldrbteq	r0, [r4], -r0
     244:	00010000 	andeq	r0, r1, r0
     248:	00000053 	andeq	r0, r0, r3, asr r0
     24c:	00000000 	andeq	r0, r0, r0
     250:	00045000 	andeq	r5, r4, r0
     254:	00048000 	andeq	r8, r4, r0
     258:	54000100 	strpl	r0, [r0], #-256	; 0x100
     25c:	0000049c 	muleq	r0, ip, r4
     260:	000004d0 	ldrdeq	r0, [r0], -r0
     264:	ec540001 	mrrc	0, 0, r0, r4, cr1
     268:	3c000004 	stccc	0, cr0, [r0], {4}
     26c:	01000005 	tsteq	r0, r5
     270:	053c5400 	ldreq	r5, [ip, #-1024]!	; 0x400
     274:	05700000 	ldrbeq	r0, [r0]!
     278:	00010000 	andeq	r0, r1, r0
     27c:	00058053 	andeq	r8, r5, r3, asr r0
     280:	00058800 	andeq	r8, r5, r0, lsl #16
     284:	54000100 	strpl	r0, [r0], #-256	; 0x100
     288:	0000058c 	andeq	r0, r0, ip, lsl #11
     28c:	000005c0 	andeq	r0, r0, r0, asr #11
     290:	dc500001 	mrrcle	0, 0, r0, r0, cr1
     294:	20000005 	andcs	r0, r0, r5
     298:	01000006 	tsteq	r0, r6
     29c:	06285000 	strteq	r5, [r8], -r0
     2a0:	06580000 	ldrbeq	r0, [r8], -r0
     2a4:	00010000 	andeq	r0, r1, r0
     2a8:	00066c52 	andeq	r6, r6, r2, asr ip
     2ac:	00067000 	andeq	r7, r6, r0
     2b0:	52000100 	andpl	r0, r0, #0
     2b4:	00000670 	andeq	r0, r0, r0, ror r6
     2b8:	00000684 	andeq	r0, r0, r4, lsl #13
     2bc:	00500001 	subseq	r0, r0, r1
     2c0:	00000000 	andeq	r0, r0, r0
     2c4:	c0000000 	andgt	r0, r0, r0
     2c8:	c4000006 	strgt	r0, [r0], #-6
     2cc:	01000006 	tsteq	r0, r6
     2d0:	07185000 	ldreq	r5, [r8, -r0]
     2d4:	07180000 	ldreq	r0, [r8, -r0]
     2d8:	00010000 	andeq	r0, r1, r0
     2dc:	00000050 	andeq	r0, r0, r0, asr r0
     2e0:	00000000 	andeq	r0, r0, r0
     2e4:	00073c00 	andeq	r3, r7, r0, lsl #24
     2e8:	00074000 	andeq	r4, r7, r0
     2ec:	5d000100 	stfpls	f0, [r0]
     2f0:	00000740 	andeq	r0, r0, r0, asr #14
     2f4:	0000078c 	andeq	r0, r0, ip, lsl #15
     2f8:	087d0002 	ldmdaeq	sp!, {r1}^
	...
     304:	000000d4 	ldrdeq	r0, [r0], -r4
     308:	000000dc 	ldrdeq	r0, [r0], -ip
     30c:	dc500001 	mrrcle	0, 0, r0, r0, cr1
     310:	20000000 	andcs	r0, r0, r0
     314:	01000001 	tsteq	r0, r1
     318:	00005200 	andeq	r5, r0, r0, lsl #4
     31c:	00000000 	andeq	r0, r0, r0
     320:	01380000 	teqeq	r8, r0
     324:	01400000 	cmpeq	r0, r0
     328:	00010000 	andeq	r0, r1, r0
     32c:	00014050 	andeq	r4, r1, r0, asr r0
     330:	00019400 	andeq	r9, r1, r0, lsl #8
     334:	53000100 	movwpl	r0, #256	; 0x100
	...
     340:	00000194 	muleq	r0, r4, r1
     344:	000001a4 	andeq	r0, r0, r4, lsr #3
     348:	a4500001 	ldrbge	r0, [r0], #-1
     34c:	e0000001 	and	r0, r0, r1
     350:	01000001 	tsteq	r0, r1
     354:	00005200 	andeq	r5, r0, r0, lsl #4
     358:	00000000 	andeq	r0, r0, r0
     35c:	01f40000 	mvnseq	r0, r0
     360:	02040000 	andeq	r0, r4, #0
     364:	00010000 	andeq	r0, r1, r0
     368:	00020450 	andeq	r0, r2, r0, asr r4
     36c:	00024400 	andeq	r4, r2, r0, lsl #8
     370:	52000100 	andpl	r0, r0, #0
	...
     380:	00000004 	andeq	r0, r0, r4
     384:	045d0001 	ldrbeq	r0, [sp], #-1
     388:	a0000000 	andge	r0, r0, r0
     38c:	02000000 	andeq	r0, r0, #0
     390:	00107d00 	andseq	r7, r0, r0, lsl #26
     394:	00000000 	andeq	r0, r0, r0
     398:	18000000 	stmdane	r0, {}
     39c:	30000000 	andcc	r0, r0, r0
     3a0:	02000000 	andeq	r0, r0, #0
     3a4:	307f7400 	rsbscc	r7, pc, r0, lsl #8
     3a8:	44000000 	strmi	r0, [r0]
     3ac:	01000000 	tsteq	r0, r0
     3b0:	00485c00 	subeq	r5, r8, r0, lsl #24
     3b4:	00700000 	rsbseq	r0, r0, r0
     3b8:	00020000 	andeq	r0, r2, r0
     3bc:	0070077d 	rsbseq	r0, r0, sp, ror r7
     3c0:	00840000 	addeq	r0, r4, r0
     3c4:	00010000 	andeq	r0, r1, r0
     3c8:	0000885c 	andeq	r8, r0, ip, asr r8
     3cc:	0000a000 	andeq	sl, r0, r0
     3d0:	7d000200 	sfmvc	f0, 4, [r0]	; (stcvc 2, cr0, [r0])
     3d4:	00000007 	andeq	r0, r0, r7
     3d8:	00000000 	andeq	r0, r0, r0
     3dc:	0000a000 	andeq	sl, r0, r0
     3e0:	0000a400 	andeq	sl, r0, r0, lsl #8
     3e4:	5d000100 	stfpls	f0, [r0]
     3e8:	000000a4 	andeq	r0, r0, r4, lsr #1
     3ec:	00000140 	andeq	r0, r0, r0, asr #2
     3f0:	107d0002 	rsbsne	r0, sp, r2
	...
     3fc:	000000b8 	strheq	r0, [r0], -r8
     400:	000000d0 	ldrdeq	r0, [r0], -r0
     404:	7f740002 	svcvc	0x00740002
     408:	000000d0 	ldrdeq	r0, [r0], -r0
     40c:	000000e4 	andeq	r0, r0, r4, ror #1
     410:	e85c0001 	ldmda	ip, {r0}^
     414:	10000000 	andne	r0, r0, r0
     418:	02000001 	andeq	r0, r0, #1
     41c:	10077d00 	andne	r7, r7, r0, lsl #26
     420:	24000001 	strcs	r0, [r0], #-1
     424:	01000001 	tsteq	r0, r1
     428:	01285c00 	teqeq	r8, r0, lsl #24
     42c:	01400000 	cmpeq	r0, r0
     430:	00020000 	andeq	r0, r2, r0
     434:	0000077d 	andeq	r0, r0, sp, ror r7
     438:	00000000 	andeq	r0, r0, r0
     43c:	01400000 	cmpeq	r0, r0
     440:	01480000 	cmpeq	r8, r0
     444:	00010000 	andeq	r0, r1, r0
     448:	0001485d 	andeq	r4, r1, sp, asr r8
     44c:	00045400 	andeq	r5, r4, r0, lsl #8
     450:	7d000200 	sfmvc	f0, 4, [r0]	; (stcvc 2, cr0, [r0])
     454:	00000018 	andeq	r0, r0, r8, lsl r0
     458:	00000000 	andeq	r0, r0, r0
     45c:	00014000 	andeq	r4, r1, r0
     460:	00014800 	andeq	r4, r1, r0, lsl #16
     464:	50000100 	andpl	r0, r0, r0, lsl #2
     468:	0000014c 	andeq	r0, r0, ip, asr #2
     46c:	00000150 	andeq	r0, r0, r0, asr r1
     470:	50500001 	subspl	r0, r0, r1
     474:	00000001 	andeq	r0, r0, r1
     478:	01000004 	tsteq	r0, r4
     47c:	04005400 	streq	r5, [r0], #-1024	; 0x400
     480:	04040000 	streq	r0, [r4]
     484:	00010000 	andeq	r0, r1, r0
     488:	00044450 	andeq	r4, r4, r0, asr r4
     48c:	00045400 	andeq	r5, r4, r0, lsl #8
     490:	54000100 	strpl	r0, [r0], #-256	; 0x100
	...
     49c:	00000174 	andeq	r0, r0, r4, ror r1
     4a0:	00000188 	andeq	r0, r0, r8, lsl #3
     4a4:	67910002 	ldrvs	r0, [r1, r2]
     4a8:	0000018c 	andeq	r0, r0, ip, lsl #3
     4ac:	000001c4 	andeq	r0, r0, r4, asr #3
     4b0:	077d0002 	ldrbeq	r0, [sp, -r2]!
     4b4:	000001c4 	andeq	r0, r0, r4, asr #3
     4b8:	000001d8 	ldrdeq	r0, [r0], -r8
     4bc:	dc5c0001 	mrrcle	0, 0, r0, ip, cr1
     4c0:	14000001 	strne	r0, [r0], #-1
     4c4:	02000002 	andeq	r0, r0, #2
     4c8:	14077d00 	strne	r7, [r7], #-3328	; 0xd00
     4cc:	28000002 	stmdacs	r0, {r1}
     4d0:	01000002 	tsteq	r0, r2
     4d4:	022c5c00 	eoreq	r5, ip, #0
     4d8:	02640000 	rsbeq	r0, r4, #0
     4dc:	00020000 	andeq	r0, r2, r0
     4e0:	0264077d 	rsbeq	r0, r4, #32768000	; 0x1f40000
     4e4:	02780000 	rsbseq	r0, r8, #0
     4e8:	00010000 	andeq	r0, r1, r0
     4ec:	00027c5c 	andeq	r7, r2, ip, asr ip
     4f0:	0002b400 	andeq	fp, r2, r0, lsl #8
     4f4:	7d000200 	sfmvc	f0, 4, [r0]	; (stcvc 2, cr0, [r0])
     4f8:	0002b407 	andeq	fp, r2, r7, lsl #8
     4fc:	0002c800 	andeq	ip, r2, r0, lsl #16
     500:	5c000100 	stfpls	f0, [r0], {0}
     504:	000002cc 	andeq	r0, r0, ip, asr #5
     508:	00000304 	andeq	r0, r0, r4, lsl #6
     50c:	077d0002 	ldrbeq	r0, [sp, -r2]!
     510:	00000304 	andeq	r0, r0, r4, lsl #6
     514:	00000318 	andeq	r0, r0, r8, lsl r3
     518:	1c5c0001 	mrrcne	0, 0, r0, ip, cr1
     51c:	54000003 	strpl	r0, [r0], #-3
     520:	02000003 	andeq	r0, r0, #3
     524:	54077d00 	strpl	r7, [r7], #-3328	; 0xd00
     528:	68000003 	stmdavs	r0, {r0, r1}
     52c:	01000003 	tsteq	r0, r3
     530:	036c5c00 	cmneq	ip, #0
     534:	03d00000 	bicseq	r0, r0, #0
     538:	00020000 	andeq	r0, r2, r0
     53c:	03d0077d 	bicseq	r0, r0, #32768000	; 0x1f40000
     540:	03e40000 	mvneq	r0, #0
     544:	00010000 	andeq	r0, r1, r0
     548:	0003e85c 	andeq	lr, r3, ip, asr r8
     54c:	00042000 	andeq	r2, r4, r0
     550:	7d000200 	sfmvc	f0, 4, [r0]	; (stcvc 2, cr0, [r0])
     554:	00042007 	andeq	r2, r4, r7
     558:	00043400 	andeq	r3, r4, r0, lsl #8
     55c:	5c000100 	stfpls	f0, [r0], {0}
     560:	00000438 	andeq	r0, r0, r8, lsr r4
     564:	00000454 	andeq	r0, r0, r4, asr r4
     568:	077d0002 	ldrbeq	r0, [sp, -r2]!
	...
     574:	00000454 	andeq	r0, r0, r4, asr r4
     578:	0000045c 	andeq	r0, r0, ip, asr r4
     57c:	5c5d0001 	mrrcpl	0, 0, r0, sp, cr1
     580:	fc000004 	stc2	0, cr0, [r0], {4}
     584:	02000004 	andeq	r0, r0, #4
     588:	00187d00 	andseq	r7, r8, r0, lsl #26
     58c:	00000000 	andeq	r0, r0, r0
     590:	54000000 	strpl	r0, [r0]
     594:	5c000004 	stcpl	0, cr0, [r0], {4}
     598:	01000004 	tsteq	r0, r4
     59c:	04605000 	strbteq	r5, [r0]
     5a0:	04680000 	strbteq	r0, [r8]
     5a4:	00010000 	andeq	r0, r1, r0
     5a8:	00046850 	andeq	r6, r4, r0, asr r8
     5ac:	0004fc00 	andeq	pc, r4, r0, lsl #24
     5b0:	55000100 	strpl	r0, [r0, #-256]	; 0x100
	...
     5bc:	000004c0 	andeq	r0, r0, r0, asr #9
     5c0:	000004dc 	ldrdeq	r0, [r0], -ip
     5c4:	67910002 	ldrvs	r0, [r1, r2]
     5c8:	000004dc 	ldrdeq	r0, [r0], -ip
     5cc:	000004e0 	andeq	r0, r0, r0, ror #9
     5d0:	e4530001 	ldrb	r0, [r3], #-1
     5d4:	e8000004 	stmda	r0, {r2}
     5d8:	01000004 	tsteq	r0, r4
     5dc:	00005300 	andeq	r5, r0, r0, lsl #6
     5e0:	00000000 	andeq	r0, r0, r0
     5e4:	04fc0000 	ldrbteq	r0, [ip]
     5e8:	05040000 	streq	r0, [r4]
     5ec:	00010000 	andeq	r0, r1, r0
     5f0:	0005045d 	andeq	r0, r5, sp, asr r4
     5f4:	0006f000 	andeq	pc, r6, r0
     5f8:	7d000200 	sfmvc	f0, 4, [r0]	; (stcvc 2, cr0, [r0])
     5fc:	00000020 	andeq	r0, r0, r0, lsr #32
     600:	00000000 	andeq	r0, r0, r0
     604:	0004fc00 	andeq	pc, r4, r0, lsl #24
     608:	00050400 	andeq	r0, r5, r0, lsl #8
     60c:	50000100 	andpl	r0, r0, r0, lsl #2
     610:	0000050c 	andeq	r0, r0, ip, lsl #10
     614:	00000560 	andeq	r0, r0, r0, ror #10
     618:	ac500001 	mrrcge	0, 0, r0, r0, cr1
     61c:	c0000005 	andgt	r0, r0, r5
     620:	01000005 	tsteq	r0, r5
     624:	06505000 	ldrbeq	r5, [r0], -r0
     628:	06580000 	ldrbeq	r0, [r8], -r0
     62c:	00010000 	andeq	r0, r1, r0
     630:	0006c850 	andeq	ip, r6, r0, asr r8
     634:	0006cc00 	andeq	ip, r6, r0, lsl #24
     638:	50000100 	andpl	r0, r0, r0, lsl #2
     63c:	000006d8 	ldrdeq	r0, [r0], -r8
     640:	000006f0 	strdeq	r0, [r0], -r0
     644:	00500001 	subseq	r0, r0, r1
     648:	00000000 	andeq	r0, r0, r0
     64c:	fc000000 	stc2	0, cr0, [r0], {0}
     650:	04000004 	streq	r0, [r0], #-4
     654:	01000005 	tsteq	r0, r5
     658:	053c5100 	ldreq	r5, [ip, #-256]!	; 0x100
     65c:	05880000 	streq	r0, [r8]
     660:	00010000 	andeq	r0, r1, r0
     664:	0005ac51 	andeq	sl, r5, r1, asr ip
     668:	0005f400 	andeq	pc, r5, r0, lsl #8
     66c:	51000100 	tstpl	r0, r0, lsl #2
     670:	00000618 	andeq	r0, r0, r8, lsl r6
     674:	0000065c 	andeq	r0, r0, ip, asr r6
     678:	c8510001 	ldmdagt	r1, {r0}^
     67c:	d0000006 	andle	r0, r0, r6
     680:	01000006 	tsteq	r0, r6
     684:	06d45100 	ldrbeq	r5, [r4], r0, lsl #2
     688:	06f00000 	ldrbteq	r0, [r0], r0
     68c:	00010000 	andeq	r0, r1, r0
     690:	00000051 	andeq	r0, r0, r1, asr r0
     694:	00000000 	andeq	r0, r0, r0
     698:	0005b800 	andeq	fp, r5, r0, lsl #16
     69c:	0005ec00 	andeq	lr, r5, r0, lsl #24
     6a0:	55000100 	strpl	r0, [r0, #-256]	; 0x100
     6a4:	00000618 	andeq	r0, r0, r8, lsl r6
     6a8:	0000061c 	andeq	r0, r0, ip, lsl r6
     6ac:	20550001 	subscs	r0, r5, r1
     6b0:	2c000006 	stccs	0, cr0, [r0], {6}
     6b4:	01000006 	tsteq	r0, r6
     6b8:	06305500 	ldrteq	r5, [r0], -r0, lsl #10
     6bc:	063c0000 	ldrteq	r0, [ip], -r0
     6c0:	00010000 	andeq	r0, r1, r0
     6c4:	00064455 	andeq	r4, r6, r5, asr r4
     6c8:	00068000 	andeq	r8, r6, r0
     6cc:	55000100 	strpl	r0, [r0, #-256]	; 0x100
     6d0:	0000068c 	andeq	r0, r0, ip, lsl #13
     6d4:	000006b0 	undefined instruction 0x000006b0
     6d8:	c8550001 	ldmdagt	r5, {r0}^
     6dc:	d8000006 	stmdale	r0, {r1, r2}
     6e0:	01000006 	tsteq	r0, r6
     6e4:	00005500 	andeq	r5, r0, r0, lsl #10
     6e8:	00000000 	andeq	r0, r0, r0
     6ec:	06980000 	ldreq	r0, [r8], r0
     6f0:	06d80000 	ldrbeq	r0, [r8], r0
     6f4:	00010000 	andeq	r0, r1, r0
     6f8:	00000057 	andeq	r0, r0, r7, asr r0
     6fc:	00000000 	andeq	r0, r0, r0
     700:	00068400 	andeq	r8, r6, r0, lsl #8
     704:	0006b800 	andeq	fp, r6, r0, lsl #16
     708:	91000200 	tstls	r0, r0, lsl #4
     70c:	0006b85f 	andeq	fp, r6, pc, asr r8
     710:	0006d000 	andeq	sp, r6, r0
     714:	7d000200 	sfmvc	f0, 4, [r0]	; (stcvc 2, cr0, [r0])
     718:	0006d007 	andeq	sp, r6, r7
     71c:	0006d400 	andeq	sp, r6, r0, lsl #8
     720:	91000200 	tstls	r0, r0, lsl #4
     724:	0006d45f 	andeq	sp, r6, pc, asr r4
     728:	0006d800 	andeq	sp, r6, r0, lsl #16
     72c:	7d000200 	sfmvc	f0, 4, [r0]	; (stcvc 2, cr0, [r0])
     730:	00000007 	andeq	r0, r0, r7
     734:	00000000 	andeq	r0, r0, r0
     738:	0006cc00 	andeq	ip, r6, r0, lsl #24
     73c:	0006d000 	andeq	sp, r6, r0
     740:	50000100 	andpl	r0, r0, r0, lsl #2
     744:	000006d4 	ldrdeq	r0, [r0], -r4
     748:	000006d4 	ldrdeq	r0, [r0], -r4
     74c:	00500001 	subseq	r0, r0, r1
     750:	00000000 	andeq	r0, r0, r0
     754:	88000000 	stmdahi	r0, {}
     758:	ac000005 	stcge	0, cr0, [r0], {5}
     75c:	01000005 	tsteq	r0, r5
     760:	062c5100 	strteq	r5, [ip], -r0, lsl #2
     764:	06340000 	ldrteq	r0, [r4], -r0
     768:	00010000 	andeq	r0, r1, r0
     76c:	00065051 	andeq	r5, r6, r1, asr r0
     770:	00065c00 	andeq	r5, r6, r0, lsl #24
     774:	51000100 	tstpl	r0, r0, lsl #2
	...
     780:	0000055c 	andeq	r0, r0, ip, asr r5
     784:	000005ac 	andeq	r0, r0, ip, lsr #11
     788:	2c520001 	mrrccs	0, 0, r0, r2, cr1
     78c:	34000006 	strcc	r0, [r0], #-6
     790:	01000006 	tsteq	r0, r6
     794:	06505200 	ldrbeq	r5, [r0], -r0, lsl #4
     798:	06600000 	strbteq	r0, [r0], -r0
     79c:	00010000 	andeq	r0, r1, r0
     7a0:	00000052 	andeq	r0, r0, r2, asr r0
     7a4:	00000000 	andeq	r0, r0, r0
     7a8:	00058000 	andeq	r8, r5, r0
     7ac:	00059000 	andeq	r9, r5, r0
     7b0:	55000100 	strpl	r0, [r0, #-256]	; 0x100
     7b4:	00000590 	muleq	r0, r0, r5
     7b8:	00000598 	muleq	r0, r8, r5
     7bc:	98530001 	ldmdals	r3, {r0}^
     7c0:	ac000005 	stcge	0, cr0, [r0], {5}
     7c4:	01000005 	tsteq	r0, r5
     7c8:	062c5500 	strteq	r5, [ip], -r0, lsl #10
     7cc:	06300000 	ldrteq	r0, [r0], -r0
     7d0:	00010000 	andeq	r0, r1, r0
     7d4:	00063055 	andeq	r3, r6, r5, asr r0
     7d8:	00063400 	andeq	r3, r6, r0, lsl #8
     7dc:	53000100 	movwpl	r0, #256	; 0x100
     7e0:	00000650 	andeq	r0, r0, r0, asr r6
     7e4:	00000664 	andeq	r0, r0, r4, ror #12
     7e8:	00530001 	subseq	r0, r3, r1
     7ec:	00000000 	andeq	r0, r0, r0
     7f0:	60000000 	andvs	r0, r0, r0
     7f4:	ac000005 	stcge	0, cr0, [r0], {5}
     7f8:	01000005 	tsteq	r0, r5
     7fc:	062c5000 	strteq	r5, [ip], -r0
     800:	06340000 	ldrteq	r0, [r4], -r0
     804:	00010000 	andeq	r0, r1, r0
     808:	00065050 	andeq	r5, r6, r0, asr r0
     80c:	00065800 	andeq	r5, r6, r0, lsl #16
     810:	50000100 	andpl	r0, r0, r0, lsl #2
	...
     81c:	000005f4 	strdeq	r0, [r0], -r4
     820:	00000618 	andeq	r0, r0, r8, lsl r6
     824:	1c510001 	mrrcne	0, 0, r0, r1, cr1
     828:	5c000006 	stcpl	0, cr0, [r0], {6}
     82c:	01000006 	tsteq	r0, r6
     830:	00005100 	andeq	r5, r0, r0, lsl #2
     834:	00000000 	andeq	r0, r0, r0
     838:	05c80000 	strbeq	r0, [r8]
     83c:	06640000 	strbteq	r0, [r4], -r0
     840:	00010000 	andeq	r0, r1, r0
     844:	00000053 	andeq	r0, r0, r3, asr r0
     848:	00000000 	andeq	r0, r0, r0
     84c:	0005ec00 	andeq	lr, r5, r0, lsl #24
     850:	0005fc00 	andeq	pc, r5, r0, lsl #24
     854:	55000100 	strpl	r0, [r0, #-256]	; 0x100
     858:	000005fc 	strdeq	r0, [r0], -ip
     85c:	00000604 	andeq	r0, r0, r4, lsl #12
     860:	04500001 	ldrbeq	r0, [r0], #-1
     864:	18000006 	stmdane	r0, {r1, r2}
     868:	01000006 	tsteq	r0, r6
     86c:	061c5500 	ldreq	r5, [ip], -r0, lsl #10
     870:	06200000 	strteq	r0, [r0], -r0
     874:	00010000 	andeq	r0, r1, r0
     878:	00062055 	andeq	r2, r6, r5, asr r0
     87c:	00065800 	andeq	r5, r6, r0, lsl #16
     880:	50000100 	andpl	r0, r0, r0, lsl #2
	...
     88c:	000005cc 	andeq	r0, r0, ip, asr #11
     890:	00000660 	andeq	r0, r0, r0, ror #12
     894:	00520001 	subseq	r0, r2, r1
     898:	00000000 	andeq	r0, r0, r0
     89c:	f0000000 	undefined instruction 0xf0000000
     8a0:	f4000006 	vst4.8	{d0-d3}, [r0], r6
     8a4:	01000006 	tsteq	r0, r6
     8a8:	06f45d00 	ldrbteq	r5, [r4], r0, lsl #26
     8ac:	0ef00000 	cdpeq	0, 15, cr0, cr0, cr0, {0}
     8b0:	00020000 	andeq	r0, r2, r0
     8b4:	0000187d 	andeq	r1, r0, sp, ror r8
     8b8:	00000000 	andeq	r0, r0, r0
     8bc:	06f00000 	ldrbteq	r0, [r0], r0
     8c0:	06f40000 	ldrbteq	r0, [r4], r0
     8c4:	00010000 	andeq	r0, r1, r0
     8c8:	0006f850 	andeq	pc, r6, r0, asr r8
     8cc:	0006fc00 	andeq	pc, r6, r0, lsl #24
     8d0:	50000100 	andpl	r0, r0, r0, lsl #2
     8d4:	000006fc 	strdeq	r0, [r0], -ip
     8d8:	00000e50 	andeq	r0, r0, r0, asr lr
     8dc:	e0540001 	subs	r0, r4, r1
     8e0:	f000000e 	undefined instruction 0xf000000e
     8e4:	0100000e 	tsteq	r0, lr
     8e8:	00005400 	andeq	r5, r0, r0, lsl #8
     8ec:	00000000 	andeq	r0, r0, r0
     8f0:	072c0000 	streq	r0, [ip, -r0]!
     8f4:	07400000 	strbeq	r0, [r0, -r0]
     8f8:	00020000 	andeq	r0, r2, r0
     8fc:	07446791 	undefined instruction 0x07446791
     900:	077c0000 	ldrbeq	r0, [ip, -r0]!
     904:	00020000 	andeq	r0, r2, r0
     908:	077c077d 	undefined instruction 0x077c077d
     90c:	07900000 	ldreq	r0, [r0, r0]
     910:	00010000 	andeq	r0, r1, r0
     914:	0007945c 	andeq	r9, r7, ip, asr r4
     918:	0007cc00 	andeq	ip, r7, r0, lsl #24
     91c:	7d000200 	sfmvc	f0, 4, [r0]	; (stcvc 2, cr0, [r0])
     920:	0007cc07 	andeq	ip, r7, r7, lsl #24
     924:	0007e000 	andeq	lr, r7, r0
     928:	5c000100 	stfpls	f0, [r0], {0}
     92c:	000007e4 	andeq	r0, r0, r4, ror #15
     930:	0000081c 	andeq	r0, r0, ip, lsl r8
     934:	077d0002 	ldrbeq	r0, [sp, -r2]!
     938:	0000081c 	andeq	r0, r0, ip, lsl r8
     93c:	00000830 	andeq	r0, r0, r0, lsr r8
     940:	345c0001 	ldrbcc	r0, [ip], #-1
     944:	6c000008 	stcvs	0, cr0, [r0], {8}
     948:	02000008 	andeq	r0, r0, #8
     94c:	6c077d00 	stcvs	13, cr7, [r7], {0}
     950:	80000008 	andhi	r0, r0, r8
     954:	01000008 	tsteq	r0, r8
     958:	08845c00 	stmeq	r4, {sl, fp, ip, lr}
     95c:	08bc0000 	ldmeq	ip!, {}
     960:	00020000 	andeq	r0, r2, r0
     964:	08bc077d 	ldmeq	ip!, {r0, r2, r3, r4, r5, r6, r8, r9, sl}
     968:	08d00000 	ldmeq	r0, {}^
     96c:	00010000 	andeq	r0, r1, r0
     970:	0008d45c 	andeq	sp, r8, ip, asr r4
     974:	00093000 	andeq	r3, r9, r0
     978:	7d000200 	sfmvc	f0, 4, [r0]	; (stcvc 2, cr0, [r0])
     97c:	00093007 	andeq	r3, r9, r7
     980:	00094400 	andeq	r4, r9, r0, lsl #8
     984:	5c000100 	stfpls	f0, [r0], {0}
     988:	00000948 	andeq	r0, r0, r8, asr #18
     98c:	000009ac 	andeq	r0, r0, ip, lsr #19
     990:	077d0002 	ldrbeq	r0, [sp, -r2]!
     994:	000009ac 	andeq	r0, r0, ip, lsr #19
     998:	000009c0 	andeq	r0, r0, r0, asr #19
     99c:	c45c0001 	ldrbgt	r0, [ip], #-1
     9a0:	fc000009 	stc2	0, cr0, [r0], {9}
     9a4:	02000009 	andeq	r0, r0, #9
     9a8:	fc077d00 	stc2	13, cr7, [r7], {0}
     9ac:	10000009 	andne	r0, r0, r9
     9b0:	0100000a 	tsteq	r0, sl
     9b4:	0a145c00 	beq	5179bc <__bss_end+0x5136dc>
     9b8:	0a4c0000 	beq	13009c0 <__bss_end+0x12fc6e0>
     9bc:	00020000 	andeq	r0, r2, r0
     9c0:	0a4c077d 	beq	13027bc <__bss_end+0x12fe4dc>
     9c4:	0a600000 	beq	18009cc <__bss_end+0x17fc6ec>
     9c8:	00010000 	andeq	r0, r1, r0
     9cc:	000a645c 	andeq	r6, sl, ip, asr r4
     9d0:	000a8c00 	andeq	r8, sl, r0, lsl #24
     9d4:	7d000200 	sfmvc	f0, 4, [r0]	; (stcvc 2, cr0, [r0])
     9d8:	000a8c07 	andeq	r8, sl, r7, lsl #24
     9dc:	000a9c00 	andeq	r9, sl, r0, lsl #24
     9e0:	5c000100 	stfpls	f0, [r0], {0}
     9e4:	00000aa8 	andeq	r0, r0, r8, lsr #21
     9e8:	00000ae0 	andeq	r0, r0, r0, ror #21
     9ec:	077d0002 	ldrbeq	r0, [sp, -r2]!
     9f0:	00000ae0 	andeq	r0, r0, r0, ror #21
     9f4:	00000af4 	strdeq	r0, [r0], -r4
     9f8:	f85c0001 	undefined instruction 0xf85c0001
     9fc:	2000000a 	andcs	r0, r0, sl
     a00:	0200000b 	andeq	r0, r0, #11
     a04:	20077d00 	andcs	r7, r7, r0, lsl #26
     a08:	3000000b 	andcc	r0, r0, fp
     a0c:	0100000b 	tsteq	r0, fp
     a10:	0b445c00 	bleq	1117a18 <__bss_end+0x1113738>
     a14:	0b7c0000 	bleq	1f00a1c <__bss_end+0x1efc73c>
     a18:	00020000 	andeq	r0, r2, r0
     a1c:	0b7c077d 	bleq	1f02818 <__bss_end+0x1efe538>
     a20:	0b900000 	bleq	fe400a28 <__bss_end+0xfe3fc748>
     a24:	00010000 	andeq	r0, r1, r0
     a28:	000b945c 	andeq	r9, fp, ip, asr r4
     a2c:	000bbc00 	andeq	fp, fp, r0, lsl #24
     a30:	7d000200 	sfmvc	f0, 4, [r0]	; (stcvc 2, cr0, [r0])
     a34:	000bbc07 	andeq	fp, fp, r7, lsl #24
     a38:	000bcc00 	andeq	ip, fp, r0, lsl #24
     a3c:	5c000100 	stfpls	f0, [r0], {0}
     a40:	00000bd8 	ldrdeq	r0, [r0], -r8
     a44:	00000c10 	andeq	r0, r0, r0, lsl ip
     a48:	077d0002 	ldrbeq	r0, [sp, -r2]!
     a4c:	00000c10 	andeq	r0, r0, r0, lsl ip
     a50:	00000c24 	andeq	r0, r0, r4, lsr #24
     a54:	285c0001 	ldmdacs	ip, {r0}^
     a58:	5000000c 	andpl	r0, r0, ip
     a5c:	0200000c 	andeq	r0, r0, #12
     a60:	50077d00 	andpl	r7, r7, r0, lsl #26
     a64:	6000000c 	andvs	r0, r0, ip
     a68:	0100000c 	tsteq	r0, ip
     a6c:	0c745c00 	ldcleq	12, cr5, [r4]
     a70:	0cac0000 	stceq	0, cr0, [ip]
     a74:	00020000 	andeq	r0, r2, r0
     a78:	0cac077d 	stceq	7, cr0, [ip], #500	; 0x1f4
     a7c:	0cc00000 	stcleq	0, cr0, [r0], {0}
     a80:	00010000 	andeq	r0, r1, r0
     a84:	000cc45c 	andeq	ip, ip, ip, asr r4
     a88:	000cec00 	andeq	lr, ip, r0, lsl #24
     a8c:	7d000200 	sfmvc	f0, 4, [r0]	; (stcvc 2, cr0, [r0])
     a90:	000cec07 	andeq	lr, ip, r7, lsl #24
     a94:	000cfc00 	andeq	pc, ip, r0, lsl #24
     a98:	5c000100 	stfpls	f0, [r0], {0}
     a9c:	00000d08 	andeq	r0, r0, r8, lsl #26
     aa0:	00000d40 	andeq	r0, r0, r0, asr #26
     aa4:	077d0002 	ldrbeq	r0, [sp, -r2]!
     aa8:	00000d40 	andeq	r0, r0, r0, asr #26
     aac:	00000d54 	andeq	r0, r0, r4, asr sp
     ab0:	585c0001 	ldmdapl	ip, {r0}^
     ab4:	8000000d 	andhi	r0, r0, sp
     ab8:	0200000d 	andeq	r0, r0, #13
     abc:	80077d00 	andhi	r7, r7, r0, lsl #26
     ac0:	9000000d 	andls	r0, r0, sp
     ac4:	0100000d 	tsteq	r0, sp
     ac8:	0da45c00 	stceq	12, cr5, [r4]
     acc:	0ddc0000 	ldcleq	0, cr0, [ip]
     ad0:	00020000 	andeq	r0, r2, r0
     ad4:	0ddc077d 	ldcleq	7, cr0, [ip, #500]	; 0x1f4
     ad8:	0df00000 	ldcleq	0, cr0, [r0]
     adc:	00010000 	andeq	r0, r1, r0
     ae0:	000df45c 	andeq	pc, sp, ip, asr r4
     ae4:	000e1c00 	andeq	r1, lr, r0, lsl #24
     ae8:	7d000200 	sfmvc	f0, 4, [r0]	; (stcvc 2, cr0, [r0])
     aec:	000e1c07 	andeq	r1, lr, r7, lsl #24
     af0:	000e2c00 	andeq	r2, lr, r0, lsl #24
     af4:	5c000100 	stfpls	f0, [r0], {0}
     af8:	00000e38 	andeq	r0, r0, r8, lsr lr
     afc:	00000e70 	andeq	r0, r0, r0, ror lr
     b00:	077d0002 	ldrbeq	r0, [sp, -r2]!
     b04:	00000e70 	andeq	r0, r0, r0, ror lr
     b08:	00000e84 	andeq	r0, r0, r4, lsl #29
     b0c:	885c0001 	ldmdahi	ip, {r0}^
     b10:	b000000e 	andlt	r0, r0, lr
     b14:	0200000e 	andeq	r0, r0, #14
     b18:	b0077d00 	andlt	r7, r7, r0, lsl #26
     b1c:	c000000e 	andgt	r0, r0, lr
     b20:	0100000e 	tsteq	r0, lr
     b24:	0ed45c00 	cdpeq	12, 13, cr5, cr4, cr0, {0}
     b28:	0ef00000 	cdpeq	0, 15, cr0, cr0, cr0, {0}
     b2c:	00020000 	andeq	r0, r2, r0
     b30:	0000077d 	andeq	r0, r0, sp, ror r7
	...
     b3c:	00140000 	andseq	r0, r4, r0
     b40:	00010000 	andeq	r0, r1, r0
     b44:	0000145d 	andeq	r1, r0, sp, asr r4
     b48:	00009c00 	andeq	r9, r0, r0, lsl #24
     b4c:	7d000200 	sfmvc	f0, 4, [r0]	; (stcvc 2, cr0, [r0])
     b50:	00000024 	andeq	r0, r0, r4, lsr #32
     b54:	00000000 	andeq	r0, r0, r0
     b58:	0000f800 	andeq	pc, r0, r0, lsl #16
     b5c:	00010c00 	andeq	r0, r1, r0, lsl #24
     b60:	5d000100 	stfpls	f0, [r0]
     b64:	0000010c 	andeq	r0, r0, ip, lsl #2
     b68:	00000140 	andeq	r0, r0, r0, asr #2
     b6c:	087d0002 	ldmdaeq	sp!, {r1}^
	...
     b78:	000000f8 	strdeq	r0, [r0], -r8
     b7c:	0000011c 	andeq	r0, r0, ip, lsl r1
     b80:	00500001 	subseq	r0, r0, r1
	...
     b8c:	18000001 	stmdane	r0, {r0}
     b90:	01000001 	tsteq	r0, r1
     b94:	00005200 	andeq	r5, r0, r0, lsl #4
     b98:	00000000 	andeq	r0, r0, r0
     b9c:	01400000 	cmpeq	r0, r0
     ba0:	014c0000 	cmpeq	ip, r0
     ba4:	00010000 	andeq	r0, r1, r0
     ba8:	00000050 	andeq	r0, r0, r0, asr r0
     bac:	00000000 	andeq	r0, r0, r0
     bb0:	00014c00 	andeq	r4, r1, r0, lsl #24
     bb4:	00015400 	andeq	r5, r1, r0, lsl #8
     bb8:	50000100 	andpl	r0, r0, r0, lsl #2
	...
     bc4:	00000028 	andeq	r0, r0, r8, lsr #32
     bc8:	00000030 	andeq	r0, r0, r0, lsr r0
     bcc:	3c500001 	mrrccc	0, 0, r0, r0, cr1
     bd0:	48000000 	stmdami	r0, {}
     bd4:	01000000 	tsteq	r0, r0
     bd8:	00005000 	andeq	r5, r0, r0
     bdc:	00000000 	andeq	r0, r0, r0
     be0:	00480000 	subeq	r0, r8, r0
     be4:	00500000 	subseq	r0, r0, r0
     be8:	00010000 	andeq	r0, r1, r0
     bec:	0000505d 	andeq	r5, r0, sp, asr r0
     bf0:	00009000 	andeq	r9, r0, r0
     bf4:	7d000200 	sfmvc	f0, 4, [r0]	; (stcvc 2, cr0, [r0])
     bf8:	00000008 	andeq	r0, r0, r8
     bfc:	00000000 	andeq	r0, r0, r0
     c00:	00004800 	andeq	r4, r0, r0, lsl #16
     c04:	00006400 	andeq	r6, r0, r0, lsl #8
     c08:	51000100 	tstpl	r0, r0, lsl #2
	...
     c14:	00000048 	andeq	r0, r0, r8, asr #32
     c18:	0000005c 	andeq	r0, r0, ip, asr r0
     c1c:	00520001 	subseq	r0, r2, r1
     c20:	00000000 	andeq	r0, r0, r0
     c24:	48000000 	stmdami	r0, {}
     c28:	68000000 	stmdavs	r0, {}
     c2c:	01000000 	tsteq	r0, r0
     c30:	00005300 	andeq	r5, r0, r0, lsl #6
     c34:	00000000 	andeq	r0, r0, r0
     c38:	006c0000 	rsbeq	r0, ip, r0
     c3c:	00840000 	addeq	r0, r4, r0
     c40:	00010000 	andeq	r0, r1, r0
     c44:	00008452 	andeq	r8, r0, r2, asr r4
     c48:	00009000 	andeq	r9, r0, r0
     c4c:	53000100 	movwpl	r0, #256	; 0x100
	...
     c58:	000000b8 	strheq	r0, [r0], -r8
     c5c:	000000c0 	andeq	r0, r0, r0, asr #1
     c60:	cc500001 	mrrcgt	0, 0, r0, r0, cr1
     c64:	d8000000 	stmdale	r0, {}
     c68:	01000000 	tsteq	r0, r0
     c6c:	00005000 	andeq	r5, r0, r0
     c70:	00000000 	andeq	r0, r0, r0
     c74:	00d80000 	sbcseq	r0, r8, r0
     c78:	00dc0000 	sbcseq	r0, ip, r0
     c7c:	00010000 	andeq	r0, r1, r0
     c80:	00000050 	andeq	r0, r0, r0, asr r0
     c84:	00000000 	andeq	r0, r0, r0
     c88:	0000d800 	andeq	sp, r0, r0, lsl #16
     c8c:	0000dc00 	andeq	sp, r0, r0, lsl #24
     c90:	51000100 	tstpl	r0, r0, lsl #2
	...
     c9c:	000000d8 	ldrdeq	r0, [r0], -r8
     ca0:	000000dc 	ldrdeq	r0, [r0], -ip
     ca4:	00520001 	subseq	r0, r2, r1
     ca8:	00000000 	andeq	r0, r0, r0
     cac:	d8000000 	stmdale	r0, {}
     cb0:	dc000000 	stcle	0, cr0, [r0], {0}
     cb4:	01000000 	tsteq	r0, r0
     cb8:	00005300 	andeq	r5, r0, r0, lsl #6
     cbc:	00000000 	andeq	r0, r0, r0
     cc0:	00dc0000 	sbcseq	r0, ip, r0
     cc4:	00e00000 	rsceq	r0, r0, r0
     cc8:	00010000 	andeq	r0, r1, r0
     ccc:	0000e05d 	andeq	lr, r0, sp, asr r0
     cd0:	00010c00 	andeq	r0, r1, r0, lsl #24
     cd4:	7d000200 	sfmvc	f0, 4, [r0]	; (stcvc 2, cr0, [r0])
     cd8:	00000008 	andeq	r0, r0, r8
     cdc:	00000000 	andeq	r0, r0, r0
     ce0:	0000ec00 	andeq	lr, r0, r0, lsl #24
     ce4:	0000f800 	andeq	pc, r0, r0, lsl #16
     ce8:	53000100 	movwpl	r0, #256	; 0x100
     cec:	000000fc 	strdeq	r0, [r0], -ip
     cf0:	0000010c 	andeq	r0, r0, ip, lsl #2
     cf4:	00530001 	subseq	r0, r3, r1
     cf8:	00000000 	andeq	r0, r0, r0
     cfc:	18000000 	stmdane	r0, {}
     d00:	38000001 	stmdacc	r0, {r0}
     d04:	01000001 	tsteq	r0, r1
     d08:	00005200 	andeq	r5, r0, r0, lsl #4
     d0c:	00000000 	andeq	r0, r0, r0
     d10:	014c0000 	cmpeq	ip, r0
     d14:	016c0000 	cmneq	ip, r0
     d18:	00010000 	andeq	r0, r1, r0
     d1c:	00000052 	andeq	r0, r0, r2, asr r0
     d20:	00000000 	andeq	r0, r0, r0
     d24:	00017800 	andeq	r7, r1, r0, lsl #16
     d28:	00017c00 	andeq	r7, r1, r0, lsl #24
     d2c:	5d000100 	stfpls	f0, [r0]
     d30:	0000017c 	andeq	r0, r0, ip, ror r1
     d34:	000001f0 	strdeq	r0, [r0], -r0
     d38:	087d0002 	ldmdaeq	sp!, {r1}^
	...
     d44:	0000018c 	andeq	r0, r0, ip, lsl #3
     d48:	000001b0 	undefined instruction 0x000001b0
     d4c:	b4520001 	ldrblt	r0, [r2], #-1
     d50:	c4000001 	strgt	r0, [r0], #-1
     d54:	01000001 	tsteq	r0, r1
     d58:	00005200 	andeq	r5, r0, r0, lsl #4
     d5c:	00000000 	andeq	r0, r0, r0
     d60:	02000000 	andeq	r0, r0, #0
     d64:	02200000 	eoreq	r0, r0, #0
     d68:	00010000 	andeq	r0, r1, r0
     d6c:	00000052 	andeq	r0, r0, r2, asr r0
     d70:	00000000 	andeq	r0, r0, r0
     d74:	00022400 	andeq	r2, r2, r0, lsl #8
     d78:	00022c00 	andeq	r2, r2, r0, lsl #24
     d7c:	5d000100 	stfpls	f0, [r0]
     d80:	0000022c 	andeq	r0, r0, ip, lsr #4
     d84:	00000298 	muleq	r0, r8, r2
     d88:	087d0002 	ldmdaeq	sp!, {r1}^
	...
     d94:	00000228 	andeq	r0, r0, r8, lsr #4
     d98:	00000254 	andeq	r0, r0, r4, asr r2
     d9c:	00530001 	subseq	r0, r3, r1
     da0:	00000000 	andeq	r0, r0, r0
     da4:	60000000 	andvs	r0, r0, r0
     da8:	80000002 	andhi	r0, r0, r2
     dac:	01000002 	tsteq	r0, r2
     db0:	00005200 	andeq	r5, r0, r0, lsl #4
     db4:	00000000 	andeq	r0, r0, r0
     db8:	02440000 	subeq	r0, r4, #0
     dbc:	02540000 	subseq	r0, r4, #0
     dc0:	00010000 	andeq	r0, r1, r0
     dc4:	00000051 	andeq	r0, r0, r1, asr r0
     dc8:	00000000 	andeq	r0, r0, r0
     dcc:	00029c00 	andeq	r9, r2, r0, lsl #24
     dd0:	0002a000 	andeq	sl, r2, r0
     dd4:	5d000100 	stfpls	f0, [r0]
     dd8:	000002a0 	andeq	r0, r0, r0, lsr #5
     ddc:	00000358 	andeq	r0, r0, r8, asr r3
     de0:	207d0002 	rsbscs	r0, sp, r2
	...
     dec:	000002ac 	andeq	r0, r0, ip, lsr #5
     df0:	000002b0 	undefined instruction 0x000002b0
     df4:	c0540001 	subsgt	r0, r4, r1
     df8:	10000002 	andne	r0, r0, r2
     dfc:	01000003 	tsteq	r0, r3
     e00:	03205400 	teqeq	r0, #0
     e04:	032c0000 	teqeq	ip, #0
     e08:	00010000 	andeq	r0, r1, r0
     e0c:	00034054 	andeq	r4, r3, r4, asr r0
     e10:	00034800 	andeq	r4, r3, r0, lsl #16
     e14:	54000100 	strpl	r0, [r0], #-256	; 0x100
	...
     e20:	00000358 	andeq	r0, r0, r8, asr r3
     e24:	00000360 	andeq	r0, r0, r0, ror #6
     e28:	605d0001 	subsvs	r0, sp, r1
     e2c:	64000003 	strvs	r0, [r0], #-3
     e30:	02000003 	andeq	r0, r0, #3
     e34:	64247d00 	strtvs	r7, [r4], #-3328	; 0xd00
     e38:	a8000003 	stmdage	r0, {r0, r1}
     e3c:	03000004 	movweq	r0, #4
     e40:	00c87d00 	sbceq	r7, r8, r0, lsl #26
	...
     e4c:	000003b8 	undefined instruction 0x000003b8
     e50:	000003dc 	ldrdeq	r0, [r0], -ip
     e54:	5c530001 	mrrcpl	0, 0, r0, r3, cr1
     e58:	68000004 	stmdavs	r0, {r2}
     e5c:	01000004 	tsteq	r0, r4
     e60:	00005300 	andeq	r5, r0, r0, lsl #6
     e64:	00000000 	andeq	r0, r0, r0
     e68:	03a40000 	undefined instruction 0x03a40000
     e6c:	03cc0000 	biceq	r0, ip, #0
     e70:	00010000 	andeq	r0, r1, r0
     e74:	00000052 	andeq	r0, r0, r2, asr r0
     e78:	00000000 	andeq	r0, r0, r0
     e7c:	0003b400 	andeq	fp, r3, r0, lsl #8
     e80:	0003b800 	andeq	fp, r3, r0, lsl #16
     e84:	53000100 	movwpl	r0, #256	; 0x100
	...
     e90:	000000f4 	strdeq	r0, [r0], -r4
     e94:	00000110 	andeq	r0, r0, r0, lsl r1
     e98:	10520001 	subsne	r0, r2, r1
     e9c:	14000001 	strne	r0, [r0], #-1
     ea0:	01000001 	tsteq	r0, r1
     ea4:	00005000 	andeq	r5, r0, r0
     ea8:	00000000 	andeq	r0, r0, r0
     eac:	01800000 	orreq	r0, r0, r0
     eb0:	01d80000 	bicseq	r0, r8, r0
     eb4:	00010000 	andeq	r0, r1, r0
     eb8:	00000053 	andeq	r0, r0, r3, asr r0
     ebc:	00000000 	andeq	r0, r0, r0
     ec0:	00018c00 	andeq	r8, r1, r0, lsl #24
     ec4:	0001e400 	andeq	lr, r1, r0, lsl #8
     ec8:	50000100 	andpl	r0, r0, r0, lsl #2
	...
     ed4:	00000184 	andeq	r0, r0, r4, lsl #3
     ed8:	0000018c 	andeq	r0, r0, ip, lsl #3
     edc:	94500001 	ldrbls	r0, [r0], #-1
     ee0:	98000001 	stmdals	r0, {r0}
     ee4:	01000001 	tsteq	r0, r1
     ee8:	01a05000 	moveq	r5, r0
     eec:	01a40000 	undefined instruction 0x01a40000
     ef0:	00010000 	andeq	r0, r1, r0
     ef4:	0001ac50 	andeq	sl, r1, r0, asr ip
     ef8:	0001b000 	andeq	fp, r1, r0
     efc:	50000100 	andpl	r0, r0, r0, lsl #2
     f00:	000001b8 	undefined instruction 0x000001b8
     f04:	000001bc 	undefined instruction 0x000001bc
     f08:	00500001 	subseq	r0, r0, r1
     f0c:	00000000 	andeq	r0, r0, r0
     f10:	60000000 	andvs	r0, r0, r0
     f14:	7c000002 	stcvc	0, cr0, [r0], {2}
     f18:	01000002 	tsteq	r0, r2
     f1c:	027c5200 	rsbseq	r5, ip, #0
     f20:	02800000 	addeq	r0, r0, #0
     f24:	00010000 	andeq	r0, r1, r0
     f28:	00000050 	andeq	r0, r0, r0, asr r0
     f2c:	00000000 	andeq	r0, r0, r0
     f30:	00028c00 	andeq	r8, r2, r0, lsl #24
     f34:	00029800 	andeq	r9, r2, r0, lsl #16
     f38:	50000100 	andpl	r0, r0, r0, lsl #2
	...
     f44:	0000029c 	muleq	r0, ip, r2
     f48:	000002a8 	andeq	r0, r0, r8, lsr #5
     f4c:	a85d0001 	ldmdage	sp, {r0}^
     f50:	a8000002 	stmdage	r0, {r1}
     f54:	02000003 	andeq	r0, r0, #3
     f58:	00287d00 	eoreq	r7, r8, r0, lsl #26
     f5c:	00000000 	andeq	r0, r0, r0
     f60:	9c000000 	stcls	0, cr0, [r0], {0}
     f64:	a8000002 	stmdage	r0, {r1}
     f68:	01000002 	tsteq	r0, r2
     f6c:	02d05000 	sbcseq	r5, r0, #0
     f70:	03440000 	movteq	r0, #16384	; 0x4000
     f74:	00010000 	andeq	r0, r1, r0
     f78:	00000050 	andeq	r0, r0, r0, asr r0
     f7c:	00000000 	andeq	r0, r0, r0
     f80:	0002b000 	andeq	fp, r2, r0
     f84:	00033000 	andeq	r3, r3, r0
     f88:	5c000100 	stfpls	f0, [r0], {0}
     f8c:	00000330 	andeq	r0, r0, r0, lsr r3
     f90:	00000338 	andeq	r0, r0, r8, lsr r3
     f94:	38510001 	ldmdacc	r1, {r0}^
     f98:	60000003 	andvs	r0, r0, r3
     f9c:	01000003 	tsteq	r0, r3
     fa0:	03645300 	cmneq	r4, #0
     fa4:	03740000 	cmneq	r4, #0
     fa8:	00010000 	andeq	r0, r1, r0
     fac:	00037c53 	andeq	r7, r3, r3, asr ip
     fb0:	0003a800 	andeq	sl, r3, r0, lsl #16
     fb4:	55000100 	strpl	r0, [r0, #-256]	; 0x100
	...
     fc0:	000002b4 	undefined instruction 0x000002b4
     fc4:	0000033c 	andeq	r0, r0, ip, lsr r3
     fc8:	93540006 	cmpls	r4, #6
     fcc:	04935504 	ldreq	r5, [r3], #1284	; 0x504
	...
     fd8:	000002d8 	ldrdeq	r0, [r0], -r8
     fdc:	000002f8 	strdeq	r0, [r0], -r8
     fe0:	93520006 	cmpls	r2, #6
     fe4:	04935304 	ldreq	r5, [r3], #772	; 0x304
     fe8:	0000030c 	andeq	r0, r0, ip, lsl #6
     fec:	00000334 	andeq	r0, r0, r4, lsr r3
     ff0:	93520006 	cmpls	r2, #6
     ff4:	04935304 	ldreq	r5, [r3], #772	; 0x304
	...
    1000:	000002a4 	andeq	r0, r0, r4, lsr #5
    1004:	00000330 	andeq	r0, r0, r0, lsr r3
    1008:	00510001 	subseq	r0, r1, r1
    100c:	00000000 	andeq	r0, r0, r0
    1010:	a8000000 	stmdage	r0, {}
    1014:	ac000003 	stcge	0, cr0, [r0], {3}
    1018:	01000003 	tsteq	r0, r3
    101c:	00005000 	andeq	r5, r0, r0
    1020:	00000000 	andeq	r0, r0, r0
    1024:	03ac0000 	undefined instruction 0x03ac0000
    1028:	03b80000 	undefined instruction 0x03b80000
    102c:	00010000 	andeq	r0, r1, r0
    1030:	0003b85d 	andeq	fp, r3, sp, asr r8
    1034:	00046c00 	andeq	r6, r4, r0, lsl #24
    1038:	7d000200 	sfmvc	f0, 4, [r0]	; (stcvc 2, cr0, [r0])
    103c:	00000008 	andeq	r0, r0, r8
    1040:	00000000 	andeq	r0, r0, r0
    1044:	0003b400 	andeq	fp, r3, r0, lsl #8
    1048:	0003fc00 	andeq	pc, r3, r0, lsl #24
    104c:	53000100 	movwpl	r0, #256	; 0x100
    1050:	00000400 	andeq	r0, r0, r0, lsl #8
    1054:	0000042c 	andeq	r0, r0, ip, lsr #8
    1058:	30530001 	subscc	r0, r3, r1
    105c:	64000004 	strvs	r0, [r0], #-4
    1060:	01000004 	tsteq	r0, r4
    1064:	00005300 	andeq	r5, r0, r0, lsl #6
    1068:	00000000 	andeq	r0, r0, r0
    106c:	03bc0000 	undefined instruction 0x03bc0000
    1070:	03c00000 	biceq	r0, r0, #0
    1074:	00010000 	andeq	r0, r1, r0
    1078:	00000054 	andeq	r0, r0, r4, asr r0
    107c:	00000000 	andeq	r0, r0, r0
    1080:	00046c00 	andeq	r6, r4, r0, lsl #24
    1084:	00047000 	andeq	r7, r4, r0
    1088:	5d000100 	stfpls	f0, [r0]
    108c:	00000470 	andeq	r0, r0, r0, ror r4
    1090:	000004c0 	andeq	r0, r0, r0, asr #9
    1094:	087d0002 	ldmdaeq	sp!, {r1}^
	...
    10a0:	000004c0 	andeq	r0, r0, r0, asr #9
    10a4:	000004c4 	andeq	r0, r0, r4, asr #9
    10a8:	c45d0001 	ldrbgt	r0, [sp], #-1
    10ac:	f0000004 	undefined instruction 0xf0000004
    10b0:	02000004 	andeq	r0, r0, #4
    10b4:	00087d00 	andeq	r7, r8, r0, lsl #26
    10b8:	00000000 	andeq	r0, r0, r0
    10bc:	d0000000 	andle	r0, r0, r0
    10c0:	dc000004 	stcle	0, cr0, [r0], {4}
    10c4:	01000004 	tsteq	r0, r4
    10c8:	04e05300 	strbteq	r5, [r0], #768	; 0x300
    10cc:	04f00000 	ldrbteq	r0, [r0]
    10d0:	00010000 	andeq	r0, r1, r0
    10d4:	00000053 	andeq	r0, r0, r3, asr r0
    10d8:	00000000 	andeq	r0, r0, r0
    10dc:	0004f000 	andeq	pc, r4, r0
    10e0:	0004f400 	andeq	pc, r4, r0, lsl #8
    10e4:	5d000100 	stfpls	f0, [r0]
    10e8:	000004f4 	strdeq	r0, [r0], -r4
    10ec:	0000074c 	andeq	r0, r0, ip, asr #14
    10f0:	187d0002 	ldmdane	sp!, {r1}^
	...
    10fc:	000004f0 	strdeq	r0, [r0], -r0
    1100:	000004fc 	strdeq	r0, [r0], -ip
    1104:	fc500001 	mrrc2	0, 0, r0, r0, cr1
    1108:	4c000004 	stcmi	0, cr0, [r0], {4}
    110c:	01000007 	tsteq	r0, r7
    1110:	00005400 	andeq	r5, r0, r0, lsl #8
    1114:	00000000 	andeq	r0, r0, r0
    1118:	056c0000 	strbeq	r0, [ip]!
    111c:	05cc0000 	strbeq	r0, [ip]
    1120:	00010000 	andeq	r0, r1, r0
    1124:	0005cc53 	andeq	ip, r5, r3, asr ip
    1128:	0005d400 	andeq	sp, r5, r0, lsl #8
    112c:	52000100 	andpl	r0, r0, #0
    1130:	000005d4 	ldrdeq	r0, [r0], -r4
    1134:	000005dc 	ldrdeq	r0, [r0], -ip
    1138:	e4530001 	ldrb	r0, [r3], #-1
    113c:	ec000005 	stc	0, cr0, [r0], {5}
    1140:	01000005 	tsteq	r0, r5
    1144:	05ec5200 	strbeq	r5, [ip, #512]!	; 0x200
    1148:	06680000 	strbteq	r0, [r8], -r0
    114c:	00010000 	andeq	r0, r1, r0
    1150:	00067455 	andeq	r7, r6, r5, asr r4
    1154:	00068000 	andeq	r8, r6, r0
    1158:	55000100 	strpl	r0, [r0, #-256]	; 0x100
    115c:	00000688 	andeq	r0, r0, r8, lsl #13
    1160:	000006b4 	undefined instruction 0x000006b4
    1164:	b4550001 	ldrblt	r0, [r5], #-1
    1168:	d0000006 	andle	r0, r0, r6
    116c:	01000006 	tsteq	r0, r6
    1170:	00005200 	andeq	r5, r0, r0, lsl #4
    1174:	00000000 	andeq	r0, r0, r0
    1178:	051c0000 	ldreq	r0, [ip]
    117c:	05300000 	ldreq	r0, [r0]!
    1180:	00010000 	andeq	r0, r1, r0
    1184:	00000053 	andeq	r0, r0, r3, asr r0
    1188:	00000000 	andeq	r0, r0, r0
    118c:	00053000 	andeq	r3, r5, r0
    1190:	00053c00 	andeq	r3, r5, r0, lsl #24
    1194:	53000100 	movwpl	r0, #256	; 0x100
	...
    11a0:	0000053c 	andeq	r0, r0, ip, lsr r5
    11a4:	00000548 	andeq	r0, r0, r8, asr #10
    11a8:	00530001 	subseq	r0, r3, r1
    11ac:	00000000 	andeq	r0, r0, r0
    11b0:	f8000000 	undefined instruction 0xf8000000
    11b4:	04000005 	streq	r0, [r0], #-5
    11b8:	01000006 	tsteq	r0, r6
    11bc:	00005300 	andeq	r5, r0, r0, lsl #6
    11c0:	00000000 	andeq	r0, r0, r0
    11c4:	063c0000 	ldrteq	r0, [ip], -r0
    11c8:	06480000 	strbeq	r0, [r8], -r0
    11cc:	00010000 	andeq	r0, r1, r0
    11d0:	00000053 	andeq	r0, r0, r3, asr r0
    11d4:	00000000 	andeq	r0, r0, r0
    11d8:	0006e000 	andeq	lr, r6, r0
    11dc:	0006f000 	andeq	pc, r6, r0
    11e0:	52000100 	andpl	r0, r0, #0
	...
    11ec:	000006f0 	strdeq	r0, [r0], -r0
    11f0:	0000070c 	andeq	r0, r0, ip, lsl #14
    11f4:	0c520001 	mrrceq	0, 0, r0, r2, cr1
    11f8:	10000007 	andne	r0, r0, r7
    11fc:	01000007 	tsteq	r0, r7
    1200:	00005300 	andeq	r5, r0, r0, lsl #6
    1204:	00000000 	andeq	r0, r0, r0
    1208:	07200000 	streq	r0, [r0, -r0]!
    120c:	07400000 	strbeq	r0, [r0, -r0]
    1210:	00010000 	andeq	r0, r1, r0
    1214:	00000053 	andeq	r0, r0, r3, asr r0
    1218:	00000000 	andeq	r0, r0, r0
    121c:	00074c00 	andeq	r4, r7, r0, lsl #24
    1220:	00075000 	andeq	r5, r7, r0
    1224:	5d000100 	stfpls	f0, [r0]
    1228:	00000750 	andeq	r0, r0, r0, asr r7
    122c:	00000754 	andeq	r0, r0, r4, asr r7
    1230:	1c7d0002 	ldclne	0, cr0, [sp], #-8
    1234:	00000754 	andeq	r0, r0, r4, asr r7
    1238:	00000838 	andeq	r0, r0, r8, lsr r8
    123c:	f07d0003 	undefined instruction 0xf07d0003
	...
    1248:	00078c00 	andeq	r8, r7, r0, lsl #24
    124c:	0007f400 	andeq	pc, r7, r0, lsl #8
    1250:	54000600 	strpl	r0, [r0], #-1536	; 0x600
    1254:	93550493 	cmpls	r5, #-1828716544	; 0x93000000
    1258:	00000004 	andeq	r0, r0, r4
    125c:	00000000 	andeq	r0, r0, r0
    1260:	00077400 	andeq	r7, r7, r0, lsl #8
    1264:	0007f800 	andeq	pc, r7, r0, lsl #16
    1268:	52000600 	andpl	r0, r0, #0
    126c:	93530493 	cmpls	r3, #-1828716544	; 0x93000000
    1270:	00000004 	andeq	r0, r0, r4
    1274:	00000000 	andeq	r0, r0, r0
    1278:	00079400 	andeq	r9, r7, r0, lsl #8
    127c:	0007b400 	andeq	fp, r7, r0, lsl #8
    1280:	50000600 	andpl	r0, r0, r0, lsl #12
    1284:	93510493 	cmpls	r1, #-1828716544	; 0x93000000
    1288:	0007c804 	andeq	ip, r7, r4, lsl #16
    128c:	0007f000 	andeq	pc, r7, r0
    1290:	50000600 	andpl	r0, r0, r0, lsl #12
    1294:	93510493 	cmpls	r1, #-1828716544	; 0x93000000
    1298:	00000004 	andeq	r0, r0, r4
    129c:	00000000 	andeq	r0, r0, r0
    12a0:	00077000 	andeq	r7, r7, r0
    12a4:	0007f800 	andeq	pc, r7, r0, lsl #16
    12a8:	5c000100 	stfpls	f0, [r0], {0}
	...
    12b8:	00000004 	andeq	r0, r0, r4
    12bc:	045d0001 	ldrbeq	r0, [sp], #-1
    12c0:	20000000 	andcs	r0, r0, r0
    12c4:	02000000 	andeq	r0, r0, #0
    12c8:	00087d00 	andeq	r7, r8, r0, lsl #26
    12cc:	00000000 	andeq	r0, r0, r0
    12d0:	0c000000 	stceq	0, cr0, [r0], {0}
    12d4:	18000000 	stmdane	r0, {}
    12d8:	02000000 	andeq	r0, r0, #0
    12dc:	18047d00 	stmdane	r4, {r8, sl, fp, ip, sp, lr}
    12e0:	20000000 	andcs	r0, r0, r0
    12e4:	02000000 	andeq	r0, r0, #0
    12e8:	00749100 	rsbseq	r9, r4, r0, lsl #2
    12ec:	00000000 	andeq	r0, r0, r0
    12f0:	20000000 	andcs	r0, r0, r0
    12f4:	24000000 	strcs	r0, [r0]
    12f8:	01000000 	tsteq	r0, r0
    12fc:	00245d00 	eoreq	r5, r4, r0, lsl #26
    1300:	00400000 	subeq	r0, r0, r0
    1304:	00020000 	andeq	r0, r2, r0
    1308:	0000087d 	andeq	r0, r0, sp, ror r8
    130c:	00000000 	andeq	r0, r0, r0
    1310:	002c0000 	eoreq	r0, ip, r0
    1314:	00380000 	eorseq	r0, r8, r0
    1318:	00020000 	andeq	r0, r2, r0
    131c:	0038047d 	eorseq	r0, r8, sp, ror r4
    1320:	00400000 	subeq	r0, r0, r0
    1324:	00020000 	andeq	r0, r2, r0
    1328:	00007491 	muleq	r0, r1, r4
    132c:	00000000 	andeq	r0, r0, r0
    1330:	00580000 	subseq	r0, r8, r0
    1334:	005c0000 	subseq	r0, ip, r0
    1338:	00010000 	andeq	r0, r1, r0
    133c:	00005c5d 	andeq	r5, r0, sp, asr ip
    1340:	00006800 	andeq	r6, r0, r0, lsl #16
    1344:	7d000200 	sfmvc	f0, 4, [r0]	; (stcvc 2, cr0, [r0])
    1348:	00000008 	andeq	r0, r0, r8
    134c:	00000000 	andeq	r0, r0, r0
    1350:	00007800 	andeq	r7, r0, r0, lsl #16
    1354:	00007c00 	andeq	r7, r0, r0, lsl #24
    1358:	5d000100 	stfpls	f0, [r0]
    135c:	0000007c 	andeq	r0, r0, ip, ror r0
    1360:	00000088 	andeq	r0, r0, r8, lsl #1
    1364:	087d0002 	ldmdaeq	sp!, {r1}^
	...
    1370:	00000088 	andeq	r0, r0, r8, lsl #1
    1374:	0000008c 	andeq	r0, r0, ip, lsl #1
    1378:	8c5d0001 	mrrchi	0, 0, r0, sp, cr1
    137c:	ac000000 	stcge	0, cr0, [r0], {0}
    1380:	02000000 	andeq	r0, r0, #0
    1384:	00087d00 	andeq	r7, r8, r0, lsl #26
    1388:	00000000 	andeq	r0, r0, r0
    138c:	88000000 	stmdahi	r0, {}
    1390:	98000000 	stmdals	r0, {}
    1394:	01000000 	tsteq	r0, r0
    1398:	00985000 	addseq	r5, r8, r0
    139c:	00ac0000 	adceq	r0, ip, r0
    13a0:	00020000 	andeq	r0, r2, r0
    13a4:	0000047d 	andeq	r0, r0, sp, ror r4
    13a8:	00000000 	andeq	r0, r0, r0
    13ac:	00980000 	addseq	r0, r8, r0
    13b0:	00a00000 	adceq	r0, r0, r0
    13b4:	00010000 	andeq	r0, r1, r0
    13b8:	00000050 	andeq	r0, r0, r0, asr r0
    13bc:	00000000 	andeq	r0, r0, r0
    13c0:	0000ac00 	andeq	sl, r0, r0, lsl #24
    13c4:	0000b000 	andeq	fp, r0, r0
    13c8:	5d000100 	stfpls	f0, [r0]
    13cc:	000000b0 	strheq	r0, [r0], -r0
    13d0:	000000d0 	ldrdeq	r0, [r0], -r0
    13d4:	087d0002 	ldmdaeq	sp!, {r1}^
	...
    13e0:	000000ac 	andeq	r0, r0, ip, lsr #1
    13e4:	000000bc 	strheq	r0, [r0], -ip
    13e8:	bc500001 	mrrclt	0, 0, r0, r0, cr1
    13ec:	d0000000 	andle	r0, r0, r0
    13f0:	02000000 	andeq	r0, r0, #0
    13f4:	00047d00 	andeq	r7, r4, r0, lsl #26
    13f8:	00000000 	andeq	r0, r0, r0
    13fc:	bc000000 	stclt	0, cr0, [r0], {0}
    1400:	c4000000 	strgt	r0, [r0]
    1404:	01000000 	tsteq	r0, r0
    1408:	00005000 	andeq	r5, r0, r0
    140c:	00000000 	andeq	r0, r0, r0
    1410:	00d40000 	sbcseq	r0, r4, r0
    1414:	00d40000 	sbcseq	r0, r4, r0
    1418:	00010000 	andeq	r0, r1, r0
    141c:	00000050 	andeq	r0, r0, r0, asr r0
    1420:	00000000 	andeq	r0, r0, r0
    1424:	0000f400 	andeq	pc, r0, r0, lsl #8
    1428:	0000fc00 	andeq	pc, r0, r0, lsl #24
    142c:	50000100 	andpl	r0, r0, r0, lsl #2
	...
    1438:	000000fc 	strdeq	r0, [r0], -ip
    143c:	0000010c 	andeq	r0, r0, ip, lsl #2
    1440:	00500001 	subseq	r0, r0, r1
    1444:	00000000 	andeq	r0, r0, r0
    1448:	54000000 	strpl	r0, [r0]
    144c:	58000001 	stmdapl	r0, {r0}
    1450:	01000001 	tsteq	r0, r1
    1454:	01585d00 	cmpeq	r8, r0, lsl #26
    1458:	02780000 	rsbseq	r0, r8, #0
    145c:	00020000 	andeq	r0, r2, r0
    1460:	0000107d 	andeq	r1, r0, sp, ror r0
    1464:	00000000 	andeq	r0, r0, r0
    1468:	01540000 	cmpeq	r4, r0
    146c:	01580000 	cmpeq	r8, r0
    1470:	00010000 	andeq	r0, r1, r0
    1474:	00016450 	andeq	r6, r1, r0, asr r4
    1478:	00017800 	andeq	r7, r1, r0, lsl #16
    147c:	50000100 	andpl	r0, r0, r0, lsl #2
	...
    1488:	00000174 	andeq	r0, r0, r4, ror r1
    148c:	00000180 	andeq	r0, r0, r0, lsl #3
    1490:	00510001 	subseq	r0, r1, r1
    1494:	00000000 	andeq	r0, r0, r0
    1498:	70000000 	andvc	r0, r0, r0
    149c:	dc000001 	stcle	0, cr0, [r0], {1}
    14a0:	01000001 	tsteq	r0, r1
    14a4:	02685200 	rsbeq	r5, r8, #0
    14a8:	02780000 	rsbseq	r0, r8, #0
    14ac:	00010000 	andeq	r0, r1, r0
    14b0:	00000052 	andeq	r0, r0, r2, asr r0
    14b4:	00000000 	andeq	r0, r0, r0
    14b8:	00016800 	andeq	r6, r1, r0, lsl #16
    14bc:	00019400 	andeq	r9, r1, r0, lsl #8
    14c0:	7d000200 	sfmvc	f0, 4, [r0]	; (stcvc 2, cr0, [r0])
    14c4:	00019404 	andeq	r9, r1, r4, lsl #8
    14c8:	00019c00 	andeq	r9, r1, r0, lsl #24
    14cc:	51000100 	tstpl	r0, r0, lsl #2
    14d0:	0000019c 	muleq	r0, ip, r1
    14d4:	000001a0 	andeq	r0, r0, r0, lsr #3
    14d8:	6c910002 	ldcvs	0, cr0, [r1], {2}
    14dc:	000001a0 	andeq	r0, r0, r0, lsr #3
    14e0:	000001a8 	andeq	r0, r0, r8, lsr #3
    14e4:	a8510001 	ldmdage	r1, {r0}^
    14e8:	e4000001 	str	r0, [r0], #-1
    14ec:	02000001 	andeq	r0, r0, #1
    14f0:	e46c9100 	strbt	r9, [ip], #-256	; 0x100
    14f4:	10000001 	andne	r0, r0, r1
    14f8:	02000002 	andeq	r0, r0, #2
    14fc:	10047d00 	andne	r7, r4, r0, lsl #26
    1500:	78000002 	stmdavc	r0, {r1}
    1504:	02000002 	andeq	r0, r0, #2
    1508:	006c9100 	rsbeq	r9, ip, r0, lsl #2
    150c:	00000000 	andeq	r0, r0, r0
    1510:	78000000 	stmdavc	r0, {}
    1514:	f0000001 	undefined instruction 0xf0000001
    1518:	01000001 	tsteq	r0, r1
    151c:	02685000 	rsbeq	r5, r8, #0
    1520:	02780000 	rsbseq	r0, r8, #0
    1524:	00010000 	andeq	r0, r1, r0
    1528:	00000050 	andeq	r0, r0, r0, asr r0
    152c:	00000000 	andeq	r0, r0, r0
    1530:	00020c00 	andeq	r0, r2, r0, lsl #24
    1534:	00024800 	andeq	r4, r2, r0, lsl #16
    1538:	51000100 	tstpl	r0, r0, lsl #2
    153c:	00000248 	andeq	r0, r0, r8, asr #4
    1540:	00000250 	andeq	r0, r0, r0, asr r2
    1544:	505c0001 	subspl	r0, ip, r1
    1548:	78000002 	stmdavc	r0, {r1}
    154c:	01000002 	tsteq	r0, r2
    1550:	00005100 	andeq	r5, r0, r0, lsl #2
    1554:	00000000 	andeq	r0, r0, r0
    1558:	02140000 	andseq	r0, r4, #0
    155c:	02640000 	rsbeq	r0, r4, #0
    1560:	00010000 	andeq	r0, r1, r0
    1564:	00000053 	andeq	r0, r0, r3, asr r0
    1568:	00000000 	andeq	r0, r0, r0
    156c:	00027800 	andeq	r7, r2, r0, lsl #16
    1570:	00028000 	andeq	r8, r2, r0
    1574:	5d000100 	stfpls	f0, [r0]
    1578:	00000280 	andeq	r0, r0, r0, lsl #5
    157c:	000002fc 	strdeq	r0, [r0], -ip
    1580:	087d0002 	ldmdaeq	sp!, {r1}^
	...
    158c:	000002cc 	andeq	r0, r0, ip, asr #5
    1590:	000002e4 	andeq	r0, r0, r4, ror #5
    1594:	e8530001 	ldmda	r3, {r0}^
    1598:	ec000002 	stc	0, cr0, [r0], {2}
    159c:	01000002 	tsteq	r0, r2
    15a0:	00005300 	andeq	r5, r0, r0, lsl #6
    15a4:	00000000 	andeq	r0, r0, r0
    15a8:	02940000 	addseq	r0, r4, #0
    15ac:	02cc0000 	sbceq	r0, ip, #0
    15b0:	00010000 	andeq	r0, r1, r0
    15b4:	00000053 	andeq	r0, r0, r3, asr r0
    15b8:	00000000 	andeq	r0, r0, r0
    15bc:	0002a800 	andeq	sl, r2, r0, lsl #16
    15c0:	0002b000 	andeq	fp, r2, r0
    15c4:	51000100 	tstpl	r0, r0, lsl #2
    15c8:	000002b0 	undefined instruction 0x000002b0
    15cc:	000002b8 	undefined instruction 0x000002b8
    15d0:	b8540001 	ldmdalt	r4, {r0}^
    15d4:	d4000002 	strle	r0, [r0], #-2
    15d8:	01000002 	tsteq	r0, r2
    15dc:	02d45100 	sbcseq	r5, r4, #0
    15e0:	02fc0000 	rscseq	r0, ip, #0
    15e4:	00010000 	andeq	r0, r1, r0
    15e8:	00000054 	andeq	r0, r0, r4, asr r0
    15ec:	00000000 	andeq	r0, r0, r0
    15f0:	00029000 	andeq	r9, r2, r0
    15f4:	0002d000 	andeq	sp, r2, r0
    15f8:	52000100 	andpl	r0, r0, #0
	...
    1604:	000002fc 	strdeq	r0, [r0], -ip
    1608:	00000304 	andeq	r0, r0, r4, lsl #6
    160c:	00500001 	subseq	r0, r0, r1
    1610:	00000000 	andeq	r0, r0, r0
    1614:	50000000 	andpl	r0, r0, r0
    1618:	54000003 	strpl	r0, [r0], #-3
    161c:	01000003 	tsteq	r0, r3
    1620:	03545d00 	cmpeq	r4, #0
    1624:	03840000 	orreq	r0, r4, #0
    1628:	00020000 	andeq	r0, r2, r0
    162c:	0000107d 	andeq	r1, r0, sp, ror r0
    1630:	00000000 	andeq	r0, r0, r0
    1634:	03500000 	cmpeq	r0, #0
    1638:	03680000 	cmneq	r8, #0
    163c:	00010000 	andeq	r0, r1, r0
    1640:	00000050 	andeq	r0, r0, r0, asr r0
    1644:	00000000 	andeq	r0, r0, r0
    1648:	00036000 	andeq	r6, r3, r0
    164c:	00037800 	andeq	r7, r3, r0, lsl #16
    1650:	56000100 	strpl	r0, [r0], -r0, lsl #2
    1654:	00000378 	andeq	r0, r0, r8, ror r3
    1658:	00000384 	andeq	r0, r0, r4, lsl #7
    165c:	00550001 	subseq	r0, r5, r1
    1660:	00000000 	andeq	r0, r0, r0
    1664:	Address 0x00001664 is out of bounds.


Disassembly of section .debug_pubnames:

00000000 <.debug_pubnames>:
   0:	00000017 	andeq	r0, r0, r7, lsl r0
   4:	00000002 	andeq	r0, r0, r2
   8:	06910000 	ldreq	r0, [r1], r0
   c:	05c80000 	strbeq	r0, [r8]
  10:	616d0000 	cmnvs	sp, r0
  14:	00006e69 	andeq	r6, r0, r9, ror #28
  18:	1d000000 	stcne	0, cr0, [r0]
  1c:	02000000 	andeq	r0, r0, #0
  20:	00069100 	andeq	r9, r6, r0, lsl #2
  24:	0000c300 	andeq	ip, r0, r0, lsl #6
  28:	00006200 	andeq	r6, r0, r0, lsl #4
  2c:	6d656d00 	stclvs	13, cr6, [r5]
  30:	6d656d5f 	stclvs	13, cr6, [r5, #-380]!	; 0xfffffe84
  34:	00797063 	rsbseq	r7, r9, r3, rrx
  38:	00000000 	andeq	r0, r0, r0
  3c:	00000068 	andeq	r0, r0, r8, rrx
  40:	07c50002 	strbeq	r0, [r5, r2]
  44:	21bc0000 	undefined instruction 0x21bc0000
  48:	1f4d0000 	svcne	0x004d0000
  4c:	656d0000 	strbvs	r0, [sp]!
  50:	77745f6d 	ldrbvc	r5, [r4, -sp, ror #30]!
  54:	6e695f69 	cdpvs	15, 6, cr5, cr9, cr9, {3}
  58:	af007469 	svcge	0x00007469
  5c:	7300001f 	movwvc	r0, #31
  60:	70757465 	rsbsvc	r7, r5, r5, ror #8
  64:	6977745f 	ldmdbvs	r7!, {r0, r1, r2, r3, r4, r6, sl, ip, sp, lr}^
  68:	766e655f 	undefined instruction 0x766e655f
  6c:	001fc200 	andseq	ip, pc, r0, lsl #4
  70:	69777400 	ldmdbvs	r7!, {sl, ip, sp, lr}^
  74:	7479625f 	ldrbtvc	r6, [r9], #-607	; 0x25f
  78:	77725f65 	ldrbvc	r5, [r2, -r5, ror #30]!
  7c:	00207600 	eoreq	r7, r0, r0, lsl #12
  80:	69777400 	ldmdbvs	r7!, {sl, ip, sp, lr}^
  84:	7479625f 	ldrbtvc	r6, [r9], #-607	; 0x25f
  88:	77725f65 	ldrbvc	r5, [r2, -r5, ror #30]!
  8c:	6d6f6e5f 	stclvs	14, cr6, [pc, #-380]!	; 0xfffffe84
  90:	2c00756d 	cfstr32cs	mvfx7, [r0], {109}	; 0x6d
  94:	6d000021 	stcvs	0, cr0, [r0, #-132]	; 0xffffff7c
  98:	745f6d65 	ldrbvc	r6, [pc], #3429	; a0 <__resume1_start+0xa0>
  9c:	655f6977 	ldrbvs	r6, [pc, #-2423]	; fffff72d <__bss_end+0xffffb44d>
  a0:	00746978 	rsbseq	r6, r4, r8, ror r9
  a4:	00000000 	andeq	r0, r0, r0
  a8:	000000d2 	ldrdeq	r0, [r0], -r2
  ac:	29f80002 	ldmibcs	r8!, {r1}^
  b0:	20800000 	addcs	r0, r0, r0
  b4:	1f340000 	svcne	0x00340000
  b8:	656d0000 	strbvs	r0, [sp]!
  bc:	6c635f6d 	stclvs	15, cr5, [r3], #-436	; 0xfffffe4c
  c0:	6e695f6b 	cdpvs	15, 6, cr5, cr9, cr11, {3}
  c4:	4b007469 	blmi	1d270 <__bss_end+0x18f90>
  c8:	6d00001f 	stcvs	0, cr0, [r0, #-124]	; 0xffffff84
  cc:	635f6d65 	cmpvs	pc, #6464	; 0x1940
  d0:	705f6b6c 	subsvc	r6, pc, ip, ror #22
  d4:	69646c6c 	stmdbvs	r4!, {r2, r3, r5, r6, sl, fp, sp, lr}^
  d8:	6c626173 	stfvse	f6, [r2], #-460	; 0xfffffe34
  dc:	1f620065 	svcne	0x00620065
  e0:	656d0000 	strbvs	r0, [sp]!
  e4:	6c635f6d 	stclvs	15, cr5, [r3], #-436	; 0xfffffe4c
  e8:	6c705f6b 	ldclvs	15, cr5, [r0], #-428	; 0xfffffe54
  ec:	616e656c 	cmnvs	lr, ip, ror #10
  f0:	00656c62 	rsbeq	r6, r5, r2, ror #24
  f4:	00001f79 	andeq	r1, r0, r9, ror pc
  f8:	5f6d656d 	svcpl	0x006d656d
  fc:	5f6b6c63 	svcpl	0x006b6c63
 100:	64746573 	ldrbtvs	r6, [r4], #-1395	; 0x573
 104:	aa007669 	bge	1dab0 <__bss_end+0x197d0>
 108:	6d00001f 	stcvs	0, cr0, [r0, #-124]	; 0xffffff84
 10c:	635f6d65 	cmpvs	pc, #6464	; 0x1940
 110:	675f6b6c 	ldrbvs	r6, [pc, -ip, ror #22]
 114:	69647465 	stmdbvs	r4!, {r0, r2, r5, r6, sl, ip, sp, lr}^
 118:	1fd50076 	svcne	0x00d50076
 11c:	656d0000 	strbvs	r0, [sp]!
 120:	6c635f6d 	stclvs	15, cr5, [r3], #-436	; 0xfffffe4c
 124:	65735f6b 	ldrbvs	r5, [r3, #-3947]!	; 0xf6b
 128:	6c705f74 	ldclvs	15, cr5, [r0], #-464	; 0xfffffe30
 12c:	61665f6c 	cmnvs	r6, ip, ror #30
 130:	726f7463 	rsbvc	r7, pc, #1660944384	; 0x63000000
 134:	00200600 	eoreq	r0, r0, r0, lsl #12
 138:	6d656d00 	stclvs	13, cr6, [r5]
 13c:	6b6c635f 	blvs	1b18ec0 <__bss_end+0x1b14be0>
 140:	7465675f 	strbtvc	r6, [r5], #-1887	; 0x75f
 144:	6c6c705f 	stclvs	0, cr7, [ip], #-380	; 0xfffffe84
 148:	6361665f 	cmnvs	r1, #99614720	; 0x5f00000
 14c:	00726f74 	rsbseq	r6, r2, r4, ror pc
 150:	00002031 	andeq	r2, r0, r1, lsr r0
 154:	5f6d656d 	svcpl	0x006d656d
 158:	5f6b6c63 	svcpl	0x006b6c63
 15c:	6d617264 	sfmvs	f7, 2, [r1, #-400]!	; (stclvs 2, cr7, [r1, #-400]!)	; 0xfffffe70
 160:	69746167 	ldmdbvs	r4!, {r0, r1, r2, r5, r6, r8, sp, lr}^
 164:	6d00676e 	stcvs	7, cr6, [r0, #-440]	; 0xfffffe48
 168:	63000020 	movwvs	r0, #32
 16c:	6d5f7570 	cfldr64vs	mvdx7, [pc, #-448]	; 0xfffffe40
 170:	6f6c5f73 	svcvs	0x006c5f73
 174:	6e63706f 	cdpvs	0, 6, cr7, cr3, cr15, {3}
 178:	00000074 	andeq	r0, r0, r4, ror r0
 17c:	00860000 	addeq	r0, r6, r0
 180:	00020000 	andeq	r0, r2, r0
 184:	00004a78 	andeq	r4, r0, r8, ror sl
 188:	000004cd 	andeq	r0, r0, sp, asr #9
 18c:	000001e5 	andeq	r0, r0, r5, ror #3
 190:	5f6d656d 	svcpl	0x006d656d
 194:	65776f70 	ldrbvs	r6, [r7, #-3952]!	; 0xf70
 198:	666f5f72 	uqsub16vs	r5, pc, r2
 19c:	6f6e5f66 	svcvs	0x006e5f66
 1a0:	00756d6d 	rsbseq	r6, r5, sp, ror #26
 1a4:	00000214 	andeq	r0, r0, r4, lsl r2
 1a8:	5f6d656d 	svcpl	0x006d656d
 1ac:	65776f70 	ldrbvs	r6, [r7, #-3952]!	; 0xf70
 1b0:	666f5f72 	uqsub16vs	r5, pc, r2
 1b4:	02430066 	subeq	r0, r3, #102	; 0x66
 1b8:	656d0000 	strbvs	r0, [sp]!
 1bc:	6f705f6d 	svcvs	0x00705f6d
 1c0:	5f726577 	svcpl	0x00726577
 1c4:	74697865 	strbtvc	r7, [r9], #-2149	; 0x865
 1c8:	00028200 	andeq	r8, r2, r0, lsl #4
 1cc:	6d656d00 	stclvs	13, cr6, [r5]
 1d0:	7465675f 	strbtvc	r6, [r5], #-1887	; 0x75f
 1d4:	6c6f765f 	stclvs	6, cr7, [pc], #-380	; 0xfffffe84
 1d8:	65676174 	strbvs	r6, [r7, #-372]!	; 0x174
 1dc:	0002fb00 	andeq	pc, r2, r0, lsl #22
 1e0:	6d656d00 	stclvs	13, cr6, [r5]
 1e4:	7465735f 	strbtvc	r7, [r5], #-863	; 0x35f
 1e8:	6c6f765f 	stclvs	6, cr7, [pc], #-380	; 0xfffffe84
 1ec:	65676174 	strbvs	r6, [r7, #-372]!	; 0x174
 1f0:	00044900 	andeq	r4, r4, r0, lsl #18
 1f4:	6d656d00 	stclvs	13, cr6, [r5]
 1f8:	776f705f 	undefined instruction 0x776f705f
 1fc:	695f7265 	ldmdbvs	pc, {r0, r2, r5, r6, r9, ip, sp, lr}^
 200:	0074696e 	rsbseq	r6, r4, lr, ror #18
 204:	00000000 	andeq	r0, r0, r0
 208:	00000055 	andeq	r0, r0, r5, asr r0
 20c:	4f450002 	svcmi	0x00450002
 210:	03500000 	cmpeq	r0, #0
 214:	023e0000 	eorseq	r0, lr, #0
 218:	656d0000 	strbvs	r0, [sp]!
 21c:	6e695f6d 	cdpvs	15, 6, cr5, cr9, cr13, {3}
 220:	6e695f74 	mcrvs	15, 3, r5, cr9, cr4, {3}
 224:	57007469 	strpl	r7, [r0, -r9, ror #8]
 228:	6d000002 	stcvs	0, cr0, [r0, #-8]
 22c:	695f6d65 	ldmdbvs	pc, {r0, r2, r5, r6, r8, sl, fp, sp, lr}^
 230:	655f746e 	ldrbvs	r7, [pc, #-1134]	; fffffdca <__bss_end+0xffffbaea>
 234:	00746978 	rsbseq	r6, r4, r8, ror r9
 238:	0000026e 	andeq	r0, r0, lr, ror #4
 23c:	5f6d656d 	svcpl	0x006d656d
 240:	62616e65 	rsbvs	r6, r1, #1616	; 0x650
 244:	695f656c 	ldmdbvs	pc, {r2, r3, r5, r6, r8, sl, sp, lr}^
 248:	b500746e 	strlt	r7, [r0, #-1134]	; 0x46e
 24c:	6d000002 	stcvs	0, cr0, [r0, #-8]
 250:	715f6d65 	cmpvc	pc, r5, ror #26
 254:	79726575 	ldmdbvc	r2!, {r0, r2, r4, r5, r6, r8, sl, sp, lr}^
 258:	746e695f 	strbtvc	r6, [lr], #-2399	; 0x95f
 25c:	00000000 	andeq	r0, r0, r0
 260:	00003c00 	andeq	r3, r0, r0, lsl #24
 264:	95000200 	strls	r0, [r0, #-512]	; 0x200
 268:	0a000052 	beq	3b8 <enable_icache+0x18>
 26c:	7f000004 	svcvc	0x00000004
 270:	6d000003 	stcvs	0, cr0, [r0, #-12]
 274:	745f6d65 	ldrbvc	r6, [pc], #3429	; 27c <flush_dcache>
 278:	695f726d 	ldmdbvs	pc, {r0, r2, r3, r5, r6, r9, ip, sp, lr}^
 27c:	0074696e 	rsbseq	r6, r4, lr, ror #18
 280:	00000392 	muleq	r0, r2, r3
 284:	5f6d656d 	svcpl	0x006d656d
 288:	5f726d74 	svcpl	0x00726d74
 28c:	61736964 	cmnvs	r3, r4, ror #18
 290:	5f656c62 	svcpl	0x00656c62
 294:	63746177 	cmnvs	r4, #-1073741795	; 0xc000001d
 298:	676f6468 	strbvs	r6, [pc, -r8, ror #8]!
 29c:	00000000 	andeq	r0, r0, r0
 2a0:	00021f00 	andeq	r1, r2, r0, lsl #30
 2a4:	9f000200 	svcls	0x00000200
 2a8:	93000056 	movwls	r0, #86	; 0x56
 2ac:	60000006 	andvs	r0, r0, r6
 2b0:	44000001 	strmi	r0, [r0], #-1
 2b4:	434d4152 	movtmi	r4, #53586	; 0xd152
 2b8:	736f685f 	cmnvc	pc, #6225920	; 0x5f0000
 2bc:	726f7074 	rsbvc	r7, pc, #116	; 0x74
 2c0:	6e6f5f74 	mcrvs	15, 3, r5, cr15, cr4, {3}
 2c4:	66666f5f 	uqsubaddxvs	r6, r6, pc
 2c8:	00018900 	andeq	r8, r1, r0, lsl #18
 2cc:	41524400 	cmpmi	r2, r0, lsl #8
 2d0:	685f434d 	ldmdavs	pc, {r0, r2, r3, r6, r8, r9, lr}^
 2d4:	7074736f 	rsbsvc	r7, r4, pc, ror #6
 2d8:	5f74726f 	svcpl	0x0074726f
 2dc:	63656863 	cmnvs	r5, #6488064	; 0x630000
 2e0:	68615f6b 	stmdavs	r1!, {r0, r1, r3, r5, r6, r8, r9, sl, fp, ip, lr}^
 2e4:	69665f62 	stmdbvs	r6!, {r1, r5, r6, r8, r9, sl, fp, ip, lr}^
 2e8:	735f6f66 	cmpvc	pc, #408	; 0x198
 2ec:	75746174 	ldrbvc	r6, [r4, #-372]!	; 0x174
 2f0:	01ad0073 	undefined instruction 0x01ad0073
 2f4:	52440000 	subpl	r0, r4, #0
 2f8:	5f434d41 	svcpl	0x00434d41
 2fc:	74736f68 	ldrbtvc	r6, [r3], #-3944	; 0xf68
 300:	74726f70 	ldrbtvc	r6, [r2], #-3952	; 0xf70
 304:	7465735f 	strbtvc	r7, [r5], #-863	; 0x35f
 308:	10007075 	andne	r7, r0, r5, ror r0
 30c:	64000002 	strvs	r0, [r0], #-2
 310:	5f6d6172 	svcpl	0x006d6172
 314:	74736f68 	ldrbtvc	r6, [r3], #-3944	; 0xf68
 318:	74726f70 	ldrbtvc	r6, [r2], #-3952	; 0xf70
 31c:	5f6e6f5f 	svcpl	0x006e6f5f
 320:	0066666f 	rsbeq	r6, r6, pc, ror #12
 324:	00000270 	andeq	r0, r0, r0, ror r2
 328:	6d617264 	sfmvs	f7, 2, [r1, #-400]!	; (stclvs 2, cr7, [r1, #-400]!)	; 0xfffffe70
 32c:	736f685f 	cmnvc	pc, #6225920	; 0x5f0000
 330:	726f7074 	rsbvc	r7, pc, #116	; 0x74
 334:	68635f74 	stmdavs	r3!, {r2, r4, r5, r6, r8, r9, sl, fp, ip, lr}^
 338:	5f6b6365 	svcpl	0x006b6365
 33c:	5f626861 	svcpl	0x00626861
 340:	6f666966 	svcvs	0x00666966
 344:	6174735f 	cmnvs	r4, pc, asr r3
 348:	00737574 	rsbseq	r7, r3, r4, ror r5
 34c:	000002c4 	andeq	r0, r0, r4, asr #5
 350:	6d617264 	sfmvs	f7, 2, [r1, #-400]!	; (stclvs 2, cr7, [r1, #-400]!)	; 0xfffffe70
 354:	736f685f 	cmnvc	pc, #6225920	; 0x5f0000
 358:	726f7074 	rsbvc	r7, pc, #116	; 0x74
 35c:	65735f74 	ldrbvs	r5, [r3, #-3956]!	; 0xf74
 360:	00707574 	rsbseq	r7, r0, r4, ror r5
 364:	0000031d 	andeq	r0, r0, sp, lsl r3
 368:	6c74636d 	ldclvs	3, cr6, [r4], #-436	; 0xfffffe4c
 36c:	6268615f 	rsbvs	r6, r8, #-1073741801	; 0xc0000017
 370:	7365725f 	cmnvc	r5, #-268435451	; 0xf0000005
 374:	53007465 	movwpl	r7, #1125	; 0x465
 378:	44000003 	strmi	r0, [r0], #-3
 37c:	434d4152 	movtmi	r4, #53586	; 0xd152
 380:	746e655f 	strbtvc	r6, [lr], #-1375	; 0x55f
 384:	705f7265 	subsvc	r7, pc, r5, ror #4
 388:	7265776f 	rsbvc	r7, r5, #29097984	; 0x1bc0000
 38c:	776f645f 	undefined instruction 0x776f645f
 390:	0383006e 	orreq	r0, r3, #110	; 0x6e
 394:	72640000 	rsbvc	r0, r4, #0
 398:	655f6d61 	ldrbvs	r6, [pc, #-3425]	; fffff63f <__bss_end+0xffffb35f>
 39c:	7265746e 	rsbvc	r7, r5, #1845493760	; 0x6e000000
 3a0:	776f705f 	undefined instruction 0x776f705f
 3a4:	645f7265 	ldrbvs	r7, [pc], #613	; 3ac <enable_icache+0xc>
 3a8:	006e776f 	rsbeq	r7, lr, pc, ror #14
 3ac:	00000397 	muleq	r0, r7, r3
 3b0:	6c74636d 	ldclvs	3, cr6, [r4], #-436	; 0xfffffe4c
 3b4:	646f6d5f 	strbtvs	r6, [pc], #3423	; 3bc <disable_l2cache>
 3b8:	78655f65 	stmdavc	r5!, {r0, r2, r5, r6, r8, r9, sl, fp, ip, lr}^
 3bc:	c7007469 	strgt	r7, [r0, -r9, ror #8]
 3c0:	44000003 	strmi	r0, [r0], #-3
 3c4:	434d4152 	movtmi	r4, #53586	; 0xd152
 3c8:	6978655f 	ldmdbvs	r8!, {r0, r1, r2, r3, r4, r6, r8, sl, sp, lr}^
 3cc:	6f705f74 	svcvs	0x00705f74
 3d0:	5f726577 	svcpl	0x00726577
 3d4:	6e776f64 	cdpvs	15, 7, cr6, cr7, cr4, {3}
 3d8:	0003d600 	andeq	sp, r3, r0, lsl #12
 3dc:	61726400 	cmnvs	r2, r0, lsl #8
 3e0:	78655f6d 	stmdavc	r5!, {r0, r2, r3, r5, r6, r8, r9, sl, fp, ip, lr}^
 3e4:	705f7469 	subsvc	r7, pc, r9, ror #8
 3e8:	7265776f 	rsbvc	r7, r5, #29097984	; 0x1bc0000
 3ec:	776f645f 	undefined instruction 0x776f645f
 3f0:	03ff006e 	mvnseq	r0, #110	; 0x6e
 3f4:	52440000 	subpl	r0, r4, #0
 3f8:	5f434d41 	svcpl	0x00434d41
 3fc:	74697865 	strbtvc	r7, [r9], #-2149	; 0x865
 400:	6c65735f 	stclvs	3, cr7, [r5], #-380	; 0xfffffe84
 404:	66657266 	strbtvs	r7, [r5], -r6, ror #4
 408:	68736572 	ldmdavs	r3!, {r1, r4, r5, r6, r8, sl, sp, lr}^
 40c:	00045a00 	andeq	r5, r4, r0, lsl #20
 410:	61726400 	cmnvs	r2, r0, lsl #8
 414:	78655f6d 	stmdavc	r5!, {r0, r2, r3, r5, r6, r8, r9, sl, fp, ip, lr}^
 418:	735f7469 	cmpvc	pc, #1761607680	; 0x69000000
 41c:	72666c65 	rsbvc	r6, r6, #25856	; 0x6500
 420:	65726665 	ldrbvs	r6, [r2, #-1637]!	; 0x665
 424:	6e006873 	mcrvs	8, 0, r6, cr0, cr3, {3}
 428:	6d000004 	stcvs	0, cr0, [r0, #-16]
 42c:	5f6c7463 	svcpl	0x006c7463
 430:	63657270 	cmnvs	r5, #7
 434:	67726168 	ldrbvs	r6, [r2, -r8, ror #2]!
 438:	6c615f65 	stclvs	15, cr5, [r1], #-404	; 0xfffffe6c
 43c:	049e006c 	ldreq	r0, [lr], #108	; 0x6c
 440:	52440000 	subpl	r0, r4, #0
 444:	5f434d41 	svcpl	0x00434d41
 448:	65746e65 	ldrbvs	r6, [r4, #-3685]!	; 0xe65
 44c:	65735f72 	ldrbvs	r5, [r3, #-3954]!	; 0xf72
 450:	6572666c 	ldrbvs	r6, [r2, #-1644]!	; 0x66c
 454:	73657266 	cmnvc	r5, #1610612742	; 0x60000006
 458:	04fd0068 	ldrbteq	r0, [sp], #104	; 0x68
 45c:	72640000 	rsbvc	r0, r4, #0
 460:	655f6d61 	ldrbvs	r6, [pc, #-3425]	; fffff707 <__bss_end+0xffffb427>
 464:	7265746e 	rsbvc	r7, r5, #1845493760	; 0x6e000000
 468:	6c65735f 	stclvs	3, cr7, [r5], #-380	; 0xfffffe84
 46c:	66657266 	strbtvs	r7, [r5], -r6, ror #4
 470:	68736572 	ldmdavs	r3!, {r1, r4, r5, r6, r8, sl, sp, lr}^
 474:	00051100 	andeq	r1, r5, r0, lsl #2
 478:	61726400 	cmnvs	r2, r0, lsl #8
 47c:	6f705f6d 	svcvs	0x00705f6d
 480:	5f726577 	svcpl	0x00726577
 484:	65766173 	ldrbvs	r6, [r6, #-371]!	; 0x173
 488:	6f72705f 	svcvs	0x0072705f
 48c:	73736563 	cmnvc	r3, #415236096	; 0x18c00000
 490:	00057500 	andeq	r7, r5, r0, lsl #10
 494:	41524400 	cmpmi	r2, r0, lsl #8
 498:	725f434d 	subsvc	r4, pc, #872415233	; 0x34000001
 49c:	61727465 	cmnvs	r2, r5, ror #8
 4a0:	6e696e69 	cdpvs	14, 6, cr6, cr9, cr9, {3}
 4a4:	067a0067 	ldrbteq	r0, [sl], -r7, rrx
 4a8:	72640000 	rsbvc	r0, r4, #0
 4ac:	705f6d61 	subsvc	r6, pc, r1, ror #26
 4b0:	7265776f 	rsbvc	r7, r5, #29097984	; 0x1bc0000
 4b4:	5f70755f 	svcpl	0x0070755f
 4b8:	636f7270 	cmnvs	pc, #7
 4bc:	00737365 	rsbseq	r7, r3, r5, ror #6
 4c0:	00000000 	andeq	r0, r0, r0
 4c4:	0000021a 	andeq	r0, r0, sl, lsl r2
 4c8:	5d320002 	ldcpl	0, cr0, [r2, #-8]!
 4cc:	093c0000 	ldmdbeq	ip!, {}
 4d0:	030c0000 	movweq	r0, #49152	; 0xc000
 4d4:	636d0000 	cmnvs	sp, #0
 4d8:	735f6c74 	cmpvc	pc, #29696	; 0x7400
 4dc:	645f7465 	ldrbvs	r7, [pc], #1125	; 4e4 <mem_preload_tlb+0xb4>
 4e0:	65766972 	ldrbvs	r6, [r6, #-2418]!	; 0x972
 4e4:	00032700 	andeq	r2, r3, r0, lsl #14
 4e8:	74636d00 	strbtvc	r6, [r3], #-3328	; 0xd00
 4ec:	74695f6c 	strbtvc	r5, [r9], #-3948	; 0xf6c
 4f0:	69645f6d 	stmdbvs	r4!, {r0, r2, r3, r5, r6, r8, r9, sl, fp, ip, lr}^
 4f4:	6c626173 	stfvse	f6, [r2], #-460	; 0xfffffe34
 4f8:	03420065 	movteq	r0, #8293	; 0x2065
 4fc:	636d0000 	cmnvs	sp, #0
 500:	695f6c74 	ldmdbvs	pc, {r2, r4, r5, r6, sl, fp, sp, lr}^
 504:	655f6d74 	ldrbvs	r6, [pc, #-3444]	; fffff798 <__bss_end+0xffffb4b8>
 508:	6c62616e 	stfvse	f6, [r2], #-440	; 0xfffffe48
 50c:	035d0065 	cmpeq	sp, #101	; 0x65
 510:	636d0000 	cmnvs	sp, #0
 514:	645f6c74 	ldrbvs	r6, [pc], #3188	; 51c <mem_preload_tlb+0xec>
 518:	62617369 	rsbvs	r7, r1, #-1543503871	; 0xa4000001
 51c:	645f656c 	ldrbvs	r6, [pc], #1388	; 524 <mem_preload_tlb_nommu>
 520:	82006c6c 	andhi	r6, r0, #27648	; 0x6c00
 524:	6d000003 	stcvs	0, cr0, [r0, #-12]
 528:	5f6c7463 	svcpl	0x006c7463
 52c:	666e6f63 	strbtvs	r6, [lr], -r3, ror #30
 530:	72756769 	rsbsvc	r6, r5, #27525120	; 0x1a40000
 534:	6f685f65 	svcvs	0x00685f65
 538:	6f707473 	svcvs	0x00707473
 53c:	9d007472 	cfstrsls	mvf7, [r0, #-456]	; 0xfffffe38
 540:	44000003 	strmi	r0, [r0], #-3
 544:	434d4152 	movtmi	r4, #53586	; 0xd152
 548:	6978655f 	ldmdbvs	r8!, {r0, r1, r2, r3, r4, r6, r8, sl, sp, lr}^
 54c:	03ac0074 	undefined instruction 0x03ac0074
 550:	52440000 	subpl	r0, r4, #0
 554:	5f434d41 	svcpl	0x00434d41
 558:	6e616373 	mcrvs	3, 3, r6, cr1, cr3, {3}
 55c:	6165725f 	cmnvs	r5, pc, asr r2
 560:	70697064 	rsbvc	r7, r9, r4, rrx
 564:	03c90065 	biceq	r0, r9, #101	; 0x65
 568:	52440000 	subpl	r0, r4, #0
 56c:	5f434d41 	svcpl	0x00434d41
 570:	636f6c63 	cmnvs	pc, #25344	; 0x6300
 574:	756f5f6b 	strbvc	r5, [pc, #-3947]!	; fffff611 <__bss_end+0xffffb331>
 578:	74757074 	ldrbtvc	r7, [r5], #-116	; 0x74
 57c:	006e655f 	rsbeq	r6, lr, pc, asr r5
 580:	000003eb 	andeq	r0, r0, fp, ror #7
 584:	4d415244 	sfmmi	f5, 2, [r1, #-272]	; (stclmi 2, cr5, [r1, #-272])	; 0xfffffef0
 588:	65735f43 	ldrbvs	r5, [r3, #-3907]!	; 0xf43
 58c:	75615f74 	strbvc	r5, [r1, #-3956]!	; 0xf74
 590:	65726f74 	ldrbvs	r6, [r2, #-3956]!	; 0xf74
 594:	73657266 	cmnvc	r5, #1610612742	; 0x60000006
 598:	79635f68 	stmdbvc	r3!, {r3, r5, r6, r8, r9, sl, fp, ip, lr}^
 59c:	00656c63 	rsbeq	r6, r5, r3, ror #24
 5a0:	00000412 	andeq	r0, r0, r2, lsl r4
 5a4:	4d415244 	sfmmi	f5, 2, [r1, #-272]	; (stclmi 2, cr5, [r1, #-272])	; 0xfffffef0
 5a8:	65675f43 	strbvs	r5, [r7, #-3907]!	; 0xf43
 5ac:	72645f74 	rsbvc	r5, r4, #464	; 0x1d0
 5b0:	735f6d61 	cmpvc	pc, #6208	; 0x1840
 5b4:	00657a69 	rsbeq	r7, r5, r9, ror #20
 5b8:	0000045f 	andeq	r0, r0, pc, asr r4
 5bc:	6d617264 	sfmvs	f7, 2, [r1, #-400]!	; (stclvs 2, cr7, [r1, #-400]!)	; 0xfffffe70
 5c0:	696e695f 	stmdbvs	lr!, {r0, r1, r2, r3, r4, r6, r8, fp, sp, lr}^
 5c4:	04770074 	ldrbteq	r0, [r7], #-116	; 0x74
 5c8:	72640000 	rsbvc	r0, r4, #0
 5cc:	655f6d61 	ldrbvs	r6, [pc, #-3425]	; fffff873 <__bss_end+0xffffb593>
 5d0:	00746978 	rsbseq	r6, r4, r8, ror r9
 5d4:	0000048f 	andeq	r0, r0, pc, lsl #9
 5d8:	6d617264 	sfmvs	f7, 2, [r1, #-400]!	; (stclvs 2, cr7, [r1, #-400]!)	; 0xfffffe70
 5dc:	7465675f 	strbtvc	r6, [r5], #-1887	; 0x75f
 5e0:	7a69735f 	bvc	1a5d364 <__bss_end+0x1a59084>
 5e4:	04a70065 	strteq	r0, [r7], #101	; 0x65
 5e8:	72640000 	rsbvc	r0, r4, #0
 5ec:	735f6d61 	cmpvc	pc, #6208	; 0x1840
 5f0:	645f7465 	ldrbvs	r7, [pc], #1125	; 5f8 <mem_preload_tlb_nommu+0xd4>
 5f4:	65766972 	ldrbvs	r6, [r6, #-2418]!	; 0x972
 5f8:	0004e200 	andeq	lr, r4, r0, lsl #4
 5fc:	61726400 	cmnvs	r2, r0, lsl #8
 600:	65735f6d 	ldrbvs	r5, [r3, #-3949]!	; 0xf6d
 604:	75615f74 	strbvc	r5, [r1, #-3956]!	; 0xf74
 608:	65726f74 	ldrbvs	r6, [r2, #-3956]!	; 0xf74
 60c:	73657266 	cmnvc	r5, #1610612742	; 0x60000006
 610:	79635f68 	stmdbvc	r3!, {r3, r5, r6, r8, r9, sl, fp, ip, lr}^
 614:	00656c63 	rsbeq	r6, r5, r3, ror #24
 618:	00000535 	andeq	r0, r0, r5, lsr r5
 61c:	6d617264 	sfmvs	f7, 2, [r1, #-400]!	; (stclvs 2, cr7, [r1, #-400]!)	; 0xfffffe70
 620:	6163735f 	cmnvs	r3, pc, asr r3
 624:	65725f6e 	ldrbvs	r5, [r2, #-3950]!	; 0xf6e
 628:	69706461 	ldmdbvs	r0!, {r0, r5, r6, sl, sp, lr}^
 62c:	76006570 	undefined instruction 0x76006570
 630:	67000005 	strvs	r0, [r0, -r5]
 634:	625f7465 	subsvs	r7, pc, #1694498816	; 0x65000000
 638:	30746f6f 	rsbscc	r6, r4, pc, ror #30
 63c:	6172645f 	cmnvs	r2, pc, asr r4
 640:	61705f6d 	cmnvs	r0, sp, ror #30
 644:	a5006172 	strge	r6, [r0, #-370]	; 0x172
 648:	6d000005 	stcvs	0, cr0, [r0, #-20]	; 0xffffffec
 64c:	5f6c7463 	svcpl	0x006c7463
 650:	75746573 	ldrbvc	r6, [r4, #-1395]!	; 0x573
 654:	72645f70 	rsbvc	r5, r4, #448	; 0x1c0
 658:	635f6d61 	cmpvs	pc, #6208	; 0x1840
 65c:	6b636f6c 	blvs	18dc414 <__bss_end+0x18d8134>
 660:	00062300 	andeq	r2, r6, r0, lsl #6
 664:	61726400 	cmnvs	r2, r0, lsl #8
 668:	65735f6d 	ldrbvs	r5, [r3, #-3949]!	; 0xf6d
 66c:	6c635f74 	stclvs	15, cr5, [r3], #-464	; 0xfffffe30
 670:	006b636f 	rsbeq	r6, fp, pc, ror #6
 674:	0000064c 	andeq	r0, r0, ip, asr #12
 678:	6c74636d 	ldclvs	3, cr6, [r4], #-436	; 0xfffffe4c
 67c:	616e655f 	cmnvs	lr, pc, asr r5
 680:	5f656c62 	svcpl	0x00656c62
 684:	786c6c64 	stmdavc	ip!, {r2, r5, r6, sl, fp, sp, lr}^
 688:	00068f00 	andeq	r8, r6, r0, lsl #30
 68c:	74636d00 	strbtvc	r6, [r3], #-3328	; 0xd00
 690:	6e655f6c 	cdpvs	15, 6, cr5, cr5, cr12, {3}
 694:	656c6261 	strbvs	r6, [ip, #-609]!	; 0x261
 698:	6c6c645f 	cfstrdvs	mvd6, [ip], #-380	; 0xfffffe84
 69c:	06b20030 	undefined instruction 0x06b20030
 6a0:	636d0000 	cmnvs	sp, #0
 6a4:	645f6c74 	ldrbvs	r6, [pc], #3188	; 6ac <__turn_mmu_on+0x2c>
 6a8:	5f337264 	svcpl	0x00337264
 6ac:	65736572 	ldrbvs	r6, [r3, #-1394]!	; 0x572
 6b0:	06db0074 	undefined instruction 0x06db0074
 6b4:	52440000 	subpl	r0, r4, #0
 6b8:	5f434d41 	svcpl	0x00434d41
 6bc:	74696e69 	strbtvc	r6, [r9], #-3689	; 0xe69
 6c0:	00087e00 	andeq	r7, r8, r0, lsl #28
 6c4:	696e6900 	stmdbvs	lr!, {r8, fp, sp, lr}^
 6c8:	52445f74 	subpl	r5, r4, #464	; 0x1d0
 6cc:	28004d41 	stmdacs	r0, {r0, r6, r8, sl, fp, lr}
 6d0:	68000009 	stmdavs	r0, {r0, r3}
 6d4:	5f726370 	svcpl	0x00726370
 6d8:	756c6176 	strbvc	r6, [ip, #-374]!	; 0x176
 6dc:	00000065 	andeq	r0, r0, r5, rrx
 6e0:	01960000 	orrseq	r0, r6, r0
 6e4:	00020000 	andeq	r0, r2, r0
 6e8:	0000666e 	andeq	r6, r0, lr, ror #12
 6ec:	000005c4 	andeq	r0, r0, r4, asr #11
 6f0:	000000dd 	ldrdeq	r0, [r0], -sp
 6f4:	79737562 	ldmdbvc	r3!, {r1, r5, r6, r8, sl, ip, sp, lr}^
 6f8:	6961775f 	stmdbvs	r1!, {r0, r1, r2, r3, r4, r6, r8, r9, sl, ip, sp, lr}^
 6fc:	676e6974 	undefined instruction 0x676e6974
 700:	00010b00 	andeq	r0, r1, r0, lsl #22
 704:	6b616600 	blvs	1859f0c <__bss_end+0x1855c2c>
 708:	75625f65 	strbvc	r5, [r2, #-3941]!	; 0xf65
 70c:	775f7973 	undefined instruction 0x775f7973
 710:	69746961 	ldmdbvs	r4!, {r0, r5, r6, r8, fp, sp, lr}^
 714:	3400676e 	strcc	r6, [r0], #-1902	; 0x76e
 718:	73000001 	movwvc	r0, #1
 71c:	5f657661 	svcpl	0x00657661
 720:	5f6d656d 	svcpl	0x006d656d
 724:	67616c66 	strbvs	r6, [r1, -r6, ror #24]!
 728:	00015900 	andeq	r5, r1, r0, lsl #18
 72c:	76617300 	strbtvc	r7, [r1], -r0, lsl #6
 730:	656d5f65 	strbvs	r5, [sp, #-3941]!	; 0xf65
 734:	74735f6d 	ldrbtvc	r5, [r3], #-3949	; 0xf6d
 738:	73757461 	cmnvc	r5, #1627389952	; 0x61000000
 73c:	00018000 	andeq	r8, r1, r0
 740:	74656700 	strbtvc	r6, [r5], #-1792	; 0x700
 744:	6d656d5f 	stclvs	13, cr6, [r5, #-380]!	; 0xfffffe84
 748:	6174735f 	cmnvs	r4, pc, asr r3
 74c:	00737574 	rsbseq	r7, r3, r4, ror r5
 750:	00000197 	muleq	r0, r7, r1
 754:	65766173 	ldrbvs	r6, [r6, #-371]!	; 0x173
 758:	6d656d5f 	stclvs	13, cr6, [r5, #-380]!	; 0xfffffe84
 75c:	6174735f 	cmnvs	r4, pc, asr r3
 760:	5f737574 	svcpl	0x00737574
 764:	6d6d6f6e 	stclvs	15, cr6, [sp, #-440]!	; 0xfffffe48
 768:	01be0075 	undefined instruction 0x01be0075
 76c:	61730000 	cmnvs	r3, r0
 770:	735f6576 	cmpvc	pc, #494927872	; 0x1d800000
 774:	69356e75 	ldmdbvs	r5!, {r0, r2, r4, r5, r6, r9, sl, fp, sp, lr}
 778:	6d656d5f 	stclvs	13, cr6, [r5, #-380]!	; 0xfffffe84
 77c:	6174735f 	cmnvs	r4, pc, asr r3
 780:	00737574 	rsbseq	r7, r3, r4, ror r5
 784:	000001fa 	strdeq	r0, [r0], -sl
 788:	65766173 	ldrbvs	r6, [r6, #-371]!	; 0x173
 78c:	6e75735f 	mrcvs	3, 3, r7, cr5, cr15, {2}
 790:	6d5f6935 	ldclvs	9, cr6, [pc, #-212]	; 0xffffff2c
 794:	735f6d65 	cmpvc	pc, #6464	; 0x1940
 798:	75746174 	ldrbvc	r6, [r4, #-372]!	; 0x174
 79c:	6f6e5f73 	svcvs	0x006e5f73
 7a0:	00756d6d 	rsbseq	r6, r5, sp, ror #26
 7a4:	00000236 	andeq	r0, r0, r6, lsr r2
 7a8:	5f746567 	svcpl	0x00746567
 7ac:	6c637963 	stclvs	9, cr7, [r3], #-396	; 0xfffffe74
 7b0:	756f6365 	strbvc	r6, [pc, #-869]!	; 453 <mem_preload_tlb+0x23>
 7b4:	5300746e 	movwpl	r7, #1134	; 0x46e
 7b8:	62000002 	andvs	r0, r0, #2
 7bc:	756b6361 	strbvc	r6, [fp, #-865]!	; 0x361
 7c0:	65705f70 	ldrbvs	r5, [r0, #-3952]!	; 0xf70
 7c4:	6f636672 	svcvs	0x00636672
 7c8:	65746e75 	ldrbvs	r6, [r4, #-3701]!	; 0xe75
 7cc:	02660072 	rsbeq	r0, r6, #114	; 0x72
 7d0:	6e690000 	cdpvs	0, 6, cr0, cr9, cr0, {0}
 7d4:	705f7469 	subsvc	r7, pc, r9, ror #8
 7d8:	63667265 	cmnvs	r6, #1342177286	; 0x50000006
 7dc:	746e756f 	strbtvc	r7, [lr], #-1391	; 0x56f
 7e0:	00737265 	rsbseq	r7, r3, r5, ror #4
 7e4:	000002a9 	andeq	r0, r0, r9, lsr #5
 7e8:	74736572 	ldrbtvc	r6, [r3], #-1394	; 0x572
 7ec:	5f65726f 	svcpl	0x0065726f
 7f0:	66726570 	undefined instruction 0x66726570
 7f4:	6e756f63 	cdpvs	15, 7, cr6, cr5, cr3, {3}
 7f8:	00726574 	rsbseq	r6, r2, r4, ror r5
 7fc:	000002bc 	undefined instruction 0x000002bc
 800:	65736572 	ldrbvs	r6, [r3, #-1394]!	; 0x572
 804:	6f635f74 	svcvs	0x00635f74
 808:	65746e75 	ldrbvs	r6, [r4, #-3701]!	; 0xe75
 80c:	02df0072 	sbcseq	r0, pc, #114	; 0x72
 810:	68630000 	stmdavs	r3!, {}^
 814:	65676e61 	strbvs	r6, [r7, #-3681]!	; 0xe61
 818:	6e75725f 	mrcvs	2, 3, r7, cr5, cr15, {2}
 81c:	656d6974 	strbvs	r6, [sp, #-2420]!	; 0x974
 820:	766e655f 	undefined instruction 0x766e655f
 824:	0003e600 	andeq	lr, r3, r0, lsl #12
 828:	6c656400 	cfstrdvs	mvd6, [r5]
 82c:	755f7961 	ldrbvc	r7, [pc, #-2401]	; fffffed3 <__bss_end+0xffffbbf3>
 830:	04ba0073 	ldrteq	r0, [sl], #115	; 0x73
 834:	65640000 	strbvs	r0, [r4]!
 838:	5f79616c 	svcpl	0x0079616c
 83c:	e200736d 	and	r7, r0, #-1275068415	; 0xb4000001
 840:	69000004 	stmdbvs	r0, {r2}
 844:	6e695f6f 	cdpvs	15, 6, cr5, cr9, cr15, {3}
 848:	f6007469 	undefined instruction 0xf6007469
 84c:	69000004 	stmdbvs	r0, {r2}
 850:	6e695f6f 	cdpvs	15, 6, cr5, cr9, cr15, {3}
 854:	685f7469 	ldmdavs	pc, {r0, r3, r5, r6, sl, ip, sp, lr}^
 858:	00686769 	rsbeq	r6, r8, r9, ror #14
 85c:	0000051d 	andeq	r0, r0, sp, lsl r5
 860:	695f6f69 	ldmdbvs	pc, {r0, r3, r5, r6, r8, r9, sl, fp, sp, lr}^
 864:	5f74696e 	svcpl	0x0074696e
 868:	00776f6c 	rsbseq	r6, r7, ip, ror #30
 86c:	00000544 	andeq	r0, r0, r4, asr #10
 870:	685f6f69 	ldmdavs	pc, {r0, r3, r5, r6, r8, r9, sl, fp, sp, lr}^
 874:	00686769 	rsbeq	r6, r8, r9, ror #14
 878:	00000000 	andeq	r0, r0, r0
 87c:	00000045 	andeq	r0, r0, r5, asr #32
 880:	6c320002 	ldcvs	0, cr0, [r2], #-8
 884:	01670000 	cmneq	r7, r0
 888:	00f50000 	rscseq	r0, r5, r0
 88c:	61730000 	cmnvs	r3, r0
 890:	6d5f6576 	cfldr64vs	mvdx6, [pc, #-472]	; 0xfffffe28
 894:	735f756d 	cmpvc	pc, #457179136	; 0x1b400000
 898:	65746174 	ldrbvs	r6, [r4, #-372]!	; 0x174
 89c:	00012000 	andeq	r2, r1, r0
 8a0:	73657200 	cmnvc	r5, #0
 8a4:	65726f74 	ldrbvs	r6, [r2, #-3956]!	; 0xf74
 8a8:	756d6d5f 	strbvc	r6, [sp, #-3423]!	; 0xd5f
 8ac:	6174735f 	cmnvs	r4, pc, asr r3
 8b0:	45006574 	strmi	r6, [r0, #-1396]	; 0x574
 8b4:	73000001 	movwvc	r0, #1
 8b8:	745f7465 	ldrbvc	r7, [pc], #1125	; 8c0 <twi_byte_rw+0x5c>
 8bc:	30726274 	rsbscc	r6, r2, r4, ror r2
 8c0:	00000000 	andeq	r0, r0, r0
 8c4:	00009a00 	andeq	r9, r0, r0, lsl #20
 8c8:	10000200 	andne	r0, r0, r0, lsl #4
 8cc:	cf00006e 	svcgt	0x0000006e
 8d0:	36000004 	strcc	r0, [r0], -r4
 8d4:	5f000003 	svcpl	0x00000003
 8d8:	7661735f 	undefined instruction 0x7661735f
 8dc:	72705f65 	rsbsvc	r5, r0, #404	; 0x194
 8e0:	7365636f 	cmnvc	r5, #-1140850687	; 0xbc000001
 8e4:	5f726f73 	svcpl	0x00726f73
 8e8:	74617473 	strbtvc	r7, [r1], #-1139	; 0x473
 8ec:	03610065 	cmneq	r1, #101	; 0x65
 8f0:	5f5f0000 	svcpl	0x005f0000
 8f4:	74736572 	ldrbtvc	r6, [r3], #-1394	; 0x572
 8f8:	5f65726f 	svcpl	0x0065726f
 8fc:	636f7270 	cmnvs	pc, #7
 900:	6f737365 	svcvs	0x00737365
 904:	74735f72 	ldrbtvc	r5, [r3], #-3954	; 0xf72
 908:	00657461 	rsbeq	r7, r5, r1, ror #8
 90c:	00000386 	andeq	r0, r0, r6, lsl #7
 910:	5f6d656d 	svcpl	0x006d656d
 914:	74736572 	ldrbtvc	r6, [r3], #-1394	; 0x572
 918:	5f65726f 	svcpl	0x0065726f
 91c:	636f7270 	cmnvs	pc, #7
 920:	6f737365 	svcvs	0x00737365
 924:	74735f72 	ldrbtvc	r5, [r3], #-3954	; 0xf72
 928:	00657461 	rsbeq	r7, r5, r1, ror #8
 92c:	000003ad 	andeq	r0, r0, sp, lsr #7
 930:	61736964 	cmnvs	r3, r4, ror #18
 934:	5f656c62 	svcpl	0x00656c62
 938:	68636163 	stmdavs	r3!, {r0, r1, r5, r6, r8, sp, lr}^
 93c:	6e695f65 	cdpvs	15, 6, cr5, cr9, cr5, {3}
 940:	696c6176 	stmdbvs	ip!, {r1, r2, r4, r5, r6, r8, sp, lr}^
 944:	65746164 	ldrbvs	r6, [r4, #-356]!	; 0x164
 948:	0003d400 	andeq	sp, r3, r0, lsl #8
 94c:	74657300 	strbtvc	r7, [r5], #-768	; 0x300
 950:	706f635f 	rsbvc	r6, pc, pc, asr r3
 954:	645f6f72 	ldrbvs	r6, [pc], #3954	; 95c <twi_byte_rw+0xf8>
 958:	75616665 	strbvc	r6, [r1, #-1637]!	; 0x665
 95c:	0000746c 	andeq	r7, r0, ip, ror #8
 960:	Address 0x00000960 is out of bounds.


Disassembly of section .debug_aranges:

00000000 <.debug_aranges>:
   0:	0000001c 	andeq	r0, r0, ip, lsl r0
   4:	00000002 	andeq	r0, r0, r2
   8:	00040000 	andeq	r0, r4, r0
	...
  14:	000001e0 	andeq	r0, r0, r0, ror #3
	...
  20:	0000001c 	andeq	r0, r0, ip, lsl r0
  24:	06910002 	ldreq	r0, [r1], r2
  28:	00040000 	andeq	r0, r4, r0
  2c:	00000000 	andeq	r0, r0, r0
  30:	000001e0 	andeq	r0, r0, r0, ror #3
  34:	00000024 	andeq	r0, r0, r4, lsr #32
	...
  40:	0000001c 	andeq	r0, r0, ip, lsl r0
  44:	07540002 	ldrbeq	r0, [r4, -r2]
  48:	00040000 	andeq	r0, r4, r0
  4c:	00000000 	andeq	r0, r0, r0
  50:	00000220 	andeq	r0, r0, r0, lsr #4
  54:	000004e4 	andeq	r0, r0, r4, ror #9
	...
  60:	0000001c 	andeq	r0, r0, ip, lsl r0
  64:	07c50002 	strbeq	r0, [r5, r2]
  68:	00040000 	andeq	r0, r4, r0
  6c:	00000000 	andeq	r0, r0, r0
  70:	00000720 	andeq	r0, r0, r0, lsr #14
  74:	0000078c 	andeq	r0, r0, ip, lsl #15
	...
  80:	0000001c 	andeq	r0, r0, ip, lsl r0
  84:	29810002 	stmibcs	r1, {r1}
  88:	00040000 	andeq	r0, r4, r0
  8c:	00000000 	andeq	r0, r0, r0
  90:	00000eac 	andeq	r0, r0, ip, lsr #29
  94:	00000028 	andeq	r0, r0, r8, lsr #32
	...
  a0:	0000001c 	andeq	r0, r0, ip, lsl r0
  a4:	29f80002 	ldmibcs	r8!, {r1}^
  a8:	00040000 	andeq	r0, r4, r0
  ac:	00000000 	andeq	r0, r0, r0
  b0:	00000ed4 	ldrdeq	r0, [r0], -r4
  b4:	00000274 	andeq	r0, r0, r4, ror r2
	...
  c0:	0000001c 	andeq	r0, r0, ip, lsl r0
  c4:	4a780002 	bmi	1e000d4 <__bss_end+0x1dfbdf4>
  c8:	00040000 	andeq	r0, r4, r0
  cc:	00000000 	andeq	r0, r0, r0
  d0:	00001148 	andeq	r1, r0, r8, asr #2
  d4:	00000ef0 	strdeq	r0, [r0], -r0
	...
  e0:	0000001c 	andeq	r0, r0, ip, lsl r0
  e4:	4f450002 	svcmi	0x00450002
  e8:	00040000 	andeq	r0, r4, r0
  ec:	00000000 	andeq	r0, r0, r0
  f0:	00002038 	andeq	r2, r0, r8, lsr r0
  f4:	00000170 	andeq	r0, r0, r0, ror r1
	...
 100:	0000001c 	andeq	r0, r0, ip, lsl r0
 104:	52950002 	addspl	r0, r5, #2
 108:	00040000 	andeq	r0, r4, r0
 10c:	00000000 	andeq	r0, r0, r0
 110:	000021a8 	andeq	r2, r0, r8, lsr #3
 114:	00000040 	andeq	r0, r0, r0, asr #32
	...
 120:	0000001c 	andeq	r0, r0, ip, lsl r0
 124:	569f0002 	ldrpl	r0, [pc], r2
 128:	00040000 	andeq	r0, r4, r0
 12c:	00000000 	andeq	r0, r0, r0
 130:	000021e8 	andeq	r2, r0, r8, ror #3
 134:	000004ac 	andeq	r0, r0, ip, lsr #9
	...
 140:	0000001c 	andeq	r0, r0, ip, lsl r0
 144:	5d320002 	ldcpl	0, cr0, [r2, #-8]!
 148:	00040000 	andeq	r0, r4, r0
 14c:	00000000 	andeq	r0, r0, r0
 150:	00002694 	muleq	r0, r4, r6
 154:	00000838 	andeq	r0, r0, r8, lsr r8
	...
 160:	0000001c 	andeq	r0, r0, ip, lsl r0
 164:	666e0002 	strbtvs	r0, [lr], -r2
 168:	00040000 	andeq	r0, r4, r0
 16c:	00000000 	andeq	r0, r0, r0
 170:	00002ecc 	andeq	r2, r0, ip, asr #29
 174:	00000384 	andeq	r0, r0, r4, lsl #7
	...
 180:	0000001c 	andeq	r0, r0, ip, lsl r0
 184:	6c320002 	ldcvs	0, cr0, [r2], #-8
 188:	00040000 	andeq	r0, r4, r0
 18c:	00000000 	andeq	r0, r0, r0
 190:	00003260 	andeq	r3, r0, r0, ror #4
 194:	000000b0 	strheq	r0, [r0], -r0
	...
 1a0:	0000001c 	andeq	r0, r0, ip, lsl r0
 1a4:	6d990002 	ldcvs	0, cr0, [r9, #8]
 1a8:	00040000 	andeq	r0, r4, r0
 1ac:	00000000 	andeq	r0, r0, r0
 1b0:	00003320 	andeq	r3, r0, r0, lsr #6
 1b4:	00000150 	andeq	r0, r0, r0, asr r1
	...
 1c0:	0000001c 	andeq	r0, r0, ip, lsl r0
 1c4:	6e100002 	cdpvs	0, 1, cr0, cr0, cr2, {0}
 1c8:	00040000 	andeq	r0, r4, r0
 1cc:	00000000 	andeq	r0, r0, r0
 1d0:	00003470 	andeq	r3, r0, r0, ror r4
 1d4:	00000a18 	andeq	r0, r0, r8, lsl sl
	...

Disassembly of section .debug_str:

00000000 <.debug_str>:
       0:	74636146 	strbtvc	r6, [r3], #-326	; 0x146
       4:	004d726f 	subeq	r7, sp, pc, ror #4
       8:	74636146 	strbtvc	r6, [r3], #-326	; 0x146
       c:	004e726f 	subeq	r7, lr, pc, ror #4
      10:	74636146 	strbtvc	r6, [r3], #-326	; 0x146
      14:	0050726f 	subseq	r7, r0, pc, ror #4
      18:	61665f69 	cmnvs	r6, r9, ror #30
      1c:	70630072 	rsbvc	r0, r3, r2, ror r0
      20:	69645f75 	stmdbvs	r4!, {r0, r2, r4, r5, r6, r8, r9, sl, fp, ip, lr}^
      24:	63730076 	cmnvs	r3, #118	; 0x76
      28:	72676663 	rsbvc	r6, r7, #103809024	; 0x6300000
      2c:	6b6c6300 	blvs	1b18c34 <__bss_end+0x1b14954>
      30:	7669645f 	undefined instruction 0x7669645f
      34:	76617300 	strbtvc	r7, [r1], -r0, lsl #6
      38:	725f6465 	subsvc	r6, pc, #1694498816	; 0x65000000
      3c:	69746e75 	ldmdbvs	r4!, {r0, r2, r4, r5, r6, r9, sl, fp, sp, lr}^
      40:	635f656d 	cmpvs	pc, #457179136	; 0x1b400000
      44:	65746e6f 	ldrbvs	r6, [r4, #-3695]!	; 0xe6f
      48:	735f7478 	cmpvc	pc, #2013265920	; 0x78000000
      4c:	64006376 	strvs	r6, [r0], #-886	; 0x376
      50:	7273665f 	rsbsvc	r6, r3, #99614720	; 0x5f00000
      54:	554e4700 	strbpl	r4, [lr, #-1792]	; 0x700
      58:	34204320 	strtcc	r4, [r0], #-800	; 0x320
      5c:	342e342e 	strtcc	r3, [lr], #-1070	; 0x42e
      60:	6f687300 	svcvs	0x00687300
      64:	69207472 	stmdbvs	r0!, {r1, r4, r5, r6, sl, ip, sp, lr}
      68:	7500746e 	strvc	r7, [r0, #-1134]	; 0x46e
      6c:	70747772 	rsbsvc	r7, r4, r2, ror r7
      70:	5f006469 	svcpl	0x00006469
      74:	7373625f 	cmnvc	r3, #-268435451	; 0xf0000005
      78:	646e655f 	strbtvs	r6, [lr], #-1375	; 0x55f
      7c:	76617300 	strbtvc	r7, [r1], -r0, lsl #6
      80:	6d5f6465 	cfldrdvs	mvd6, [pc, #-404]	; 0xfffffe6c
      84:	735f756d 	cmpvc	pc, #457179136	; 0x1b400000
      88:	65746174 	ldrbvs	r6, [r4, #-372]!	; 0x174
      8c:	6e6f6d00 	cdpvs	13, 6, cr6, cr15, cr0, {0}
      90:	62636576 	rsbvs	r6, r3, #494927872	; 0x1d800000
      94:	63007261 	movwvs	r7, #609	; 0x261
      98:	645f6b6c 	ldrbvs	r6, [pc], #2924	; a0 <__resume1_start+0xa0>
      9c:	745f7669 	ldrbvc	r7, [pc], #1641	; a4 <__resume1_start+0xa4>
      a0:	69616d00 	stmdbvs	r1!, {r8, sl, fp, sp, lr}^
      a4:	6572006e 	ldrbvs	r0, [r2, #-110]!	; 0x6e
      a8:	726f7473 	rsbvc	r7, pc, #1929379840	; 0x73000000
      ac:	63635f65 	cmnvs	r3, #404	; 0x194
      b0:	6300756d 	movwvs	r7, #1389	; 0x56d
      b4:	00727373 	rsbseq	r7, r2, r3, ror r3
      b8:	5f6c6c70 	svcpl	0x006c6c70
      bc:	74636166 	strbtvc	r6, [r3], #-358	; 0x166
      c0:	745f726f 	ldrbvc	r7, [pc], #623	; c8 <__resume1_start+0xc8>
      c4:	63616400 	cmnvs	r1, #0
      c8:	78610072 	stmdavc	r1!, {r1, r4, r5, r6}^
      cc:	69645f69 	stmdbvs	r4!, {r0, r3, r5, r6, r8, r9, sl, fp, ip, lr}^
      d0:	6c700076 	ldclvs	0, cr0, [r0], #-472	; 0xfffffe28
      d4:	61736965 	cmnvs	r3, r5, ror #18
      d8:	326c0072 	rsbcc	r0, ip, #114	; 0x72
      dc:	78756163 	ldmdavc	r5!, {r0, r1, r5, r6, r8, sp, lr}^
      e0:	6c727463 	cfldrdvs	mvd7, [r2], #-396	; 0xfffffe74
      e4:	4f500072 	svcmi	0x00500072
      e8:	5f524557 	svcpl	0x00524557
      ec:	5f4c4f56 	svcpl	0x004c4f56
      f0:	43444344 	movtmi	r4, #17220	; 0x4344
      f4:	4f500031 	svcmi	0x00500031
      f8:	5f524557 	svcpl	0x00524557
      fc:	5f4c4f56 	svcpl	0x004c4f56
     100:	43444344 	movtmi	r4, #17220	; 0x4344
     104:	4f500032 	svcmi	0x00500032
     108:	5f524557 	svcpl	0x00524557
     10c:	5f4c4f56 	svcpl	0x004c4f56
     110:	43444344 	movtmi	r4, #17220	; 0x4344
     114:	5f5f0033 	svcpl	0x005f0033
     118:	00323375 	eorseq	r3, r2, r5, ror r3
     11c:	61665f64 	cmnvs	r6, r4, ror #30
     120:	70610072 	rsbvc	r0, r1, r2, ror r0
     124:	69645f62 	stmdbvs	r4!, {r1, r5, r6, r8, r9, sl, fp, ip, lr}^
     128:	6f6c0076 	svcvs	0x006c0076
     12c:	6c20676e 	stcvs	7, cr6, [r0], #-440	; 0xfffffe48
     130:	20676e6f 	rsbcs	r6, r7, pc, ror #28
     134:	00746e69 	rsbseq	r6, r4, r9, ror #28
     138:	62646373 	rsbvs	r6, r4, #-872415231	; 0xcc000001
     13c:	626e6567 	rsbvs	r6, lr, #432013312	; 0x19c00000
     140:	6900726c 	stmdbvs	r0, {r2, r3, r5, r6, r9, ip, sp, lr}
     144:	00727365 	rsbseq	r7, r2, r5, ror #6
     148:	5f626861 	svcpl	0x00626861
     14c:	00766964 	rsbseq	r6, r6, r4, ror #18
     150:	65736572 	ldrbvs	r6, [r3, #-1394]!	; 0x572
     154:	64657672 	strbtvs	r7, [r5], #-1650	; 0x672
     158:	62747400 	rsbsvs	r7, r4, #0
     15c:	0072305f 	rsbseq	r3, r2, pc, asr r0
     160:	72736370 	rsbsvc	r6, r3, #-1073741823	; 0xc0000001
     164:	76617300 	strbtvc	r7, [r1], -r0, lsl #6
     168:	635f6465 	cmpvs	pc, #1694498816	; 0x65000000
     16c:	635f7570 	cmpvs	pc, #469762048	; 0x1c000000
     170:	65746e6f 	ldrbvs	r6, [r4, #-3695]!	; 0xe6f
     174:	70007478 	andvc	r7, r0, r8, ror r4
     178:	6175656c 	cmnvs	r5, ip, ror #10
     17c:	77610072 	undefined instruction 0x77610072
     180:	6d656d5f 	stclvs	13, cr6, [r5, #-380]!	; 0xfffffe84
     184:	7261705f 	rsbvc	r7, r1, #95	; 0x5f
     188:	6d740061 	ldclvs	0, cr0, [r4, #-388]!	; 0xfffffe7c
     18c:	72745070 	rsbsvc	r5, r4, #112	; 0x70
     190:	615f6400 	cmpvs	pc, r0, lsl #8
     194:	00727366 	rsbseq	r7, r2, r6, ror #6
     198:	65766173 	ldrbvs	r6, [r6, #-371]!	; 0x173
     19c:	6f635f64 	svcvs	0x00635f64
     1a0:	7865746e 	stmdavc	r5!, {r1, r2, r3, r5, r6, sl, ip, sp, lr}^
     1a4:	6e750074 	mrcvs	0, 3, r0, cr5, cr4, {3}
     1a8:	6e676973 	mcrvs	9, 3, r6, cr7, cr3, {3}
     1ac:	63206465 	teqvs	r0, #1694498816	; 0x65000000
     1b0:	00726168 	rsbseq	r6, r2, r8, ror #2
     1b4:	72727270 	rsbsvc	r7, r2, #7
     1b8:	745f6900 	ldrbvc	r6, [pc], #2304	; 1c0 <__resume1_start+0x1c0>
     1bc:	726c626c 	rsbvc	r6, ip, #-1073741818	; 0xc0000006
     1c0:	625f5f00 	subsvs	r5, pc, #0
     1c4:	735f7373 	cmpvc	pc, #-872415231	; 0xcc000001
     1c8:	74726174 	ldrbtvc	r6, [r2], #-372	; 0x174
     1cc:	73797300 	cmnvc	r9, #0
     1d0:	6576655f 	ldrbvs	r6, [r6, #-1375]!	; 0x55f
     1d4:	6e00746e 	cdpvs	4, 0, cr7, cr0, cr14, {3}
     1d8:	63736e6f 	cmnvs	r3, #1776	; 0x6f0
     1dc:	74636361 	strbtvc	r6, [r3], #-865	; 0x361
     1e0:	00726c72 	rsbseq	r6, r2, r2, ror ip
     1e4:	33735f5f 	cmncc	r3, #380	; 0x17c
     1e8:	6c700032 	ldclvs	0, cr0, [r0], #-200	; 0xffffff38
     1ec:	00726365 	rsbseq	r6, r2, r5, ror #6
     1f0:	70737573 	rsbsvc	r7, r3, r3, ror r5
     1f4:	5f646e65 	svcpl	0x00646e65
     1f8:	63646364 	cmnvs	r4, #-1879048191	; 0x90000001
     1fc:	75730032 	ldrbvc	r0, [r3, #-50]!	; 0x32
     200:	6e657073 	mcrvs	0, 3, r7, cr5, cr3, {3}
     204:	63645f64 	cmnvs	r4, #400	; 0x190
     208:	00336364 	eorseq	r6, r3, r4, ror #6
     20c:	45574f50 	ldrbmi	r4, [r7, #-3920]	; 0xf50
     210:	4f565f52 	svcmi	0x00565f52
     214:	444c5f4c 	strbmi	r5, [ip], #-3916	; 0xf4c
     218:	6300334f 	movwvs	r3, #847	; 0x34f
     21c:	00726365 	rsbseq	r6, r2, r5, ror #6
     220:	676e6f6c 	strbvs	r6, [lr, -ip, ror #30]!
     224:	6e6f6c20 	cdpvs	12, 6, cr6, cr15, cr0, {1}
     228:	6e752067 	cdpvs	0, 7, cr2, cr5, cr7, {3}
     22c:	6e676973 	mcrvs	9, 3, r6, cr7, cr3, {3}
     230:	69206465 	stmdbvs	r0!, {r0, r2, r5, r6, sl, sp, lr}
     234:	6900746e 	stmdbvs	r0, {r1, r2, r3, r5, r6, sl, ip, sp, lr}
     238:	00726365 	rsbseq	r6, r2, r5, ror #6
     23c:	76736e73 	undefined instruction 0x76736e73
     240:	00726162 	rsbseq	r6, r2, r2, ror #2
     244:	625f7073 	subsvs	r7, pc, #115	; 0x73
     248:	756b6361 	strbvc	r6, [fp, #-865]!	; 0x361
     24c:	78610070 	stmdavc	r1!, {r4, r5, r6}^
     250:	76655f70 	uqsub16vc	r5, r5, r0
     254:	00746e65 	rsbseq	r6, r4, r5, ror #28
     258:	65776f70 	ldrbvs	r6, [r7, #-3952]!	; 0xf70
     25c:	6f765f72 	svcvs	0x00765f72
     260:	79745f6c 	ldmdbvc	r4!, {r2, r3, r5, r6, r8, r9, sl, fp, ip, lr}^
     264:	655f6570 	ldrbvs	r6, [pc, #-1392]	; fffffcfc <__bss_end+0xffffba1c>
     268:	656c7000 	strbvs	r7, [ip]!
     26c:	72646963 	rsbvc	r6, r4, #1622016	; 0x18c000
     270:	6f727500 	svcvs	0x00727500
     274:	64697074 	strbtvs	r7, [r9], #-116	; 0x74
     278:	574f5000 	strbpl	r5, [pc, -r0]
     27c:	565f5245 	ldrbpl	r5, [pc], -r5, asr #4
     280:	4c5f4c4f 	mrrcmi	12, 4, r4, pc, cr15
     284:	00314f44 	eorseq	r4, r1, r4, asr #30
     288:	45574f50 	ldrbmi	r4, [r7, #-3920]	; 0xf50
     28c:	4f565f52 	svcmi	0x00565f52
     290:	444c5f4c 	strbmi	r5, [ip], #-3916	; 0xf4c
     294:	2f00324f 	svccs	0x0000324f
     298:	656d6f68 	strbvs	r6, [sp, #-3944]!	; 0xf68
     29c:	6b696d2f 	blvs	1a5b760 <__bss_end+0x1a57480>
     2a0:	6f772f65 	svcvs	0x00772f65
     2a4:	6c2f6b72 	stcvs	11, cr6, [pc], #-456	; 0xfffffe38
     2a8:	78756e69 	ldmdavc	r5!, {r0, r3, r5, r6, r9, sl, fp, sp, lr}^
     2ac:	3432365f 	ldrtcc	r3, [r2], #-1631	; 0x65f
     2b0:	6372612f 	cmnvs	r2, #-1073741813	; 0xc000000b
     2b4:	72612f68 	rsbvc	r2, r1, #416	; 0x1a0
     2b8:	616d2f6d 	cmnvs	sp, sp, ror #30
     2bc:	732d6863 	teqvc	sp, #6488064	; 0x630000
     2c0:	69356e75 	ldmdbvs	r5!, {r0, r2, r4, r5, r6, r9, sl, fp, sp, lr}
     2c4:	2f6d702f 	svccs	0x006d702f
     2c8:	6e617473 	mcrvs	4, 3, r7, cr1, cr3, {3}
     2cc:	00796264 	rsbseq	r6, r9, r4, ror #4
     2d0:	45574f50 	ldrbmi	r4, [r7, #-3920]	; 0xf50
     2d4:	4f565f52 	svcmi	0x00565f52
     2d8:	444c5f4c 	strbmi	r5, [ip], #-3916	; 0xf4c
     2dc:	6c00344f 	cfstrsvs	mvf3, [r0], {79}	; 0x4f
     2e0:	726c6332 	rsbvc	r6, ip, #-939524096	; 0xc8000000
     2e4:	745f6400 	ldrbvc	r6, [pc], #1024	; 2ec <loop3+0x14>
     2e8:	726c626c 	rsbvc	r6, ip, #-1073741818	; 0xc0000006
     2ec:	6f687300 	svcvs	0x00687300
     2f0:	75207472 	strvc	r7, [r0, #-1138]!	; 0x472
     2f4:	6769736e 	strbvs	r7, [r9, -lr, ror #6]!
     2f8:	2064656e 	rsbcs	r6, r4, lr, ror #10
     2fc:	00746e69 	rsbseq	r6, r4, r9, ror #28
     300:	65736366 	ldrbvs	r6, [r3, #-870]!	; 0x366
     304:	755f5f00 	ldrbvc	r5, [pc, #-3840]	; fffff40c <__bss_end+0xffffb12c>
     308:	61730038 	cmnvs	r3, r8, lsr r0
     30c:	5f646576 	svcpl	0x00646576
     310:	6d617264 	sfmvs	f7, 2, [r1, #-400]!	; (stclvs 2, cr7, [r1, #-400]!)	; 0xfffffe70
     314:	6172745f 	cmnvs	r2, pc, asr r4
     318:	6e696e69 	cdpvs	14, 6, cr6, cr9, cr9, {3}
     31c:	72615f67 	rsbvc	r5, r1, #412	; 0x19c
     320:	6f006165 	svcvs	0x00006165
     324:	00727366 	rsbseq	r7, r2, r6, ror #6
     328:	6f636d70 	svcvs	0x00636d70
     32c:	6f72746e 	svcvs	0x0072746e
     330:	6300726c 	movwvs	r7, #620	; 0x26c
     334:	00727365 	rsbseq	r7, r2, r5, ror #6
     338:	70737573 	rsbsvc	r7, r3, r3, ror r5
     33c:	5f646e65 	svcpl	0x00646e65
     340:	71657266 	cmnvc	r5, r6, ror #4
     344:	62747400 	rsbsvs	r7, r4, #0
     348:	0072315f 	rsbseq	r3, r2, pc, asr r1
     34c:	5f6d656d 	svcpl	0x006d656d
     350:	61726170 	cmnvs	r2, r0, ror r1
     354:	666e695f 	undefined instruction 0x666e695f
     358:	6c70006f 	ldclvs	0, cr0, [r0], #-444	; 0xfffffe44
     35c:	61656965 	cmnvs	r5, r5, ror #18
     360:	5f690072 	svcpl	0x00690072
     364:	00727366 	rsbseq	r7, r2, r6, ror #6
     368:	75732f2e 	ldrbvc	r2, [r3, #-3886]!	; 0xf2e
     36c:	2f726570 	svccs	0x00726570
     370:	75736572 	ldrbvc	r6, [r3, #-1394]!	; 0x572
     374:	722f656d 	eorvc	r6, pc, #457179136	; 0x1b400000
     378:	6d757365 	ldclvs	3, cr7, [r5, #-404]!	; 0xfffffe6c
     37c:	632e3165 	teqvs	lr, #1073741849	; 0x40000019
     380:	72726e00 	rsbsvc	r6, r2, #0
     384:	74740072 	ldrbtvc	r0, [r4], #-114	; 0x72
     388:	00726362 	rsbseq	r6, r2, r2, ror #6
     38c:	6f636d70 	svcvs	0x00636d70
     390:	72746e75 	rsbsvc	r6, r4, #1872	; 0x750
     394:	615f6900 	cmpvs	pc, r0, lsl #18
     398:	00727366 	rsbseq	r7, r2, r6, ror #6
     39c:	75736572 	ldrbvc	r6, [r3, #-1394]!	; 0x572
     3a0:	705f656d 	subsvc	r6, pc, sp, ror #10
     3a4:	746e696f 	strbtvc	r6, [lr], #-2415	; 0x96f
     3a8:	70007265 	andvc	r7, r0, r5, ror #4
     3ac:	6e63656c 	cdpvs	5, 6, cr6, cr3, cr12, {3}
     3b0:	6f700072 	svcvs	0x00700072
     3b4:	64697074 	strbtvs	r7, [r9], #-116	; 0x74
     3b8:	63616300 	cmnvs	r1, #0
     3bc:	61460072 	cmpvs	r6, r2, ror r0
     3c0:	726f7463 	rsbvc	r7, pc, #1660944384	; 0x63000000
     3c4:	6564004b 	strbvs	r0, [r4, #-75]!	; 0x4b
     3c8:	74007473 	strvc	r7, [r0], #-1139	; 0x473
     3cc:	645f706d 	ldrbvs	r7, [pc], #109	; 3d4 <disable_l2cache+0x18>
     3d0:	2e007473 	mcrcs	4, 0, r7, cr0, cr3, {3}
     3d4:	7075732f 	rsbsvc	r7, r5, pc, lsr #6
     3d8:	632f7265 	teqvs	pc, #1342177286	; 0x50000006
     3dc:	6f6d6d6f 	svcvs	0x006d6d6f
     3e0:	00632e6e 	rsbeq	r2, r3, lr, ror #28
     3e4:	5f706d74 	svcpl	0x00706d74
     3e8:	00637273 	rsbeq	r7, r3, r3, ror r2
     3ec:	5f6d656d 	svcpl	0x006d656d
     3f0:	636d656d 	cmnvs	sp, #457179136	; 0x1b400000
     3f4:	50007970 	andpl	r7, r0, r0, ror r9
     3f8:	54356c6c 	ldrtpl	r6, [r5], #-3180	; 0xc6c
     3fc:	00656e75 	rsbeq	r6, r5, r5, ror lr
     400:	65766157 	ldrbvs	r6, [r6, #-343]!	; 0x157
     404:	70657453 	rsbvc	r7, r5, r3, asr r4
     408:	635f5f00 	cmpvs	pc, #0
     40c:	5f756d63 	svcpl	0x00756d63
     410:	63626861 	cmnvs	r2, #6356992	; 0x610000
     414:	675f6b6c 	ldrbvs	r6, [pc, -ip, ror #22]
     418:	30657461 	rsbcc	r7, r5, r1, ror #8
     41c:	6765725f 	undefined instruction 0x6765725f
     420:	30363030 	eorscc	r3, r6, r0, lsr r0
     424:	5000745f 	andpl	r7, r0, pc, asr r4
     428:	54356c6c 	ldrtpl	r6, [r5], #-3180	; 0xc6c
     42c:	32656e75 	rsbcc	r6, r5, #1872	; 0x750
     430:	43655600 	cmnmi	r5, #0
     434:	54006b6c 	strpl	r6, [r0], #-2924	; 0xb6c
     438:	65526576 	ldrbvs	r6, [r2, #-1398]	; 0x576
     43c:	00746573 	rsbseq	r6, r4, r3, ror r5
     440:	63635f5f 	cmnvs	r3, #380	; 0x17c
     444:	685f756d 	ldmdavs	pc, {r0, r2, r3, r5, r6, r8, sl, ip, sp, lr}^
     448:	5f696d64 	svcpl	0x00696d64
     44c:	5f6b6c63 	svcpl	0x006b6c63
     450:	30676572 	rsbcc	r6, r7, r2, ror r5
     454:	5f303531 	svcpl	0x00303531
     458:	5f5f0074 	svcpl	0x005f0074
     45c:	554d4343 	strbpl	r4, [sp, #-835]	; 0x343
     460:	4248415f 	submi	r4, r8, #-1073741801	; 0xc0000017
     464:	5f4b4c43 	svcpl	0x004b4c43
     468:	45544147 	ldrbmi	r4, [r4, #-327]	; 0x147
     46c:	45525f30 	ldrbmi	r5, [r2, #-3888]	; 0xf30
     470:	36303047 	ldrtcc	r3, [r0], -r7, asr #32
     474:	624d0030 	subvs	r0, sp, #48	; 0x30
     478:	6c437375 	mcrrvs	3, 7, r7, r3, cr5
     47c:	7354006b 	cmpvc	r4, #107	; 0x6b
     480:	65746147 	ldrbvs	r6, [r4, #-327]!	; 0x147
     484:	69705300 	ldmdbvs	r0!, {r8, r9, ip, lr}^
     488:	6b6c4331 	blvs	1b11154 <__bss_end+0x1b0ce74>
     48c:	64634c00 	strbtvs	r4, [r3], #-3072	; 0xc00
     490:	30684330 	rsbcc	r4, r8, r0, lsr r3
     494:	006b6c43 	rsbeq	r6, fp, r3, asr #24
     498:	43435f5f 	movtmi	r5, #16223	; 0x3f5f
     49c:	505f554d 	subspl	r5, pc, sp, asr #10
     4a0:	5f324c4c 	svcpl	0x00324c4c
     4a4:	494e5554 	stmdbmi	lr, {r2, r4, r6, r8, sl, ip, lr}^
     4a8:	525f474e 	subspl	r4, pc, #20447232	; 0x1380000
     4ac:	30304745 	eorscc	r4, r0, r5, asr #14
     4b0:	56004330 	undefined instruction 0x56004330
     4b4:	61474f43 	cmpvs	r7, r3, asr #30
     4b8:	74436e69 	strbvc	r6, [r3], #-3689	; 0xe69
     4bc:	7267006c 	rsbvc	r0, r7, #108	; 0x6c
     4c0:	0070756f 	rsbseq	r7, r0, pc, ror #10
     4c4:	5f676572 	svcpl	0x00676572
     4c8:	006c7463 	rsbeq	r7, ip, r3, ror #8
     4cc:	43435f5f 	movtmi	r5, #16223	; 0x3f5f
     4d0:	465f554d 	ldrbmi	r5, [pc], -sp, asr #10
     4d4:	4d454445 	cfstrdmi	mvd4, [r5, #-276]	; 0xfffffeec
     4d8:	4c435f50 	mcrrmi	15, 5, r5, r3, cr0
     4dc:	5754004b 	ldrbpl	r0, [r4, -fp, asr #32]
     4e0:	504f5f49 	subpl	r5, pc, r9, asr #30
     4e4:	0052575f 	subseq	r5, r2, pc, asr r7
     4e8:	63635f5f 	cmnvs	r3, #380	; 0x17c
     4ec:	705f756d 	subsvc	r7, pc, sp, ror #10
     4f0:	5f316c6c 	svcpl	0x00316c6c
     4f4:	696e7574 	stmdbvs	lr!, {r2, r4, r5, r6, r8, sl, ip, sp, lr}^
     4f8:	725f676e 	subsvc	r6, pc, #28835840	; 0x1b80000
     4fc:	30306765 	eorscc	r6, r0, r5, ror #14
     500:	745f3430 	ldrbvc	r3, [pc], #1072	; 508 <mem_preload_tlb+0xd8>
     504:	635f5f00 	cmpvs	pc, #0
     508:	5f756d63 	svcpl	0x00756d63
     50c:	61646461 	cmnvs	r4, r1, ror #8
     510:	6b6c635f 	blvs	1b19294 <__bss_end+0x1b14fb4>
     514:	6765725f 	undefined instruction 0x6765725f
     518:	30343130 	eorscc	r3, r4, r0, lsr r1
     51c:	5f00745f 	svcpl	0x0000745f
     520:	6d63635f 	stclvs	3, cr6, [r3, #-380]!	; 0xfffffe84
     524:	72645f75 	rsbvc	r5, r4, #468	; 0x1d4
     528:	675f6d61 	ldrbvs	r6, [pc, -r1, ror #26]
     52c:	5f657461 	svcpl	0x00657461
     530:	30676572 	rsbcc	r6, r7, r2, ror r5
     534:	5f303031 	svcpl	0x00303031
     538:	6d5f0074 	ldclvs	0, cr0, [pc, #-464]	; 0xfffffe30
     53c:	745f6d65 	ldrbvc	r6, [pc], #3429	; 544 <mem_preload_tlb_nommu+0x20>
     540:	735f6977 	cmpvc	pc, #1949696	; 0x1dc000
     544:	5f74666f 	svcpl	0x0074666f
     548:	65736572 	ldrbvs	r6, [r3, #-1394]!	; 0x572
     54c:	6f500074 	svcvs	0x00500074
     550:	69447473 	stmdbvs	r4, {r0, r1, r4, r5, r6, sl, ip, sp, lr}^
     554:	70530076 	subsvc	r0, r3, r6, ror r0
     558:	61473069 	cmpvs	r7, r9, rrx
     55c:	53006574 	movwpl	r6, #1396	; 0x574
     560:	636d4d64 	cmnvs	sp, #6400	; 0x1900
     564:	6b6c4330 	blvs	1b1122c <__bss_end+0x1b0cf4c>
     568:	6b6c4300 	blvs	1b11170 <__bss_end+0x1b0ce90>
     56c:	44657250 	strbtmi	r7, [r5], #-592	; 0x250
     570:	73007669 	movwvc	r7, #1641	; 0x669
     574:	5f706f74 	svcpl	0x00706f74
     578:	0074756f 	rsbseq	r7, r4, pc, ror #10
     57c:	64646162 	strbtvs	r6, [r4], #-354	; 0x162
     580:	43560072 	cmpmi	r6, #114	; 0x72
     584:	6961474f 	stmdbvs	r1!, {r0, r1, r2, r3, r6, r8, r9, sl, lr}^
     588:	006e456e 	rsbeq	r4, lr, lr, ror #10
     58c:	494c4c50 	stmdbmi	ip, {r4, r6, sl, fp, lr}^
     590:	776f506e 	strbvc	r5, [pc, -lr, rrx]!
     594:	5f007265 	svcpl	0x00007265
     598:	4d43435f 	stclmi	3, cr4, [r3, #-380]	; 0xfffffe84
     59c:	564c5f55 	undefined instruction 0x564c5f55
     5a0:	435f5344 	cmpmi	pc, #268435457	; 0x10000001
     5a4:	525f4b4c 	subspl	r4, pc, #77824	; 0x13000
     5a8:	31304745 	teqcc	r0, r5, asr #14
     5ac:	50004334 	andpl	r4, r0, r4, lsr r3
     5b0:	61476f69 	cmpvs	r7, r9, ror #30
     5b4:	50006574 	andpl	r6, r0, r4, ror r5
     5b8:	43346c6c 	teqmi	r4, #27648	; 0x6c00
     5bc:	5f006c74 	svcpl	0x00006c74
     5c0:	6d63635f 	stclvs	3, cr6, [r3, #-380]!	; 0xfffffe84
     5c4:	6c705f75 	ldclvs	15, cr5, [r0], #-468	; 0xfffffe2c
     5c8:	745f316c 	ldrbvc	r3, [pc], #364	; 5d0 <mem_preload_tlb_nommu+0xac>
     5cc:	6e696e75 	mcrvs	14, 3, r6, cr9, cr5, {3}
     5d0:	725f3267 	subsvc	r3, pc, #1879048198	; 0x70000006
     5d4:	30306765 	eorscc	r6, r0, r5, ror #14
     5d8:	745f3833 	ldrbvc	r3, [pc], #2099	; 5e0 <mem_preload_tlb_nommu+0xbc>
     5dc:	435f5f00 	cmpmi	pc, #0
     5e0:	5f554d43 	svcpl	0x00554d43
     5e4:	55444f4d 	strbpl	r4, [r4, #-3917]	; 0xf4d
     5e8:	5f31454c 	svcpl	0x0031454c
     5ec:	004b4c43 	subeq	r4, fp, r3, asr #24
     5f0:	454f444c 	strbmi	r4, [pc, #-1100]	; 1ac <__resume1_start+0x1ac>
     5f4:	5f5f006e 	svcpl	0x005f006e
     5f8:	756d6363 	strbvc	r6, [sp, #-867]!	; 0x363
     5fc:	6c6c705f 	stclvs	0, cr7, [ip], #-380	; 0xfffffe84
     600:	61735f36 	cmnvs	r3, r6, lsr pc
     604:	725f6174 	subsvc	r6, pc, #29
     608:	30306765 	eorscc	r6, r0, r5, ror #14
     60c:	745f3832 	ldrbvc	r3, [pc], #2098	; 614 <mem_preload_tlb_nommu+0xf0>
     610:	6e614200 	cdpvs	2, 6, cr4, cr1, cr0, {0}
     614:	64695764 	strbtvs	r5, [r9], #-1892	; 0x764
     618:	53006874 	movwpl	r6, #2164	; 0x874
     61c:	6b6c4373 	blvs	1b113f0 <__bss_end+0x1b0d110>
     620:	62735500 	rsbsvs	r5, r3, #0
     624:	006b6c43 	rsbeq	r6, fp, r3, asr #24
     628:	63635f5f 	cmnvs	r3, #380	; 0x17c
     62c:	6c5f756d 	cfldr64vs	mvdx7, [pc], {109}	; 0x6d
     630:	68636463 	stmdavs	r3!, {r0, r1, r5, r6, sl, sp, lr}^
     634:	6c635f30 	stclvs	15, cr5, [r3], #-192	; 0xffffff40
     638:	00745f6b 	rsbseq	r5, r4, fp, ror #30
     63c:	3064634c 	rsbcc	r6, r4, ip, asr #6
     640:	43316843 	teqmi	r1, #4390912	; 0x430000
     644:	5f006b6c 	svcpl	0x00006b6c
     648:	6d63635f 	stclvs	3, cr6, [r3, #-380]!	; 0xfffffe84
     64c:	626d5f75 	rsbvs	r5, sp, #468	; 0x1d4
     650:	635f7375 	cmpvs	pc, #-738197503	; 0xd4000001
     654:	725f6b6c 	subsvc	r6, pc, #110592	; 0x1b000
     658:	31306765 	teqcc	r0, r5, ror #14
     65c:	745f6335 	ldrbvc	r6, [pc], #821	; 664 <enable_mmu+0x10>
     660:	435f5f00 	cmpmi	pc, #0
     664:	5f554d43 	svcpl	0x00554d43
     668:	494d4448 	stmdbmi	sp, {r3, r6, sl, lr}^
     66c:	4b4c435f 	blmi	13113f0 <__bss_end+0x130d110>
     670:	4745525f 	smlsldmi	r5, r5, pc, r2
     674:	30353130 	eorscc	r3, r5, r0, lsr r1
     678:	73657200 	cmnvc	r5, #0
     67c:	65767265 	ldrbvs	r7, [r6, #-613]!	; 0x265
     680:	41003564 	tstmi	r0, r4, ror #10
     684:	47306270 	undefined instruction 0x47306270
     688:	00657461 	rsbeq	r7, r5, r1, ror #8
     68c:	65736572 	ldrbvs	r6, [r3, #-1394]!	; 0x572
     690:	64657672 	strbtvs	r7, [r5], #-1650	; 0x672
     694:	70530038 	subsvc	r0, r3, r8, lsr r0
     698:	6c436365 	mcrrvs	3, 6, r6, r3, cr5
     69c:	7253316b 	subsvc	r3, r3, #-1073741798	; 0xc000001a
     6a0:	656d0063 	strbvs	r0, [sp, #-99]!	; 0x63
     6a4:	77745f6d 	ldrbvc	r5, [r4, -sp, ror #30]!
     6a8:	6e695f69 	cdpvs	15, 6, cr5, cr9, cr9, {3}
     6ac:	5f007469 	svcpl	0x00007469
     6b0:	4d43435f 	stclmi	3, cr4, [r3, #-380]	; 0xfffffe84
     6b4:	4c505f55 	mrrcmi	15, 5, r5, r0, cr5
     6b8:	445f354c 	ldrbmi	r3, [pc], #1356	; 6c0 <__turn_mmu_on+0x40>
     6bc:	525f5244 	subspl	r5, pc, #1073741828	; 0x40000004
     6c0:	30304745 	eorscc	r4, r0, r5, asr #14
     6c4:	48003032 	stmdami	r0, {r1, r4, r5, ip, sp}
     6c8:	4363736f 	cmnmi	r3, #-1140850687	; 0xbc000001
     6cc:	2e006c74 	mcrcs	12, 0, r6, cr0, cr4, {3}
     6d0:	7075732f 	rsbsvc	r7, r5, pc, lsr #6
     6d4:	732f7265 	teqvc	pc, #1342177286	; 0x50000006
     6d8:	72657075 	rsbvc	r7, r5, #117	; 0x75
     6dc:	6977745f 	ldmdbvs	r7!, {r0, r1, r2, r3, r4, r6, sl, ip, sp, lr}^
     6e0:	5f00632e 	svcpl	0x0000632e
     6e4:	4d43435f 	stclmi	3, cr4, [r3, #-380]	; 0xfffffe84
     6e8:	4c505f55 	mrrcmi	15, 5, r5, r0, cr5
     6ec:	565f344c 	ldrbpl	r3, [pc], -ip, asr #8
     6f0:	45525f45 	ldrbmi	r5, [r2, #-3909]	; 0xf45
     6f4:	31303047 	teqcc	r0, r7, asr #32
     6f8:	5f5f0038 	svcpl	0x005f0038
     6fc:	756d6363 	strbvc	r6, [sp, #-867]!	; 0x363
     700:	6270615f 	rsbsvs	r6, r0, #-1073741801	; 0xc0000017
     704:	6b6c6331 	blvs	1b193d0 <__bss_end+0x1b150f0>
     708:	7461725f 	strbtvc	r7, [r1], #-607	; 0x25f
     70c:	725f6f69 	subsvc	r6, pc, #420	; 0x1a4
     710:	30306765 	eorscc	r6, r0, r5, ror #14
     714:	745f3835 	ldrbvc	r3, [pc], #2101	; 71c <__turn_mmu_on+0x9c>
     718:	4f444c00 	svcmi	0x00444c00
     71c:	7074754f 	rsbsvc	r7, r4, pc, asr #10
     720:	5f007475 	svcpl	0x00007475
     724:	6d63635f 	stclvs	3, cr6, [r3, #-380]!	; 0xfffffe84
     728:	73755f75 	cmnvc	r5, #468	; 0x1d4
     72c:	6c635f62 	stclvs	15, cr5, [r3], #-392	; 0xfffffe78
     730:	65725f6b 	ldrbvs	r5, [r2, #-3947]!	; 0xf6b
     734:	63303067 	teqvs	r0, #103	; 0x67
     738:	00745f63 	rsbseq	r5, r4, r3, ror #30
     73c:	6147734d 	cmpvs	r7, sp, asr #6
     740:	41006574 	tstmi	r0, r4, ror r5
     744:	47316270 	undefined instruction 0x47316270
     748:	00657461 	rsbeq	r7, r5, r1, ror #8
     74c:	43435f5f 	movtmi	r5, #16223	; 0x3f5f
     750:	505f554d 	subspl	r5, pc, sp, asr #10
     754:	5f364c4c 	svcpl	0x00364c4c
     758:	41544153 	cmpmi	r4, r3, asr r1
     75c:	4745525f 	smlsldmi	r5, r5, pc, r2
     760:	38323030 	ldmdacc	r2!, {r4, r5, ip, sp}
     764:	72615500 	rsbvc	r5, r1, #0
     768:	61473274 	cmpvs	r7, r4, ror r2
     76c:	4d006574 	cfstr32mi	mvfx6, [r0, #-464]	; 0xfffffe30
     770:	6b6c4373 	blvs	1b11544 <__bss_end+0x1b0d264>
     774:	635f5f00 	cmpvs	pc, #0
     778:	5f756d63 	svcpl	0x00756d63
     77c:	75646f6d 	strbvc	r6, [r4, #-3949]!	; 0xf6d
     780:	5f31656c 	svcpl	0x0031656c
     784:	5f6b6c63 	svcpl	0x006b6c63
     788:	5f5f0074 	svcpl	0x005f0074
     78c:	756d6363 	strbvc	r6, [sp, #-867]!	; 0x363
     790:	63736f5f 	cmnvs	r3, #380	; 0x17c
     794:	5f6d3432 	svcpl	0x006d3432
     798:	30676572 	rsbcc	r6, r7, r2, ror r5
     79c:	5f303530 	svcpl	0x00303530
     7a0:	5f5f0074 	svcpl	0x005f0074
     7a4:	554d4343 	strbpl	r4, [sp, #-835]	; 0x343
     7a8:	4152445f 	cmpmi	r2, pc, asr r4
     7ac:	41475f4d 	cmpmi	r7, sp, asr #30
     7b0:	525f4554 	subspl	r4, pc, #352321536	; 0x15000000
     7b4:	31304745 	teqcc	r0, r5, asr #14
     7b8:	5f003030 	svcpl	0x00003030
     7bc:	4d43435f 	stclmi	3, cr4, [r3, #-380]	; 0xfffffe84
     7c0:	424d5f55 	submi	r5, sp, #340	; 0x154
     7c4:	435f5355 	cmpmi	pc, #1409286145	; 0x54000001
     7c8:	525f4b4c 	subspl	r4, pc, #77824	; 0x13000
     7cc:	31304745 	teqcc	r0, r5, asr #14
     7d0:	72004335 	andvc	r4, r0, #-738197504	; 0xd4000000
     7d4:	725f6765 	subsvc	r6, pc, #26476544	; 0x1940000
     7d8:	74657365 	strbtvc	r7, [r5], #-869	; 0x365
     7dc:	64634c00 	strbtvs	r4, [r3], #-3072	; 0xc00
     7e0:	74614730 	strbtvc	r4, [r1], #-1840	; 0x730
     7e4:	65720065 	ldrbvs	r0, [r2, #-101]!	; 0x65
     7e8:	61645f67 	cmnvs	r4, r7, ror #30
     7ec:	44006174 	strmi	r6, [r0], #-372	; 0x174
     7f0:	004d7669 	subeq	r7, sp, r9, ror #12
     7f4:	77745f5f 	undefined instruction 0x77745f5f
     7f8:	725f6369 	subsvc	r6, pc, #-1543503871	; 0xa4000001
     7fc:	745f6765 	ldrbvc	r6, [pc], #1893	; 804 <_mem_twi_stop+0x94>
     800:	62735500 	rsbsvs	r5, r3, #0
     804:	74614730 	strbtvc	r4, [r1], #-1840	; 0x730
     808:	5f5f0065 	svcpl	0x005f0065
     80c:	756d6363 	strbvc	r6, [sp, #-867]!	; 0x363
     810:	6c6c705f 	stclvs	0, cr7, [ip], #-380	; 0xfffffe84
     814:	64645f35 	strbtvs	r5, [r4], #-3893	; 0xf35
     818:	65725f72 	ldrbvs	r5, [r2, #-3954]!	; 0xf72
     81c:	32303067 	eorscc	r3, r0, #103	; 0x67
     820:	00745f30 	rsbseq	r5, r4, r0, lsr pc
     824:	63635f5f 	cmnvs	r3, #380	; 0x17c
     828:	705f756d 	subsvc	r7, pc, sp, ror #10
     82c:	5f326c6c 	svcpl	0x00326c6c
     830:	69647561 	stmdbvs	r4!, {r0, r5, r6, r8, sl, ip, sp, lr}^
     834:	65725f6f 	ldrbvs	r5, [r2, #-3951]!	; 0xf6f
     838:	30303067 	eorscc	r3, r0, r7, rrx
     83c:	00745f38 	rsbseq	r5, r4, r8, lsr pc
     840:	43435f5f 	movtmi	r5, #16223	; 0x3f5f
     844:	415f554d 	cmpmi	pc, sp, asr #10
     848:	435f5356 	cmpmi	pc, #1476395009	; 0x58000001
     84c:	525f4b4c 	subspl	r4, pc, #77824	; 0x13000
     850:	31304745 	teqcc	r0, r5, asr #14
     854:	46003434 	undefined instruction 0x46003434
     858:	4d716572 	cfldr64mi	mvdx6, [r1, #-456]!	; 0xfffffe38
     85c:	0065646f 	rsbeq	r6, r5, pc, ror #8
     860:	444c4c50 	strbmi	r4, [ip], #-3152	; 0xc50
     864:	00507669 	subseq	r7, r0, r9, ror #12
     868:	30697754 	rsbcc	r7, r9, r4, asr r7
     86c:	65746147 	ldrbvs	r6, [r4, #-327]!	; 0x147
     870:	69777400 	ldmdbvs	r7!, {sl, ip, sp, lr}^
     874:	5f706f5f 	svcpl	0x00706f5f
     878:	65707974 	ldrbvs	r7, [r0, #-2420]!	; 0x974
     87c:	5000655f 	andpl	r6, r0, pc, asr r5
     880:	54316c6c 	ldrtpl	r6, [r1], #-3180	; 0xc6c
     884:	00656e75 	rsbeq	r6, r5, r5, ror lr
     888:	74617473 	strbtvc	r7, [r1], #-1139	; 0x473
     88c:	6d745f65 	ldclvs	15, cr5, [r4, #-404]!	; 0xfffffe6c
     890:	77740070 	undefined instruction 0x77740070
     894:	65725f69 	ldrbvs	r5, [r2, #-3945]!	; 0xf69
     898:	5f5f0067 	svcpl	0x005f0067
     89c:	554d4343 	strbpl	r4, [sp, #-835]	; 0x343
     8a0:	4248415f 	submi	r4, r8, #-1073741801	; 0xc0000017
     8a4:	5f4b4c43 	svcpl	0x004b4c43
     8a8:	45544147 	ldrbmi	r4, [r4, #-327]	; 0x147
     8ac:	45525f31 	ldrbmi	r5, [r2, #-3889]	; 0xf31
     8b0:	36303047 	ldrtcc	r3, [r0], -r7, asr #32
     8b4:	70530034 	subsvc	r0, r3, r4, lsr r0
     8b8:	61473169 	cmpvs	r7, r9, ror #2
     8bc:	42006574 	andmi	r6, r0, #486539264	; 0x1d000000
     8c0:	47747369 	ldrbmi	r7, [r4, -r9, ror #6]!
     8c4:	00657461 	rsbeq	r7, r5, r1, ror #8
     8c8:	63635f5f 	cmnvs	r3, #380	; 0x17c
     8cc:	635f756d 	cmpvs	pc, #457179136	; 0x1b400000
     8d0:	635f6973 	cmpvs	pc, #1884160	; 0x1cc000
     8d4:	745f6b6c 	ldrbvc	r6, [pc], #2924	; 8dc <twi_byte_rw+0x78>
     8d8:	42484100 	submi	r4, r8, #0
     8dc:	446b6c43 	strbtmi	r6, [fp], #-3139	; 0xc43
     8e0:	53007669 	movwpl	r7, #1641	; 0x669
     8e4:	636d6d64 	cmnvs	sp, #6400	; 0x1900
     8e8:	74614730 	strbtvc	r4, [r1], #-1840	; 0x730
     8ec:	5f5f0065 	svcpl	0x005f0065
     8f0:	756d6363 	strbvc	r6, [sp, #-867]!	; 0x363
     8f4:	6268615f 	rsbvs	r6, r8, #-1073741801	; 0xc0000017
     8f8:	5f6b6c63 	svcpl	0x006b6c63
     8fc:	65746167 	ldrbvs	r6, [r4, #-359]!	; 0x167
     900:	65725f31 	ldrbvs	r5, [r2, #-3889]!	; 0xf31
     904:	36303067 	ldrtcc	r3, [r0], -r7, rrx
     908:	00745f34 	rsbseq	r5, r4, r4, lsr pc
     90c:	63635f5f 	cmnvs	r3, #380	; 0x17c
     910:	6d5f756d 	cfldr64vs	mvdx7, [pc, #-436]	; 0xfffffe4c
     914:	34696c61 	strbtcc	r6, [r9], #-3169	; 0xc61
     918:	635f3030 	cmpvs	pc, #48	; 0x30
     91c:	725f6b6c 	subsvc	r6, pc, #110592	; 0x1b000
     920:	31306765 	teqcc	r0, r5, ror #14
     924:	745f3435 	ldrbvc	r3, [pc], #1077	; 92c <twi_byte_rw+0xc8>
     928:	69734300 	ldmdbvs	r3!, {r8, r9, lr}^
     92c:	6b6c4330 	blvs	1b115f4 <__bss_end+0x1b0d314>
     930:	65725600 	ldrbvs	r5, [r2, #-1536]!	; 0x600
     934:	74754f67 	ldrbtvc	r4, [r5], #-3943	; 0xf67
     938:	5f006e45 	svcpl	0x00006e45
     93c:	6d63635f 	stclvs	3, cr6, [r3, #-380]!	; 0xfffffe84
     940:	70675f75 	rsbvc	r5, r7, r5, ror pc
     944:	6c635f73 	stclvs	15, cr5, [r3], #-460	; 0xfffffe34
     948:	65725f6b 	ldrbvs	r5, [r2, #-3947]!	; 0xf6b
     94c:	64303067 	ldrtvs	r3, [r0], #-103	; 0x67
     950:	00745f30 	rsbseq	r5, r4, r0, lsr pc
     954:	47626841 	strbmi	r6, [r2, -r1, asr #16]!
     958:	30657461 	rsbcc	r7, r5, r1, ror #8
     95c:	62684100 	rsbvs	r4, r8, #0
     960:	65746147 	ldrbvs	r6, [r4, #-327]!	; 0x147
     964:	32490031 	subcc	r0, r9, #49	; 0x31
     968:	6b6c4373 	blvs	1b1173c <__bss_end+0x1b0d45c>
     96c:	435f5f00 	cmpmi	pc, #0
     970:	5f554d43 	svcpl	0x00554d43
     974:	5f495343 	svcpl	0x00495343
     978:	004b4c43 	subeq	r4, fp, r3, asr #24
     97c:	5f706f6e 	svcpl	0x00706f6e
     980:	64616572 	strbtvs	r6, [r1], #-1394	; 0x572
     984:	635f5f00 	cmpvs	pc, #0
     988:	5f756d63 	svcpl	0x00756d63
     98c:	7079656b 	rsbsvc	r6, r9, fp, ror #10
     990:	635f6461 	cmpvs	pc, #1627389952	; 0x61000000
     994:	725f6b6c 	subsvc	r6, pc, #110592	; 0x1b000
     998:	30306765 	eorscc	r6, r0, r5, ror #14
     99c:	745f3463 	ldrbvc	r3, [pc], #1123	; 9a4 <twi_byte_rw+0x140>
     9a0:	6c6c5000 	stclvs	0, cr5, [ip]
     9a4:	6c744331 	ldclvs	3, cr4, [r4], #-196	; 0xffffff3c
     9a8:	6d614400 	cfstrdvs	mvd4, [r1]
     9ac:	63614670 	cmnvs	r1, #117440512	; 0x7000000
     9b0:	00726f74 	rsbseq	r6, r2, r4, ror pc
     9b4:	5f676174 	svcpl	0x00676174
     9b8:	63697774 	cmnvs	r9, #30408704	; 0x1d00000
     9bc:	6765725f 	undefined instruction 0x6765725f
     9c0:	79654b00 	stmdbvc	r5!, {r8, r9, fp, lr}^
     9c4:	47646170 	undefined instruction 0x47646170
     9c8:	00657461 	rsbeq	r7, r5, r1, ror #8
     9cc:	32697053 	rsbcc	r7, r9, #83	; 0x53
     9d0:	65746147 	ldrbvs	r6, [r4, #-327]!	; 0x147
     9d4:	69775400 	ldmdbvs	r7!, {sl, ip, lr}^
     9d8:	526b6c43 	rsbpl	r6, fp, #17152	; 0x4300
     9dc:	61426765 	cmpvs	r2, r5, ror #14
     9e0:	6544006b 	strbvs	r0, [r4, #-107]	; 0x6b
     9e4:	43306546 	teqmi	r0, #293601280	; 0x11800000
     9e8:	50006b6c 	andpl	r6, r0, ip, ror #22
     9ec:	77536c6c 	ldrbvc	r6, [r3, -ip, ror #24]
     9f0:	68637469 	stmdavs	r3!, {r0, r3, r5, r6, sl, ip, sp, lr}^
     9f4:	65765400 	ldrbvs	r5, [r6, #-1024]!	; 0x400
     9f8:	74614730 	strbtvc	r4, [r1], #-1840	; 0x730
     9fc:	5f5f0065 	svcpl	0x005f0065
     a00:	756d6363 	strbvc	r6, [sp, #-867]!	; 0x363
     a04:	6c6c705f 	stclvs	0, cr7, [ip], #-380	; 0xfffffe84
     a08:	6f635f31 	svcvs	0x00635f31
     a0c:	725f6572 	subsvc	r6, pc, #478150656	; 0x1c800000
     a10:	30306765 	eorscc	r6, r0, r5, ror #14
     a14:	745f3030 	ldrbvc	r3, [pc], #48	; a1c <twi_byte_rw+0x1b8>
     a18:	65705300 	ldrbvs	r5, [r0, #-768]!	; 0x300
     a1c:	6b6c4363 	blvs	1b117b0 <__bss_end+0x1b0d4d0>
     a20:	74614732 	strbtvc	r4, [r1], #-1842	; 0x732
     a24:	72490065 	subvc	r0, r9, #101	; 0x65
     a28:	6b6c4330 	blvs	1b116f0 <__bss_end+0x1b0d410>
     a2c:	62704100 	rsbsvs	r4, r0, #0
     a30:	6b6c4331 	blvs	1b116fc <__bss_end+0x1b0d41c>
     a34:	00766944 	rsbseq	r6, r6, r4, asr #18
     a38:	75746573 	ldrbvc	r6, [r4, #-1395]!	; 0x573
     a3c:	77745f70 	undefined instruction 0x77745f70
     a40:	6e655f69 	cdpvs	15, 6, cr5, cr5, cr9, {3}
     a44:	614d0076 	cmpvs	sp, r6, ror r0
     a48:	6147696c 	cmpvs	r7, ip, ror #18
     a4c:	5f006574 	svcpl	0x00006574
     a50:	4d43435f 	stclmi	3, cr4, [r3, #-380]	; 0xfffffe84
     a54:	414d5f55 	cmpmi	sp, r5, asr pc
     a58:	3034494c 	eorscc	r4, r4, ip, asr #18
     a5c:	4c435f30 	mcrrmi	15, 3, r5, r3, cr0
     a60:	45525f4b 	ldrbmi	r5, [r2, #-3915]	; 0xf4b
     a64:	35313047 	ldrcc	r3, [r1, #-71]!	; 0x47
     a68:	65720034 	ldrbvs	r0, [r2, #-52]!	; 0x34
     a6c:	76726573 	undefined instruction 0x76726573
     a70:	31316465 	teqcc	r1, r5, ror #8
     a74:	73657200 	cmnvc	r5, #0
     a78:	65767265 	ldrbvs	r7, [r6, #-613]!	; 0x265
     a7c:	00323164 	eorseq	r3, r2, r4, ror #2
     a80:	65736572 	ldrbvs	r6, [r3, #-1394]!	; 0x572
     a84:	64657672 	strbtvs	r7, [r5], #-1650	; 0x672
     a88:	5f003331 	svcpl	0x00003331
     a8c:	4d43435f 	stclmi	3, cr4, [r3, #-380]	; 0xfffffe84
     a90:	53555f55 	cmppl	r5, #340	; 0x154
     a94:	4c435f42 	mcrrmi	15, 4, r5, r3, cr2
     a98:	45525f4b 	ldrbmi	r5, [r2, #-3915]	; 0xf4b
     a9c:	43303047 	teqmi	r0, #71	; 0x47
     aa0:	65720043 	ldrbvs	r0, [r2, #-67]!	; 0x43
     aa4:	76726573 	undefined instruction 0x76726573
     aa8:	35316465 	ldrcc	r6, [r1, #-1125]!	; 0x465
     aac:	73657200 	cmnvc	r5, #0
     ab0:	65767265 	ldrbvs	r7, [r6, #-613]!	; 0x265
     ab4:	00363164 	eorseq	r3, r6, r4, ror #2
     ab8:	65736572 	ldrbvs	r6, [r3, #-1394]!	; 0x572
     abc:	64657672 	strbtvs	r7, [r5], #-1650	; 0x672
     ac0:	72003731 	andvc	r3, r0, #12845056	; 0xc40000
     ac4:	72657365 	rsbvc	r7, r5, #-1811939327	; 0x94000001
     ac8:	31646576 	smccc	18006	; 0x4656
     acc:	65720038 	ldrbvs	r0, [r2, #-56]!	; 0x38
     ad0:	76726573 	undefined instruction 0x76726573
     ad4:	39316465 	ldmdbcc	r1!, {r0, r2, r5, r6, sl, sp, lr}
     ad8:	67695300 	strbvs	r5, [r9, -r0, lsl #6]!
     adc:	6e45616d 	dvfvssz	f6, f5, #5.0
     ae0:	79685000 	stmdbvc	r8!, {ip, lr}^
     ae4:	63657053 	cmnvs	r5, #83	; 0x53
     ae8:	476b6c43 	strbmi	r6, [fp, -r3, asr #24]!
     aec:	00657461 	rsbeq	r7, r5, r1, ror #8
     af0:	69647053 	stmdbvs	r4!, {r0, r1, r4, r6, ip, sp, lr}^
     af4:	74614766 	strbtvc	r4, [r1], #-1894	; 0x766
     af8:	61570065 	cmpvs	r7, r5, rrx
     afc:	6f426576 	svcvs	0x00426576
     b00:	6d6f7474 	cfstrdvs	mvd7, [pc, #-464]!	; 0xfffffe30
     b04:	4d645300 	stclmi	3, cr5, [r4]
     b08:	4332636d 	teqmi	r2, #-1275068415	; 0xb4000001
     b0c:	53006b6c 	movwpl	r6, #2924	; 0xb6c
     b10:	43306970 	teqmi	r0, #1835008	; 0x1c0000
     b14:	72006b6c 	andvc	r6, r0, #110592	; 0x1b000
     b18:	635f6765 	cmpvs	pc, #26476544	; 0x1940000
     b1c:	00726b6c 	rsbseq	r6, r2, ip, ror #22
     b20:	43435f5f 	movtmi	r5, #16223	; 0x3f5f
     b24:	4d5f554d 	cfldr64mi	mvdx5, [pc, #-308]	; 0xfffffecc
     b28:	4c55444f 	cfldrdmi	mvd4, [r5], {79}	; 0x4f
     b2c:	435f3045 	cmpmi	pc, #69	; 0x45
     b30:	49004b4c 	stmdbmi	r0, {r2, r3, r6, r8, r9, fp, lr}
     b34:	61477065 	cmpvs	r7, r5, rrx
     b38:	5f006574 	svcpl	0x00006574
     b3c:	6d63635f 	stclvs	3, cr6, [r3, #-380]!	; 0xfffffe84
     b40:	65695f75 	strbvs	r5, [r9, #-3957]!	; 0xf75
     b44:	6c635f70 	stclvs	15, cr5, [r3], #-448	; 0xfffffe40
     b48:	65725f6b 	ldrbvs	r5, [r2, #-3947]!	; 0xf6b
     b4c:	36313067 	ldrtcc	r3, [r1], -r7, rrx
     b50:	00745f30 	rsbseq	r5, r4, r0, lsr pc
     b54:	65736572 	ldrbvs	r6, [r3, #-1394]!	; 0x572
     b58:	64657672 	strbtvs	r7, [r5], #-1650	; 0x672
     b5c:	72003032 	andvc	r3, r0, #50	; 0x32
     b60:	72657365 	rsbvc	r7, r5, #-1811939327	; 0x94000001
     b64:	32646576 	rsbcc	r6, r4, #494927872	; 0x1d800000
     b68:	65560031 	ldrbvs	r0, [r6, #-49]	; 0x31
     b6c:	65746147 	ldrbvs	r6, [r4, #-327]!	; 0x147
     b70:	6d644800 	stclvs	8, cr4, [r4]
     b74:	6b6c4369 	blvs	1b11920 <__bss_end+0x1b0d640>
     b78:	4c4c5000 	marmi	acc0, r5, ip
     b7c:	61707942 	cmnvs	r0, r2, asr #18
     b80:	72007373 	andvc	r7, r0, #-872415231	; 0xcc000001
     b84:	72657365 	rsbvc	r7, r5, #-1811939327	; 0x94000001
     b88:	31646576 	smccc	18006	; 0x4656
     b8c:	72460034 	subvc	r0, r6, #52	; 0x34
     b90:	65536361 	ldrbvs	r6, [r3, #-865]	; 0x361
     b94:	65720074 	ldrbvs	r0, [r2, #-116]!	; 0x74
     b98:	73785f67 	cmnvc	r8, #412	; 0x19c
     b9c:	72646461 	rsbvc	r6, r4, #1627389952	; 0x61000000
     ba0:	635f5f00 	cmpvs	pc, #0
     ba4:	5f756d63 	svcpl	0x00756d63
     ba8:	31627061 	cmncc	r2, r1, rrx
     bac:	5f6b6c63 	svcpl	0x006b6c63
     bb0:	65746167 	ldrbvs	r6, [r4, #-359]!	; 0x167
     bb4:	6765725f 	undefined instruction 0x6765725f
     bb8:	63363030 	teqvs	r6, #48	; 0x30
     bbc:	4c00745f 	cfstrsmi	mvf7, [r0], {95}	; 0x5f
     bc0:	43736476 	cmnmi	r3, #1979711488	; 0x76000000
     bc4:	56006b6c 	strpl	r6, [r0], -ip, ror #22
     bc8:	73524f43 	cmpvc	r2, #268	; 0x10c
     bcc:	006e4974 	rsbeq	r4, lr, r4, ror r9
     bd0:	43435f5f 	movtmi	r5, #16223	; 0x3f5f
     bd4:	415f554d 	cmpmi	pc, sp, asr #10
     bd8:	4c434958 	mcrrmi	9, 5, r4, r3, cr8
     bdc:	41475f4b 	cmpmi	r7, fp, asr #30
     be0:	525f4554 	subspl	r4, pc, #352321536	; 0x15000000
     be4:	30304745 	eorscc	r4, r0, r5, asr #14
     be8:	53006335 	movwpl	r6, #821	; 0x335
     bec:	6c437379 	mcrrvs	3, 7, r7, r3, cr9
     bf0:	7669446b 	strbtvc	r4, [r9], -fp, ror #8
     bf4:	67657200 	strbvs	r7, [r5, -r0, lsl #4]!
     bf8:	6174735f 	cmnvs	r4, pc, asr r3
     bfc:	00737574 	rsbseq	r7, r3, r4, ror r5
     c00:	424c4c50 	submi	r4, ip, #20480	; 0x5000
     c04:	45736169 	ldrbmi	r6, [r3, #-361]!	; 0x169
     c08:	5f5f006e 	svcpl	0x005f006e
     c0c:	554d4343 	strbpl	r4, [sp, #-835]	; 0x343
     c10:	4c4c505f 	mcrrmi	0, 5, r5, ip, cr15
     c14:	55415f32 	strbpl	r5, [r1, #-3890]	; 0xf32
     c18:	5f4f4944 	svcpl	0x004f4944
     c1c:	30474552 	subcc	r4, r7, r2, asr r5
     c20:	00383030 	eorseq	r3, r8, r0, lsr r0
     c24:	5f676572 	svcpl	0x00676572
     c28:	64646173 	strbtvs	r6, [r4], #-371	; 0x173
     c2c:	5f5f0072 	svcpl	0x005f0072
     c30:	554d4343 	strbpl	r4, [sp, #-835]	; 0x343
     c34:	44434c5f 	strbmi	r4, [r3], #-3167	; 0xc5f
     c38:	5f314843 	svcpl	0x00314843
     c3c:	004b4c43 	subeq	r4, fp, r3, asr #24
     c40:	63635f5f 	cmnvs	r3, #380	; 0x17c
     c44:	705f756d 	subsvc	r7, pc, sp, ror #10
     c48:	5f356c6c 	svcpl	0x00356c6c
     c4c:	696e7574 	stmdbvs	lr!, {r2, r4, r5, r6, r8, sl, ip, sp, lr}^
     c50:	725f676e 	subsvc	r6, pc, #28835840	; 0x1b80000
     c54:	30306765 	eorscc	r6, r0, r5, ror #14
     c58:	745f3432 	ldrbvc	r3, [pc], #1074	; c60 <twi_byte_rw_nommu+0x124>
     c5c:	5f5f5f00 	svcpl	0x005f5f00
     c60:	554d4343 	strbpl	r4, [sp, #-835]	; 0x343
     c64:	4c4c505f 	mcrrmi	0, 5, r5, ip, cr15
     c68:	4f435f31 	svcmi	0x00435f31
     c6c:	525f4552 	subspl	r4, pc, #343932928	; 0x14800000
     c70:	30304745 	eorscc	r4, r0, r5, asr #14
     c74:	55003030 	strpl	r3, [r0, #-48]	; 0x30
     c78:	31747261 	cmncc	r4, r1, ror #4
     c7c:	65746147 	ldrbvs	r6, [r4, #-327]!	; 0x147
     c80:	73704700 	cmnvc	r0, #0
     c84:	006b6c43 	rsbeq	r6, fp, r3, asr #24
     c88:	43435f5f 	movtmi	r5, #16223	; 0x3f5f
     c8c:	415f554d 	cmpmi	pc, sp, asr #10
     c90:	5f414444 	svcpl	0x00414444
     c94:	5f4b4c43 	svcpl	0x004b4c43
     c98:	30474552 	subcc	r4, r7, r2, asr r5
     c9c:	00303431 	eorseq	r3, r0, r1, lsr r4
     ca0:	69647053 	stmdbvs	r4!, {r0, r1, r4, r6, ip, sp, lr}^
     ca4:	6b6c4366 	blvs	1b11a44 <__bss_end+0x1b0d764>
     ca8:	635f5f00 	cmpvs	pc, #0
     cac:	5f756d63 	svcpl	0x00756d63
     cb0:	336c6c70 	cmncc	ip, #28672	; 0x7000
     cb4:	6469765f 	strbtvs	r7, [r9], #-1631	; 0x65f
     cb8:	725f6f65 	subsvc	r6, pc, #404	; 0x194
     cbc:	30306765 	eorscc	r6, r0, r5, ror #14
     cc0:	745f3031 	ldrbvc	r3, [pc], #49	; cc8 <twi_byte_rw_nommu+0x18c>
     cc4:	72645300 	rsbvc	r5, r4, #0
     cc8:	61476d61 	cmpvs	r7, r1, ror #26
     ccc:	74006574 	strvc	r6, [r0], #-1396	; 0x574
     cd0:	625f6977 	subsvs	r6, pc, #1949696	; 0x1dc000
     cd4:	5f657479 	svcpl	0x00657479
     cd8:	54007772 	strpl	r7, [r0], #-1906	; 0x772
     cdc:	47326977 	undefined instruction 0x47326977
     ce0:	00657461 	rsbeq	r7, r5, r1, ror #8
     ce4:	63635f5f 	cmnvs	r3, #380	; 0x17c
     ce8:	615f756d 	cmpvs	pc, sp, ror #10
     cec:	63306270 	teqvs	r0, #7
     cf0:	675f6b6c 	ldrbvs	r6, [pc, -ip, ror #22]
     cf4:	5f657461 	svcpl	0x00657461
     cf8:	30676572 	rsbcc	r6, r7, r2, ror r5
     cfc:	5f383630 	svcpl	0x00383630
     d00:	70530074 	subsvc	r0, r3, r4, ror r0
     d04:	6c433269 	sfmvs	f3, 2, [r3], {105}	; (stclvs 2, cr3, [r3], {105})	; 0x69
     d08:	534f006b 	movtpl	r0, #61547	; 0xf06b
     d0c:	4d343243 	lfmmi	f3, 4, [r4, #-268]!	; (ldcmi 2, cr3, [r4, #-268]!)	; 0xfffffef4
     d10:	006d7347 	rsbeq	r7, sp, r7, asr #6
     d14:	6d617244 	sfmvs	f7, 2, [r1, #-272]!	; (stclvs 2, cr7, [r1, #-272]!)	; 0xfffffef0
     d18:	65746147 	ldrbvs	r6, [r4, #-327]!	; 0x147
     d1c:	62735500 	rsbsvs	r5, r3, #0
     d20:	30796850 	rsbscc	r6, r9, r0, asr r8
     d24:	00747352 	rsbseq	r7, r4, r2, asr r3
     d28:	6d6d6453 	cfstrdvs	mvd6, [sp, #-332]!	; 0xfffffeb4
     d2c:	61473263 	cmpvs	r7, r3, ror #4
     d30:	5f006574 	svcpl	0x00006574
     d34:	6d63635f 	stclvs	3, cr6, [r3, #-380]!	; 0xfffffe84
     d38:	6c705f75 	ldclvs	15, cr5, [r0], #-468	; 0xfffffe2c
     d3c:	765f376c 	ldrbvc	r3, [pc], -ip, ror #14
     d40:	6f656469 	svcvs	0x00656469
     d44:	65725f31 	ldrbvs	r5, [r2, #-3889]!	; 0xf31
     d48:	33303067 	teqcc	r0, #103	; 0x67
     d4c:	00745f30 	rsbseq	r5, r4, r0, lsr pc
     d50:	65426544 	strbvs	r6, [r2, #-1348]	; 0x544
     d54:	6b6c4330 	blvs	1b11a1c <__bss_end+0x1b0d73c>
     d58:	646f4d00 	strbtvs	r4, [pc], #3328	; d60 <twi_byte_rw_nommu+0x224>
     d5c:	6c655365 	stclvs	3, cr5, [r5], #-404	; 0xfffffe6c
     d60:	435f5f00 	cmpmi	pc, #0
     d64:	5f554d43 	svcpl	0x00554d43
     d68:	374c4c50 	smlsldcc	r4, ip, r0, ip
     d6c:	4449565f 	strbmi	r5, [r9], #-1631	; 0x65f
     d70:	5f314f45 	svcpl	0x00314f45
     d74:	30474552 	subcc	r4, r7, r2, asr r5
     d78:	00303330 	eorseq	r3, r0, r0, lsr r3
     d7c:	6963684f 	stmdbvs	r3!, {r0, r1, r2, r3, r6, fp, sp, lr}^
     d80:	74614730 	strbtvc	r4, [r1], #-1840	; 0x730
     d84:	72490065 	subvc	r0, r9, #101	; 0x65
     d88:	74614730 	strbtvc	r4, [r1], #-1840	; 0x730
     d8c:	5f5f0065 	svcpl	0x005f0065
     d90:	554d4343 	strbpl	r4, [sp, #-835]	; 0x343
     d94:	5350475f 	cmppl	r0, #24903680	; 0x17c0000
     d98:	4b4c435f 	blmi	1311b1c <__bss_end+0x130d83c>
     d9c:	4745525f 	smlsldmi	r5, r5, pc, r2
     da0:	30443030 	subcc	r3, r4, r0, lsr r0
     da4:	635f5f00 	cmpvs	pc, #0
     da8:	5f756d63 	svcpl	0x00756d63
     dac:	75646f6d 	strbvc	r6, [r4, #-3949]!	; 0xf6d
     db0:	5f30656c 	svcpl	0x0030656c
     db4:	5f6b6c63 	svcpl	0x006b6c63
     db8:	5f5f0074 	svcpl	0x005f0074
     dbc:	554d4343 	strbpl	r4, [sp, #-835]	; 0x343
     dc0:	43534f5f 	cmpmi	r3, #380	; 0x17c
     dc4:	5f4d3432 	svcpl	0x004d3432
     dc8:	30474552 	subcc	r4, r7, r2, asr r5
     dcc:	00303530 	eorseq	r3, r0, r0, lsr r5
     dd0:	316c6c50 	cmncc	ip, r0, asr ip
     dd4:	656e7554 	strbvs	r7, [lr, #-1364]!	; 0x554
     dd8:	74530032 	ldrbvc	r0, [r3], #-50	; 0x32
     ddc:	6147726d 	cmpvs	r7, sp, ror #4
     de0:	45006574 	strmi	r6, [r0, #-1396]	; 0x574
     de4:	4763616d 	strbmi	r6, [r3, -sp, ror #2]!
     de8:	00657461 	rsbeq	r7, r5, r1, ror #8
     dec:	4679654b 	ldrbtmi	r6, [r9], -fp, asr #10
     df0:	646c6569 	strbtvs	r6, [ip], #-1385	; 0x569
     df4:	635f5f00 	cmpvs	pc, #0
     df8:	5f756d63 	svcpl	0x00756d63
     dfc:	7364766c 	cmnvc	r4, #113246208	; 0x6c00000
     e00:	6b6c635f 	blvs	1b19b84 <__bss_end+0x1b158a4>
     e04:	6765725f 	undefined instruction 0x6765725f
     e08:	63343130 	teqvs	r4, #12
     e0c:	5000745f 	andpl	r7, r0, pc, asr r4
     e10:	43356c6c 	teqmi	r5, #27648	; 0x6c00
     e14:	5f006c74 	svcpl	0x00006c74
     e18:	6d63635f 	stclvs	3, cr6, [r3, #-380]!	; 0xfffffe84
     e1c:	65765f75 	ldrbvs	r5, [r6, #-3957]!	; 0xf75
     e20:	6b6c635f 	blvs	1b19ba4 <__bss_end+0x1b158c4>
     e24:	6765725f 	undefined instruction 0x6765725f
     e28:	63333130 	teqvs	r3, #12
     e2c:	5f00745f 	svcpl	0x0000745f
     e30:	6d63635f 	stclvs	3, cr6, [r3, #-380]!	; 0xfffffe84
     e34:	6c705f75 	ldclvs	15, cr5, [r0], #-468	; 0xfffffe2c
     e38:	745f326c 	ldrbvc	r3, [pc], #620	; e40 <twi_byte_rw_nommu+0x304>
     e3c:	6e696e75 	mcrvs	14, 3, r6, cr9, cr5, {3}
     e40:	65725f67 	ldrbvs	r5, [r2, #-3943]!	; 0xf67
     e44:	30303067 	eorscc	r3, r0, r7, rrx
     e48:	00745f63 	rsbseq	r5, r4, r3, ror #30
     e4c:	6d676953 	stclvs	9, cr6, [r7, #-332]!	; 0xfffffeb4
     e50:	006e4961 	rsbeq	r4, lr, r1, ror #18
     e54:	7074754f 	rsbsvc	r7, r4, pc, asr #10
     e58:	6e457475 	mcrvs	4, 2, r7, cr5, cr5, {3}
     e5c:	435f5f00 	cmpmi	pc, #0
     e60:	5f554d43 	svcpl	0x00554d43
     e64:	334c4c50 	movtcc	r4, #52304	; 0xcc50
     e68:	4449565f 	strbmi	r5, [r9], #-1631	; 0x65f
     e6c:	525f4f45 	subspl	r4, pc, #276	; 0x114
     e70:	30304745 	eorscc	r4, r0, r5, asr #14
     e74:	5f003031 	svcpl	0x00003031
     e78:	4d43435f 	stclmi	3, cr4, [r3, #-380]	; 0xfffffe84
     e7c:	4c505f55 	mrrcmi	15, 5, r5, r0, cr5
     e80:	545f354c 	ldrbpl	r3, [pc], #1356	; e88 <mem_twi_exit+0x2c>
     e84:	4e494e55 	mcrmi	14, 2, r4, cr9, cr5, {2}
     e88:	525f3247 	subspl	r3, pc, #1879048196	; 0x70000004
     e8c:	30304745 	eorscc	r4, r0, r5, asr #14
     e90:	41004333 	tstmi	r0, r3, lsr r3
     e94:	47616464 	strbmi	r6, [r1, -r4, ror #8]!
     e98:	00657461 	rsbeq	r7, r5, r1, ror #8
     e9c:	424f4356 	submi	r4, pc, #1476395009	; 0x58000001
     ea0:	00736169 	rsbseq	r6, r3, r9, ror #2
     ea4:	63635f5f 	cmnvs	r3, #380	; 0x17c
     ea8:	6c5f756d 	cfldr64vs	mvdx7, [pc], {109}	; 0x6d
     eac:	68636463 	stmdavs	r3!, {r0, r1, r5, r6, sl, sp, lr}^
     eb0:	6c635f31 	stclvs	15, cr5, [r3], #-196	; 0xffffff3c
     eb4:	00745f6b 	rsbseq	r5, r4, fp, ror #30
     eb8:	5f495754 	svcpl	0x00495754
     ebc:	5f474552 	svcpl	0x00474552
     ec0:	45534142 	ldrbmi	r4, [r3, #-322]	; 0x142
     ec4:	42654400 	rsbmi	r4, r5, #0
     ec8:	61473065 	cmpvs	r7, r5, rrx
     ecc:	53006574 	movwpl	r6, #1396	; 0x574
     ed0:	636d4d64 	cmnvs	sp, #6400	; 0x1900
     ed4:	6b6c4331 	blvs	1b11ba0 <__bss_end+0x1b0d8c0>
     ed8:	435f5f00 	cmpmi	pc, #0
     edc:	5f554d43 	svcpl	0x00554d43
     ee0:	5f504549 	svcpl	0x00504549
     ee4:	5f4b4c43 	svcpl	0x004b4c43
     ee8:	30474552 	subcc	r4, r7, r2, asr r5
     eec:	00303631 	eorseq	r3, r0, r1, lsr r6
     ef0:	43435f5f 	movtmi	r5, #16223	; 0x3f5f
     ef4:	415f554d 	cmpmi	pc, sp, asr #10
     ef8:	43314250 	teqmi	r1, #5
     efc:	525f4b4c 	subspl	r4, pc, #77824	; 0x13000
     f00:	4f495441 	svcmi	0x00495441
     f04:	4745525f 	smlsldmi	r5, r5, pc, r2
     f08:	38353030 	ldmdacc	r5!, {r4, r5, ip, sp}
     f0c:	49575400 	ldmdbmi	r7, {sl, ip, lr}^
     f10:	5f504f5f 	svcpl	0x00504f5f
     f14:	72004452 	andvc	r4, r0, #1375731712	; 0x52000000
     f18:	6c5f6765 	mrrcvs	7, 6, r6, pc, cr5
     f1c:	006c7463 	rsbeq	r7, ip, r3, ror #8
     f20:	65736572 	ldrbvs	r6, [r3, #-1394]!	; 0x572
     f24:	64657672 	strbtvs	r7, [r5], #-1650	; 0x672
     f28:	65720030 	ldrbvs	r0, [r2, #-48]!	; 0x30
     f2c:	76726573 	undefined instruction 0x76726573
     f30:	00316465 	eorseq	r6, r1, r5, ror #8
     f34:	65736572 	ldrbvs	r6, [r3, #-1394]!	; 0x572
     f38:	64657672 	strbtvs	r7, [r5], #-1650	; 0x672
     f3c:	65720032 	ldrbvs	r0, [r2, #-50]!	; 0x32
     f40:	76726573 	undefined instruction 0x76726573
     f44:	00336465 	eorseq	r6, r3, r5, ror #8
     f48:	65736572 	ldrbvs	r6, [r3, #-1394]!	; 0x572
     f4c:	64657672 	strbtvs	r7, [r5], #-1650	; 0x672
     f50:	5f5f0034 	svcpl	0x005f0034
     f54:	554d4343 	strbpl	r4, [sp, #-835]	; 0x343
     f58:	4c4c505f 	mcrrmi	0, 5, r5, ip, cr15
     f5c:	55545f31 	ldrbpl	r5, [r4, #-3889]	; 0xf31
     f60:	474e494e 	strbmi	r4, [lr, -lr, asr #18]
     f64:	45525f32 	ldrbmi	r5, [r2, #-3890]	; 0xf32
     f68:	33303047 	teqcc	r0, #71	; 0x47
     f6c:	65720038 	ldrbvs	r0, [r2, #-56]!	; 0x38
     f70:	76726573 	undefined instruction 0x76726573
     f74:	00366465 	eorseq	r6, r6, r5, ror #8
     f78:	65736572 	ldrbvs	r6, [r3, #-1394]!	; 0x572
     f7c:	64657672 	strbtvs	r7, [r5], #-1650	; 0x672
     f80:	70530037 	subsvc	r0, r3, r7, lsr r0
     f84:	6c436365 	mcrrvs	3, 6, r6, r3, cr5
     f88:	6147316b 	cmpvs	r7, fp, ror #2
     f8c:	72006574 	andvc	r6, r0, #486539264	; 0x1d000000
     f90:	72657365 	rsbvc	r7, r5, #-1811939327	; 0x94000001
     f94:	39646576 	stmdbcc	r4!, {r1, r2, r4, r5, r6, r8, sl, sp, lr}^
     f98:	65705300 	ldrbvs	r5, [r0, #-768]!	; 0x300
     f9c:	6b6c4363 	blvs	1b11d30 <__bss_end+0x1b0da50>
     fa0:	63725332 	cmnvs	r2, #-939524096	; 0xc8000000
     fa4:	73694900 	cmnvc	r9, #0
     fa8:	65746147 	ldrbvs	r6, [r4, #-327]!	; 0x147
     fac:	43534f00 	cmpmi	r3, #0
     fb0:	454d3432 	strbmi	r3, [sp, #-1074]	; 0x432
     fb4:	6d44006e 	stclvs	0, cr0, [r4, #-440]	; 0xfffffe48
     fb8:	74614761 	strbtvc	r4, [r1], #-1889	; 0x761
     fbc:	4c500065 	mrrcmi	0, 6, r0, r0, cr5
     fc0:	006e454c 	rsbeq	r4, lr, ip, asr #10
     fc4:	43435f5f 	movtmi	r5, #16223	; 0x3f5f
     fc8:	4b5f554d 	blmi	17d6504 <__bss_end+0x17d2224>
     fcc:	41505945 	cmpmi	r0, r5, asr #18
     fd0:	4c435f44 	mcrrmi	15, 4, r5, r3, cr4
     fd4:	45525f4b 	ldrbmi	r5, [r2, #-3915]	; 0xf4b
     fd8:	43303047 	teqmi	r0, #71	; 0x47
     fdc:	77740034 	undefined instruction 0x77740034
     fe0:	79625f69 	stmdbvc	r2!, {r0, r3, r5, r6, r8, r9, sl, fp, ip, lr}^
     fe4:	725f6574 	subsvc	r6, pc, #486539264	; 0x1d000000
     fe8:	6f6e5f77 	svcvs	0x006e5f77
     fec:	00756d6d 	rsbseq	r6, r5, sp, ror #26
     ff0:	43435f5f 	movtmi	r5, #16223	; 0x3f5f
     ff4:	535f554d 	cmppl	pc, #322961408	; 0x13400000
     ff8:	4c435359 	mcrrmi	3, 5, r5, r3, cr9
     ffc:	41525f4b 	cmpmi	r2, fp, asr #30
    1000:	5f4f4954 	svcpl	0x004f4954
    1004:	30474552 	subcc	r4, r7, r2, asr r5
    1008:	00343530 	eorseq	r3, r4, r0, lsr r5
    100c:	61646441 	cmnvs	r4, r1, asr #8
    1010:	006b6c43 	rsbeq	r6, fp, r3, asr #24
    1014:	6c437354 	mcrrvs	3, 5, r7, r3, cr4
    1018:	6845006b 	stmdavs	r5, {r0, r1, r3, r5, r6}^
    101c:	47306963 	ldrmi	r6, [r0, -r3, ror #18]!
    1020:	00657461 	rsbeq	r7, r5, r1, ror #8
    1024:	74696e49 	strbtvc	r6, [r9], #-3657	; 0xe49
    1028:	71657246 	cmnvc	r5, r6, asr #4
    102c:	79654b00 	stmdbvc	r5!, {r8, r9, fp, lr}^
    1030:	43646150 	cmnmi	r4, #20
    1034:	50006b6c 	andpl	r6, r0, ip, ror #22
    1038:	69424c4c 	stmdbvs	r2, {r2, r3, r6, sl, fp, lr}^
    103c:	4e007361 	cdpmi	3, 0, cr7, cr0, cr1, {3}
    1040:	47646e61 	strbmi	r6, [r4, -r1, ror #28]!
    1044:	00657461 	rsbeq	r7, r5, r1, ror #8
    1048:	61477353 	cmpvs	r7, r3, asr r3
    104c:	5f006574 	svcpl	0x00006574
    1050:	6d63635f 	stclvs	3, cr6, [r3, #-380]!	; 0xfffffe84
    1054:	65665f75 	strbvs	r5, [r6, #-3957]!	; 0xf75
    1058:	706d6564 	rsbvc	r6, sp, r4, ror #10
    105c:	6b6c635f 	blvs	1b19de0 <__bss_end+0x1b15b00>
    1060:	5f00745f 	svcpl	0x0000745f
    1064:	5f6d656d 	svcpl	0x006d656d
    1068:	5f697774 	svcpl	0x00697774
    106c:	706f7473 	rsbvc	r7, pc, r3, ror r4
    1070:	756d4300 	strbvc	r4, [sp, #-768]!	; 0x300
    1074:	00676552 	rsbeq	r6, r7, r2, asr r5
    1078:	696d6448 	stmdbvs	sp!, {r3, r6, sl, sp, lr}^
    107c:	74614744 	strbtvc	r4, [r1], #-1860	; 0x744
    1080:	72560065 	subsvc	r0, r6, #101	; 0x65
    1084:	4f316765 	svcmi	0x00316765
    1088:	6e457475 	mcrvs	4, 2, r7, cr5, cr5, {3}
    108c:	635f5f00 	cmpvs	pc, #0
    1090:	5f756d63 	svcpl	0x00756d63
    1094:	356c6c70 	strbcc	r6, [ip, #-3184]!	; 0xc70
    1098:	6e75745f 	mrcvs	4, 3, r7, cr5, cr15, {2}
    109c:	32676e69 	rsbcc	r6, r7, #1680	; 0x690
    10a0:	6765725f 	undefined instruction 0x6765725f
    10a4:	63333030 	teqvs	r3, #48	; 0x30
    10a8:	5000745f 	andpl	r7, r0, pc, asr r4
    10ac:	54326c6c 	ldrtpl	r6, [r2], #-3180	; 0xc6c
    10b0:	00656e75 	rsbeq	r6, r5, r5, ror lr
    10b4:	63635f5f 	cmnvs	r3, #380	; 0x17c
    10b8:	615f756d 	cmpvs	pc, sp, ror #10
    10bc:	6c636978 	stclvs	9, cr6, [r3], #-480	; 0xfffffe20
    10c0:	61675f6b 	cmnvs	r7, fp, ror #30
    10c4:	725f6574 	subsvc	r6, pc, #486539264	; 0x1d000000
    10c8:	30306765 	eorscc	r6, r0, r5, ror #14
    10cc:	745f6335 	ldrbvc	r6, [pc], #821	; 10d4 <mem_clk_get_pll_factor+0xc>
    10d0:	4f444c00 	svcmi	0x00444c00
    10d4:	006e4532 	rsbeq	r4, lr, r2, lsr r5
    10d8:	74636146 	strbtvc	r6, [r3], #-326	; 0x146
    10dc:	314d726f 	cmpcc	sp, pc, ror #4
    10e0:	6d656d00 	stclvs	13, cr6, [r5]
    10e4:	6977745f 	ldmdbvs	r7!, {r0, r1, r2, r3, r4, r6, sl, ip, sp, lr}^
    10e8:	6978655f 	ldmdbvs	r8!, {r0, r1, r2, r3, r4, r6, r8, sl, sp, lr}^
    10ec:	6c500074 	mrrcvs	0, 7, r0, r0, cr4
    10f0:	7443376c 	strbvc	r3, [r3], #-1900	; 0x76c
    10f4:	6974006c 	ldmdbvs	r4!, {r2, r3, r5, r6}^
    10f8:	756f656d 	strbvc	r6, [pc, #-1389]!	; b93 <twi_byte_rw_nommu+0x57>
    10fc:	5f5f0074 	svcpl	0x005f0074
    1100:	756d6363 	strbvc	r6, [sp, #-867]!	; 0x363
    1104:	6765725f 	undefined instruction 0x6765725f
    1108:	73696c5f 	cmnvc	r9, #24320	; 0x5f00
    110c:	00745f74 	rsbseq	r5, r4, r4, ror pc
    1110:	646e614e 	strbtvs	r6, [lr], #-334	; 0x14e
    1114:	006b6c43 	rsbeq	r6, fp, r3, asr #24
    1118:	4943484f 	stmdbmi	r3, {r0, r1, r2, r3, r6, fp, lr}^
    111c:	65705330 	ldrbvs	r5, [r0, #-816]!	; 0x330
    1120:	6b6c4363 	blvs	1b11eb4 <__bss_end+0x1b0dbd4>
    1124:	65746147 	ldrbvs	r6, [r4, #-327]!	; 0x147
    1128:	435f5f00 	cmpmi	pc, #0
    112c:	5f554d43 	svcpl	0x00554d43
    1130:	314c4c50 	cmpcc	ip, r0, asr ip
    1134:	4e55545f 	mrcmi	4, 2, r5, cr5, cr15, {2}
    1138:	5f474e49 	svcpl	0x00474e49
    113c:	30474552 	subcc	r4, r7, r2, asr r5
    1140:	00343030 	eorseq	r3, r4, r0, lsr r0
    1144:	43706549 	cmnmi	r0, #306184192	; 0x12400000
    1148:	5f006b6c 	svcpl	0x00006b6c
    114c:	6d63635f 	stclvs	3, cr6, [r3, #-380]!	; 0xfffffe84
    1150:	76615f75 	uqsub16vc	r5, r1, r5
    1154:	6c635f73 	stclvs	15, cr5, [r3], #-460	; 0xfffffe34
    1158:	65725f6b 	ldrbvs	r5, [r2, #-3947]!	; 0xf6b
    115c:	34313067 	ldrtcc	r3, [r1], #-103	; 0x67
    1160:	00745f34 	rsbseq	r5, r4, r4, lsr pc
    1164:	696c614d 	stmdbvs	ip!, {r0, r2, r3, r6, r8, sp, lr}^
    1168:	006b6c43 	rsbeq	r6, fp, r3, asr #24
    116c:	43737641 	cmnmi	r3, #68157440	; 0x4100000
    1170:	4c006b6c 	stcmi	11, cr6, [r0], {108}	; 0x6c
    1174:	65526463 	ldrbvs	r6, [r2, #-1123]	; 0x463
    1178:	00746573 	rsbseq	r6, r4, r3, ror r5
    117c:	50627355 	rsbpl	r7, r2, r5, asr r3
    1180:	52317968 	eorspl	r7, r1, #1703936	; 0x1a0000
    1184:	5f007473 	svcpl	0x00007473
    1188:	6d63635f 	stclvs	3, cr6, [r3, #-380]!	; 0xfffffe84
    118c:	79735f75 	ldmdbvc	r3!, {r0, r2, r4, r5, r6, r8, r9, sl, fp, ip, lr}^
    1190:	6b6c6373 	blvs	1b19f64 <__bss_end+0x1b15c84>
    1194:	61725f6c 	cmnvs	r2, ip, ror #30
    1198:	5f6f6974 	svcpl	0x006f6974
    119c:	30676572 	rsbcc	r6, r7, r2, ror r5
    11a0:	5f343530 	svcpl	0x00343530
    11a4:	61550074 	cmpvs	r5, r4, ror r0
    11a8:	47337472 	undefined instruction 0x47337472
    11ac:	00657461 	rsbeq	r7, r5, r1, ror #8
    11b0:	65466544 	strbvs	r6, [r6, #-1348]	; 0x544
    11b4:	74614730 	strbtvc	r4, [r1], #-1840	; 0x730
    11b8:	6c500065 	mrrcvs	0, 6, r0, r0, cr5
    11bc:	7443336c 	strbvc	r3, [r3], #-876	; 0x36c
    11c0:	7841006c 	stmdavc	r1, {r2, r3, r5, r6}^
    11c4:	74614769 	strbtvc	r4, [r1], #-1897	; 0x769
    11c8:	70470065 	subvc	r0, r7, r5, rrx
    11cc:	74614773 	strbtvc	r4, [r1], #-1907	; 0x773
    11d0:	6c500065 	mrrcvs	0, 6, r0, r0, cr5
    11d4:	7443366c 	strbvc	r3, [r3], #-1644	; 0x66c
    11d8:	5f5f006c 	svcpl	0x005f006c
    11dc:	554d4343 	strbpl	r4, [sp, #-835]	; 0x343
    11e0:	44434c5f 	strbmi	r4, [r3], #-3167	; 0xc5f
    11e4:	5f304843 	svcpl	0x00304843
    11e8:	004b4c43 	subeq	r4, fp, r3, asr #24
    11ec:	6b636f4c 	blvs	18dcf24 <__bss_end+0x18d8c44>
    11f0:	656d6954 	strbvs	r6, [sp, #-2388]!	; 0x954
    11f4:	435f5f00 	cmpmi	pc, #0
    11f8:	5f554d43 	svcpl	0x00554d43
    11fc:	435f4556 	cmpmi	pc, #360710144	; 0x15800000
    1200:	525f4b4c 	subspl	r4, pc, #77824	; 0x13000
    1204:	31304745 	teqcc	r0, r5, asr #14
    1208:	55004333 	strpl	r4, [r0, #-819]	; 0x333
    120c:	30747261 	rsbscc	r7, r4, r1, ror #4
    1210:	65746147 	ldrbvs	r6, [r4, #-327]!	; 0x147
    1214:	6f635600 	svcvs	0x00635600
    1218:	73616942 	cmnvc	r1, #1081344	; 0x108000
    121c:	65725000 	ldrbvs	r5, [r2]!
    1220:	76694476 	undefined instruction 0x76694476
    1224:	435f5f00 	cmpmi	pc, #0
    1228:	5f554d43 	svcpl	0x00554d43
    122c:	31425041 	cmpcc	r2, r1, asr #32
    1230:	5f4b4c43 	svcpl	0x004b4c43
    1234:	45544147 	ldrbmi	r4, [r4, #-327]	; 0x147
    1238:	4745525f 	smlsldmi	r5, r5, pc, r2
    123c:	43363030 	teqmi	r6, #48	; 0x30
    1240:	49584100 	ldmdbmi	r8, {r8, lr}^
    1244:	446b6c43 	strbtmi	r6, [fp], #-3139	; 0xc43
    1248:	5f007669 	svcpl	0x00007669
    124c:	4d43435f 	stclmi	3, cr4, [r3, #-380]	; 0xfffffe84
    1250:	4c505f55 	mrrcmi	15, 5, r5, r0, cr5
    1254:	545f354c 	ldrbpl	r3, [pc], #1356	; 125c <mem_power_off+0x74>
    1258:	4e494e55 	mcrmi	14, 2, r4, cr9, cr5, {2}
    125c:	45525f47 	ldrbmi	r5, [r2, #-3911]	; 0xf47
    1260:	32303047 	eorscc	r3, r0, #71	; 0x47
    1264:	43560034 	cmpmi	r6, #52	; 0x34
    1268:	6961474f 	stmdbvs	r1!, {r0, r1, r2, r3, r6, r8, r9, sl, lr}^
    126c:	6572006e 	ldrbvs	r0, [r2, #-110]!	; 0x6e
    1270:	66655f67 	strbtvs	r5, [r5], -r7, ror #30
    1274:	43410072 	movtmi	r0, #4210	; 0x1072
    1278:	43383233 	teqmi	r8, #805306371	; 0x30000003
    127c:	72536b6c 	subsvc	r6, r3, #110592	; 0x1b000
    1280:	77540063 	ldrbvc	r0, [r4, -r3, rrx]
    1284:	6c744369 	ldclvs	3, cr4, [r4], #-420	; 0xfffffe5c
    1288:	42676552 	rsbmi	r6, r7, #343932928	; 0x14800000
    128c:	46006b61 	strmi	r6, [r0], -r1, ror #22
    1290:	75716572 	ldrbvc	r6, [r1, #-1394]!	; 0x572
    1294:	79636e65 	stmdbvc	r3!, {r0, r2, r5, r6, r9, sl, fp, sp, lr}^
    1298:	69775400 	ldmdbvs	r7!, {sl, ip, lr}^
    129c:	74614731 	strbtvc	r4, [r1], #-1841	; 0x731
    12a0:	6c500065 	mrrcvs	0, 6, r0, r0, cr5
    12a4:	7443326c 	strbvc	r3, [r3], #-620	; 0x26c
    12a8:	5f5f006c 	svcpl	0x005f006c
    12ac:	554d4343 	strbpl	r4, [sp, #-835]	; 0x343
    12b0:	4745525f 	smlsldmi	r5, r5, pc, r2
    12b4:	53494c5f 	movtpl	r4, #40031	; 0x9c5f
    12b8:	5f5f0054 	svcpl	0x005f0054
    12bc:	756d6363 	strbvc	r6, [sp, #-867]!	; 0x363
    12c0:	6c6c705f 	stclvs	0, cr7, [ip], #-380	; 0xfffffe84
    12c4:	65765f34 	ldrbvs	r5, [r6, #-3892]!	; 0xf34
    12c8:	6765725f 	undefined instruction 0x6765725f
    12cc:	38313030 	ldmdacc	r1!, {r4, r5, ip, sp}
    12d0:	4100745f 	tstmi	r0, pc, asr r4
    12d4:	43304250 	teqmi	r0, #5
    12d8:	69446b6c 	stmdbvs	r4, {r2, r3, r5, r6, r8, r9, fp, sp, lr}^
    12dc:	48410076 	stmdami	r1, {r1, r2, r4, r5, r6}^
    12e0:	6b6c4342 	blvs	1b11ff0 <__bss_end+0x1b0dd10>
    12e4:	006c6553 	rsbeq	r6, ip, r3, asr r5
    12e8:	6d656d5f 	stclvs	13, cr6, [r5, #-380]!	; 0xfffffe84
    12ec:	6977745f 	ldmdbvs	r7!, {r0, r1, r2, r3, r4, r6, sl, ip, sp, lr}^
    12f0:	666f735f 	undefined instruction 0x666f735f
    12f4:	65725f74 	ldrbvs	r5, [r2, #-3956]!	; 0xf74
    12f8:	5f746573 	svcpl	0x00746573
    12fc:	6d6d6f6e 	stclvs	15, cr6, [sp, #-440]!	; 0xfffffe48
    1300:	73430075 	movtvc	r0, #12405	; 0x3075
    1304:	61473069 	cmpvs	r7, r9, rrx
    1308:	53006574 	movwpl	r6, #1396	; 0x574
    130c:	636d6d64 	cmnvs	sp, #6400	; 0x1900
    1310:	74614731 	strbtvc	r4, [r1], #-1841	; 0x731
    1314:	5f5f0065 	svcpl	0x005f0065
    1318:	554d4343 	strbpl	r4, [sp, #-835]	; 0x343
    131c:	4250415f 	subsmi	r4, r0, #-1073741801	; 0xc0000017
    1320:	4b4c4330 	blmi	1311fe8 <__bss_end+0x130dd08>
    1324:	5441475f 	strbpl	r4, [r1], #-1887	; 0x75f
    1328:	45525f45 	ldrbmi	r5, [r2, #-3909]	; 0xf45
    132c:	36303047 	ldrtcc	r3, [r0], -r7, asr #32
    1330:	656d0038 	strbvs	r0, [sp, #-56]!	; 0x38
    1334:	6c635f6d 	stclvs	15, cr5, [r3], #-436	; 0xfffffe4c
    1338:	65735f6b 	ldrbvs	r5, [r3, #-3947]!	; 0xf6b
    133c:	6c705f74 	ldclvs	15, cr5, [r0], #-464	; 0xfffffe30
    1340:	61665f6c 	cmnvs	r6, ip, ror #30
    1344:	726f7463 	rsbvc	r7, pc, #1660944384	; 0x63000000
    1348:	6d656d00 	stclvs	13, cr6, [r5]
    134c:	6b6c635f 	blvs	1b1a0d0 <__bss_end+0x1b15df0>
    1350:	7465675f 	strbtvc	r6, [r5], #-1887	; 0x75f
    1354:	00766964 	rsbseq	r6, r6, r4, ror #18
    1358:	5f6d656d 	svcpl	0x006d656d
    135c:	5f6b6c63 	svcpl	0x006b6c63
    1360:	5f746567 	svcpl	0x00746567
    1364:	5f6c6c70 	svcpl	0x006c6c70
    1368:	74636166 	strbtvc	r6, [r3], #-358	; 0x166
    136c:	6d00726f 	sfmvs	f7, 4, [r0, #-444]	; (stcvs 2, cr7, [r0, #-444])	; 0xfffffe44
    1370:	635f6d65 	cmpvs	pc, #6464	; 0x1940
    1374:	735f6b6c 	cmpvc	pc, #110592	; 0x1b000
    1378:	69647465 	stmdbvs	r4!, {r0, r2, r5, r6, sl, ip, sp, lr}^
    137c:	6e6f0076 	mcrvs	0, 3, r0, cr15, cr6, {3}
    1380:	0066666f 	rsbeq	r6, r6, pc, ror #12
    1384:	75732f2e 	ldrbvc	r2, [r3, #-3886]!	; 0xf2e
    1388:	2f726570 	svccs	0x00726570
    138c:	65707573 	ldrbvs	r7, [r0, #-1395]!	; 0x573
    1390:	6c635f72 	stclvs	15, cr5, [r3], #-456	; 0xfffffe38
    1394:	2e6b636f 	cdpcs	3, 6, cr6, cr11, cr15, {3}
    1398:	656d0063 	strbvs	r0, [sp, #-99]!	; 0x63
    139c:	6c635f6d 	stclvs	15, cr5, [r3], #-436	; 0xfffffe4c
    13a0:	6c705f6b 	ldclvs	15, cr5, [r0], #-428	; 0xfffffe54
    13a4:	616e656c 	cmnvs	lr, ip, ror #10
    13a8:	00656c62 	rsbeq	r6, r5, r2, ror #24
    13ac:	5f6d656d 	svcpl	0x006d656d
    13b0:	5f6b6c63 	svcpl	0x006b6c63
    13b4:	6d617264 	sfmvs	f7, 2, [r1, #-400]!	; (stclvs 2, cr7, [r1, #-400]!)	; 0xfffffe70
    13b8:	69746167 	ldmdbvs	r4!, {r0, r1, r2, r5, r6, r8, sp, lr}^
    13bc:	6300676e 	movwvs	r6, #1902	; 0x76e
    13c0:	6d5f7570 	cfldr64vs	mvdx7, [pc, #-448]	; 0xfffffe40
    13c4:	6f6c5f73 	svcvs	0x006c5f73
    13c8:	6e63706f 	cdpvs	0, 6, cr7, cr3, cr15, {3}
    13cc:	656d0074 	strbvs	r0, [sp, #-116]!	; 0x74
    13d0:	6c635f6d 	stclvs	15, cr5, [r3], #-436	; 0xfffffe4c
    13d4:	6e695f6b 	cdpvs	15, 6, cr5, cr9, cr11, {3}
    13d8:	6d007469 	cfstrsvs	mvf7, [r0, #-420]	; 0xfffffe5c
    13dc:	635f6d65 	cmpvs	pc, #6464	; 0x1940
    13e0:	705f6b6c 	subsvc	r6, pc, ip, ror #22
    13e4:	69646c6c 	stmdbvs	r4!, {r2, r3, r5, r6, sl, fp, sp, lr}^
    13e8:	6c626173 	stfvse	f6, [r2], #-460	; 0xfffffe34
    13ec:	69640065 	stmdbvs	r4!, {r0, r2, r5, r6}^
    13f0:	69736976 	ldmdbvs	r3!, {r1, r2, r4, r5, r6, r8, fp, sp, lr}^
    13f4:	6600726f 	strvs	r7, [r0], -pc, ror #4
    13f8:	5f646e69 	svcpl	0x00646e69
    13fc:	6f666e69 	svcvs	0x00666e69
    1400:	78616d00 	stmdavc	r1!, {r8, sl, fp, sp, lr}^
    1404:	0056755f 	subseq	r7, r6, pc, asr r5
    1408:	44706d74 	ldrbtmi	r6, [r0], #-3444	; 0xd74
    140c:	6d007669 	stcvs	6, cr7, [r0, #-420]	; 0xfffffe5c
    1410:	006b7361 	rsbeq	r7, fp, r1, ror #6
    1414:	70657473 	rsbvc	r7, r5, r3, ror r4
    1418:	0056755f 	subseq	r7, r6, pc, asr r5
    141c:	5f6c6f76 	svcpl	0x006c6f76
    1420:	7469626e 	strbtvc	r6, [r9], #-622	; 0x26e
    1424:	6f760073 	svcvs	0x00760073
    1428:	65725f6c 	ldrbvs	r5, [r2, #-3948]!	; 0xf6c
    142c:	656d0067 	strbvs	r0, [sp, #-103]!	; 0x67
    1430:	6f705f6d 	svcvs	0x00705f6d
    1434:	5f726577 	svcpl	0x00726577
    1438:	74697865 	strbtvc	r7, [r9], #-2149	; 0x865
    143c:	6c6f7600 	stclvs	6, cr7, [pc]
    1440:	6968735f 	stmdbvs	r8!, {r0, r1, r2, r3, r4, r6, r8, r9, ip, sp, lr}^
    1444:	6d007466 	cfstrsvs	mvf7, [r0, #-408]	; 0xfffffe68
    1448:	705f6d65 	subsvc	r6, pc, r5, ror #26
    144c:	7265776f 	rsbvc	r7, r5, #29097984	; 0x1bc0000
    1450:	66666f5f 	uqsubaddxvs	r6, r6, pc
    1454:	70786100 	rsbsvc	r6, r8, r0, lsl #2
    1458:	695f3032 	ldmdbvs	pc, {r1, r4, r5, ip, sp}^
    145c:	006f666e 	rsbeq	r6, pc, lr, ror #12
    1460:	5f707861 	svcpl	0x00707861
    1464:	6f666e69 	svcvs	0x00666e69
    1468:	6b617700 	blvs	185f070 <__bss_end+0x185ad90>
    146c:	5f707565 	svcpl	0x00707565
    1470:	00637273 	rsbeq	r7, r3, r3, ror r2
    1474:	5f6d656d 	svcpl	0x006d656d
    1478:	65776f70 	ldrbvs	r6, [r7, #-3952]!	; 0xf70
    147c:	666f5f72 	uqsub16vs	r5, pc, r2
    1480:	6f6e5f66 	svcvs	0x006e5f66
    1484:	00756d6d 	rsbseq	r6, r5, sp, ror #26
    1488:	5f6d656d 	svcpl	0x006d656d
    148c:	5f746567 	svcpl	0x00746567
    1490:	746c6f76 	strbtvc	r6, [ip], #-3958	; 0xf76
    1494:	00656761 	rsbeq	r6, r5, r1, ror #14
    1498:	5f676572 	svcpl	0x00676572
    149c:	006c6176 	rsbeq	r6, ip, r6, ror r1
    14a0:	5f6d656d 	svcpl	0x006d656d
    14a4:	65776f70 	ldrbvs	r6, [r7, #-3952]!	; 0xf70
    14a8:	6e695f72 	mcrvs	15, 3, r5, cr9, cr2, {3}
    14ac:	2e007469 	cdpcs	4, 0, cr7, cr0, cr9, {3}
    14b0:	7075732f 	rsbsvc	r7, r5, pc, lsr #6
    14b4:	732f7265 	teqvc	pc, #1342177286	; 0x50000006
    14b8:	72657075 	rsbvc	r7, r5, #117	; 0x75
    14bc:	776f705f 	undefined instruction 0x776f705f
    14c0:	632e7265 	teqvs	lr, #1342177286	; 0x50000006
    14c4:	70786100 	rsbsvc	r6, r8, r0, lsl #2
    14c8:	6c5f3032 	mrrcvs	0, 3, r3, pc, cr2
    14cc:	5f346f64 	svcpl	0x00346f64
    14d0:	61746164 	cmnvs	r4, r4, ror #2
    14d4:	6d656d00 	stclvs	13, cr6, [r5]
    14d8:	7465735f 	strbtvc	r7, [r5], #-863	; 0x35f
    14dc:	6c6f765f 	stclvs	6, cr7, [pc], #-380	; 0xfffffe84
    14e0:	65676174 	strbvs	r6, [r7, #-372]!	; 0x174
    14e4:	76696400 	strbtvc	r6, [r9], -r0, lsl #8
    14e8:	6e656469 	cdpvs	4, 6, cr6, cr5, cr9, {3}
    14ec:	68630064 	stmdavs	r3!, {r2, r5, r6}^
    14f0:	5f6b6365 	svcpl	0x006b6365
    14f4:	676e6172 	undefined instruction 0x676e6172
    14f8:	696d0065 	stmdbvs	sp!, {r0, r2, r5, r6}^
    14fc:	56755f6e 	ldrbtpl	r5, [r5], -lr, ror #30
    1500:	706d7400 	rsbvc	r7, sp, r0, lsl #8
    1504:	746f7551 	strbtvc	r7, [pc], #1361	; 150c <mem_power_exit+0x284>
    1508:	77617200 	strbvc	r7, [r1, -r0, lsl #4]!
    150c:	62696c5f 	rsbvs	r6, r9, #24320	; 0x5f00
    1510:	6964755f 	stmdbvs	r4!, {r0, r1, r2, r3, r4, r6, r8, sl, ip, sp, lr}^
    1514:	69460076 	stmdbvs	r6, {r1, r2, r4, r5, r6}^
    1518:	6e655071 	mcrvs	0, 3, r5, cr5, cr1, {3}
    151c:	656d0064 	strbvs	r0, [sp, #-100]!	; 0x64
    1520:	6e695f6d 	cdpvs	15, 6, cr5, cr9, cr13, {3}
    1524:	78655f74 	stmdavc	r5!, {r2, r4, r5, r6, r8, r9, sl, fp, ip, lr}^
    1528:	69007469 	stmdbvs	r0, {r0, r3, r5, r6, sl, ip, sp, lr}
    152c:	7265746e 	rsbvc	r7, r5, #1845493760	; 0x6e000000
    1530:	74707572 	ldrbtvc	r7, [r0], #-1394	; 0x572
    1534:	756f735f 	strbvc	r7, [pc, #-863]!	; 11dd <mem_power_off_nommu+0x95>
    1538:	5f656372 	svcpl	0x00656372
    153c:	72490065 	subvc	r0, r9, #101	; 0x65
    1540:	69725071 	ldmdbvs	r2!, {r0, r4, r5, r6, ip, lr}^
    1544:	656d006f 	strbvs	r0, [sp, #-111]!	; 0x6f
    1548:	75715f6d 	ldrbvc	r5, [r1, #-3949]!	; 0xf6d
    154c:	5f797265 	svcpl	0x00797265
    1550:	00746e69 	rsbseq	r6, r4, r9, ror #28
    1554:	50717249 	rsbspl	r7, r1, r9, asr #4
    1558:	00646e65 	rsbeq	r6, r4, r5, ror #28
    155c:	46717249 	ldrbtmi	r7, [r1], -r9, asr #4
    1560:	6563726f 	strbvs	r7, [r3, #-623]!	; 0x26f
    1564:	71724900 	cmnvc	r2, r0, lsl #18
    1568:	65526e45 	ldrbvs	r6, [r2, #-3653]	; 0xe45
    156c:	4e490067 	cdpmi	0, 4, cr0, cr9, cr7, {3}
    1570:	4f535f54 	svcmi	0x00535f54
    1574:	45435255 	strbmi	r5, [r3, #-597]	; 0x255
    1578:	59454b5f 	stmdbpl	r5, {r0, r1, r2, r3, r4, r6, r8, r9, fp, lr}^
    157c:	00444150 	subeq	r4, r4, r0, asr r1
    1580:	5f544e49 	svcpl	0x00544e49
    1584:	52554f53 	subspl	r4, r5, #332	; 0x14c
    1588:	415f4543 	cmpmi	pc, r3, asr #10
    158c:	4d52414c 	ldfmie	f4, [r2, #-304]	; 0xfffffed0
    1590:	71724900 	cmnvc	r2, r0, lsl #18
    1594:	70736552 	rsbsvc	r6, r3, r2, asr r5
    1598:	544e4900 	strbpl	r4, [lr], #-2304	; 0x900
    159c:	554f535f 	strbpl	r5, [pc, #-863]	; 1245 <mem_power_off+0x5d>
    15a0:	5f454352 	svcpl	0x00454352
    15a4:	43554f54 	cmpmi	r5, #336	; 0x150
    15a8:	4c4e5048 	mcrrmi	0, 4, r5, lr, cr8
    15ac:	544e4900 	strbpl	r4, [lr], #-2304	; 0x900
    15b0:	554f535f 	strbpl	r5, [pc, #-863]	; 1259 <mem_power_off+0x71>
    15b4:	5f454352 	svcpl	0x00454352
    15b8:	00305249 	eorseq	r5, r0, r9, asr #4
    15bc:	5f544e49 	svcpl	0x00544e49
    15c0:	52554f53 	subspl	r4, r5, #332	; 0x14c
    15c4:	495f4543 	ldmdbmi	pc, {r0, r1, r6, r8, sl, lr}^
    15c8:	6d003152 	stfvss	f3, [r0, #-328]	; 0xfffffeb8
    15cc:	695f6d65 	ldmdbvs	pc, {r0, r2, r5, r6, r8, sl, fp, sp, lr}^
    15d0:	695f746e 	ldmdbvs	pc, {r1, r2, r3, r5, r6, sl, ip, sp, lr}^
    15d4:	0074696e 	rsbseq	r6, r4, lr, ror #18
    15d8:	5f544e49 	svcpl	0x00544e49
    15dc:	52554f53 	subspl	r4, r5, #332	; 0x14c
    15e0:	545f4543 	ldrbpl	r4, [pc], #1347	; 15e8 <mem_get_voltage+0x4c>
    15e4:	52454d49 	subpl	r4, r5, #4672	; 0x1240
    15e8:	4e490030 	mcrmi	0, 2, r0, cr9, cr0, {1}
    15ec:	4f535f54 	svcmi	0x00535f54
    15f0:	45435255 	strbmi	r5, [r3, #-597]	; 0x255
    15f4:	4d49545f 	cfstrdmi	mvd5, [r9, #-380]	; 0xfffffe84
    15f8:	00315245 	eorseq	r5, r1, r5, asr #4
    15fc:	5f544e49 	svcpl	0x00544e49
    1600:	52554f53 	subspl	r4, r5, #332	; 0x14c
    1604:	555f4543 	ldrbpl	r4, [pc, #-1347]	; 10c9 <mem_clk_get_pll_factor+0x1>
    1608:	00304253 	eorseq	r4, r0, r3, asr r2
    160c:	5f544e49 	svcpl	0x00544e49
    1610:	52554f53 	subspl	r4, r5, #332	; 0x14c
    1614:	555f4543 	ldrbpl	r4, [pc, #-1347]	; 10d9 <mem_clk_get_pll_factor+0x11>
    1618:	00314253 	eorseq	r4, r1, r3, asr r2
    161c:	5f544e49 	svcpl	0x00544e49
    1620:	52554f53 	subspl	r4, r5, #332	; 0x14c
    1624:	555f4543 	ldrbpl	r4, [pc, #-1347]	; 10e9 <mem_clk_get_pll_factor+0x21>
    1628:	00324253 	eorseq	r4, r2, r3, asr r2
    162c:	5f544e49 	svcpl	0x00544e49
    1630:	52554f53 	subspl	r4, r5, #332	; 0x14c
    1634:	555f4543 	ldrbpl	r4, [pc, #-1347]	; 10f9 <mem_clk_get_pll_factor+0x31>
    1638:	00334253 	eorseq	r4, r3, r3, asr r2
    163c:	5f544e49 	svcpl	0x00544e49
    1640:	52554f53 	subspl	r4, r5, #332	; 0x14c
    1644:	555f4543 	ldrbpl	r4, [pc, #-1347]	; 1109 <mem_clk_get_pll_factor+0x41>
    1648:	00344253 	eorseq	r4, r4, r3, asr r2
    164c:	65707954 	ldrbvs	r7, [r0, #-2388]!	; 0x954
    1650:	006c6553 	rsbeq	r6, ip, r3, asr r5
    1654:	5f544e49 	svcpl	0x00544e49
    1658:	52554f53 	subspl	r4, r5, #332	; 0x14c
    165c:	455f4543 	ldrbmi	r4, [pc, #-1347]	; 1121 <mem_clk_dramgating+0x9>
    1660:	4d4e5458 	cfstrdmi	mvd5, [lr, #-352]	; 0xfffffea0
    1664:	6d4e0049 	stclvs	0, cr0, [lr, #-292]	; 0xfffffedc
    1668:	72744369 	rsbsvc	r4, r4, #-1543503871	; 0xa4000001
    166c:	656d006c 	strbvs	r0, [sp, #-108]!	; 0x6c
    1670:	6e695f6d 	cdpvs	15, 6, cr5, cr9, cr13, {3}
    1674:	65725f74 	ldrbvs	r5, [r2, #-3956]!	; 0xf74
    1678:	00745f67 	rsbseq	r5, r4, r7, ror #30
    167c:	75736572 	ldrbvc	r6, [r3, #-1394]!	; 0x572
    1680:	5600746c 	strpl	r7, [r0], -ip, ror #8
    1684:	6f746365 	svcvs	0x00746365
    1688:	4e490072 	mcrmi	0, 2, r0, cr9, cr2, {3}
    168c:	4f535f54 	svcmi	0x00535f54
    1690:	45435255 	strbmi	r5, [r3, #-597]	; 0x255
    1694:	41524c5f 	cmpmi	r2, pc, asr ip
    1698:	42004344 	andmi	r4, r0, #268435457	; 0x10000001
    169c:	41657361 	cmnmi	r5, r1, ror #6
    16a0:	00726464 	rsbseq	r6, r2, r4, ror #8
    16a4:	4d717249 	lfmmi	f7, 2, [r1, #-292]!	; (ldclmi 2, cr7, [r1, #-292]!)	; 0xfffffedc
    16a8:	006b7361 	rsbeq	r7, fp, r1, ror #6
    16ac:	75732f2e 	ldrbvc	r2, [r3, #-3886]!	; 0xf2e
    16b0:	2f726570 	svccs	0x00726570
    16b4:	65707573 	ldrbvs	r7, [r0, #-1395]!	; 0x573
    16b8:	6e695f72 	mcrvs	15, 3, r5, cr9, cr2, {3}
    16bc:	00632e74 	rsbeq	r2, r3, r4, ror lr
    16c0:	47706d74 	undefined instruction 0x47706d74
    16c4:	49007072 	stmdbmi	r0, {r1, r4, r5, r6, ip, sp, lr}
    16c8:	614d7172 	cmpvs	sp, r2, ror r1
    16cc:	65526b73 	ldrbvs	r6, [r2, #-2931]	; 0xb73
    16d0:	6e490067 	cdpvs	0, 4, cr0, cr9, cr7, {3}
    16d4:	65526374 	ldrbvs	r6, [r2, #-884]	; 0x374
    16d8:	72490067 	subvc	r0, r9, #103	; 0x67
    16dc:	6c655371 	stclvs	3, cr5, [r5], #-452	; 0xfffffe3c
    16e0:	00676552 	rsbeq	r6, r7, r2, asr r5
    16e4:	53706d74 	cmnpl	r0, #7424	; 0x1d00
    16e8:	6d006372 	stcvs	3, cr6, [r0, #-456]	; 0xfffffe38
    16ec:	655f6d65 	ldrbvs	r6, [pc, #-3429]	; 98f <twi_byte_rw+0x12b>
    16f0:	6c62616e 	stfvse	f6, [r2], #-440	; 0xfffffe48
    16f4:	6e695f65 	cdpvs	15, 6, cr5, cr9, cr5, {3}
    16f8:	6c410074 	mcrrvs	0, 7, r0, r1, cr4
    16fc:	576d7261 	strbpl	r7, [sp, -r1, ror #4]!
    1700:	00534d48 	subseq	r4, r3, r8, asr #26
    1704:	72616c41 	rsbvc	r6, r1, #16640	; 0x4100
    1708:	7172496d 	cmnvc	r2, sp, ror #18
    170c:	00617453 	rsbeq	r7, r1, r3, asr r4
    1710:	31737641 	cmncc	r3, r1, asr #12
    1714:	00746e43 	rsbseq	r6, r4, r3, asr #28
    1718:	72616c41 	rsbvc	r6, r1, #16640	; 0x4100
    171c:	7172496d 	cmnvc	r2, sp, ror #18
    1720:	52006e45 	andpl	r6, r0, #1104	; 0x450
    1724:	48446374 	stmdami	r4, {r2, r4, r5, r6, r8, r9, sp, lr}^
    1728:	4400534d 	strmi	r5, [r0], #-845	; 0x34d
    172c:	7443676f 	strbvc	r6, [r3], #-1903	; 0x76f
    1730:	7452006c 	ldrbvc	r0, [r2], #-108	; 0x6c
    1734:	444d5963 	strbmi	r5, [sp], #-2403	; 0x963
    1738:	726d5400 	rsbvc	r5, sp, #0
    173c:	746e4930 	strbtvc	r4, [lr], #-2352	; 0x930
    1740:	006c6156 	rsbeq	r6, ip, r6, asr r1
    1744:	48637452 	stmdami	r3!, {r1, r4, r6, sl, ip, sp, lr}^
    1748:	5400534d 	strpl	r5, [r0], #-845	; 0x34d
    174c:	4331726d 	teqmi	r1, #-805306362	; 0xd0000006
    1750:	54006c74 	strpl	r6, [r0], #-3188	; 0xc74
    1754:	4330726d 	teqmi	r0, #-805306362	; 0xd0000006
    1758:	6156746e 	cmpvs	r6, lr, ror #8
    175c:	6d54006c 	ldclvs	0, cr0, [r4, #-432]	; 0xfffffe50
    1760:	74433572 	strbvc	r3, [r3], #-1394	; 0x572
    1764:	6d54006c 	ldclvs	0, cr0, [r4, #-432]	; 0xfffffe50
    1768:	6e493272 	mcrvs	2, 2, r3, cr9, cr2, {3}
    176c:	6c615674 	stclvs	6, cr5, [r1], #-464	; 0xfffffe30
    1770:	6d5f5f00 	ldclvs	15, cr5, [pc]
    1774:	745f6d65 	ldrbvc	r6, [pc], #3429	; 177c <mem_set_voltage+0x138>
    1778:	725f726d 	subsvc	r7, pc, #-805306362	; 0xd0000006
    177c:	745f6765 	ldrbvc	r6, [pc], #1893	; 1784 <mem_set_voltage+0x140>
    1780:	535f5f00 	cmppl	pc, #0
    1784:	444e4154 	strbmi	r4, [lr], #-340	; 0x154
    1788:	545f5942 	ldrbpl	r5, [pc], #2370	; 1790 <mem_set_voltage+0x14c>
    178c:	525f524d 	subspl	r5, pc, #-805306364	; 0xd0000004
    1790:	54004745 	strpl	r4, [r0], #-1861	; 0x745
    1794:	4332726d 	teqmi	r2, #-805306362	; 0xd0000006
    1798:	6156746e 	cmpvs	r6, lr, ror #8
    179c:	6d54006c 	ldclvs	0, cr0, [r4, #-432]	; 0xfffffe50
    17a0:	6e493472 	mcrvs	4, 2, r3, cr9, cr2, {3}
    17a4:	6c615674 	stclvs	6, cr5, [r1], #-464	; 0xfffffe30
    17a8:	726d5400 	rsbvc	r5, sp, #0
    17ac:	746e4334 	strbtvc	r4, [lr], #-820	; 0x334
    17b0:	006c6156 	rsbeq	r6, ip, r6, asr r1
    17b4:	72616c41 	rsbvc	r6, r1, #16640	; 0x4100
    17b8:	006e456d 	rsbeq	r4, lr, sp, ror #10
    17bc:	36746e43 	ldrbtcc	r6, [r4], -r3, asr #28
    17c0:	00694834 	rsbeq	r4, r9, r4, lsr r8
    17c4:	32726d54 	rsbscc	r6, r2, #5376	; 0x1500
    17c8:	006c7443 	rsbeq	r7, ip, r3, asr #8
    17cc:	5f6d656d 	svcpl	0x006d656d
    17d0:	5f726d74 	svcpl	0x00726d74
    17d4:	74696e69 	strbtvc	r6, [r9], #-3689	; 0xe69
    17d8:	676f4400 	strbvs	r4, [pc, -r0, lsl #8]!
    17dc:	65646f4d 	strbvs	r6, [r4, #-3917]!	; 0xf4d
    17e0:	746e4300 	strbtvc	r4, [lr], #-768	; 0x300
    17e4:	6f4c3436 	svcvs	0x004c3436
    17e8:	6d656d00 	stclvs	13, cr6, [r5]
    17ec:	726d745f 	rsbvc	r7, sp, #1593835520	; 0x5f000000
    17f0:	7369645f 	cmnvc	r9, #1593835520	; 0x5f000000
    17f4:	656c6261 	strbvs	r6, [ip, #-609]!	; 0x261
    17f8:	7461775f 	strbtvc	r7, [r1], #-1887	; 0x75f
    17fc:	6f646863 	svcvs	0x00646863
    1800:	6f4c0067 	svcvs	0x004c0067
    1804:	74436373 	strbvc	r6, [r3], #-883	; 0x373
    1808:	6e43006c 	cdpvs	0, 4, cr0, cr3, cr12, {3}
    180c:	43343674 	teqmi	r4, #121634816	; 0x7400000
    1810:	54006c74 	strpl	r6, [r0], #-3188	; 0xc74
    1814:	4931726d 	ldmdbmi	r1!, {r0, r2, r3, r5, r6, r9, ip, sp, lr}
    1818:	6156746e 	cmpvs	r6, lr, ror #8
    181c:	7641006c 	strbvc	r0, [r1], -ip, rrx
    1820:	76694473 	undefined instruction 0x76694473
    1824:	726d5400 	rsbvc	r5, sp, #0
    1828:	6c744333 	ldclvs	3, cr4, [r4], #-204	; 0xffffff34
    182c:	73764100 	cmnvc	r6, #0
    1830:	006c7443 	rsbeq	r7, ip, r3, asr #8
    1834:	53746e49 	cmnpl	r4, #1168	; 0x490
    1838:	54006174 	strpl	r6, [r0], #-372	; 0x174
    183c:	7047726d 	subvc	r7, r7, sp, ror #4
    1840:	00676552 	rsbeq	r6, r7, r2, asr r5
    1844:	31726d54 	cmncc	r2, r4, asr sp
    1848:	56746e43 	ldrbtpl	r6, [r4], -r3, asr #28
    184c:	54006c61 	strpl	r6, [r0], #-3169	; 0xc61
    1850:	6e49726d 	cdpvs	2, 4, cr7, cr9, cr13, {3}
    1854:	6c744374 	ldclvs	3, cr4, [r4], #-464	; 0xfffffe30
    1858:	726d5400 	rsbvc	r5, sp, #0
    185c:	746e4933 	strbtvc	r4, [lr], #-2355	; 0x933
    1860:	006c6156 	rsbeq	r6, ip, r6, asr r1
    1864:	75732f2e 	ldrbvc	r2, [r3, #-3886]!	; 0xf2e
    1868:	2f726570 	svccs	0x00726570
    186c:	65707573 	ldrbvs	r7, [r0, #-1395]!	; 0x573
    1870:	6d745f72 	ldclvs	15, cr5, [r4, #-456]!	; 0xfffffe38
    1874:	00632e72 	rsbeq	r2, r3, r2, ror lr
    1878:	30737641 	rsbscc	r7, r3, r1, asr #12
    187c:	00746e43 	rsbseq	r6, r4, r3, asr #28
    1880:	35726d54 	ldrbcc	r6, [r2, #-3412]!	; 0xd54
    1884:	56746e49 	ldrbtpl	r6, [r4], -r9, asr #28
    1888:	54006c61 	strpl	r6, [r0], #-3169	; 0xc61
    188c:	4335726d 	teqmi	r5, #-805306362	; 0xd0000006
    1890:	6156746e 	cmpvs	r6, lr, ror #8
    1894:	6d54006c 	ldclvs	0, cr0, [r4, #-432]	; 0xfffffe50
    1898:	67655272 	undefined instruction 0x67655272
    189c:	726d5400 	rsbvc	r5, sp, #0
    18a0:	6c744330 	ldclvs	3, cr4, [r4], #-192	; 0xffffff40
    18a4:	726d5400 	rsbvc	r5, sp, #0
    18a8:	6c744334 	ldclvs	3, cr4, [r4], #-208	; 0xffffff30
    18ac:	67657200 	strbvs	r7, [r5, -r0, lsl #4]!
    18b0:	636f695f 	cmnvs	pc, #1556480	; 0x17c000
    18b4:	52440072 	subpl	r0, r4, #114	; 0x72
    18b8:	5f434d41 	svcpl	0x00434d41
    18bc:	74736f68 	ldrbtvc	r6, [r3], #-3944	; 0xf68
    18c0:	74726f70 	ldrbtvc	r6, [r2], #-3952	; 0xf70
    18c4:	7465735f 	strbtvc	r7, [r5], #-863	; 0x35f
    18c8:	6d007075 	stcvs	0, cr7, [r0, #-468]	; 0xfffffe2c
    18cc:	5f6c7463 	svcpl	0x006c7463
    18d0:	65646f6d 	strbvs	r6, [r4, #-3949]!	; 0xf6d
    18d4:	6978655f 	ldmdbvs	r8!, {r0, r1, r2, r3, r4, r6, r8, sl, sp, lr}^
    18d8:	6d630074 	stclvs	0, cr0, [r3, #-464]!	; 0xfffffe30
    18dc:	756e5f64 	strbvc	r5, [lr, #-3940]!	; 0xf64
    18e0:	6f70006d 	svcvs	0x0070006d
    18e4:	705f7472 	subsvc	r7, pc, r2, ror r4
    18e8:	6c5f6972 	mrrcvs	9, 7, r6, pc, cr2
    18ec:	6c657665 	stclvs	6, cr7, [r5], #-404	; 0xfffffe6c
    18f0:	61726400 	cmnvs	r2, r0, lsl #8
    18f4:	6f705f6d 	svcvs	0x00705f6d
    18f8:	5f726577 	svcpl	0x00726577
    18fc:	705f7075 	subsvc	r7, pc, r5, ror r0
    1900:	65636f72 	strbvs	r6, [r3, #-3954]!	; 0xf72
    1904:	72007373 	andvc	r7, r0, #-872415231	; 0xcc000001
    1908:	7a5f6765 	bvc	17db6a4 <__bss_end+0x17d73c4>
    190c:	00727371 	rsbseq	r7, r2, r1, ror r3
    1910:	72746572 	rsbsvc	r6, r4, #478150656	; 0x1c800000
    1914:	65720079 	ldrbvs	r0, [r2, #-121]!	; 0x79
    1918:	64615f67 	strbtvs	r5, [r1], #-3943	; 0xf67
    191c:	315f7264 	cmpcc	pc, r4, ror #4
    1920:	44007473 	strmi	r7, [r0], #-1139	; 0x473
    1924:	434d4152 	movtmi	r4, #53586	; 0xd152
    1928:	6978655f 	ldmdbvs	r8!, {r0, r1, r2, r3, r4, r6, r8, sl, sp, lr}^
    192c:	65735f74 	ldrbvs	r5, [r3, #-3956]!	; 0xf74
    1930:	6572666c 	ldrbvs	r6, [r2, #-1644]!	; 0x66c
    1934:	73657266 	cmnvc	r5, #1610612742	; 0x60000006
    1938:	65720068 	ldrbvs	r0, [r2, #-104]!	; 0x68
    193c:	63645f67 	cmnvs	r4, #412	; 0x19c
    1940:	65720072 	ldrbvs	r0, [r2, #-114]!	; 0x72
    1944:	72645f67 	rsbvc	r5, r4, #412	; 0x19c
    1948:	52440072 	subpl	r0, r4, #114	; 0x72
    194c:	5f434d41 	svcpl	0x00434d41
    1950:	72746572 	rsbsvc	r6, r4, #478150656	; 0x1c800000
    1954:	696e6961 	stmdbvs	lr!, {r0, r5, r6, r8, fp, sp, lr}^
    1958:	6400676e 	strvs	r6, [r0], #-1902	; 0x76e
    195c:	5f6d6172 	svcpl	0x006d6172
    1960:	65776f70 	ldrbvs	r6, [r7, #-3952]!	; 0xf70
    1964:	61735f72 	cmnvs	r3, r2, ror pc
    1968:	705f6576 	subsvc	r6, pc, r6, ror r5
    196c:	65636f72 	strbvs	r6, [r3, #-3954]!	; 0xf72
    1970:	44007373 	strmi	r7, [r0], #-883	; 0x373
    1974:	434d4152 	movtmi	r4, #53586	; 0xd152
    1978:	746e655f 	strbtvc	r6, [lr], #-1375	; 0x55f
    197c:	735f7265 	cmpvc	pc, #1342177286	; 0x50000006
    1980:	72666c65 	rsbvc	r6, r6, #25856	; 0x6500
    1984:	65726665 	ldrbvs	r6, [r2, #-1637]!	; 0x665
    1988:	64006873 	strvs	r6, [r0], #-2163	; 0x873
    198c:	5f6d6172 	svcpl	0x006d6172
    1990:	74736f68 	ldrbtvc	r6, [r3], #-3944	; 0xf68
    1994:	74726f70 	ldrbtvc	r6, [r2], #-3952	; 0xf70
    1998:	7465735f 	strbtvc	r7, [r5], #-863	; 0x35f
    199c:	72007075 	andvc	r7, r0, #117	; 0x75
    19a0:	635f6765 	cmpvs	pc, #26476544	; 0x1940000
    19a4:	64007263 	strvs	r7, [r0], #-611	; 0x263
    19a8:	5f6d6172 	svcpl	0x006d6172
    19ac:	74736f68 	ldrbtvc	r6, [r3], #-3944	; 0xf68
    19b0:	74726f70 	ldrbtvc	r6, [r2], #-3952	; 0xf70
    19b4:	5f6e6f5f 	svcpl	0x006e6f5f
    19b8:	0066666f 	rsbeq	r6, r6, pc, ror #12
    19bc:	5f676572 	svcpl	0x00676572
    19c0:	7263717a 	rsbvc	r7, r3, #-2147483618	; 0x8000001e
    19c4:	52440030 	subpl	r0, r4, #48	; 0x30
    19c8:	5f434d41 	svcpl	0x00434d41
    19cc:	74736f68 	ldrbtvc	r6, [r3], #-3944	; 0xf68
    19d0:	74726f70 	ldrbtvc	r6, [r2], #-3952	; 0xf70
    19d4:	6568635f 	strbvs	r6, [r8, #-863]!	; 0x35f
    19d8:	615f6b63 	cmpvs	pc, r3, ror #22
    19dc:	665f6268 	ldrbvs	r6, [pc], -r8, ror #4
    19e0:	5f6f6669 	svcpl	0x006f6669
    19e4:	74617473 	strbtvc	r7, [r1], #-1139	; 0x473
    19e8:	44007375 	strmi	r7, [r0], #-885	; 0x375
    19ec:	434d4152 	movtmi	r4, #53586	; 0xd152
    19f0:	736f685f 	cmnvc	pc, #6225920	; 0x5f0000
    19f4:	726f7074 	rsbvc	r7, pc, #116	; 0x74
    19f8:	6e6f5f74 	mcrvs	15, 3, r5, cr15, cr4, {3}
    19fc:	66666f5f 	uqsubaddxvs	r6, r6, pc
    1a00:	74636d00 	strbtvc	r6, [r3], #-3328	; 0xd00
    1a04:	72705f6c 	rsbsvc	r5, r0, #432	; 0x1b0
    1a08:	61686365 	cmnvs	r8, r5, ror #6
    1a0c:	5f656772 	svcpl	0x00656772
    1a10:	006c6c61 	rsbeq	r6, ip, r1, ror #24
    1a14:	4d415244 	sfmmi	f5, 2, [r1, #-272]	; (stclmi 2, cr5, [r1, #-272])	; 0xfffffef0
    1a18:	78655f43 	stmdavc	r5!, {r0, r1, r6, r8, r9, sl, fp, ip, lr}^
    1a1c:	705f7469 	subsvc	r7, pc, r9, ror #8
    1a20:	7265776f 	rsbvc	r7, r5, #29097984	; 0x1bc0000
    1a24:	776f645f 	undefined instruction 0x776f645f
    1a28:	6572006e 	ldrbvs	r0, [r2, #-110]!	; 0x6e
    1a2c:	70745f67 	rsbsvc	r5, r4, r7, ror #30
    1a30:	72003072 	andvc	r3, r0, #114	; 0x72
    1a34:	745f6765 	ldrbvc	r6, [pc], #1893	; 1a3c <mem_power_init+0x204>
    1a38:	00317270 	eorseq	r7, r1, r0, ror r2
    1a3c:	5f676572 	svcpl	0x00676572
    1a40:	32727074 	rsbscc	r7, r2, #116	; 0x74
    1a44:	61726400 	cmnvs	r2, r0, lsl #8
    1a48:	6f685f6d 	svcvs	0x00685f6d
    1a4c:	6f707473 	svcvs	0x00707473
    1a50:	635f7472 	cmpvs	pc, #1912602624	; 0x72000000
    1a54:	6b636568 	blvs	18daffc <__bss_end+0x18d6d1c>
    1a58:	6268615f 	rsbvs	r6, r8, #-1073741801	; 0xc0000017
    1a5c:	6669665f 	undefined instruction 0x6669665f
    1a60:	74735f6f 	ldrbtvc	r5, [r3], #-3951	; 0xf6f
    1a64:	73757461 	cmnvc	r5, #1627389952	; 0x61000000
    1a68:	61726400 	cmnvs	r2, r0, lsl #8
    1a6c:	78655f6d 	stmdavc	r5!, {r0, r2, r3, r5, r6, r8, r9, sl, fp, ip, lr}^
    1a70:	735f7469 	cmpvc	pc, #1761607680	; 0x69000000
    1a74:	72666c65 	rsbvc	r6, r6, #25856	; 0x6500
    1a78:	65726665 	ldrbvs	r6, [r2, #-1637]!	; 0x665
    1a7c:	64006873 	strvs	r6, [r0], #-2163	; 0x873
    1a80:	5f6d6172 	svcpl	0x006d6172
    1a84:	65746e65 	ldrbvs	r6, [r4, #-3685]!	; 0xe65
    1a88:	6f705f72 	svcvs	0x00705f72
    1a8c:	5f726577 	svcpl	0x00726577
    1a90:	6e776f64 	cdpvs	15, 7, cr6, cr7, cr4, {3}
    1a94:	67657200 	strbvs	r7, [r5, -r0, lsl #4]!
    1a98:	6464615f 	strbtvs	r6, [r4], #-351	; 0x15f
    1a9c:	72335f72 	eorsvc	r5, r3, #456	; 0x1c8
    1aa0:	65720064 	ldrbvs	r0, [r2, #-100]!	; 0x64
    1aa4:	64615f67 	strbtvs	r5, [r1], #-3943	; 0xf67
    1aa8:	325f7264 	subscc	r7, pc, #1073741830	; 0x40000006
    1aac:	7200646e 	andvc	r6, r0, #1845493760	; 0x6e000000
    1ab0:	6d5f6765 	ldclvs	7, cr6, [pc, #-404]	; 0xfffffe6c
    1ab4:	52440072 	subpl	r0, r4, #114	; 0x72
    1ab8:	5f434d41 	svcpl	0x00434d41
    1abc:	65746e65 	ldrbvs	r6, [r4, #-3685]!	; 0xe65
    1ac0:	6f705f72 	svcvs	0x00705f72
    1ac4:	5f726577 	svcpl	0x00726577
    1ac8:	6e776f64 	cdpvs	15, 7, cr6, cr7, cr4, {3}
    1acc:	732f2e00 	teqvc	pc, #0
    1ad0:	72657075 	rsbvc	r7, r5, #117	; 0x75
    1ad4:	6172642f 	cmnvs	r2, pc, lsr #8
    1ad8:	72642f6d 	rsbvc	r2, r4, #436	; 0x1b4
    1adc:	632e6d61 	teqvs	lr, #6208	; 0x1840
    1ae0:	67657200 	strbvs	r7, [r5, -r0, lsl #4]!
    1ae4:	726d655f 	rsbvc	r6, sp, #398458880	; 0x17c00000
    1ae8:	63616200 	cmnvs	r1, #0
    1aec:	5f70756b 	svcpl	0x0070756b
    1af0:	6d617264 	sfmvs	f7, 2, [r1, #-400]!	; (stclvs 2, cr7, [r1, #-400]!)	; 0xfffffe70
    1af4:	6c61635f 	stclvs	3, cr6, [r1], #-380	; 0xfffffe84
    1af8:	6c61765f 	stclvs	6, cr7, [r1], #-380	; 0xfffffe84
    1afc:	74636d00 	strbtvc	r6, [r3], #-3328	; 0xd00
    1b00:	68615f6c 	stmdavs	r1!, {r2, r3, r5, r6, r8, r9, sl, fp, ip, lr}^
    1b04:	65725f62 	ldrbvs	r5, [r2, #-3938]!	; 0xf62
    1b08:	00746573 	rsbseq	r6, r4, r3, ror r5
    1b0c:	74726f70 	ldrbtvc	r6, [r2], #-3952	; 0xf70
    1b10:	6961775f 	stmdbvs	r1!, {r0, r1, r2, r3, r4, r6, r8, r9, sl, ip, sp, lr}^
    1b14:	79635f74 	stmdbvc	r3!, {r2, r4, r5, r6, r8, r9, sl, fp, ip, lr}^
    1b18:	00656c63 	rsbeq	r6, r5, r3, ror #24
    1b1c:	5f746572 	svcpl	0x00746572
    1b20:	006c6176 	rsbeq	r6, ip, r6, ror r1
    1b24:	6d617264 	sfmvs	f7, 2, [r1, #-400]!	; (stclvs 2, cr7, [r1, #-400]!)	; 0xfffffe70
    1b28:	746e655f 	strbtvc	r6, [lr], #-1375	; 0x55f
    1b2c:	735f7265 	cmpvc	pc, #1342177286	; 0x50000006
    1b30:	72666c65 	rsbvc	r6, r6, #25856	; 0x6500
    1b34:	65726665 	ldrbvs	r6, [r2, #-1637]!	; 0x665
    1b38:	70006873 	andvc	r6, r0, r3, ror r8
    1b3c:	5f74726f 	svcpl	0x0074726f
    1b40:	00786469 	rsbseq	r6, r8, r9, ror #8
    1b44:	6d617264 	sfmvs	f7, 2, [r1, #-400]!	; (stclvs 2, cr7, [r1, #-400]!)	; 0xfffffe70
    1b48:	6978655f 	ldmdbvs	r8!, {r0, r1, r2, r3, r4, r6, r8, sl, sp, lr}^
    1b4c:	6f705f74 	svcvs	0x00705f74
    1b50:	5f726577 	svcpl	0x00726577
    1b54:	6e776f64 	cdpvs	15, 7, cr6, cr7, cr4, {3}
    1b58:	67657200 	strbvs	r7, [r5, -r0, lsl #4]!
    1b5c:	726d655f 	rsbvc	r6, sp, #398458880	; 0x17c00000
    1b60:	65720032 	ldrbvs	r0, [r2, #-50]!	; 0x32
    1b64:	6d655f67 	stclvs	15, cr5, [r5, #-412]!	; 0xfffffe64
    1b68:	70003372 	andvc	r3, r0, r2, ror r3
    1b6c:	006f6972 	rsbeq	r6, pc, r2, ror r9
    1b70:	6c74636d 	ldclvs	3, cr6, [r4], #-436	; 0xfffffe4c
    1b74:	7465735f 	strbtvc	r7, [r5], #-863	; 0x35f
    1b78:	645f7075 	ldrbvs	r7, [pc], #117	; 1b80 <mem_power_init+0x348>
    1b7c:	5f6d6172 	svcpl	0x006d6172
    1b80:	636f6c63 	cmnvs	pc, #25344	; 0x6300
    1b84:	636d006b 	cmnvs	sp, #107	; 0x6b
    1b88:	635f6c74 	cmpvs	pc, #29696	; 0x7400
    1b8c:	69666e6f 	stmdbvs	r6!, {r0, r1, r2, r3, r5, r6, r9, sl, fp, sp, lr}^
    1b90:	65727567 	ldrbvs	r7, [r2, #-1383]!	; 0x567
    1b94:	736f685f 	cmnvc	pc, #6225920	; 0x5f0000
    1b98:	726f7074 	rsbvc	r7, pc, #116	; 0x74
    1b9c:	5f5f0074 	svcpl	0x005f0074
    1ba0:	00343675 	eorseq	r3, r4, r5, ror r6
    1ba4:	70696863 	rsbvc	r6, r9, r3, ror #16
    1ba8:	6e65645f 	mcrvs	4, 3, r6, cr5, cr15, {2}
    1bac:	6d656d00 	stclvs	13, cr6, [r5]
    1bb0:	646c755f 	strbtvs	r7, [ip], #-1375	; 0x55f
    1bb4:	6d007669 	stcvs	6, cr7, [r0, #-420]	; 0xfffffe5c
    1bb8:	5f6c7463 	svcpl	0x006c7463
    1bbc:	62616e65 	rsbvs	r6, r1, #1616	; 0x650
    1bc0:	645f656c 	ldrbvs	r6, [pc], #1388	; 1bc8 <mem_power_init+0x390>
    1bc4:	00786c6c 	rsbseq	r6, r8, ip, ror #24
    1bc8:	4d415244 	sfmmi	f5, 2, [r1, #-272]	; (stclmi 2, cr5, [r1, #-272])	; 0xfffffef0
    1bcc:	65675f43 	strbvs	r5, [r7, #-3907]!	; 0xf43
    1bd0:	72645f74 	rsbvc	r5, r4, #464	; 0x1d0
    1bd4:	735f6d61 	cmpvc	pc, #6208	; 0x1840
    1bd8:	00657a69 	rsbeq	r7, r5, r9, ror #20
    1bdc:	6d617264 	sfmvs	f7, 2, [r1, #-400]!	; (stclvs 2, cr7, [r1, #-400]!)	; 0xfffffe70
    1be0:	7465735f 	strbtvc	r7, [r5], #-863	; 0x35f
    1be4:	6f6c635f 	svcvs	0x006c635f
    1be8:	5f006b63 	svcpl	0x00006b63
    1bec:	6172645f 	cmnvs	r2, pc, asr r4
    1bf0:	61705f6d 	cmnvs	r0, sp, ror #30
    1bf4:	745f6172 	ldrbvc	r6, [pc], #370	; 1bfc <mem_power_init+0x3c4>
    1bf8:	61726400 	cmnvs	r2, r0, lsl #8
    1bfc:	65735f6d 	ldrbvs	r5, [r3, #-3949]!	; 0xf6d
    1c00:	75615f74 	strbvc	r5, [r1, #-3956]!	; 0xf74
    1c04:	65726f74 	ldrbvs	r6, [r2, #-3956]!	; 0xf74
    1c08:	73657266 	cmnvc	r5, #1610612742	; 0x60000006
    1c0c:	79635f68 	stmdbvc	r3!, {r3, r5, r6, r8, r9, sl, fp, ip, lr}^
    1c10:	00656c63 	rsbeq	r6, r5, r3, ror #24
    1c14:	4d415244 	sfmmi	f5, 2, [r1, #-272]	; (stclmi 2, cr5, [r1, #-272])	; 0xfffffef0
    1c18:	63735f43 	cmnvs	r3, #268	; 0x10c
    1c1c:	725f6e61 	subsvc	r6, pc, #1552	; 0x610
    1c20:	70646165 	rsbvc	r6, r4, r5, ror #2
    1c24:	00657069 	rsbeq	r7, r5, r9, rrx
    1c28:	746f6f62 	strbtvc	r6, [pc], #3938	; 1c30 <mem_power_init+0x3f8>
    1c2c:	61705f30 	cmnvs	r0, r0, lsr pc
    1c30:	67006172 	smlsdxvs	r0, r2, r1, r6
    1c34:	625f7465 	subsvs	r7, pc, #1694498816	; 0x65000000
    1c38:	30746f6f 	rsbscc	r6, r4, pc, ror #30
    1c3c:	6172645f 	cmnvs	r2, pc, asr r4
    1c40:	61705f6d 	cmnvs	r0, sp, ror #30
    1c44:	64006172 	strvs	r6, [r0], #-370	; 0x172
    1c48:	5f6d6172 	svcpl	0x006d6172
    1c4c:	30727074 	rsbscc	r7, r2, r4, ror r0
    1c50:	61726400 	cmnvs	r2, r0, lsl #8
    1c54:	70745f6d 	rsbsvc	r5, r4, sp, ror #30
    1c58:	64003172 	strvs	r3, [r0], #-370	; 0x172
    1c5c:	5f6d6172 	svcpl	0x006d6172
    1c60:	32727074 	rsbscc	r7, r2, #116	; 0x74
    1c64:	61726400 	cmnvs	r2, r0, lsl #8
    1c68:	70745f6d 	rsbsvc	r5, r4, sp, ror #30
    1c6c:	64003372 	strvs	r3, [r0], #-882	; 0x372
    1c70:	5f6d6172 	svcpl	0x006d6172
    1c74:	34727074 	ldrbtcc	r7, [r2], #-116	; 0x74
    1c78:	61726400 	cmnvs	r2, r0, lsl #8
    1c7c:	70745f6d 	rsbsvc	r5, r4, sp, ror #30
    1c80:	64003572 	strvs	r3, [r0], #-1394	; 0x572
    1c84:	5f6d6172 	svcpl	0x006d6172
    1c88:	6e616373 	mcrvs	3, 3, r6, cr1, cr3, {3}
    1c8c:	6165725f 	cmnvs	r5, pc, asr r2
    1c90:	70697064 	rsbvc	r7, r9, r4, rrx
    1c94:	72640065 	rsbvc	r0, r4, #101	; 0x65
    1c98:	655f6d61 	ldrbvs	r6, [pc, #-3425]	; f3f <mem_clk_plldisable+0x4f>
    1c9c:	0031726d 	eorseq	r7, r1, sp, ror #4
    1ca0:	6d617264 	sfmvs	f7, 2, [r1, #-400]!	; (stclvs 2, cr7, [r1, #-400]!)	; 0xfffffe70
    1ca4:	7465735f 	strbtvc	r7, [r5], #-863	; 0x35f
    1ca8:	6972645f 	ldmdbvs	r2!, {r0, r1, r2, r3, r4, r6, sl, sp, lr}^
    1cac:	64006576 	strvs	r6, [r0], #-1398	; 0x576
    1cb0:	5f6d6172 	svcpl	0x006d6172
    1cb4:	5f746567 	svcpl	0x00746567
    1cb8:	657a6973 	ldrbvs	r6, [sl, #-2419]!	; 0x973
    1cbc:	61726400 	cmnvs	r2, r0, lsl #8
    1cc0:	68635f6d 	stmdavs	r3!, {r0, r2, r3, r5, r6, r8, r9, sl, fp, ip, lr}^
    1cc4:	645f7069 	ldrbvs	r7, [pc], #105	; 1ccc <mem_power_init+0x494>
    1cc8:	69736e65 	ldmdbvs	r3!, {r0, r2, r5, r6, r9, sl, fp, sp, lr}^
    1ccc:	44007974 	strmi	r7, [r0], #-2420	; 0x974
    1cd0:	434d4152 	movtmi	r4, #53586	; 0xd152
    1cd4:	696e695f 	stmdbvs	lr!, {r0, r1, r2, r3, r4, r6, r8, fp, sp, lr}^
    1cd8:	636d0074 	cmnvs	sp, #116	; 0x74
    1cdc:	645f6c74 	ldrbvs	r6, [pc], #3188	; 1ce4 <mem_power_init+0x4ac>
    1ce0:	62617369 	rsbvs	r7, r1, #-1543503871	; 0xa4000001
    1ce4:	645f656c 	ldrbvs	r6, [pc], #1388	; 1cec <mem_power_init+0x4b4>
    1ce8:	5f006c6c 	svcpl	0x00006c6c
    1cec:	746f6f62 	strbtvc	r6, [pc], #3938	; 1cf4 <mem_power_init+0x4bc>
    1cf0:	6172645f 	cmnvs	r2, pc, asr r4
    1cf4:	61705f6d 	cmnvs	r0, sp, ror #30
    1cf8:	745f6172 	ldrbvc	r6, [pc], #370	; 1d00 <mem_power_init+0x4c8>
    1cfc:	696e6900 	stmdbvs	lr!, {r8, fp, sp, lr}^
    1d00:	52445f74 	subpl	r5, r4, #464	; 0x1d0
    1d04:	64004d41 	strvs	r4, [r0], #-3393	; 0xd41
    1d08:	5f6d6172 	svcpl	0x006d6172
    1d0c:	5f74646f 	svcpl	0x0074646f
    1d10:	44006e65 	strmi	r6, [r0], #-3685	; 0xe65
    1d14:	434d4152 	movtmi	r4, #53586	; 0xd152
    1d18:	6978655f 	ldmdbvs	r8!, {r0, r1, r2, r3, r4, r6, r8, sl, sp, lr}^
    1d1c:	72640074 	rsbvc	r0, r4, #116	; 0x74
    1d20:	695f6d61 	ldmdbvs	pc, {r0, r5, r6, r8, sl, fp, sp, lr}^
    1d24:	0074696e 	rsbseq	r6, r4, lr, ror #18
    1d28:	6c74636d 	ldclvs	3, cr6, [r4], #-436	; 0xfffffe4c
    1d2c:	616e655f 	cmnvs	lr, pc, asr r5
    1d30:	5f656c62 	svcpl	0x00656c62
    1d34:	306c6c64 	rsbcc	r6, ip, r4, ror #24
    1d38:	41524400 	cmpmi	r2, r0, lsl #8
    1d3c:	635f434d 	cmpvs	pc, #872415233	; 0x34000001
    1d40:	6b636f6c 	blvs	18ddaf8 <__bss_end+0x18d9818>
    1d44:	74756f5f 	ldrbtvc	r6, [r5], #-3935	; 0xf5f
    1d48:	5f747570 	svcpl	0x00747570
    1d4c:	64006e65 	strvs	r6, [r0], #-3685	; 0xe65
    1d50:	5f6d6172 	svcpl	0x006d6172
    1d54:	5f737562 	svcpl	0x00737562
    1d58:	74646977 	strbtvc	r6, [r4], #-2423	; 0x977
    1d5c:	52440068 	subpl	r0, r4, #104	; 0x68
    1d60:	5f434d41 	svcpl	0x00434d41
    1d64:	5f746573 	svcpl	0x00746573
    1d68:	6f747561 	svcvs	0x00747561
    1d6c:	72666572 	rsbvc	r6, r6, #478150656	; 0x1c800000
    1d70:	5f687365 	svcpl	0x00687365
    1d74:	6c637963 	stclvs	9, cr7, [r3], #-396	; 0xfffffe74
    1d78:	72640065 	rsbvc	r0, r4, #101	; 0x65
    1d7c:	725f6d61 	subsvc	r6, pc, #6208	; 0x1840
    1d80:	5f6b6e61 	svcpl	0x006b6e61
    1d84:	006d756e 	rsbeq	r7, sp, lr, ror #10
    1d88:	6d617264 	sfmvs	f7, 2, [r1, #-400]!	; (stclvs 2, cr7, [r1, #-400]!)	; 0xfffffe70
    1d8c:	7361625f 	cmnvc	r1, #-268435451	; 0xf0000005
    1d90:	64646165 	strbtvs	r6, [r4], #-357	; 0x165
    1d94:	636d0072 	cmnvs	sp, #114	; 0x72
    1d98:	695f6c74 	ldmdbvs	pc, {r2, r4, r5, r6, sl, fp, sp, lr}^
    1d9c:	645f6d74 	ldrbvs	r6, [pc], #3444	; 1da4 <mem_power_init+0x56c>
    1da0:	62617369 	rsbvs	r7, r1, #-1543503871	; 0xa4000001
    1da4:	7400656c 	strvc	r6, [r0], #-1388	; 0x56c
    1da8:	765f706d 	ldrbvc	r7, [pc], -sp, rrx
    1dac:	64006c61 	strvs	r6, [r0], #-3169	; 0xc61
    1db0:	5f6d6172 	svcpl	0x006d6172
    1db4:	6400717a 	strvs	r7, [r0], #-378	; 0x17a
    1db8:	5f6d6172 	svcpl	0x006d6172
    1dbc:	32726d65 	rsbscc	r6, r2, #6464	; 0x1940
    1dc0:	61726400 	cmnvs	r2, r0, lsl #8
    1dc4:	6d655f6d 	stclvs	15, cr5, [r5, #-436]!	; 0xfffffe4c
    1dc8:	2e003372 	mcrcs	3, 0, r3, cr0, cr2, {3}
    1dcc:	7075732f 	rsbsvc	r7, r5, pc, lsr #6
    1dd0:	642f7265 	strtvs	r7, [pc], #613	; 1dd8 <mem_power_init+0x5a0>
    1dd4:	2f6d6172 	svccs	0x006d6172
    1dd8:	6d617264 	sfmvs	f7, 2, [r1, #-400]!	; (stclvs 2, cr7, [r1, #-400]!)	; 0xfffffe70
    1ddc:	696e695f 	stmdbvs	lr!, {r0, r1, r2, r3, r4, r6, r8, fp, sp, lr}^
    1de0:	00632e74 	rsbeq	r2, r3, r4, ror lr
    1de4:	6c74636d 	ldclvs	3, cr6, [r4], #-436	; 0xfffffe4c
    1de8:	7465735f 	strbtvc	r7, [r5], #-863	; 0x35f
    1dec:	6972645f 	ldmdbvs	r2!, {r0, r1, r2, r3, r4, r6, sl, sp, lr}^
    1df0:	64006576 	strvs	r6, [r0], #-1398	; 0x576
    1df4:	5f6d6172 	svcpl	0x006d6172
    1df8:	74697865 	strbtvc	r7, [r9], #-2149	; 0x865
    1dfc:	74636d00 	strbtvc	r6, [r3], #-3328	; 0xd00
    1e00:	64645f6c 	strbtvs	r5, [r4], #-3948	; 0xf6c
    1e04:	725f3372 	subsvc	r3, pc, #-939524095	; 0xc8000001
    1e08:	74657365 	strbtvc	r7, [r5], #-869	; 0x365
    1e0c:	61726400 	cmnvs	r2, r0, lsl #8
    1e10:	6c635f6d 	stclvs	15, cr5, [r3], #-436	; 0xfffffe4c
    1e14:	636d006b 	cmnvs	sp, #107	; 0x6b
    1e18:	695f6c74 	ldmdbvs	pc, {r2, r4, r5, r6, sl, fp, sp, lr}^
    1e1c:	655f6d74 	ldrbvs	r6, [pc, #-3444]	; 10b0 <mem_clk_set_pll_factor+0x48>
    1e20:	6c62616e 	stfvse	f6, [r2], #-440	; 0xfffffe48
    1e24:	70680065 	rsbvc	r0, r8, r5, rrx
    1e28:	765f7263 	ldrbvc	r7, [pc], -r3, ror #4
    1e2c:	65756c61 	ldrbvs	r6, [r5, #-3169]!	; 0xc61
    1e30:	6f6f6200 	svcvs	0x006f6200
    1e34:	645f3074 	ldrbvs	r3, [pc], #116	; 1e3c <mem_power_init+0x604>
    1e38:	5f6d6172 	svcpl	0x006d6172
    1e3c:	61726170 	cmnvs	r2, r0, ror r1
    1e40:	6400705f 	strvs	r7, [r0], #-95	; 0x5f
    1e44:	5f6d6172 	svcpl	0x006d6172
    1e48:	775f6f69 	ldrbvc	r6, [pc, -r9, ror #30]
    1e4c:	68746469 	ldmdavs	r4!, {r0, r3, r5, r6, sl, sp, lr}^
    1e50:	61726400 	cmnvs	r2, r0, lsl #8
    1e54:	79745f6d 	ldmdbvc	r4!, {r0, r2, r3, r5, r6, r8, r9, sl, fp, ip, lr}^
    1e58:	64006570 	strvs	r6, [r0], #-1392	; 0x570
    1e5c:	6e5f6c6c 	cdpvs	12, 5, cr6, cr15, cr12, {3}
    1e60:	64006d75 	strvs	r6, [r0], #-3445	; 0xd75
    1e64:	5f6d6172 	svcpl	0x006d6172
    1e68:	00736163 	rsbseq	r6, r3, r3, ror #2
    1e6c:	616c6564 	cmnvs	ip, r4, ror #10
    1e70:	736d5f79 	cmnvc	sp, #484	; 0x1e4
    1e74:	2e2f2e00 	cdpcs	14, 2, cr2, cr15, cr0, {0}
    1e78:	6d702f2e 	ldclvs	15, cr2, [r0, #-184]!	; 0xffffff48
    1e7c:	6265645f 	rsbvs	r6, r5, #1593835520	; 0x5f000000
    1e80:	632e6775 	teqvs	lr, #30670848	; 0x1d40000
    1e84:	76617300 	strbtvc	r7, [r1], -r0, lsl #6
    1e88:	75735f65 	ldrbvc	r5, [r3, #-3941]!	; 0xf65
    1e8c:	5f69356e 	svcpl	0x0069356e
    1e90:	5f6d656d 	svcpl	0x006d656d
    1e94:	74617473 	strbtvc	r7, [r1], #-1139	; 0x473
    1e98:	74007375 	strvc	r7, [r0], #-885	; 0x375
    1e9c:	65677261 	strbvs	r7, [r7, #-609]!	; 0x261
    1ea0:	6f690074 	svcvs	0x00690074
    1ea4:	696e695f 	stmdbvs	lr!, {r0, r1, r2, r3, r4, r6, r8, fp, sp, lr}^
    1ea8:	69685f74 	stmdbvs	r8!, {r2, r4, r5, r6, r8, r9, sl, fp, ip, lr}^
    1eac:	63006867 	movwvs	r6, #2151	; 0x867
    1eb0:	676e6168 	strbvs	r6, [lr, -r8, ror #2]!
    1eb4:	75725f65 	ldrbvc	r5, [r2, #-3941]!	; 0xf65
    1eb8:	6d69746e 	cfstrdvs	mvd7, [r9, #-440]!	; 0xfffffe48
    1ebc:	6e655f65 	cdpvs	15, 6, cr5, cr5, cr5, {3}
    1ec0:	65720076 	ldrbvs	r0, [r2, #-118]!	; 0x76
    1ec4:	726f7473 	rsbvc	r7, pc, #1929379840	; 0x73000000
    1ec8:	65705f65 	ldrbvs	r5, [r0, #-3941]!	; 0xf65
    1ecc:	6f636672 	svcvs	0x00636672
    1ed0:	65746e75 	ldrbvs	r6, [r4, #-3701]!	; 0xe75
    1ed4:	6f6c0072 	svcvs	0x006c0072
    1ed8:	665f706f 	ldrbvs	r7, [pc], -pc, rrx
    1edc:	0067616c 	rsbeq	r6, r7, ip, ror #2
    1ee0:	616c6564 	cmnvs	ip, r4, ror #10
    1ee4:	73755f79 	cmnvc	r5, #484	; 0x1e4
    1ee8:	65766f00 	ldrbvs	r6, [r6, #-3840]!	; 0xf00
    1eec:	61656872 	smcvs	22146	; 0x5682
    1ef0:	6e650064 	cdpvs	0, 6, cr0, cr5, cr4, {3}
    1ef4:	656c6261 	strbvs	r6, [ip, #-609]!	; 0x261
    1ef8:	7669645f 	undefined instruction 0x7669645f
    1efc:	72656469 	rsbvc	r6, r5, #1761607680	; 0x69000000
    1f00:	73657200 	cmnvc	r5, #0
    1f04:	635f7465 	cmpvs	pc, #1694498816	; 0x65000000
    1f08:	746e756f 	strbtvc	r7, [lr], #-1391	; 0x56f
    1f0c:	73007265 	movwvc	r7, #613	; 0x265
    1f10:	5f657661 	svcpl	0x00657661
    1f14:	5f6d656d 	svcpl	0x006d656d
    1f18:	74617473 	strbtvc	r7, [r1], #-1139	; 0x473
    1f1c:	6e5f7375 	mrcvs	3, 2, r7, cr15, cr5, {3}
    1f20:	756d6d6f 	strbvc	r6, [sp, #-3439]!	; 0xd6f
    1f24:	5f6f6900 	svcpl	0x006f6900
    1f28:	68676968 	stmdavs	r7!, {r3, r5, r6, r8, fp, sp, lr}^
    1f2c:	63616200 	cmnvs	r1, #0
    1f30:	5f70756b 	svcpl	0x0070756b
    1f34:	66726570 	undefined instruction 0x66726570
    1f38:	756f635f 	strbvc	r6, [pc, #-863]!	; 1be1 <mem_power_init+0x3a9>
    1f3c:	7265746e 	rsbvc	r7, r5, #1845493760	; 0x6e000000
    1f40:	616e655f 	cmnvs	lr, pc, asr r5
    1f44:	5f656c62 	svcpl	0x00656c62
    1f48:	00676572 	rsbeq	r6, r7, r2, ror r5
    1f4c:	65766173 	ldrbvs	r6, [r6, #-371]!	; 0x173
    1f50:	6d656d5f 	stclvs	13, cr6, [r5, #-380]!	; 0xfffffe84
    1f54:	616c665f 	cmnvs	ip, pc, asr r6
    1f58:	6d630067 	stclvs	0, cr0, [r3, #-412]!	; 0xfffffe64
    1f5c:	65725f75 	ldrbvs	r5, [r2, #-3957]!	; 0xf75
    1f60:	61620067 	cmnvs	r2, r7, rrx
    1f64:	70756b63 	rsbsvc	r6, r5, r3, ror #22
    1f68:	7265705f 	rsbvc	r7, r5, #95	; 0x5f
    1f6c:	756f6366 	strbvc	r6, [pc, #-870]!	; 1c0e <mem_power_init+0x3d6>
    1f70:	7265746e 	rsbvc	r7, r5, #1845493760	; 0x6e000000
    1f74:	5f737500 	svcpl	0x00737500
    1f78:	00746e63 	rsbseq	r6, r4, r3, ror #28
    1f7c:	725f6f64 	subsvc	r6, pc, #400	; 0x190
    1f80:	74657365 	strbtvc	r7, [r5], #-869	; 0x365
    1f84:	6b616600 	blvs	185b78c <__bss_end+0x18574ac>
    1f88:	75625f65 	strbvc	r5, [r2, #-3941]!	; 0xf65
    1f8c:	775f7973 	undefined instruction 0x775f7973
    1f90:	69746961 	ldmdbvs	r4!, {r0, r5, r6, r8, fp, sp, lr}^
    1f94:	6200676e 	andvs	r6, r0, #28835840	; 0x1b80000
    1f98:	756b6361 	strbvc	r6, [fp, #-865]!	; 0x361
    1f9c:	65705f70 	ldrbvs	r5, [r0, #-3952]!	; 0xf70
    1fa0:	635f6672 	cmpvs	pc, #119537664	; 0x7200000
    1fa4:	746e756f 	strbtvc	r7, [lr], #-1391	; 0x56f
    1fa8:	635f7265 	cmpvs	pc, #1342177286	; 0x50000006
    1fac:	5f6c7274 	svcpl	0x006c7274
    1fb0:	00676572 	rsbeq	r6, r7, r2, ror r5
    1fb4:	695f6f69 	ldmdbvs	pc, {r0, r3, r5, r6, r8, r9, sl, fp, sp, lr}^
    1fb8:	5f74696e 	svcpl	0x0074696e
    1fbc:	00776f6c 	rsbseq	r6, r7, ip, ror #30
    1fc0:	5f756d6d 	svcpl	0x00756d6d
    1fc4:	67616c66 	strbvs	r6, [r1, -r6, ror #24]!
    1fc8:	5f6f6900 	svcpl	0x006f6900
    1fcc:	74696e69 	strbtvc	r6, [r9], #-3689	; 0xe69
    1fd0:	74656700 	strbtvc	r6, [r5], #-1792	; 0x700
    1fd4:	6d656d5f 	stclvs	13, cr6, [r5, #-380]!	; 0xfffffe84
    1fd8:	6174735f 	cmnvs	r4, pc, asr r3
    1fdc:	00737574 	rsbseq	r7, r3, r4, ror r5
    1fe0:	65766173 	ldrbvs	r6, [r6, #-371]!	; 0x173
    1fe4:	6e75735f 	mrcvs	3, 3, r7, cr5, cr15, {2}
    1fe8:	6d5f6935 	ldclvs	9, cr6, [pc, #-212]	; 0xffffff2c
    1fec:	735f6d65 	cmpvc	pc, #6464	; 0x1940
    1ff0:	75746174 	ldrbvc	r6, [r4, #-372]!	; 0x174
    1ff4:	6f6e5f73 	svcvs	0x006e5f73
    1ff8:	00756d6d 	rsbseq	r6, r5, sp, ror #26
    1ffc:	5f746567 	svcpl	0x00746567
    2000:	6c637963 	stclvs	9, cr7, [r3], #-396	; 0xfffffe74
    2004:	756f6365 	strbvc	r6, [pc, #-869]!	; 1ca7 <mem_power_init+0x46f>
    2008:	6300746e 	movwvs	r7, #1134	; 0x46e
    200c:	665f7570 	undefined instruction 0x665f7570
    2010:	00716572 	rsbseq	r6, r1, r2, ror r5
    2014:	74696e69 	strbtvc	r6, [r9], #-3689	; 0xe69
    2018:	7265705f 	rsbvc	r7, r5, #95	; 0x5f
    201c:	756f6366 	strbvc	r6, [pc, #-870]!	; 1cbe <mem_power_init+0x486>
    2020:	7265746e 	rsbvc	r7, r5, #1845493760	; 0x6e000000
    2024:	61660073 	smcvs	24579	; 0x6003
    2028:	726f7463 	rsbvc	r7, pc, #1660944384	; 0x63000000
    202c:	66006b5f 	undefined instruction 0x66006b5f
    2030:	6f746361 	svcvs	0x00746361
    2034:	006d5f72 	rsbeq	r5, sp, r2, ror pc
    2038:	74636166 	strbtvc	r6, [r3], #-358	; 0x166
    203c:	6e5f726f 	cdpvs	2, 5, cr7, cr15, cr15, {3}
    2040:	63616600 	cmnvs	r1, #0
    2044:	5f726f74 	svcpl	0x00726f74
    2048:	61730070 	cmnvs	r3, r0, ror r0
    204c:	5f646576 	svcpl	0x00646576
    2050:	67616c66 	strbvs	r6, [r1, -r6, ror #24]!
    2054:	76617300 	strbtvc	r7, [r1], -r0, lsl #6
    2058:	656d5f65 	strbvs	r5, [sp, #-3941]!	; 0xf65
    205c:	74735f6d 	ldrbtvc	r5, [r3], #-3949	; 0xf6d
    2060:	73757461 	cmnvc	r5, #1627389952	; 0x61000000
    2064:	74657300 	strbtvc	r7, [r5], #-768	; 0x300
    2068:	6274745f 	rsbsvs	r7, r4, #1593835520	; 0x5f000000
    206c:	72003072 	andvc	r3, r0, #114	; 0x72
    2070:	6f747365 	svcvs	0x00747365
    2074:	6d5f6572 	cfldr64vs	mvdx6, [pc, #-456]	; 0xfffffe38
    2078:	735f756d 	cmpvc	pc, #457179136	; 0x1b400000
    207c:	65746174 	ldrbvs	r6, [r4, #-372]!	; 0x174
    2080:	76617300 	strbtvc	r7, [r1], -r0, lsl #6
    2084:	6d6d5f65 	stclvs	15, cr5, [sp, #-404]!	; 0xfffffe6c
    2088:	74735f75 	ldrbtvc	r5, [r3], #-3957	; 0xf75
    208c:	00657461 	rsbeq	r7, r5, r1, ror #8
    2090:	2e2e2f2e 	cdpcs	15, 2, cr2, cr14, cr14, {1}
    2094:	6d656d2f 	stclvs	13, cr6, [r5, #-188]!	; 0xffffff44
    2098:	756d6d5f 	strbvc	r6, [sp, #-3423]!	; 0xd5f
    209c:	2e63705f 	mcrcs	0, 3, r7, cr3, cr15, {2}
    20a0:	65730063 	ldrbvs	r0, [r3, #-99]!	; 0x63
    20a4:	6f635f74 	svcvs	0x00635f74
    20a8:	5f6f7270 	svcpl	0x006f7270
    20ac:	61666564 	cmnvs	r6, r4, ror #10
    20b0:	00746c75 	rsbseq	r6, r4, r5, ror ip
    20b4:	61736964 	cmnvs	r3, r4, ror #18
    20b8:	5f656c62 	svcpl	0x00656c62
    20bc:	68636163 	stmdavs	r3!, {r0, r1, r5, r6, r8, sp, lr}^
    20c0:	6e695f65 	cdpvs	15, 6, cr5, cr9, cr5, {3}
    20c4:	696c6176 	stmdbvs	ip!, {r1, r2, r4, r5, r6, r8, sp, lr}^
    20c8:	65746164 	ldrbvs	r6, [r4, #-356]!	; 0x164
    20cc:	725f5f00 	subsvc	r5, pc, #0
    20d0:	6f747365 	svcvs	0x00747365
    20d4:	705f6572 	subsvc	r6, pc, r2, ror r5
    20d8:	65636f72 	strbvs	r6, [r3, #-3954]!	; 0xf72
    20dc:	726f7373 	rsbvc	r7, pc, #-872415231	; 0xcc000001
    20e0:	6174735f 	cmnvs	r4, pc, asr r3
    20e4:	63006574 	movwvs	r6, #1396	; 0x574
    20e8:	00747874 	rsbseq	r7, r4, r4, ror r8
    20ec:	2e2e2f2e 	cdpcs	15, 2, cr2, cr14, cr14, {1}
    20f0:	6d656d2f 	stclvs	13, cr6, [r5, #-188]!	; 0xffffff44
    20f4:	7570635f 	ldrbvc	r6, [r0, #-863]!	; 0x35f
    20f8:	6d00632e 	stcvs	3, cr6, [r0, #-184]	; 0xffffff48
    20fc:	725f6d65 	subsvc	r6, pc, #6464	; 0x1940
    2100:	6f747365 	svcvs	0x00747365
    2104:	705f6572 	subsvc	r6, pc, r2, ror r5
    2108:	65636f72 	strbvs	r6, [r3, #-3954]!	; 0xf72
    210c:	726f7373 	rsbvc	r7, pc, #-872415231	; 0xcc000001
    2110:	6174735f 	cmnvs	r4, pc, asr r3
    2114:	5f006574 	svcpl	0x00006574
    2118:	7661735f 	undefined instruction 0x7661735f
    211c:	72705f65 	rsbsvc	r5, r0, #404	; 0x194
    2120:	7365636f 	cmnvc	r5, #-1140850687	; 0xbc000001
    2124:	5f726f73 	svcpl	0x00726f73
    2128:	74617473 	strbtvc	r7, [r1], #-1139	; 0x473
    212c:	65640065 	strbvs	r0, [r4, #-101]!	; 0x65
    2130:	6c756166 	ldfvse	f6, [r5], #-408	; 0xfffffe68
    2134:	6f635f74 	svcvs	0x00635f74
    2138:	5f6f7270 	svcpl	0x006f7270
    213c:	756c6176 	strbvc	r6, [ip, #-374]!	; 0x176
    2140:	Address 0x00002140 is out of bounds.


Disassembly of section .comment:

00000000 <.comment>:
   0:	3a434347 	bcc	10d0d24 <__bss_end+0x10cca44>
   4:	2e342820 	cdpcs	8, 3, cr2, cr4, cr0, {1}
   8:	5f342e34 	svcpl	0x00342e34
   c:	302e3930 	eorcc	r3, lr, r0, lsr r9
  10:	30322e36 	eorscc	r2, r2, r6, lsr lr
  14:	20293031 	eorcs	r3, r9, r1, lsr r0
  18:	2e342e34 	mrccs	14, 1, r2, cr4, cr4, {1}
  1c:	Address 0x0000001c is out of bounds.


Disassembly of section .ARM.attributes:

00000000 <.ARM.attributes>:
   0:	00002a41 	andeq	r2, r0, r1, asr #20
   4:	61656100 	cmnvs	r5, r0, lsl #2
   8:	01006962 	tsteq	r0, r2, ror #18
   c:	00000020 	andeq	r0, r0, r0, lsr #32
  10:	412d3705 	teqmi	sp, r5, lsl #14
  14:	070a0600 	streq	r0, [sl, -r0, lsl #12]
  18:	09010841 	stmdbeq	r1, {r0, r6, fp}
  1c:	14041202 	strne	r1, [r4], #-514	; 0x202
  20:	17011501 	strne	r1, [r1, -r1, lsl #10]
  24:	1a011803 	bne	46038 <__bss_end+0x41d58>
  28:	Address 0x00000028 is out of bounds.


Disassembly of section .debug_ranges:

00000000 <.debug_ranges>:
   0:	00000468 	andeq	r0, r0, r8, ror #8
   4:	00000478 	andeq	r0, r0, r8, ror r4
   8:	0000047c 	andeq	r0, r0, ip, ror r4
   c:	00000484 	andeq	r0, r0, r4, lsl #9
	...
  18:	00000468 	andeq	r0, r0, r8, ror #8
  1c:	00000478 	andeq	r0, r0, r8, ror r4
  20:	0000047c 	andeq	r0, r0, ip, ror r4
  24:	00000484 	andeq	r0, r0, r4, lsl #9
	...
  30:	0000050c 	andeq	r0, r0, ip, lsl #10
  34:	0000051c 	andeq	r0, r0, ip, lsl r5
  38:	00000520 	andeq	r0, r0, r0, lsr #10
  3c:	0000052c 	andeq	r0, r0, ip, lsr #10
	...
  48:	0000050c 	andeq	r0, r0, ip, lsl #10
  4c:	0000051c 	andeq	r0, r0, ip, lsl r5
  50:	00000520 	andeq	r0, r0, r0, lsr #10
  54:	0000052c 	andeq	r0, r0, ip, lsr #10
	...
  60:	00000554 	andeq	r0, r0, r4, asr r5
  64:	00000558 	andeq	r0, r0, r8, asr r5
  68:	00000588 	andeq	r0, r0, r8, lsl #11
  6c:	000005ac 	andeq	r0, r0, ip, lsr #11
  70:	0000055c 	andeq	r0, r0, ip, asr r5
  74:	00000578 	andeq	r0, r0, r8, ror r5
	...
  80:	00000554 	andeq	r0, r0, r4, asr r5
  84:	00000558 	andeq	r0, r0, r8, asr r5
  88:	00000588 	andeq	r0, r0, r8, lsl #11
  8c:	000005ac 	andeq	r0, r0, ip, lsr #11
  90:	0000055c 	andeq	r0, r0, ip, asr r5
  94:	00000578 	andeq	r0, r0, r8, ror r5
	...
  a0:	000005c0 	andeq	r0, r0, r0, asr #11
  a4:	000005c4 	andeq	r0, r0, r4, asr #11
  a8:	000005f4 	strdeq	r0, [r0], -r4
  ac:	0000061c 	andeq	r0, r0, ip, lsl r6
  b0:	000005c8 	andeq	r0, r0, r8, asr #11
  b4:	000005e4 	andeq	r0, r0, r4, ror #11
	...
  c0:	000005c0 	andeq	r0, r0, r0, asr #11
  c4:	000005c4 	andeq	r0, r0, r4, asr #11
  c8:	000005f4 	strdeq	r0, [r0], -r4
  cc:	0000061c 	andeq	r0, r0, ip, lsl r6
  d0:	000005c8 	andeq	r0, r0, r8, asr #11
  d4:	000005e4 	andeq	r0, r0, r4, ror #11
	...
  e0:	000001c0 	andeq	r0, r0, r0, asr #3
  e4:	000001c8 	andeq	r0, r0, r8, asr #3
  e8:	000001d4 	ldrdeq	r0, [r0], -r4
  ec:	000001e0 	andeq	r0, r0, r0, ror #3
  f0:	000001cc 	andeq	r0, r0, ip, asr #3
  f4:	000001d0 	ldrdeq	r0, [r0], -r0
	...
 100:	000001c0 	andeq	r0, r0, r0, asr #3
 104:	000001c8 	andeq	r0, r0, r8, asr #3
 108:	000001d4 	ldrdeq	r0, [r0], -r4
 10c:	000001e0 	andeq	r0, r0, r0, ror #3
 110:	000001cc 	andeq	r0, r0, ip, asr #3
 114:	000001d0 	ldrdeq	r0, [r0], -r0
	...
 120:	0000022c 	andeq	r0, r0, ip, lsr #4
 124:	00000234 	andeq	r0, r0, r4, lsr r2
 128:	00000240 	andeq	r0, r0, r0, asr #4
 12c:	0000024c 	andeq	r0, r0, ip, asr #4
 130:	00000238 	andeq	r0, r0, r8, lsr r2
 134:	0000023c 	andeq	r0, r0, ip, lsr r2
	...
 140:	0000022c 	andeq	r0, r0, ip, lsr #4
 144:	00000234 	andeq	r0, r0, r4, lsr r2
 148:	00000240 	andeq	r0, r0, r0, asr #4
 14c:	0000024c 	andeq	r0, r0, ip, asr #4
 150:	00000238 	andeq	r0, r0, r8, lsr r2
 154:	0000023c 	andeq	r0, r0, ip, lsr r2
	...
 160:	000002a0 	andeq	r0, r0, r0, lsr #5
 164:	000002a4 	andeq	r0, r0, r4, lsr #5
 168:	000002a8 	andeq	r0, r0, r8, lsr #5
 16c:	00000320 	andeq	r0, r0, r0, lsr #6
	...
 178:	000002a0 	andeq	r0, r0, r0, lsr #5
 17c:	000002a4 	andeq	r0, r0, r4, lsr #5
 180:	000002a8 	andeq	r0, r0, r8, lsr #5
 184:	00000320 	andeq	r0, r0, r0, lsr #6
	...
 190:	000002b4 	undefined instruction 0x000002b4
 194:	000002c8 	andeq	r0, r0, r8, asr #5
 198:	000002d8 	ldrdeq	r0, [r0], -r8
 19c:	0000032c 	andeq	r0, r0, ip, lsr #6
	...
 1a8:	000002b4 	undefined instruction 0x000002b4
 1ac:	000002c8 	andeq	r0, r0, r8, asr #5
 1b0:	000002d8 	ldrdeq	r0, [r0], -r8
 1b4:	0000032c 	andeq	r0, r0, ip, lsr #6
	...
 1c0:	000006dc 	ldrdeq	r0, [r0], -ip
 1c4:	000006e0 	andeq	r0, r0, r0, ror #13
 1c8:	000006e4 	andeq	r0, r0, r4, ror #13
 1cc:	000006ec 	andeq	r0, r0, ip, ror #13
	...
 1d8:	000006dc 	ldrdeq	r0, [r0], -ip
 1dc:	000006e0 	andeq	r0, r0, r0, ror #13
 1e0:	000006e4 	andeq	r0, r0, r4, ror #13
 1e4:	000006ec 	andeq	r0, r0, ip, ror #13
	...
 1f0:	000006e0 	andeq	r0, r0, r0, ror #13
 1f4:	000006e4 	andeq	r0, r0, r4, ror #13
 1f8:	000006ec 	andeq	r0, r0, ip, ror #13
 1fc:	00000714 	andeq	r0, r0, r4, lsl r7
	...
 208:	000006e0 	andeq	r0, r0, r0, ror #13
 20c:	000006e4 	andeq	r0, r0, r4, ror #13
 210:	000006ec 	andeq	r0, r0, ip, ror #13
 214:	00000714 	andeq	r0, r0, r4, lsl r7
	...
 220:	00000774 	andeq	r0, r0, r4, ror r7
 224:	00000788 	andeq	r0, r0, r8, lsl #15
 228:	00000794 	muleq	r0, r4, r7
 22c:	000007e8 	andeq	r0, r0, r8, ror #15
	...
 238:	00000774 	andeq	r0, r0, r4, ror r7
 23c:	00000788 	andeq	r0, r0, r8, lsl #15
 240:	00000794 	muleq	r0, r4, r7
 244:	000007e8 	andeq	r0, r0, r8, ror #15
	...
 250:	00000204 	andeq	r0, r0, r4, lsl #4
 254:	00000224 	andeq	r0, r0, r4, lsr #4
 258:	00000240 	andeq	r0, r0, r0, asr #4
 25c:	00000260 	andeq	r0, r0, r0, ror #4
	...
 268:	00000204 	andeq	r0, r0, r4, lsl #4
 26c:	00000224 	andeq	r0, r0, r4, lsr #4
 270:	00000240 	andeq	r0, r0, r0, asr #4
 274:	00000260 	andeq	r0, r0, r0, ror #4
	...
