
resume0.elf:     file format elf32-littlearm


Disassembly of section .text:

40100000 <main>:
40100000:	e92d4010 	push	{r4, lr}
40100004:	eb000040 	bl	4010010c <save_sp_nommu>
40100008:	e3a01000 	mov	r1, #0
4010000c:	e3a00001 	mov	r0, #1
40100010:	e59f40a0 	ldr	r4, [pc, #160]	; 401000b8 <main+0xb8>
40100014:	eb001456 	bl	40105174 <init_perfcounters>
40100018:	eb0017a1 	bl	40105ea4 <set_copro_default>
4010001c:	e3050001 	movw	r0, #20481	; 0x5001
40100020:	eb001434 	bl	401050f8 <save_mem_status_nommu>
40100024:	e3050001 	movw	r0, #20481	; 0x5001
40100028:	eb00143f 	bl	4010512c <save_sun5i_mem_status_nommu>
4010002c:	eb00141b 	bl	401050a0 <fake_busy_waiting>
40100030:	eb00003a 	bl	40100120 <mem_flush_tlb>
40100034:	e3050002 	movw	r0, #20482	; 0x5002
40100038:	eb00143b 	bl	4010512c <save_sun5i_mem_status_nommu>
4010003c:	eb00006d 	bl	401001f8 <flush_icache>
40100040:	eb00008e 	bl	40100280 <enable_icache>
40100044:	e3050003 	movw	r0, #20483	; 0x5003
40100048:	eb001437 	bl	4010512c <save_sun5i_mem_status_nommu>
4010004c:	e3050002 	movw	r0, #20482	; 0x5002
40100050:	eb001428 	bl	401050f8 <save_mem_status_nommu>
40100054:	e3050005 	movw	r0, #20485	; 0x5005
40100058:	eb001433 	bl	4010512c <save_sun5i_mem_status_nommu>
4010005c:	eb0000e8 	bl	40100404 <mem_preload_tlb_nommu>
40100060:	e3a00101 	mov	r0, #1073741824	; 0x40000000
40100064:	e59f1050 	ldr	r1, [pc, #80]	; 401000bc <main+0xbc>
40100068:	e3a02040 	mov	r2, #64	; 0x40
4010006c:	eb000015 	bl	401000c8 <mem_memcpy>
40100070:	e59f1048 	ldr	r1, [pc, #72]	; 401000c0 <main+0xc0>
40100074:	e59f2048 	ldr	r2, [pc, #72]	; 401000c4 <main+0xc4>
40100078:	e3a03000 	mov	r3, #0
4010007c:	e1a00003 	mov	r0, r3
40100080:	e5843000 	str	r3, [r4]
40100084:	e0612002 	rsb	r2, r1, r2
40100088:	eb00000e 	bl	401000c8 <mem_memcpy>
4010008c:	e3050003 	movw	r0, #20483	; 0x5003
40100090:	eb001418 	bl	401050f8 <save_mem_status_nommu>
40100094:	e3050006 	movw	r0, #20486	; 0x5006
40100098:	eb001423 	bl	4010512c <save_sun5i_mem_status_nommu>
4010009c:	e5943000 	ldr	r3, [r4]
401000a0:	e12fff33 	blx	r3
401000a4:	e3050004 	movw	r0, #20484	; 0x5004
401000a8:	eb001412 	bl	401050f8 <save_mem_status_nommu>
401000ac:	e3050007 	movw	r0, #20487	; 0x5007
401000b0:	eb00141d 	bl	4010512c <save_sun5i_mem_status_nommu>
401000b4:	eafffffe 	b	401000b4 <main+0xb4>
401000b8:	40105f84 	andsmi	r5, r0, r4, lsl #31
401000bc:	40110400 	andsmi	r0, r1, r0, lsl #8
401000c0:	40101030 	andsmi	r1, r0, r0, lsr r0
401000c4:	40105080 	andsmi	r5, r0, r0, lsl #1

401000c8 <mem_memcpy>:
401000c8:	e3a03000 	mov	r3, #0
401000cc:	ea000002 	b	401000dc <mem_memcpy+0x14>
401000d0:	e7d1c003 	ldrb	ip, [r1, r3]
401000d4:	e7c0c003 	strb	ip, [r0, r3]
401000d8:	e2833001 	add	r3, r3, #1
401000dc:	e3520000 	cmp	r2, #0
401000e0:	e2422001 	sub	r2, r2, #1
401000e4:	cafffff9 	bgt	401000d0 <mem_memcpy+0x8>
401000e8:	e12fff1e 	bx	lr
	...

40100100 <save_sp>:
40100100:	e1a0000d 	mov	r0, sp
40100104:	e59fd468 	ldr	sp, [pc, #1128]	; 40100574 <__turn_mmu_on+0x14>
40100108:	e1a0f00e 	mov	pc, lr

4010010c <save_sp_nommu>:
4010010c:	e1a0000d 	mov	r0, sp
40100110:	e59fd460 	ldr	sp, [pc, #1120]	; 40100578 <__turn_mmu_on+0x18>
40100114:	e1a0f00e 	mov	pc, lr

40100118 <restore_sp>:
40100118:	e1a0d000 	mov	sp, r0
4010011c:	e1a0f00e 	mov	pc, lr

40100120 <mem_flush_tlb>:
40100120:	e92d000f 	push	{r0, r1, r2, r3}
40100124:	f57ff04f 	dsb	sy
40100128:	e3a00000 	mov	r0, #0
4010012c:	ee080f17 	mcr	15, 0, r0, cr8, cr7, {0}
40100130:	ee070fd5 	mcr	15, 0, r0, cr7, cr5, {6}
40100134:	f57ff04f 	dsb	sy
40100138:	f57ff06f 	isb	sy
4010013c:	e3a00000 	mov	r0, #0
40100140:	ee0a0f10 	mcr	15, 0, r0, cr10, cr0, {0}
40100144:	e3a00000 	mov	r0, #0
40100148:	ee0a0f30 	mcr	15, 0, r0, cr10, cr0, {1}
4010014c:	f57ff04f 	dsb	sy
40100150:	f57ff06f 	isb	sy
40100154:	e8bd000f 	pop	{r0, r1, r2, r3}
40100158:	e1a0f00e 	mov	pc, lr

4010015c <flush_dcache>:
4010015c:	e92d1fff 	push	{r0, r1, r2, r3, r4, r5, r6, r7, r8, r9, sl, fp, ip}
40100160:	f57ff05f 	dmb	sy
40100164:	ee300f30 	mrc	15, 1, r0, cr0, cr0, {1}
40100168:	e2103407 	ands	r3, r0, #117440512	; 0x7000000
4010016c:	e1a03ba3 	lsr	r3, r3, #23
40100170:	0a00001a 	beq	401001e0 <finished>
40100174:	e3a0a000 	mov	sl, #0

40100178 <loop1>:
40100178:	e08a20aa 	add	r2, sl, sl, lsr #1
4010017c:	e1a01230 	lsr	r1, r0, r2
40100180:	e2011007 	and	r1, r1, #7
40100184:	e3510002 	cmp	r1, #2
40100188:	ba000011 	blt	401001d4 <skip>
4010018c:	ee40af10 	mcr	15, 2, sl, cr0, cr0, {0}
40100190:	f57ff06f 	isb	sy
40100194:	ee301f10 	mrc	15, 1, r1, cr0, cr0, {0}
40100198:	e2012007 	and	r2, r1, #7
4010019c:	e2822004 	add	r2, r2, #4
401001a0:	e59f43d4 	ldr	r4, [pc, #980]	; 4010057c <__turn_mmu_on+0x1c>
401001a4:	e01441a1 	ands	r4, r4, r1, lsr #3
401001a8:	e16f5f14 	clz	r5, r4
401001ac:	e59f73cc 	ldr	r7, [pc, #972]	; 40100580 <__turn_mmu_on+0x20>
401001b0:	e01776a1 	ands	r7, r7, r1, lsr #13

401001b4 <loop2>:
401001b4:	e1a09004 	mov	r9, r4

401001b8 <loop3>:
401001b8:	e18ab519 	orr	fp, sl, r9, lsl r5
401001bc:	e18bb217 	orr	fp, fp, r7, lsl r2
401001c0:	ee07bf5e 	mcr	15, 0, fp, cr7, cr14, {2}
401001c4:	e2599001 	subs	r9, r9, #1
401001c8:	aafffffa 	bge	401001b8 <loop3>
401001cc:	e2577001 	subs	r7, r7, #1
401001d0:	aafffff7 	bge	401001b4 <loop2>

401001d4 <skip>:
401001d4:	e28aa002 	add	sl, sl, #2
401001d8:	e153000a 	cmp	r3, sl
401001dc:	caffffe5 	bgt	40100178 <loop1>

401001e0 <finished>:
401001e0:	e3a0a000 	mov	sl, #0
401001e4:	ee40af10 	mcr	15, 2, sl, cr0, cr0, {0}
401001e8:	f57ff04f 	dsb	sy
401001ec:	f57ff06f 	isb	sy
401001f0:	e8bd1fff 	pop	{r0, r1, r2, r3, r4, r5, r6, r7, r8, r9, sl, fp, ip}
401001f4:	e1a0f00e 	mov	pc, lr

401001f8 <flush_icache>:
401001f8:	e92d000f 	push	{r0, r1, r2, r3}
401001fc:	e3a00000 	mov	r0, #0
40100200:	ee070f15 	mcr	15, 0, r0, cr7, cr5, {0}
40100204:	f57ff06f 	isb	sy
40100208:	e8bd000f 	pop	{r0, r1, r2, r3}
4010020c:	e1a0f00e 	mov	pc, lr

40100210 <invalidate_branch_predictor>:
40100210:	e92d000f 	push	{r0, r1, r2, r3}
40100214:	e3a00000 	mov	r0, #0
40100218:	ee070fd5 	mcr	15, 0, r0, cr7, cr5, {6}
4010021c:	f57ff06f 	isb	sy
40100220:	e8bd000f 	pop	{r0, r1, r2, r3}
40100224:	e1a0f00e 	mov	pc, lr

40100228 <disable_cache>:
40100228:	e92d000f 	push	{r0, r1, r2, r3}
4010022c:	ee110f10 	mrc	15, 0, r0, cr1, cr0, {0}
40100230:	e3c00a01 	bic	r0, r0, #4096	; 0x1000
40100234:	e3c00004 	bic	r0, r0, #4
40100238:	ee010f10 	mcr	15, 0, r0, cr1, cr0, {0}
4010023c:	f57ff06f 	isb	sy
40100240:	e8bd000f 	pop	{r0, r1, r2, r3}
40100244:	e1a0f00e 	mov	pc, lr

40100248 <disable_dcache>:
40100248:	e92d000f 	push	{r0, r1, r2, r3}
4010024c:	ee110f10 	mrc	15, 0, r0, cr1, cr0, {0}
40100250:	e3c00004 	bic	r0, r0, #4
40100254:	ee010f10 	mcr	15, 0, r0, cr1, cr0, {0}
40100258:	f57ff06f 	isb	sy
4010025c:	e8bd000f 	pop	{r0, r1, r2, r3}
40100260:	e1a0f00e 	mov	pc, lr

40100264 <disable_icache>:
40100264:	e92d000f 	push	{r0, r1, r2, r3}
40100268:	ee110f10 	mrc	15, 0, r0, cr1, cr0, {0}
4010026c:	e3c00a01 	bic	r0, r0, #4096	; 0x1000
40100270:	ee010f10 	mcr	15, 0, r0, cr1, cr0, {0}
40100274:	f57ff06f 	isb	sy
40100278:	e8bd000f 	pop	{r0, r1, r2, r3}
4010027c:	e1a0f00e 	mov	pc, lr

40100280 <enable_icache>:
40100280:	e92d000f 	push	{r0, r1, r2, r3}
40100284:	ee110f10 	mrc	15, 0, r0, cr1, cr0, {0}
40100288:	e3800a01 	orr	r0, r0, #4096	; 0x1000
4010028c:	ee010f10 	mcr	15, 0, r0, cr1, cr0, {0}
40100290:	f57ff06f 	isb	sy
40100294:	e8bd000f 	pop	{r0, r1, r2, r3}
40100298:	e1a0f00e 	mov	pc, lr

4010029c <disable_l2cache>:
4010029c:	e92d000f 	push	{r0, r1, r2, r3}
401002a0:	ee110f30 	mrc	15, 0, r0, cr1, cr0, {1}
401002a4:	e3c00002 	bic	r0, r0, #2
401002a8:	ee010f30 	mcr	15, 0, r0, cr1, cr0, {1}
401002ac:	f57ff06f 	isb	sy
401002b0:	e8bd000f 	pop	{r0, r1, r2, r3}
401002b4:	e1a0f00e 	mov	pc, lr

401002b8 <disable_program_flow_prediction>:
401002b8:	e92d000f 	push	{r0, r1, r2, r3}
401002bc:	ee110f10 	mrc	15, 0, r0, cr1, cr0, {0}
401002c0:	e3c00b02 	bic	r0, r0, #2048	; 0x800
401002c4:	ee010f10 	mcr	15, 0, r0, cr1, cr0, {0}
401002c8:	f57ff06f 	isb	sy
401002cc:	e8bd000f 	pop	{r0, r1, r2, r3}
401002d0:	e1a0f00e 	mov	pc, lr

401002d4 <enable_cache>:
401002d4:	e92d000f 	push	{r0, r1, r2, r3}
401002d8:	ee110f10 	mrc	15, 0, r0, cr1, cr0, {0}
401002dc:	e3800a01 	orr	r0, r0, #4096	; 0x1000
401002e0:	e3800004 	orr	r0, r0, #4
401002e4:	ee010f10 	mcr	15, 0, r0, cr1, cr0, {0}
401002e8:	f57ff06f 	isb	sy
401002ec:	e8bd000f 	pop	{r0, r1, r2, r3}
401002f0:	e1a0f00e 	mov	pc, lr

401002f4 <enable_program_flow_prediction>:
401002f4:	e92d000f 	push	{r0, r1, r2, r3}
401002f8:	ee110f10 	mrc	15, 0, r0, cr1, cr0, {0}
401002fc:	e3800b02 	orr	r0, r0, #2048	; 0x800
40100300:	ee010f10 	mcr	15, 0, r0, cr1, cr0, {0}
40100304:	f57ff06f 	isb	sy
40100308:	e8bd000f 	pop	{r0, r1, r2, r3}
4010030c:	e1a0f00e 	mov	pc, lr

40100310 <mem_preload_tlb>:
40100310:	e92d000f 	push	{r0, r1, r2, r3}
40100314:	e3a00000 	mov	r0, #0
40100318:	ee0a0f10 	mcr	15, 0, r0, cr10, cr0, {0}
4010031c:	f57ff06f 	isb	sy
40100320:	e59f025c 	ldr	r0, [pc, #604]	; 40100584 <__turn_mmu_on+0x24>
40100324:	ee0a0f11 	mcr	15, 0, r0, cr10, cr1, {0}
40100328:	e59f0258 	ldr	r0, [pc, #600]	; 40100588 <__turn_mmu_on+0x28>
4010032c:	ee0a0f11 	mcr	15, 0, r0, cr10, cr1, {0}
40100330:	e59f0254 	ldr	r0, [pc, #596]	; 4010058c <__turn_mmu_on+0x2c>
40100334:	ee0a0f11 	mcr	15, 0, r0, cr10, cr1, {0}
40100338:	e59f0250 	ldr	r0, [pc, #592]	; 40100590 <__turn_mmu_on+0x30>
4010033c:	ee0a0f11 	mcr	15, 0, r0, cr10, cr1, {0}
40100340:	e59f024c 	ldr	r0, [pc, #588]	; 40100594 <__turn_mmu_on+0x34>
40100344:	ee0a0f11 	mcr	15, 0, r0, cr10, cr1, {0}
40100348:	e59f0248 	ldr	r0, [pc, #584]	; 40100598 <__turn_mmu_on+0x38>
4010034c:	ee0a0f11 	mcr	15, 0, r0, cr10, cr1, {0}
40100350:	e59f0244 	ldr	r0, [pc, #580]	; 4010059c <__turn_mmu_on+0x3c>
40100354:	ee0a0f11 	mcr	15, 0, r0, cr10, cr1, {0}
40100358:	e59f0240 	ldr	r0, [pc, #576]	; 401005a0 <__turn_mmu_on+0x40>
4010035c:	ee0a0f11 	mcr	15, 0, r0, cr10, cr1, {0}
40100360:	e3a0020f 	mov	r0, #-268435456	; 0xf0000000
40100364:	ee0a0f11 	mcr	15, 0, r0, cr10, cr1, {0}
40100368:	e59f0234 	ldr	r0, [pc, #564]	; 401005a4 <__turn_mmu_on+0x44>
4010036c:	ee0a0f11 	mcr	15, 0, r0, cr10, cr1, {0}
40100370:	e59f0230 	ldr	r0, [pc, #560]	; 401005a8 <__turn_mmu_on+0x48>
40100374:	ee0a0f11 	mcr	15, 0, r0, cr10, cr1, {0}
40100378:	e59f022c 	ldr	r0, [pc, #556]	; 401005ac <__turn_mmu_on+0x4c>
4010037c:	ee0a0f11 	mcr	15, 0, r0, cr10, cr1, {0}
40100380:	e59f0228 	ldr	r0, [pc, #552]	; 401005b0 <__turn_mmu_on+0x50>
40100384:	ee0a0f11 	mcr	15, 0, r0, cr10, cr1, {0}
40100388:	e59f0224 	ldr	r0, [pc, #548]	; 401005b4 <__turn_mmu_on+0x54>
4010038c:	ee0a0f11 	mcr	15, 0, r0, cr10, cr1, {0}
40100390:	e59f0220 	ldr	r0, [pc, #544]	; 401005b8 <__turn_mmu_on+0x58>
40100394:	ee0a0f11 	mcr	15, 0, r0, cr10, cr1, {0}
40100398:	e59f021c 	ldr	r0, [pc, #540]	; 401005bc <__turn_mmu_on+0x5c>
4010039c:	ee0a0f11 	mcr	15, 0, r0, cr10, cr1, {0}
401003a0:	e59f0218 	ldr	r0, [pc, #536]	; 401005c0 <__turn_mmu_on+0x60>
401003a4:	ee0a0f11 	mcr	15, 0, r0, cr10, cr1, {0}
401003a8:	e3a00000 	mov	r0, #0
401003ac:	ee0a0f30 	mcr	15, 0, r0, cr10, cr0, {1}
401003b0:	f57ff06f 	isb	sy
401003b4:	e3a0020f 	mov	r0, #-268435456	; 0xf0000000
401003b8:	ee0a0f31 	mcr	15, 0, r0, cr10, cr1, {1}
401003bc:	e59f01e0 	ldr	r0, [pc, #480]	; 401005a4 <__turn_mmu_on+0x44>
401003c0:	ee0a0f31 	mcr	15, 0, r0, cr10, cr1, {1}
401003c4:	e59f01dc 	ldr	r0, [pc, #476]	; 401005a8 <__turn_mmu_on+0x48>
401003c8:	ee0a0f31 	mcr	15, 0, r0, cr10, cr1, {1}
401003cc:	e59f01d8 	ldr	r0, [pc, #472]	; 401005ac <__turn_mmu_on+0x4c>
401003d0:	ee0a0f31 	mcr	15, 0, r0, cr10, cr1, {1}
401003d4:	e59f01d4 	ldr	r0, [pc, #468]	; 401005b0 <__turn_mmu_on+0x50>
401003d8:	ee0a0f31 	mcr	15, 0, r0, cr10, cr1, {1}
401003dc:	e59f01d0 	ldr	r0, [pc, #464]	; 401005b4 <__turn_mmu_on+0x54>
401003e0:	ee0a0f31 	mcr	15, 0, r0, cr10, cr1, {1}
401003e4:	e59f01cc 	ldr	r0, [pc, #460]	; 401005b8 <__turn_mmu_on+0x58>
401003e8:	ee0a0f31 	mcr	15, 0, r0, cr10, cr1, {1}
401003ec:	e59f01c8 	ldr	r0, [pc, #456]	; 401005bc <__turn_mmu_on+0x5c>
401003f0:	ee0a0f31 	mcr	15, 0, r0, cr10, cr1, {1}
401003f4:	e59f01c4 	ldr	r0, [pc, #452]	; 401005c0 <__turn_mmu_on+0x60>
401003f8:	ee0a0f31 	mcr	15, 0, r0, cr10, cr1, {1}
401003fc:	e8bd000f 	pop	{r0, r1, r2, r3}
40100400:	e1a0f00e 	mov	pc, lr

40100404 <mem_preload_tlb_nommu>:
40100404:	e92d000f 	push	{r0, r1, r2, r3}
40100408:	e3a00000 	mov	r0, #0
4010040c:	ee0a0f10 	mcr	15, 0, r0, cr10, cr0, {0}
40100410:	f57ff06f 	isb	sy
40100414:	e59f01a8 	ldr	r0, [pc, #424]	; 401005c4 <__turn_mmu_on+0x64>
40100418:	ee0a0f11 	mcr	15, 0, r0, cr10, cr1, {0}
4010041c:	e59f01a4 	ldr	r0, [pc, #420]	; 401005c8 <__turn_mmu_on+0x68>
40100420:	ee0a0f11 	mcr	15, 0, r0, cr10, cr1, {0}
40100424:	e59f01a0 	ldr	r0, [pc, #416]	; 401005cc <__turn_mmu_on+0x6c>
40100428:	ee0a0f11 	mcr	15, 0, r0, cr10, cr1, {0}
4010042c:	e59f019c 	ldr	r0, [pc, #412]	; 401005d0 <__turn_mmu_on+0x70>
40100430:	ee0a0f11 	mcr	15, 0, r0, cr10, cr1, {0}
40100434:	e59f0198 	ldr	r0, [pc, #408]	; 401005d4 <__turn_mmu_on+0x74>
40100438:	ee0a0f11 	mcr	15, 0, r0, cr10, cr1, {0}
4010043c:	e59f0194 	ldr	r0, [pc, #404]	; 401005d8 <__turn_mmu_on+0x78>
40100440:	ee0a0f11 	mcr	15, 0, r0, cr10, cr1, {0}
40100444:	e59f0190 	ldr	r0, [pc, #400]	; 401005dc <__turn_mmu_on+0x7c>
40100448:	ee0a0f11 	mcr	15, 0, r0, cr10, cr1, {0}
4010044c:	e59f018c 	ldr	r0, [pc, #396]	; 401005e0 <__turn_mmu_on+0x80>
40100450:	ee0a0f11 	mcr	15, 0, r0, cr10, cr1, {0}
40100454:	e3a00000 	mov	r0, #0
40100458:	ee0a0f11 	mcr	15, 0, r0, cr10, cr1, {0}
4010045c:	e3a00b01 	mov	r0, #1024	; 0x400
40100460:	ee0a0f11 	mcr	15, 0, r0, cr10, cr1, {0}
40100464:	e3a00b02 	mov	r0, #2048	; 0x800
40100468:	ee0a0f11 	mcr	15, 0, r0, cr10, cr1, {0}
4010046c:	e3a00b03 	mov	r0, #3072	; 0xc00
40100470:	ee0a0f11 	mcr	15, 0, r0, cr10, cr1, {0}
40100474:	e3a00a01 	mov	r0, #4096	; 0x1000
40100478:	ee0a0f11 	mcr	15, 0, r0, cr10, cr1, {0}
4010047c:	e3a00b05 	mov	r0, #5120	; 0x1400
40100480:	ee0a0f11 	mcr	15, 0, r0, cr10, cr1, {0}
40100484:	e3a00b06 	mov	r0, #6144	; 0x1800
40100488:	ee0a0f11 	mcr	15, 0, r0, cr10, cr1, {0}
4010048c:	e3a00b07 	mov	r0, #7168	; 0x1c00
40100490:	ee0a0f11 	mcr	15, 0, r0, cr10, cr1, {0}
40100494:	e3a00b1f 	mov	r0, #31744	; 0x7c00
40100498:	ee0a0f11 	mcr	15, 0, r0, cr10, cr1, {0}
4010049c:	e3a00000 	mov	r0, #0
401004a0:	ee0a0f30 	mcr	15, 0, r0, cr10, cr0, {1}
401004a4:	f57ff06f 	isb	sy
401004a8:	e3a00000 	mov	r0, #0
401004ac:	ee0a0f31 	mcr	15, 0, r0, cr10, cr1, {1}
401004b0:	e3a00b01 	mov	r0, #1024	; 0x400
401004b4:	ee0a0f31 	mcr	15, 0, r0, cr10, cr1, {1}
401004b8:	e3a00b02 	mov	r0, #2048	; 0x800
401004bc:	ee0a0f31 	mcr	15, 0, r0, cr10, cr1, {1}
401004c0:	e3a00b03 	mov	r0, #3072	; 0xc00
401004c4:	ee0a0f31 	mcr	15, 0, r0, cr10, cr1, {1}
401004c8:	e3a00a01 	mov	r0, #4096	; 0x1000
401004cc:	ee0a0f31 	mcr	15, 0, r0, cr10, cr1, {1}
401004d0:	e3a00b05 	mov	r0, #5120	; 0x1400
401004d4:	ee0a0f31 	mcr	15, 0, r0, cr10, cr1, {1}
401004d8:	e3a00b06 	mov	r0, #6144	; 0x1800
401004dc:	ee0a0f31 	mcr	15, 0, r0, cr10, cr1, {1}
401004e0:	e3a00b07 	mov	r0, #7168	; 0x1c00
401004e4:	ee0a0f31 	mcr	15, 0, r0, cr10, cr1, {1}
401004e8:	e3a00b1f 	mov	r0, #31744	; 0x7c00
401004ec:	ee0a0f31 	mcr	15, 0, r0, cr10, cr1, {1}
401004f0:	e8bd000f 	pop	{r0, r1, r2, r3}
401004f4:	e1a0f00e 	mov	pc, lr

401004f8 <disable_mmu>:
401004f8:	ee111f10 	mrc	15, 0, r1, cr1, cr0, {0}
401004fc:	e3c11a01 	bic	r1, r1, #4096	; 0x1000
40100500:	e3c11007 	bic	r1, r1, #7
40100504:	e3c11000 	bic	r1, r1, #0
40100508:	ea000004 	b	40100520 <__turn_mmu_off>
4010050c:	e320f000 	nop	{0}
40100510:	e320f000 	nop	{0}
40100514:	e320f000 	nop	{0}
40100518:	e320f000 	nop	{0}
4010051c:	e320f000 	nop	{0}

40100520 <__turn_mmu_off>:
40100520:	ee011f10 	mcr	15, 0, r1, cr1, cr0, {0}
40100524:	ee103f10 	mrc	15, 0, r3, cr0, cr0, {0}
40100528:	e1a03003 	mov	r3, r3
4010052c:	e1a03003 	mov	r3, r3
40100530:	e1a0f00e 	mov	pc, lr

40100534 <enable_mmu>:
40100534:	ee111f10 	mrc	15, 0, r1, cr1, cr0, {0}
40100538:	e3811a01 	orr	r1, r1, #4096	; 0x1000
4010053c:	e3811007 	orr	r1, r1, #7
40100540:	e3811000 	orr	r1, r1, #0
40100544:	ea000005 	b	40100560 <__turn_mmu_on>
40100548:	e320f000 	nop	{0}
4010054c:	e320f000 	nop	{0}
40100550:	e320f000 	nop	{0}
40100554:	e320f000 	nop	{0}
40100558:	e320f000 	nop	{0}
4010055c:	e320f000 	nop	{0}

40100560 <__turn_mmu_on>:
40100560:	ee011f10 	mcr	15, 0, r1, cr1, cr0, {0}
40100564:	ee103f10 	mrc	15, 0, r3, cr0, cr0, {0}
40100568:	e1a03003 	mov	r3, r3
4010056c:	e1a03003 	mov	r3, r3
40100570:	e1a0f00e 	mov	pc, lr
40100574:	f0007ffc 	undefined instruction 0xf0007ffc
40100578:	00007ffc 	strdeq	r7, [r0], -ip
4010057c:	000003ff 	strdeq	r0, [r0], -pc
40100580:	00007fff 	strdeq	r7, [r0], -pc
40100584:	f1c20000 	undefined instruction 0xf1c20000
40100588:	f1c2ac00 	undefined instruction 0xf1c2ac00
4010058c:	f1c2b000 	undefined instruction 0xf1c2b000
40100590:	f1c2b400 	undefined instruction 0xf1c2b400
40100594:	f1c20400 	undefined instruction 0xf1c20400
40100598:	f1c20c00 	undefined instruction 0xf1c20c00
4010059c:	f1c22800 	undefined instruction 0xf1c22800
401005a0:	f1c01000 	undefined instruction 0xf1c01000
401005a4:	f0000400 	undefined instruction 0xf0000400
401005a8:	f0000800 	undefined instruction 0xf0000800
401005ac:	f0000c00 	undefined instruction 0xf0000c00
401005b0:	f0001000 	undefined instruction 0xf0001000
401005b4:	f0001400 	undefined instruction 0xf0001400
401005b8:	f0001800 	undefined instruction 0xf0001800
401005bc:	f0001c00 	undefined instruction 0xf0001c00
401005c0:	f0007c00 	undefined instruction 0xf0007c00
401005c4:	01c20000 	biceq	r0, r2, r0
401005c8:	01c2ac00 	biceq	sl, r2, r0, lsl #24
401005cc:	01c2b000 	biceq	fp, r2, r0
401005d0:	01c2b400 	biceq	fp, r2, r0, lsl #8
401005d4:	01c20400 	biceq	r0, r2, r0, lsl #8
401005d8:	01c20c00 	biceq	r0, r2, r0, lsl #24
401005dc:	01c22800 	biceq	r2, r2, r0, lsl #16
401005e0:	01c01000 	biceq	r1, r0, r0
401005e4:	e320f000 	nop	{0}
401005e8:	e320f000 	nop	{0}
401005ec:	e320f000 	nop	{0}
401005f0:	e320f000 	nop	{0}
401005f4:	e320f000 	nop	{0}
401005f8:	e320f000 	nop	{0}
401005fc:	e320f000 	nop	{0}

40100600 <mem_twi_init>:
40100600:	e59f2040 	ldr	r2, [pc, #64]	; 40100648 <mem_twi_init+0x48>
40100604:	e59f3040 	ldr	r3, [pc, #64]	; 4010064c <mem_twi_init+0x4c>
40100608:	e7922100 	ldr	r2, [r2, r0, lsl #2]
4010060c:	e5920014 	ldr	r0, [r2, #20]
40100610:	e592100c 	ldr	r1, [r2, #12]
40100614:	e5832000 	str	r2, [r3]
40100618:	e5830004 	str	r0, [r3, #4]
4010061c:	e2011080 	and	r1, r1, #128	; 0x80
40100620:	e5831008 	str	r1, [r3, #8]
40100624:	e3a03028 	mov	r3, #40	; 0x28
40100628:	e5823014 	str	r3, [r2, #20]
4010062c:	e5923018 	ldr	r3, [r2, #24]
40100630:	e3833001 	orr	r3, r3, #1
40100634:	e5823018 	str	r3, [r2, #24]
40100638:	e5920018 	ldr	r0, [r2, #24]
4010063c:	e2100001 	ands	r0, r0, #1
40100640:	1afffffc 	bne	40100638 <mem_twi_init+0x38>
40100644:	e12fff1e 	bx	lr
40100648:	40105f78 	andsmi	r5, r0, r8, ror pc
4010064c:	40105f88 	andsmi	r5, r0, r8, lsl #31

40100650 <_mem_twi_stop>:
40100650:	e59f308c 	ldr	r3, [pc, #140]	; 401006e4 <_mem_twi_stop+0x94>
40100654:	e30f22ff 	movw	r2, #62207	; 0xf2ff
40100658:	e5933000 	ldr	r3, [r3]
4010065c:	e593100c 	ldr	r1, [r3, #12]
40100660:	e20110c0 	and	r1, r1, #192	; 0xc0
40100664:	e3811010 	orr	r1, r1, #16
40100668:	e583100c 	str	r1, [r3, #12]
4010066c:	e593100c 	ldr	r1, [r3, #12]
40100670:	e593100c 	ldr	r1, [r3, #12]
40100674:	e3110010 	tst	r1, #16
40100678:	0a000002 	beq	40100688 <_mem_twi_stop+0x38>
4010067c:	e2522001 	subs	r2, r2, #1
40100680:	1afffffa 	bne	40100670 <_mem_twi_stop+0x20>
40100684:	ea000014 	b	401006dc <_mem_twi_stop+0x8c>
40100688:	e3520000 	cmp	r2, #0
4010068c:	0a000012 	beq	401006dc <_mem_twi_stop+0x8c>
40100690:	e30f22ff 	movw	r2, #62207	; 0xf2ff
40100694:	e5931010 	ldr	r1, [r3, #16]
40100698:	e35100f8 	cmp	r1, #248	; 0xf8
4010069c:	0a000002 	beq	401006ac <_mem_twi_stop+0x5c>
401006a0:	e2522001 	subs	r2, r2, #1
401006a4:	1afffffa 	bne	40100694 <_mem_twi_stop+0x44>
401006a8:	ea00000b 	b	401006dc <_mem_twi_stop+0x8c>
401006ac:	e3520000 	cmp	r2, #0
401006b0:	0a000009 	beq	401006dc <_mem_twi_stop+0x8c>
401006b4:	e30f22ff 	movw	r2, #62207	; 0xf2ff
401006b8:	e5931020 	ldr	r1, [r3, #32]
401006bc:	e351003a 	cmp	r1, #58	; 0x3a
401006c0:	0a000002 	beq	401006d0 <_mem_twi_stop+0x80>
401006c4:	e2522001 	subs	r2, r2, #1
401006c8:	1afffffa 	bne	401006b8 <_mem_twi_stop+0x68>
401006cc:	ea000002 	b	401006dc <_mem_twi_stop+0x8c>
401006d0:	e3520000 	cmp	r2, #0
401006d4:	13a00000 	movne	r0, #0
401006d8:	112fff1e 	bxne	lr
401006dc:	e3e00000 	mvn	r0, #0
401006e0:	e12fff1e 	bx	lr
401006e4:	40105f88 	andsmi	r5, r0, r8, lsl #31

401006e8 <setup_twi_env>:
401006e8:	e59f1040 	ldr	r1, [pc, #64]	; 40100730 <setup_twi_env+0x48>
401006ec:	e3a0c000 	mov	ip, #0
401006f0:	e59f003c 	ldr	r0, [pc, #60]	; 40100734 <setup_twi_env+0x4c>
401006f4:	e59f303c 	ldr	r3, [pc, #60]	; 40100738 <setup_twi_env+0x50>
401006f8:	e59f203c 	ldr	r2, [pc, #60]	; 4010073c <setup_twi_env+0x54>
401006fc:	e580c000 	str	ip, [r0]
40100700:	e5910000 	ldr	r0, [r1]
40100704:	e3800001 	orr	r0, r0, #1
40100708:	e5810000 	str	r0, [r1]
4010070c:	e59f002c 	ldr	r0, [pc, #44]	; 40100740 <setup_twi_env+0x58>
40100710:	e5931824 	ldr	r1, [r3, #2084]	; 0x824
40100714:	e580300c 	str	r3, [r0, #12]
40100718:	e3811022 	orr	r1, r1, #34	; 0x22
4010071c:	e5831824 	str	r1, [r3, #2084]	; 0x824
40100720:	e5923c0c 	ldr	r3, [r2, #3084]	; 0xc0c
40100724:	e3833040 	orr	r3, r3, #64	; 0x40
40100728:	e5823c0c 	str	r3, [r2, #3084]	; 0xc0c
4010072c:	e12fff1e 	bx	lr
40100730:	f1c2006c 	undefined instruction 0xf1c2006c
40100734:	f1c20058 	undefined instruction 0xf1c20058
40100738:	f1c20000 	undefined instruction 0xf1c20000
4010073c:	f1c2a000 	undefined instruction 0xf1c2a000
40100740:	40105f88 	andsmi	r5, r0, r8, lsl #31

40100744 <twi_byte_rw>:
40100744:	e59fc2c4 	ldr	ip, [pc, #708]	; 40100a10 <twi_byte_rw+0x2cc>
40100748:	e92d4010 	push	{r4, lr}
4010074c:	e59c4000 	ldr	r4, [ip]
40100750:	e3a0c000 	mov	ip, #0
40100754:	e584c01c 	str	ip, [r4, #28]
40100758:	e594c010 	ldr	ip, [r4, #16]
4010075c:	e6efc07c 	uxtb	ip, ip
40100760:	e35c00f8 	cmp	ip, #248	; 0xf8
40100764:	1a00007b 	bne	40100958 <twi_byte_rw+0x214>
40100768:	e594e00c 	ldr	lr, [r4, #12]
4010076c:	e30fc2ff 	movw	ip, #62207	; 0xf2ff
40100770:	e38ee020 	orr	lr, lr, #32
40100774:	e584e00c 	str	lr, [r4, #12]
40100778:	e594e00c 	ldr	lr, [r4, #12]
4010077c:	e31e0008 	tst	lr, #8
40100780:	1a000002 	bne	40100790 <twi_byte_rw+0x4c>
40100784:	e25cc001 	subs	ip, ip, #1
40100788:	1afffffa 	bne	40100778 <twi_byte_rw+0x34>
4010078c:	ea000071 	b	40100958 <twi_byte_rw+0x214>
40100790:	e35c0000 	cmp	ip, #0
40100794:	0a00006f 	beq	40100958 <twi_byte_rw+0x214>
40100798:	e594c010 	ldr	ip, [r4, #16]
4010079c:	e6efc07c 	uxtb	ip, ip
401007a0:	e35c0008 	cmp	ip, #8
401007a4:	1a00006b 	bne	40100958 <twi_byte_rw+0x214>
401007a8:	e1a01081 	lsl	r1, r1, #1
401007ac:	e30fc2ff 	movw	ip, #62207	; 0xf2ff
401007b0:	e5841008 	str	r1, [r4, #8]
401007b4:	e594e00c 	ldr	lr, [r4, #12]
401007b8:	e20ee0f7 	and	lr, lr, #247	; 0xf7
401007bc:	e584e00c 	str	lr, [r4, #12]
401007c0:	e594e00c 	ldr	lr, [r4, #12]
401007c4:	e31e0008 	tst	lr, #8
401007c8:	1a000002 	bne	401007d8 <twi_byte_rw+0x94>
401007cc:	e25cc001 	subs	ip, ip, #1
401007d0:	1afffffa 	bne	401007c0 <twi_byte_rw+0x7c>
401007d4:	ea00005f 	b	40100958 <twi_byte_rw+0x214>
401007d8:	e35c0000 	cmp	ip, #0
401007dc:	0a00005d 	beq	40100958 <twi_byte_rw+0x214>
401007e0:	e594c010 	ldr	ip, [r4, #16]
401007e4:	e6efc07c 	uxtb	ip, ip
401007e8:	e35c0018 	cmp	ip, #24
401007ec:	1a000059 	bne	40100958 <twi_byte_rw+0x214>
401007f0:	e5842008 	str	r2, [r4, #8]
401007f4:	e30f22ff 	movw	r2, #62207	; 0xf2ff
401007f8:	e594c00c 	ldr	ip, [r4, #12]
401007fc:	e20cc0f7 	and	ip, ip, #247	; 0xf7
40100800:	e584c00c 	str	ip, [r4, #12]
40100804:	e594c00c 	ldr	ip, [r4, #12]
40100808:	e31c0008 	tst	ip, #8
4010080c:	1a000002 	bne	4010081c <twi_byte_rw+0xd8>
40100810:	e2522001 	subs	r2, r2, #1
40100814:	1afffffa 	bne	40100804 <twi_byte_rw+0xc0>
40100818:	ea00004e 	b	40100958 <twi_byte_rw+0x214>
4010081c:	e3520000 	cmp	r2, #0
40100820:	0a00004c 	beq	40100958 <twi_byte_rw+0x214>
40100824:	e5942010 	ldr	r2, [r4, #16]
40100828:	e6ef2072 	uxtb	r2, r2
4010082c:	e3520028 	cmp	r2, #40	; 0x28
40100830:	1a000048 	bne	40100958 <twi_byte_rw+0x214>
40100834:	e3500001 	cmp	r0, #1
40100838:	1a000011 	bne	40100884 <twi_byte_rw+0x140>
4010083c:	e5d32000 	ldrb	r2, [r3]
40100840:	e30f32ff 	movw	r3, #62207	; 0xf2ff
40100844:	e5842008 	str	r2, [r4, #8]
40100848:	e594200c 	ldr	r2, [r4, #12]
4010084c:	e20220f7 	and	r2, r2, #247	; 0xf7
40100850:	e584200c 	str	r2, [r4, #12]
40100854:	e594200c 	ldr	r2, [r4, #12]
40100858:	e3120008 	tst	r2, #8
4010085c:	1a000002 	bne	4010086c <twi_byte_rw+0x128>
40100860:	e2533001 	subs	r3, r3, #1
40100864:	1afffffa 	bne	40100854 <twi_byte_rw+0x110>
40100868:	ea00003a 	b	40100958 <twi_byte_rw+0x214>
4010086c:	e3530000 	cmp	r3, #0
40100870:	0a000038 	beq	40100958 <twi_byte_rw+0x214>
40100874:	e5943010 	ldr	r3, [r4, #16]
40100878:	e6ef3073 	uxtb	r3, r3
4010087c:	e3530028 	cmp	r3, #40	; 0x28
40100880:	ea000033 	b	40100954 <twi_byte_rw+0x210>
40100884:	e594000c 	ldr	r0, [r4, #12]
40100888:	e30f22ff 	movw	r2, #62207	; 0xf2ff
4010088c:	e20000c0 	and	r0, r0, #192	; 0xc0
40100890:	e3800020 	orr	r0, r0, #32
40100894:	e584000c 	str	r0, [r4, #12]
40100898:	e594000c 	ldr	r0, [r4, #12]
4010089c:	e3100008 	tst	r0, #8
401008a0:	1a000002 	bne	401008b0 <twi_byte_rw+0x16c>
401008a4:	e2522001 	subs	r2, r2, #1
401008a8:	1afffffa 	bne	40100898 <twi_byte_rw+0x154>
401008ac:	ea000029 	b	40100958 <twi_byte_rw+0x214>
401008b0:	e3520000 	cmp	r2, #0
401008b4:	0a000027 	beq	40100958 <twi_byte_rw+0x214>
401008b8:	e5942010 	ldr	r2, [r4, #16]
401008bc:	e6ef2072 	uxtb	r2, r2
401008c0:	e3520010 	cmp	r2, #16
401008c4:	1a000023 	bne	40100958 <twi_byte_rw+0x214>
401008c8:	e3811001 	orr	r1, r1, #1
401008cc:	e30f22ff 	movw	r2, #62207	; 0xf2ff
401008d0:	e5841008 	str	r1, [r4, #8]
401008d4:	e594100c 	ldr	r1, [r4, #12]
401008d8:	e20110f7 	and	r1, r1, #247	; 0xf7
401008dc:	e584100c 	str	r1, [r4, #12]
401008e0:	e594100c 	ldr	r1, [r4, #12]
401008e4:	e3110008 	tst	r1, #8
401008e8:	1a000002 	bne	401008f8 <twi_byte_rw+0x1b4>
401008ec:	e2522001 	subs	r2, r2, #1
401008f0:	1afffffa 	bne	401008e0 <twi_byte_rw+0x19c>
401008f4:	ea000017 	b	40100958 <twi_byte_rw+0x214>
401008f8:	e3520000 	cmp	r2, #0
401008fc:	0a000015 	beq	40100958 <twi_byte_rw+0x214>
40100900:	e5942010 	ldr	r2, [r4, #16]
40100904:	e6ef2072 	uxtb	r2, r2
40100908:	e3520040 	cmp	r2, #64	; 0x40
4010090c:	1a000011 	bne	40100958 <twi_byte_rw+0x214>
40100910:	e594100c 	ldr	r1, [r4, #12]
40100914:	e30f22ff 	movw	r2, #62207	; 0xf2ff
40100918:	e20110f7 	and	r1, r1, #247	; 0xf7
4010091c:	e584100c 	str	r1, [r4, #12]
40100920:	e594100c 	ldr	r1, [r4, #12]
40100924:	e3110008 	tst	r1, #8
40100928:	1a000002 	bne	40100938 <twi_byte_rw+0x1f4>
4010092c:	e2522001 	subs	r2, r2, #1
40100930:	1afffffa 	bne	40100920 <twi_byte_rw+0x1dc>
40100934:	ea000007 	b	40100958 <twi_byte_rw+0x214>
40100938:	e3520000 	cmp	r2, #0
4010093c:	0a000005 	beq	40100958 <twi_byte_rw+0x214>
40100940:	e5942008 	ldr	r2, [r4, #8]
40100944:	e5c32000 	strb	r2, [r3]
40100948:	e5943010 	ldr	r3, [r4, #16]
4010094c:	e6ef3073 	uxtb	r3, r3
40100950:	e3530058 	cmp	r3, #88	; 0x58
40100954:	0a000029 	beq	40100a00 <twi_byte_rw+0x2bc>
40100958:	e59f30b4 	ldr	r3, [pc, #180]	; 40100a14 <twi_byte_rw+0x2d0>
4010095c:	e59f00b4 	ldr	r0, [pc, #180]	; 40100a18 <twi_byte_rw+0x2d4>
40100960:	e59f10a8 	ldr	r1, [pc, #168]	; 40100a10 <twi_byte_rw+0x2cc>
40100964:	e5932000 	ldr	r2, [r3]
40100968:	e3c22001 	bic	r2, r2, #1
4010096c:	e5832000 	str	r2, [r3]
40100970:	e5932000 	ldr	r2, [r3]
40100974:	e581000c 	str	r0, [r1, #12]
40100978:	e3822001 	orr	r2, r2, #1
4010097c:	e5832000 	str	r2, [r3]
40100980:	e3a03028 	mov	r3, #40	; 0x28
40100984:	e5843014 	str	r3, [r4, #20]
40100988:	e5943018 	ldr	r3, [r4, #24]
4010098c:	e3833001 	orr	r3, r3, #1
40100990:	e5843018 	str	r3, [r4, #24]
40100994:	e5943018 	ldr	r3, [r4, #24]
40100998:	e3130001 	tst	r3, #1
4010099c:	1afffffc 	bne	40100994 <twi_byte_rw+0x250>
401009a0:	e3e04000 	mvn	r4, #0
401009a4:	ea000012 	b	401009f4 <twi_byte_rw+0x2b0>
401009a8:	e59f3064 	ldr	r3, [pc, #100]	; 40100a14 <twi_byte_rw+0x2d0>
401009ac:	e59f0064 	ldr	r0, [pc, #100]	; 40100a18 <twi_byte_rw+0x2d4>
401009b0:	e59f1058 	ldr	r1, [pc, #88]	; 40100a10 <twi_byte_rw+0x2cc>
401009b4:	e5932000 	ldr	r2, [r3]
401009b8:	e3c22001 	bic	r2, r2, #1
401009bc:	e5832000 	str	r2, [r3]
401009c0:	e5932000 	ldr	r2, [r3]
401009c4:	e581000c 	str	r0, [r1, #12]
401009c8:	e3822001 	orr	r2, r2, #1
401009cc:	e5832000 	str	r2, [r3]
401009d0:	e3a03028 	mov	r3, #40	; 0x28
401009d4:	e5843014 	str	r3, [r4, #20]
401009d8:	e5943018 	ldr	r3, [r4, #24]
401009dc:	e3833001 	orr	r3, r3, #1
401009e0:	e5843018 	str	r3, [r4, #24]
401009e4:	e5943018 	ldr	r3, [r4, #24]
401009e8:	e3130001 	tst	r3, #1
401009ec:	1afffffc 	bne	401009e4 <twi_byte_rw+0x2a0>
401009f0:	e3a04000 	mov	r4, #0
401009f4:	ebffff15 	bl	40100650 <_mem_twi_stop>
401009f8:	e1a00004 	mov	r0, r4
401009fc:	e8bd8010 	pop	{r4, pc}
40100a00:	ebffff12 	bl	40100650 <_mem_twi_stop>
40100a04:	e3500000 	cmp	r0, #0
40100a08:	1affffe6 	bne	401009a8 <twi_byte_rw+0x264>
40100a0c:	eafffff7 	b	401009f0 <twi_byte_rw+0x2ac>
40100a10:	40105f88 	andsmi	r5, r0, r8, lsl #31
40100a14:	f1c2006c 	undefined instruction 0xf1c2006c
40100a18:	f1c20000 	undefined instruction 0xf1c20000

40100a1c <twi_byte_rw_nommu>:
40100a1c:	e59fc308 	ldr	ip, [pc, #776]	; 40100d2c <twi_byte_rw_nommu+0x310>
40100a20:	e92d4070 	push	{r4, r5, r6, lr}
40100a24:	e3a04000 	mov	r4, #0
40100a28:	e58c401c 	str	r4, [ip, #28]
40100a2c:	e59c4010 	ldr	r4, [ip, #16]
40100a30:	e59f52f8 	ldr	r5, [pc, #760]	; 40100d30 <twi_byte_rw_nommu+0x314>
40100a34:	e6ef4074 	uxtb	r4, r4
40100a38:	e35400f8 	cmp	r4, #248	; 0xf8
40100a3c:	e585c000 	str	ip, [r5]
40100a40:	1a000089 	bne	40100c6c <twi_byte_rw_nommu+0x250>
40100a44:	e59c500c 	ldr	r5, [ip, #12]
40100a48:	e1a0600c 	mov	r6, ip
40100a4c:	e30f42ff 	movw	r4, #62207	; 0xf2ff
40100a50:	e3855020 	orr	r5, r5, #32
40100a54:	e58c500c 	str	r5, [ip, #12]
40100a58:	e596500c 	ldr	r5, [r6, #12]
40100a5c:	e59fc2c8 	ldr	ip, [pc, #712]	; 40100d2c <twi_byte_rw_nommu+0x310>
40100a60:	e3150008 	tst	r5, #8
40100a64:	1a000002 	bne	40100a74 <twi_byte_rw_nommu+0x58>
40100a68:	e2544001 	subs	r4, r4, #1
40100a6c:	1afffff9 	bne	40100a58 <twi_byte_rw_nommu+0x3c>
40100a70:	ea00007d 	b	40100c6c <twi_byte_rw_nommu+0x250>
40100a74:	e3540000 	cmp	r4, #0
40100a78:	0a00007b 	beq	40100c6c <twi_byte_rw_nommu+0x250>
40100a7c:	e59c4010 	ldr	r4, [ip, #16]
40100a80:	e6ef4074 	uxtb	r4, r4
40100a84:	e3540008 	cmp	r4, #8
40100a88:	1a000077 	bne	40100c6c <twi_byte_rw_nommu+0x250>
40100a8c:	e1a01081 	lsl	r1, r1, #1
40100a90:	e1a0600c 	mov	r6, ip
40100a94:	e58c1008 	str	r1, [ip, #8]
40100a98:	e30f42ff 	movw	r4, #62207	; 0xf2ff
40100a9c:	e59c500c 	ldr	r5, [ip, #12]
40100aa0:	e20550f7 	and	r5, r5, #247	; 0xf7
40100aa4:	e58c500c 	str	r5, [ip, #12]
40100aa8:	e596500c 	ldr	r5, [r6, #12]
40100aac:	e59fc278 	ldr	ip, [pc, #632]	; 40100d2c <twi_byte_rw_nommu+0x310>
40100ab0:	e3150008 	tst	r5, #8
40100ab4:	1a000002 	bne	40100ac4 <twi_byte_rw_nommu+0xa8>
40100ab8:	e2544001 	subs	r4, r4, #1
40100abc:	1afffff9 	bne	40100aa8 <twi_byte_rw_nommu+0x8c>
40100ac0:	ea000069 	b	40100c6c <twi_byte_rw_nommu+0x250>
40100ac4:	e3540000 	cmp	r4, #0
40100ac8:	0a000067 	beq	40100c6c <twi_byte_rw_nommu+0x250>
40100acc:	e59c4010 	ldr	r4, [ip, #16]
40100ad0:	e6ef4074 	uxtb	r4, r4
40100ad4:	e3540018 	cmp	r4, #24
40100ad8:	1a000063 	bne	40100c6c <twi_byte_rw_nommu+0x250>
40100adc:	e58c2008 	str	r2, [ip, #8]
40100ae0:	e1a0500c 	mov	r5, ip
40100ae4:	e59c200c 	ldr	r2, [ip, #12]
40100ae8:	e30f42ff 	movw	r4, #62207	; 0xf2ff
40100aec:	e20220f7 	and	r2, r2, #247	; 0xf7
40100af0:	e58c200c 	str	r2, [ip, #12]
40100af4:	e595c00c 	ldr	ip, [r5, #12]
40100af8:	e59f222c 	ldr	r2, [pc, #556]	; 40100d2c <twi_byte_rw_nommu+0x310>
40100afc:	e31c0008 	tst	ip, #8
40100b00:	1a000002 	bne	40100b10 <twi_byte_rw_nommu+0xf4>
40100b04:	e2544001 	subs	r4, r4, #1
40100b08:	1afffff9 	bne	40100af4 <twi_byte_rw_nommu+0xd8>
40100b0c:	ea000056 	b	40100c6c <twi_byte_rw_nommu+0x250>
40100b10:	e3540000 	cmp	r4, #0
40100b14:	0a000054 	beq	40100c6c <twi_byte_rw_nommu+0x250>
40100b18:	e592c010 	ldr	ip, [r2, #16]
40100b1c:	e6efc07c 	uxtb	ip, ip
40100b20:	e35c0028 	cmp	ip, #40	; 0x28
40100b24:	1a000050 	bne	40100c6c <twi_byte_rw_nommu+0x250>
40100b28:	e3500001 	cmp	r0, #1
40100b2c:	1a000013 	bne	40100b80 <twi_byte_rw_nommu+0x164>
40100b30:	e5d31000 	ldrb	r1, [r3]
40100b34:	e1a00002 	mov	r0, r2
40100b38:	e30f32ff 	movw	r3, #62207	; 0xf2ff
40100b3c:	e5821008 	str	r1, [r2, #8]
40100b40:	e592100c 	ldr	r1, [r2, #12]
40100b44:	e20110f7 	and	r1, r1, #247	; 0xf7
40100b48:	e582100c 	str	r1, [r2, #12]
40100b4c:	e590200c 	ldr	r2, [r0, #12]
40100b50:	e3120008 	tst	r2, #8
40100b54:	1a000002 	bne	40100b64 <twi_byte_rw_nommu+0x148>
40100b58:	e2533001 	subs	r3, r3, #1
40100b5c:	1afffffa 	bne	40100b4c <twi_byte_rw_nommu+0x130>
40100b60:	ea000041 	b	40100c6c <twi_byte_rw_nommu+0x250>
40100b64:	e3530000 	cmp	r3, #0
40100b68:	0a00003f 	beq	40100c6c <twi_byte_rw_nommu+0x250>
40100b6c:	e59f31b8 	ldr	r3, [pc, #440]	; 40100d2c <twi_byte_rw_nommu+0x310>
40100b70:	e5933010 	ldr	r3, [r3, #16]
40100b74:	e6ef3073 	uxtb	r3, r3
40100b78:	e3530028 	cmp	r3, #40	; 0x28
40100b7c:	ea000039 	b	40100c68 <twi_byte_rw_nommu+0x24c>
40100b80:	e592c00c 	ldr	ip, [r2, #12]
40100b84:	e1a04002 	mov	r4, r2
40100b88:	e30f02ff 	movw	r0, #62207	; 0xf2ff
40100b8c:	e20cc0c0 	and	ip, ip, #192	; 0xc0
40100b90:	e38cc020 	orr	ip, ip, #32
40100b94:	e582c00c 	str	ip, [r2, #12]
40100b98:	e594c00c 	ldr	ip, [r4, #12]
40100b9c:	e59f2188 	ldr	r2, [pc, #392]	; 40100d2c <twi_byte_rw_nommu+0x310>
40100ba0:	e31c0008 	tst	ip, #8
40100ba4:	1a000002 	bne	40100bb4 <twi_byte_rw_nommu+0x198>
40100ba8:	e2500001 	subs	r0, r0, #1
40100bac:	1afffff9 	bne	40100b98 <twi_byte_rw_nommu+0x17c>
40100bb0:	ea00002d 	b	40100c6c <twi_byte_rw_nommu+0x250>
40100bb4:	e3500000 	cmp	r0, #0
40100bb8:	0a00002b 	beq	40100c6c <twi_byte_rw_nommu+0x250>
40100bbc:	e5920010 	ldr	r0, [r2, #16]
40100bc0:	e6ef0070 	uxtb	r0, r0
40100bc4:	e3500010 	cmp	r0, #16
40100bc8:	1a000027 	bne	40100c6c <twi_byte_rw_nommu+0x250>
40100bcc:	e3811001 	orr	r1, r1, #1
40100bd0:	e1a0c002 	mov	ip, r2
40100bd4:	e5821008 	str	r1, [r2, #8]
40100bd8:	e30f02ff 	movw	r0, #62207	; 0xf2ff
40100bdc:	e592100c 	ldr	r1, [r2, #12]
40100be0:	e20110f7 	and	r1, r1, #247	; 0xf7
40100be4:	e582100c 	str	r1, [r2, #12]
40100be8:	e59c200c 	ldr	r2, [ip, #12]
40100bec:	e59f1138 	ldr	r1, [pc, #312]	; 40100d2c <twi_byte_rw_nommu+0x310>
40100bf0:	e3120008 	tst	r2, #8
40100bf4:	1a000002 	bne	40100c04 <twi_byte_rw_nommu+0x1e8>
40100bf8:	e2500001 	subs	r0, r0, #1
40100bfc:	1afffff9 	bne	40100be8 <twi_byte_rw_nommu+0x1cc>
40100c00:	ea000019 	b	40100c6c <twi_byte_rw_nommu+0x250>
40100c04:	e3500000 	cmp	r0, #0
40100c08:	0a000017 	beq	40100c6c <twi_byte_rw_nommu+0x250>
40100c0c:	e5912010 	ldr	r2, [r1, #16]
40100c10:	e6ef2072 	uxtb	r2, r2
40100c14:	e3520040 	cmp	r2, #64	; 0x40
40100c18:	1a000013 	bne	40100c6c <twi_byte_rw_nommu+0x250>
40100c1c:	e591000c 	ldr	r0, [r1, #12]
40100c20:	e1a0c001 	mov	ip, r1
40100c24:	e30f22ff 	movw	r2, #62207	; 0xf2ff
40100c28:	e20000f7 	and	r0, r0, #247	; 0xf7
40100c2c:	e581000c 	str	r0, [r1, #12]
40100c30:	e59c000c 	ldr	r0, [ip, #12]
40100c34:	e59f10f0 	ldr	r1, [pc, #240]	; 40100d2c <twi_byte_rw_nommu+0x310>
40100c38:	e3100008 	tst	r0, #8
40100c3c:	1a000002 	bne	40100c4c <twi_byte_rw_nommu+0x230>
40100c40:	e2522001 	subs	r2, r2, #1
40100c44:	1afffff9 	bne	40100c30 <twi_byte_rw_nommu+0x214>
40100c48:	ea000007 	b	40100c6c <twi_byte_rw_nommu+0x250>
40100c4c:	e3520000 	cmp	r2, #0
40100c50:	0a000005 	beq	40100c6c <twi_byte_rw_nommu+0x250>
40100c54:	e5912008 	ldr	r2, [r1, #8]
40100c58:	e5c32000 	strb	r2, [r3]
40100c5c:	e5913010 	ldr	r3, [r1, #16]
40100c60:	e6ef3073 	uxtb	r3, r3
40100c64:	e3530058 	cmp	r3, #88	; 0x58
40100c68:	0a00002b 	beq	40100d1c <twi_byte_rw_nommu+0x300>
40100c6c:	e59f20c0 	ldr	r2, [pc, #192]	; 40100d34 <twi_byte_rw_nommu+0x318>
40100c70:	e59f30b4 	ldr	r3, [pc, #180]	; 40100d2c <twi_byte_rw_nommu+0x310>
40100c74:	e59fc0bc 	ldr	ip, [pc, #188]	; 40100d38 <twi_byte_rw_nommu+0x31c>
40100c78:	e5921000 	ldr	r1, [r2]
40100c7c:	e1a04003 	mov	r4, r3
40100c80:	e59f00a8 	ldr	r0, [pc, #168]	; 40100d30 <twi_byte_rw_nommu+0x314>
40100c84:	e3c11001 	bic	r1, r1, #1
40100c88:	e5821000 	str	r1, [r2]
40100c8c:	e5921000 	ldr	r1, [r2]
40100c90:	e580c00c 	str	ip, [r0, #12]
40100c94:	e3811001 	orr	r1, r1, #1
40100c98:	e5821000 	str	r1, [r2]
40100c9c:	e3a02028 	mov	r2, #40	; 0x28
40100ca0:	e5832014 	str	r2, [r3, #20]
40100ca4:	e5932018 	ldr	r2, [r3, #24]
40100ca8:	e3822001 	orr	r2, r2, #1
40100cac:	e5832018 	str	r2, [r3, #24]
40100cb0:	e5943018 	ldr	r3, [r4, #24]
40100cb4:	e3130001 	tst	r3, #1
40100cb8:	1afffffc 	bne	40100cb0 <twi_byte_rw_nommu+0x294>
40100cbc:	e3e00000 	mvn	r0, #0
40100cc0:	e8bd8070 	pop	{r4, r5, r6, pc}
40100cc4:	e59f2068 	ldr	r2, [pc, #104]	; 40100d34 <twi_byte_rw_nommu+0x318>
40100cc8:	e59f305c 	ldr	r3, [pc, #92]	; 40100d2c <twi_byte_rw_nommu+0x310>
40100ccc:	e59fc064 	ldr	ip, [pc, #100]	; 40100d38 <twi_byte_rw_nommu+0x31c>
40100cd0:	e5921000 	ldr	r1, [r2]
40100cd4:	e1a04003 	mov	r4, r3
40100cd8:	e59f0050 	ldr	r0, [pc, #80]	; 40100d30 <twi_byte_rw_nommu+0x314>
40100cdc:	e3c11001 	bic	r1, r1, #1
40100ce0:	e5821000 	str	r1, [r2]
40100ce4:	e5921000 	ldr	r1, [r2]
40100ce8:	e580c00c 	str	ip, [r0, #12]
40100cec:	e3811001 	orr	r1, r1, #1
40100cf0:	e5821000 	str	r1, [r2]
40100cf4:	e3a02028 	mov	r2, #40	; 0x28
40100cf8:	e5832014 	str	r2, [r3, #20]
40100cfc:	e5932018 	ldr	r2, [r3, #24]
40100d00:	e3822001 	orr	r2, r2, #1
40100d04:	e5832018 	str	r2, [r3, #24]
40100d08:	e5943018 	ldr	r3, [r4, #24]
40100d0c:	e3130001 	tst	r3, #1
40100d10:	1afffffc 	bne	40100d08 <twi_byte_rw_nommu+0x2ec>
40100d14:	e3a00000 	mov	r0, #0
40100d18:	e8bd8070 	pop	{r4, r5, r6, pc}
40100d1c:	ebfffe4b 	bl	40100650 <_mem_twi_stop>
40100d20:	e3500000 	cmp	r0, #0
40100d24:	1affffe6 	bne	40100cc4 <twi_byte_rw_nommu+0x2a8>
40100d28:	eafffff9 	b	40100d14 <twi_byte_rw_nommu+0x2f8>
40100d2c:	01c2ac00 	biceq	sl, r2, r0, lsl #24
40100d30:	40105f88 	andsmi	r5, r0, r8, lsl #31
40100d34:	01c2006c 	biceq	r0, r2, ip, rrx
40100d38:	01c20000 	biceq	r0, r2, r0

40100d3c <mem_twi_exit>:
40100d3c:	e92d4010 	push	{r4, lr}
40100d40:	e59f4040 	ldr	r4, [pc, #64]	; 40100d88 <mem_twi_exit+0x4c>
40100d44:	e3a00001 	mov	r0, #1
40100d48:	e5943000 	ldr	r3, [r4]
40100d4c:	e5932018 	ldr	r2, [r3, #24]
40100d50:	e1822000 	orr	r2, r2, r0
40100d54:	e5832018 	str	r2, [r3, #24]
40100d58:	eb00111d 	bl	401051d4 <change_runtime_env>
40100d5c:	e3a0000a 	mov	r0, #10
40100d60:	eb001185 	bl	4010537c <delay_ms>
40100d64:	e5943000 	ldr	r3, [r4]
40100d68:	e5941004 	ldr	r1, [r4, #4]
40100d6c:	e3a00000 	mov	r0, #0
40100d70:	e5942008 	ldr	r2, [r4, #8]
40100d74:	e5831014 	str	r1, [r3, #20]
40100d78:	e593100c 	ldr	r1, [r3, #12]
40100d7c:	e1812002 	orr	r2, r1, r2
40100d80:	e583200c 	str	r2, [r3, #12]
40100d84:	e8bd8010 	pop	{r4, pc}
40100d88:	40105f88 	andsmi	r5, r0, r8, lsl #31

40100d8c <mem_delay>:
40100d8c:	e92d000f 	push	{r0, r1, r2, r3}
40100d90:	e3a01011 	mov	r1, #17
40100d94:	e1a03000 	mov	r3, r0

40100d98 <loop2>:
40100d98:	e2500001 	subs	r0, r0, #1
40100d9c:	8afffffd 	bhi	40100d98 <loop2>
40100da0:	e1a00003 	mov	r0, r3
40100da4:	e2511001 	subs	r1, r1, #1
40100da8:	8afffffa 	bhi	40100d98 <loop2>
40100dac:	e8bd000f 	pop	{r0, r1, r2, r3}
40100db0:	e1a0f00e 	mov	pc, lr

40100db4 <mem_clk_init>:
40100db4:	e59f200c 	ldr	r2, [pc, #12]	; 40100dc8 <mem_clk_init+0x14>
40100db8:	e3a00000 	mov	r0, #0
40100dbc:	e59f3008 	ldr	r3, [pc, #8]	; 40100dcc <mem_clk_init+0x18>
40100dc0:	e5832000 	str	r2, [r3]
40100dc4:	e12fff1e 	bx	lr
40100dc8:	f1c20000 	undefined instruction 0xf1c20000
40100dcc:	40105f98 	mulsmi	r0, r8, pc

40100dd0 <mem_clk_plldisable>:
40100dd0:	e59f3050 	ldr	r3, [pc, #80]	; 40100e28 <mem_clk_plldisable+0x58>
40100dd4:	e3a00000 	mov	r0, #0
40100dd8:	e5933000 	ldr	r3, [r3]
40100ddc:	e5932000 	ldr	r2, [r3]
40100de0:	e7df2f9f 	bfc	r2, #31, #1
40100de4:	e5832000 	str	r2, [r3]
40100de8:	e5932008 	ldr	r2, [r3, #8]
40100dec:	e7df2f9f 	bfc	r2, #31, #1
40100df0:	e5832008 	str	r2, [r3, #8]
40100df4:	e5932010 	ldr	r2, [r3, #16]
40100df8:	e7df2f9f 	bfc	r2, #31, #1
40100dfc:	e5832010 	str	r2, [r3, #16]
40100e00:	e5932018 	ldr	r2, [r3, #24]
40100e04:	e7df2f9f 	bfc	r2, #31, #1
40100e08:	e5832018 	str	r2, [r3, #24]
40100e0c:	e5932028 	ldr	r2, [r3, #40]	; 0x28
40100e10:	e7df2f9f 	bfc	r2, #31, #1
40100e14:	e5832028 	str	r2, [r3, #40]	; 0x28
40100e18:	e5932030 	ldr	r2, [r3, #48]	; 0x30
40100e1c:	e7df2f9f 	bfc	r2, #31, #1
40100e20:	e5832030 	str	r2, [r3, #48]	; 0x30
40100e24:	e12fff1e 	bx	lr
40100e28:	40105f98 	mulsmi	r0, r8, pc

40100e2c <mem_clk_pllenable>:
40100e2c:	e59f3050 	ldr	r3, [pc, #80]	; 40100e84 <mem_clk_pllenable+0x58>
40100e30:	e3a00000 	mov	r0, #0
40100e34:	e5933000 	ldr	r3, [r3]
40100e38:	e5932000 	ldr	r2, [r3]
40100e3c:	e3822102 	orr	r2, r2, #-2147483648	; 0x80000000
40100e40:	e5832000 	str	r2, [r3]
40100e44:	e5932008 	ldr	r2, [r3, #8]
40100e48:	e3822102 	orr	r2, r2, #-2147483648	; 0x80000000
40100e4c:	e5832008 	str	r2, [r3, #8]
40100e50:	e5932010 	ldr	r2, [r3, #16]
40100e54:	e3822102 	orr	r2, r2, #-2147483648	; 0x80000000
40100e58:	e5832010 	str	r2, [r3, #16]
40100e5c:	e5932018 	ldr	r2, [r3, #24]
40100e60:	e3822102 	orr	r2, r2, #-2147483648	; 0x80000000
40100e64:	e5832018 	str	r2, [r3, #24]
40100e68:	e5932028 	ldr	r2, [r3, #40]	; 0x28
40100e6c:	e3822102 	orr	r2, r2, #-2147483648	; 0x80000000
40100e70:	e5832028 	str	r2, [r3, #40]	; 0x28
40100e74:	e5932030 	ldr	r2, [r3, #48]	; 0x30
40100e78:	e3822102 	orr	r2, r2, #-2147483648	; 0x80000000
40100e7c:	e5832030 	str	r2, [r3, #48]	; 0x30
40100e80:	e12fff1e 	bx	lr
40100e84:	40105f98 	mulsmi	r0, r8, pc

40100e88 <mem_clk_setdiv>:
40100e88:	e2502000 	subs	r2, r0, #0
40100e8c:	03e00000 	mvneq	r0, #0
40100e90:	012fff1e 	bxeq	lr
40100e94:	e59f3048 	ldr	r3, [pc, #72]	; 40100ee4 <mem_clk_setdiv+0x5c>
40100e98:	e3a00000 	mov	r0, #0
40100e9c:	e59fc044 	ldr	ip, [pc, #68]	; 40100ee8 <mem_clk_setdiv+0x60>
40100ea0:	e5931054 	ldr	r1, [r3, #84]	; 0x54
40100ea4:	e58c3000 	str	r3, [ip]
40100ea8:	e592c000 	ldr	ip, [r2]
40100eac:	e7e1c25c 	ubfx	ip, ip, #4, #2
40100eb0:	e7c1101c 	bfi	r1, ip, #0, #2
40100eb4:	e5831054 	str	r1, [r3, #84]	; 0x54
40100eb8:	e592c000 	ldr	ip, [r2]
40100ebc:	e5931054 	ldr	r1, [r3, #84]	; 0x54
40100ec0:	e7e1c45c 	ubfx	ip, ip, #8, #2
40100ec4:	e7c5121c 	bfi	r1, ip, #4, #2
40100ec8:	e5831054 	str	r1, [r3, #84]	; 0x54
40100ecc:	e5921000 	ldr	r1, [r2]
40100ed0:	e5932054 	ldr	r2, [r3, #84]	; 0x54
40100ed4:	e7e11651 	ubfx	r1, r1, #12, #2
40100ed8:	e7c92411 	bfi	r2, r1, #8, #2
40100edc:	e5832054 	str	r2, [r3, #84]	; 0x54
40100ee0:	e12fff1e 	bx	lr
40100ee4:	f1c20000 	undefined instruction 0xf1c20000
40100ee8:	40105f98 	mulsmi	r0, r8, pc

40100eec <mem_clk_getdiv>:
40100eec:	e2503000 	subs	r3, r0, #0
40100ef0:	03e00000 	mvneq	r0, #0
40100ef4:	012fff1e 	bxeq	lr
40100ef8:	e59f2040 	ldr	r2, [pc, #64]	; 40100f40 <mem_clk_getdiv+0x54>
40100efc:	e3a00000 	mov	r0, #0
40100f00:	e59f103c 	ldr	r1, [pc, #60]	; 40100f44 <mem_clk_getdiv+0x58>
40100f04:	e592c054 	ldr	ip, [r2, #84]	; 0x54
40100f08:	e5812000 	str	r2, [r1]
40100f0c:	e5931000 	ldr	r1, [r3]
40100f10:	e20cc003 	and	ip, ip, #3
40100f14:	e7c7121c 	bfi	r1, ip, #4, #4
40100f18:	e5831000 	str	r1, [r3]
40100f1c:	e592c054 	ldr	ip, [r2, #84]	; 0x54
40100f20:	e7e1c25c 	ubfx	ip, ip, #4, #2
40100f24:	e7cb141c 	bfi	r1, ip, #8, #4
40100f28:	e5831000 	str	r1, [r3]
40100f2c:	e5922054 	ldr	r2, [r2, #84]	; 0x54
40100f30:	e7e12452 	ubfx	r2, r2, #8, #2
40100f34:	e7cf1612 	bfi	r1, r2, #12, #4
40100f38:	e5831000 	str	r1, [r3]
40100f3c:	e12fff1e 	bx	lr
40100f40:	f1c20000 	undefined instruction 0xf1c20000
40100f44:	40105f98 	mulsmi	r0, r8, pc

40100f48 <mem_clk_set_pll_factor>:
40100f48:	e59f3050 	ldr	r3, [pc, #80]	; 40100fa0 <mem_clk_set_pll_factor+0x58>
40100f4c:	e1a02000 	mov	r2, r0
40100f50:	e59fc04c 	ldr	ip, [pc, #76]	; 40100fa4 <mem_clk_set_pll_factor+0x5c>
40100f54:	e3a00000 	mov	r0, #0
40100f58:	e5931000 	ldr	r1, [r3]
40100f5c:	e58c3000 	str	r3, [ip]
40100f60:	e5d2c000 	ldrb	ip, [r2]
40100f64:	e7cc141c 	bfi	r1, ip, #8, #5
40100f68:	e5831000 	str	r1, [r3]
40100f6c:	e5931000 	ldr	r1, [r3]
40100f70:	e5d2c001 	ldrb	ip, [r2, #1]
40100f74:	e7c5121c 	bfi	r1, ip, #4, #2
40100f78:	e5831000 	str	r1, [r3]
40100f7c:	e5931000 	ldr	r1, [r3]
40100f80:	e5d2c002 	ldrb	ip, [r2, #2]
40100f84:	e7c1101c 	bfi	r1, ip, #0, #2
40100f88:	e5831000 	str	r1, [r3]
40100f8c:	e5d21003 	ldrb	r1, [r2, #3]
40100f90:	e5932000 	ldr	r2, [r3]
40100f94:	e7d12811 	bfi	r2, r1, #16, #2
40100f98:	e5832000 	str	r2, [r3]
40100f9c:	e12fff1e 	bx	lr
40100fa0:	f1c20000 	undefined instruction 0xf1c20000
40100fa4:	40105f98 	mulsmi	r0, r8, pc

40100fa8 <mem_clk_get_pll_factor>:
40100fa8:	e59f3040 	ldr	r3, [pc, #64]	; 40100ff0 <mem_clk_get_pll_factor+0x48>
40100fac:	e1a02000 	mov	r2, r0
40100fb0:	e59fc03c 	ldr	ip, [pc, #60]	; 40100ff4 <mem_clk_get_pll_factor+0x4c>
40100fb4:	e3a00000 	mov	r0, #0
40100fb8:	e5931000 	ldr	r1, [r3]
40100fbc:	e58c3000 	str	r3, [ip]
40100fc0:	e7e41451 	ubfx	r1, r1, #8, #5
40100fc4:	e5c21000 	strb	r1, [r2]
40100fc8:	e5931000 	ldr	r1, [r3]
40100fcc:	e7e11251 	ubfx	r1, r1, #4, #2
40100fd0:	e5c21001 	strb	r1, [r2, #1]
40100fd4:	e5931000 	ldr	r1, [r3]
40100fd8:	e2011003 	and	r1, r1, #3
40100fdc:	e5c21002 	strb	r1, [r2, #2]
40100fe0:	e5933000 	ldr	r3, [r3]
40100fe4:	e7e13853 	ubfx	r3, r3, #16, #2
40100fe8:	e5c23003 	strb	r3, [r2, #3]
40100fec:	e12fff1e 	bx	lr
40100ff0:	f1c20000 	undefined instruction 0xf1c20000
40100ff4:	40105f98 	mulsmi	r0, r8, pc

40100ff8 <mem_clk_dramgating>:
40100ff8:	e59f3024 	ldr	r3, [pc, #36]	; 40101024 <mem_clk_dramgating+0x2c>
40100ffc:	e3500000 	cmp	r0, #0
40101000:	15932000 	ldrne	r2, [r3]
40101004:	05933000 	ldreq	r3, [r3]
40101008:	15923020 	ldrne	r3, [r2, #32]
4010100c:	05932020 	ldreq	r2, [r3, #32]
40101010:	13833202 	orrne	r3, r3, #536870912	; 0x20000000
40101014:	07dd2e90 	bfieq	r2, r0, #29, #1
40101018:	15823020 	strne	r3, [r2, #32]
4010101c:	05832020 	streq	r2, [r3, #32]
40101020:	e12fff1e 	bx	lr
40101024:	40105f98 	mulsmi	r0, r8, pc
	...

40101030 <resume1_bin_start>:
40101030:	e59f31c0 	ldr	r3, [pc, #448]	; 401011f8 <resume1_bin_start+0x1c8>
40101034:	e3a01000 	mov	r1, #0
40101038:	e59f21bc 	ldr	r2, [pc, #444]	; 401011fc <resume1_bin_start+0x1cc>
4010103c:	e92d4070 	push	{r4, r5, r6, lr}
40101040:	e5933000 	ldr	r3, [r3]
40101044:	e4c31001 	strb	r1, [r3], #1
40101048:	e1530002 	cmp	r3, r2
4010104c:	9afffffc 	bls	40101044 <resume1_bin_start+0x14>
40101050:	e59f21a0 	ldr	r2, [pc, #416]	; 401011f8 <resume1_bin_start+0x1c8>
40101054:	e3a00a07 	mov	r0, #28672	; 0x7000
40101058:	e59f51a0 	ldr	r5, [pc, #416]	; 40101200 <resume1_bin_start+0x1d0>
4010105c:	e3a04000 	mov	r4, #0
40101060:	e5823000 	str	r3, [r2]
40101064:	eb000bcf 	bl	40103fa8 <resume1_bin_start+0x2f78>
40101068:	e5850000 	str	r0, [r5]
4010106c:	eb000138 	bl	40101554 <resume1_bin_start+0x524>
40101070:	e3070002 	movw	r0, #28674	; 0x7002
40101074:	eb000bcb 	bl	40103fa8 <resume1_bin_start+0x2f78>
40101078:	e59f1184 	ldr	r1, [pc, #388]	; 40101204 <resume1_bin_start+0x1d4>
4010107c:	e3a02e23 	mov	r2, #560	; 0x230
40101080:	e2850004 	add	r0, r5, #4
40101084:	eb000061 	bl	40101210 <resume1_bin_start+0x1e0>
40101088:	e3070003 	movw	r0, #28675	; 0x7003
4010108c:	eb000bc5 	bl	40103fa8 <resume1_bin_start+0x2f78>
40101090:	e2850f53 	add	r0, r5, #332	; 0x14c
40101094:	eb000c8c 	bl	401042cc <resume1_bin_start+0x329c>
40101098:	eb0000be 	bl	40101398 <resume1_bin_start+0x368>
4010109c:	e3070013 	movw	r0, #28691	; 0x7013
401010a0:	eb000bb7 	bl	40103f84 <resume1_bin_start+0x2f54>
401010a4:	eb000071 	bl	40101270 <resume1_bin_start+0x240>
401010a8:	eb0000ec 	bl	40101460 <resume1_bin_start+0x430>
401010ac:	e3070004 	movw	r0, #28676	; 0x7004
401010b0:	eb000bb3 	bl	40103f84 <resume1_bin_start+0x2f54>
401010b4:	eb0000a3 	bl	40101348 <resume1_bin_start+0x318>
401010b8:	e3070005 	movw	r0, #28677	; 0x7005
401010bc:	eb000bb0 	bl	40103f84 <resume1_bin_start+0x2f54>
401010c0:	eb00038f 	bl	40101f04 <resume1_bin_start+0xed4>
401010c4:	eb0001db 	bl	40101838 <resume1_bin_start+0x808>
401010c8:	e1a00004 	mov	r0, r4
401010cc:	eb00019f 	bl	40101750 <resume1_bin_start+0x720>
401010d0:	e3070007 	movw	r0, #28679	; 0x7007
401010d4:	eb000baa 	bl	40103f84 <resume1_bin_start+0x2f54>
401010d8:	e1a00004 	mov	r0, r4
401010dc:	e3a01000 	mov	r1, #0
401010e0:	e2844001 	add	r4, r4, #1
401010e4:	eb00086f 	bl	401032a8 <resume1_bin_start+0x2278>
401010e8:	e3540006 	cmp	r4, #6
401010ec:	1afffff9 	bne	401010d8 <resume1_bin_start+0xa8>
401010f0:	e284400a 	add	r4, r4, #10
401010f4:	e1a00004 	mov	r0, r4
401010f8:	e3a01000 	mov	r1, #0
401010fc:	e2844001 	add	r4, r4, #1
40101100:	eb000868 	bl	401032a8 <resume1_bin_start+0x2278>
40101104:	e354001f 	cmp	r4, #31
40101108:	1afffff9 	bne	401010f4 <resume1_bin_start+0xc4>
4010110c:	e59f30ec 	ldr	r3, [pc, #236]	; 40101200 <resume1_bin_start+0x1d0>
40101110:	e1a04003 	mov	r4, r3
40101114:	e593100c 	ldr	r1, [r3, #12]
40101118:	e5932010 	ldr	r2, [r3, #16]
4010111c:	e5831234 	str	r1, [r3, #564]	; 0x234
40101120:	e5832238 	str	r2, [r3, #568]	; 0x238
40101124:	e3a00001 	mov	r0, #1
40101128:	e5941234 	ldr	r1, [r4, #564]	; 0x234
4010112c:	eb000550 	bl	40102674 <resume1_bin_start+0x1644>
40101130:	e3500000 	cmp	r0, #0
40101134:	1afffffa 	bne	40101124 <resume1_bin_start+0xf4>
40101138:	e59f50c0 	ldr	r5, [pc, #192]	; 40101200 <resume1_bin_start+0x1d0>
4010113c:	e3a00002 	mov	r0, #2
40101140:	e5951238 	ldr	r1, [r5, #568]	; 0x238
40101144:	eb00054a 	bl	40102674 <resume1_bin_start+0x1644>
40101148:	e2504000 	subs	r4, r0, #0
4010114c:	1afffffa 	bne	4010113c <resume1_bin_start+0x10c>
40101150:	e2800001 	add	r0, r0, #1
40101154:	eb000bbd 	bl	40104050 <resume1_bin_start+0x3020>
40101158:	e3a0000a 	mov	r0, #10
4010115c:	eb000c25 	bl	401041f8 <resume1_bin_start+0x31c8>
40101160:	e59f00a0 	ldr	r0, [pc, #160]	; 40101208 <resume1_bin_start+0x1d8>
40101164:	eb00039b 	bl	40101fd8 <resume1_bin_start+0xfa8>
40101168:	e59f009c 	ldr	r0, [pc, #156]	; 4010120c <resume1_bin_start+0x1dc>
4010116c:	eb0003c9 	bl	40102098 <resume1_bin_start+0x1068>
40101170:	e3a00001 	mov	r0, #1
40101174:	eb000bb5 	bl	40104050 <resume1_bin_start+0x3020>
40101178:	e3a00005 	mov	r0, #5
4010117c:	eb000c1d 	bl	401041f8 <resume1_bin_start+0x31c8>
40101180:	e1a00004 	mov	r0, r4
40101184:	e3a01001 	mov	r1, #1
40101188:	e2844001 	add	r4, r4, #1
4010118c:	eb000845 	bl	401032a8 <resume1_bin_start+0x2278>
40101190:	e3540006 	cmp	r4, #6
40101194:	1afffff9 	bne	40101180 <resume1_bin_start+0x150>
40101198:	e284400a 	add	r4, r4, #10
4010119c:	e1a00004 	mov	r0, r4
401011a0:	e3a01001 	mov	r1, #1
401011a4:	e2844001 	add	r4, r4, #1
401011a8:	eb00083e 	bl	401032a8 <resume1_bin_start+0x2278>
401011ac:	e354001f 	cmp	r4, #31
401011b0:	1afffff9 	bne	4010119c <resume1_bin_start+0x16c>
401011b4:	e59f4044 	ldr	r4, [pc, #68]	; 40101200 <resume1_bin_start+0x1d0>
401011b8:	e5940018 	ldr	r0, [r4, #24]
401011bc:	eb00043d 	bl	401022b8 <resume1_bin_start+0x1288>
401011c0:	e3070008 	movw	r0, #28680	; 0x7008
401011c4:	eb000b6e 	bl	40103f84 <resume1_bin_start+0x2f54>
401011c8:	eb000802 	bl	401031d8 <resume1_bin_start+0x21a8>
401011cc:	eb000807 	bl	401031f0 <resume1_bin_start+0x21c0>
401011d0:	e3070009 	movw	r0, #28681	; 0x7009
401011d4:	eb000b6a 	bl	40103f84 <resume1_bin_start+0x2f54>
401011d8:	eb000024 	bl	40101270 <resume1_bin_start+0x240>
401011dc:	e307000a 	movw	r0, #28682	; 0x700a
401011e0:	eb000b67 	bl	40103f84 <resume1_bin_start+0x2f54>
401011e4:	eb000057 	bl	40101348 <resume1_bin_start+0x318>
401011e8:	e284102c 	add	r1, r4, #44	; 0x2c
401011ec:	e5940004 	ldr	r0, [r4, #4]
401011f0:	e8bd4070 	pop	{r4, r5, r6, lr}
401011f4:	ea000c7d 	b	401043f0 <resume1_bin_start+0x33c0>
401011f8:	00003ed4 	ldrdeq	r3, [r0], -r4
401011fc:	000042e0 	andeq	r4, r0, r0, ror #5
40101200:	00004050 	andeq	r4, r0, r0, asr r0
40101204:	40110000 	andsmi	r0, r1, r0
40101208:	00004070 	andeq	r4, r0, r0, ror r0
4010120c:	00004074 	andeq	r4, r0, r4, ror r0
40101210:	e3a03000 	mov	r3, #0
40101214:	ea000002 	b	40101224 <resume1_bin_start+0x1f4>
40101218:	e7d1c003 	ldrb	ip, [r1, r3]
4010121c:	e7c0c003 	strb	ip, [r0, r3]
40101220:	e2833001 	add	r3, r3, #1
40101224:	e3520000 	cmp	r2, #0
40101228:	e2422001 	sub	r2, r2, #1
4010122c:	cafffff9 	bgt	40101218 <resume1_bin_start+0x1e8>
40101230:	e12fff1e 	bx	lr
	...
40101250:	e1a0000d 	mov	r0, sp
40101254:	e59fd468 	ldr	sp, [pc, #1128]	; 401016c4 <resume1_bin_start+0x694>
40101258:	e1a0f00e 	mov	pc, lr
4010125c:	e1a0000d 	mov	r0, sp
40101260:	e59fd460 	ldr	sp, [pc, #1120]	; 401016c8 <resume1_bin_start+0x698>
40101264:	e1a0f00e 	mov	pc, lr
40101268:	e1a0d000 	mov	sp, r0
4010126c:	e1a0f00e 	mov	pc, lr
40101270:	e92d000f 	push	{r0, r1, r2, r3}
40101274:	f57ff04f 	dsb	sy
40101278:	e3a00000 	mov	r0, #0
4010127c:	ee080f17 	mcr	15, 0, r0, cr8, cr7, {0}
40101280:	ee070fd5 	mcr	15, 0, r0, cr7, cr5, {6}
40101284:	f57ff04f 	dsb	sy
40101288:	f57ff06f 	isb	sy
4010128c:	e3a00000 	mov	r0, #0
40101290:	ee0a0f10 	mcr	15, 0, r0, cr10, cr0, {0}
40101294:	e3a00000 	mov	r0, #0
40101298:	ee0a0f30 	mcr	15, 0, r0, cr10, cr0, {1}
4010129c:	f57ff04f 	dsb	sy
401012a0:	f57ff06f 	isb	sy
401012a4:	e8bd000f 	pop	{r0, r1, r2, r3}
401012a8:	e1a0f00e 	mov	pc, lr
401012ac:	e92d1fff 	push	{r0, r1, r2, r3, r4, r5, r6, r7, r8, r9, sl, fp, ip}
401012b0:	f57ff05f 	dmb	sy
401012b4:	ee300f30 	mrc	15, 1, r0, cr0, cr0, {1}
401012b8:	e2103407 	ands	r3, r0, #117440512	; 0x7000000
401012bc:	e1a03ba3 	lsr	r3, r3, #23
401012c0:	0a00001a 	beq	40101330 <resume1_bin_start+0x300>
401012c4:	e3a0a000 	mov	sl, #0
401012c8:	e08a20aa 	add	r2, sl, sl, lsr #1
401012cc:	e1a01230 	lsr	r1, r0, r2
401012d0:	e2011007 	and	r1, r1, #7
401012d4:	e3510002 	cmp	r1, #2
401012d8:	ba000011 	blt	40101324 <resume1_bin_start+0x2f4>
401012dc:	ee40af10 	mcr	15, 2, sl, cr0, cr0, {0}
401012e0:	f57ff06f 	isb	sy
401012e4:	ee301f10 	mrc	15, 1, r1, cr0, cr0, {0}
401012e8:	e2012007 	and	r2, r1, #7
401012ec:	e2822004 	add	r2, r2, #4
401012f0:	e59f43d4 	ldr	r4, [pc, #980]	; 401016cc <resume1_bin_start+0x69c>
401012f4:	e01441a1 	ands	r4, r4, r1, lsr #3
401012f8:	e16f5f14 	clz	r5, r4
401012fc:	e59f73cc 	ldr	r7, [pc, #972]	; 401016d0 <resume1_bin_start+0x6a0>
40101300:	e01776a1 	ands	r7, r7, r1, lsr #13
40101304:	e1a09004 	mov	r9, r4
40101308:	e18ab519 	orr	fp, sl, r9, lsl r5
4010130c:	e18bb217 	orr	fp, fp, r7, lsl r2
40101310:	ee07bf5e 	mcr	15, 0, fp, cr7, cr14, {2}
40101314:	e2599001 	subs	r9, r9, #1
40101318:	aafffffa 	bge	40101308 <resume1_bin_start+0x2d8>
4010131c:	e2577001 	subs	r7, r7, #1
40101320:	aafffff7 	bge	40101304 <resume1_bin_start+0x2d4>
40101324:	e28aa002 	add	sl, sl, #2
40101328:	e153000a 	cmp	r3, sl
4010132c:	caffffe5 	bgt	401012c8 <resume1_bin_start+0x298>
40101330:	e3a0a000 	mov	sl, #0
40101334:	ee40af10 	mcr	15, 2, sl, cr0, cr0, {0}
40101338:	f57ff04f 	dsb	sy
4010133c:	f57ff06f 	isb	sy
40101340:	e8bd1fff 	pop	{r0, r1, r2, r3, r4, r5, r6, r7, r8, r9, sl, fp, ip}
40101344:	e1a0f00e 	mov	pc, lr
40101348:	e92d000f 	push	{r0, r1, r2, r3}
4010134c:	e3a00000 	mov	r0, #0
40101350:	ee070f15 	mcr	15, 0, r0, cr7, cr5, {0}
40101354:	f57ff06f 	isb	sy
40101358:	e8bd000f 	pop	{r0, r1, r2, r3}
4010135c:	e1a0f00e 	mov	pc, lr
40101360:	e92d000f 	push	{r0, r1, r2, r3}
40101364:	e3a00000 	mov	r0, #0
40101368:	ee070fd5 	mcr	15, 0, r0, cr7, cr5, {6}
4010136c:	f57ff06f 	isb	sy
40101370:	e8bd000f 	pop	{r0, r1, r2, r3}
40101374:	e1a0f00e 	mov	pc, lr
40101378:	e92d000f 	push	{r0, r1, r2, r3}
4010137c:	ee110f10 	mrc	15, 0, r0, cr1, cr0, {0}
40101380:	e3c00a01 	bic	r0, r0, #4096	; 0x1000
40101384:	e3c00004 	bic	r0, r0, #4
40101388:	ee010f10 	mcr	15, 0, r0, cr1, cr0, {0}
4010138c:	f57ff06f 	isb	sy
40101390:	e8bd000f 	pop	{r0, r1, r2, r3}
40101394:	e1a0f00e 	mov	pc, lr
40101398:	e92d000f 	push	{r0, r1, r2, r3}
4010139c:	ee110f10 	mrc	15, 0, r0, cr1, cr0, {0}
401013a0:	e3c00004 	bic	r0, r0, #4
401013a4:	ee010f10 	mcr	15, 0, r0, cr1, cr0, {0}
401013a8:	f57ff06f 	isb	sy
401013ac:	e8bd000f 	pop	{r0, r1, r2, r3}
401013b0:	e1a0f00e 	mov	pc, lr
401013b4:	e92d000f 	push	{r0, r1, r2, r3}
401013b8:	ee110f10 	mrc	15, 0, r0, cr1, cr0, {0}
401013bc:	e3c00a01 	bic	r0, r0, #4096	; 0x1000
401013c0:	ee010f10 	mcr	15, 0, r0, cr1, cr0, {0}
401013c4:	f57ff06f 	isb	sy
401013c8:	e8bd000f 	pop	{r0, r1, r2, r3}
401013cc:	e1a0f00e 	mov	pc, lr
401013d0:	e92d000f 	push	{r0, r1, r2, r3}
401013d4:	ee110f10 	mrc	15, 0, r0, cr1, cr0, {0}
401013d8:	e3800a01 	orr	r0, r0, #4096	; 0x1000
401013dc:	ee010f10 	mcr	15, 0, r0, cr1, cr0, {0}
401013e0:	f57ff06f 	isb	sy
401013e4:	e8bd000f 	pop	{r0, r1, r2, r3}
401013e8:	e1a0f00e 	mov	pc, lr
401013ec:	e92d000f 	push	{r0, r1, r2, r3}
401013f0:	ee110f30 	mrc	15, 0, r0, cr1, cr0, {1}
401013f4:	e3c00002 	bic	r0, r0, #2
401013f8:	ee010f30 	mcr	15, 0, r0, cr1, cr0, {1}
401013fc:	f57ff06f 	isb	sy
40101400:	e8bd000f 	pop	{r0, r1, r2, r3}
40101404:	e1a0f00e 	mov	pc, lr
40101408:	e92d000f 	push	{r0, r1, r2, r3}
4010140c:	ee110f10 	mrc	15, 0, r0, cr1, cr0, {0}
40101410:	e3c00b02 	bic	r0, r0, #2048	; 0x800
40101414:	ee010f10 	mcr	15, 0, r0, cr1, cr0, {0}
40101418:	f57ff06f 	isb	sy
4010141c:	e8bd000f 	pop	{r0, r1, r2, r3}
40101420:	e1a0f00e 	mov	pc, lr
40101424:	e92d000f 	push	{r0, r1, r2, r3}
40101428:	ee110f10 	mrc	15, 0, r0, cr1, cr0, {0}
4010142c:	e3800a01 	orr	r0, r0, #4096	; 0x1000
40101430:	e3800004 	orr	r0, r0, #4
40101434:	ee010f10 	mcr	15, 0, r0, cr1, cr0, {0}
40101438:	f57ff06f 	isb	sy
4010143c:	e8bd000f 	pop	{r0, r1, r2, r3}
40101440:	e1a0f00e 	mov	pc, lr
40101444:	e92d000f 	push	{r0, r1, r2, r3}
40101448:	ee110f10 	mrc	15, 0, r0, cr1, cr0, {0}
4010144c:	e3800b02 	orr	r0, r0, #2048	; 0x800
40101450:	ee010f10 	mcr	15, 0, r0, cr1, cr0, {0}
40101454:	f57ff06f 	isb	sy
40101458:	e8bd000f 	pop	{r0, r1, r2, r3}
4010145c:	e1a0f00e 	mov	pc, lr
40101460:	e92d000f 	push	{r0, r1, r2, r3}
40101464:	e3a00000 	mov	r0, #0
40101468:	ee0a0f10 	mcr	15, 0, r0, cr10, cr0, {0}
4010146c:	f57ff06f 	isb	sy
40101470:	e59f025c 	ldr	r0, [pc, #604]	; 401016d4 <resume1_bin_start+0x6a4>
40101474:	ee0a0f11 	mcr	15, 0, r0, cr10, cr1, {0}
40101478:	e59f0258 	ldr	r0, [pc, #600]	; 401016d8 <resume1_bin_start+0x6a8>
4010147c:	ee0a0f11 	mcr	15, 0, r0, cr10, cr1, {0}
40101480:	e59f0254 	ldr	r0, [pc, #596]	; 401016dc <resume1_bin_start+0x6ac>
40101484:	ee0a0f11 	mcr	15, 0, r0, cr10, cr1, {0}
40101488:	e59f0250 	ldr	r0, [pc, #592]	; 401016e0 <resume1_bin_start+0x6b0>
4010148c:	ee0a0f11 	mcr	15, 0, r0, cr10, cr1, {0}
40101490:	e59f024c 	ldr	r0, [pc, #588]	; 401016e4 <resume1_bin_start+0x6b4>
40101494:	ee0a0f11 	mcr	15, 0, r0, cr10, cr1, {0}
40101498:	e59f0248 	ldr	r0, [pc, #584]	; 401016e8 <resume1_bin_start+0x6b8>
4010149c:	ee0a0f11 	mcr	15, 0, r0, cr10, cr1, {0}
401014a0:	e59f0244 	ldr	r0, [pc, #580]	; 401016ec <resume1_bin_start+0x6bc>
401014a4:	ee0a0f11 	mcr	15, 0, r0, cr10, cr1, {0}
401014a8:	e59f0240 	ldr	r0, [pc, #576]	; 401016f0 <resume1_bin_start+0x6c0>
401014ac:	ee0a0f11 	mcr	15, 0, r0, cr10, cr1, {0}
401014b0:	e3a0020f 	mov	r0, #-268435456	; 0xf0000000
401014b4:	ee0a0f11 	mcr	15, 0, r0, cr10, cr1, {0}
401014b8:	e59f0234 	ldr	r0, [pc, #564]	; 401016f4 <resume1_bin_start+0x6c4>
401014bc:	ee0a0f11 	mcr	15, 0, r0, cr10, cr1, {0}
401014c0:	e59f0230 	ldr	r0, [pc, #560]	; 401016f8 <resume1_bin_start+0x6c8>
401014c4:	ee0a0f11 	mcr	15, 0, r0, cr10, cr1, {0}
401014c8:	e59f022c 	ldr	r0, [pc, #556]	; 401016fc <resume1_bin_start+0x6cc>
401014cc:	ee0a0f11 	mcr	15, 0, r0, cr10, cr1, {0}
401014d0:	e59f0228 	ldr	r0, [pc, #552]	; 40101700 <resume1_bin_start+0x6d0>
401014d4:	ee0a0f11 	mcr	15, 0, r0, cr10, cr1, {0}
401014d8:	e59f0224 	ldr	r0, [pc, #548]	; 40101704 <resume1_bin_start+0x6d4>
401014dc:	ee0a0f11 	mcr	15, 0, r0, cr10, cr1, {0}
401014e0:	e59f0220 	ldr	r0, [pc, #544]	; 40101708 <resume1_bin_start+0x6d8>
401014e4:	ee0a0f11 	mcr	15, 0, r0, cr10, cr1, {0}
401014e8:	e59f021c 	ldr	r0, [pc, #540]	; 4010170c <resume1_bin_start+0x6dc>
401014ec:	ee0a0f11 	mcr	15, 0, r0, cr10, cr1, {0}
401014f0:	e59f0218 	ldr	r0, [pc, #536]	; 40101710 <resume1_bin_start+0x6e0>
401014f4:	ee0a0f11 	mcr	15, 0, r0, cr10, cr1, {0}
401014f8:	e3a00000 	mov	r0, #0
401014fc:	ee0a0f30 	mcr	15, 0, r0, cr10, cr0, {1}
40101500:	f57ff06f 	isb	sy
40101504:	e3a0020f 	mov	r0, #-268435456	; 0xf0000000
40101508:	ee0a0f31 	mcr	15, 0, r0, cr10, cr1, {1}
4010150c:	e59f01e0 	ldr	r0, [pc, #480]	; 401016f4 <resume1_bin_start+0x6c4>
40101510:	ee0a0f31 	mcr	15, 0, r0, cr10, cr1, {1}
40101514:	e59f01dc 	ldr	r0, [pc, #476]	; 401016f8 <resume1_bin_start+0x6c8>
40101518:	ee0a0f31 	mcr	15, 0, r0, cr10, cr1, {1}
4010151c:	e59f01d8 	ldr	r0, [pc, #472]	; 401016fc <resume1_bin_start+0x6cc>
40101520:	ee0a0f31 	mcr	15, 0, r0, cr10, cr1, {1}
40101524:	e59f01d4 	ldr	r0, [pc, #468]	; 40101700 <resume1_bin_start+0x6d0>
40101528:	ee0a0f31 	mcr	15, 0, r0, cr10, cr1, {1}
4010152c:	e59f01d0 	ldr	r0, [pc, #464]	; 40101704 <resume1_bin_start+0x6d4>
40101530:	ee0a0f31 	mcr	15, 0, r0, cr10, cr1, {1}
40101534:	e59f01cc 	ldr	r0, [pc, #460]	; 40101708 <resume1_bin_start+0x6d8>
40101538:	ee0a0f31 	mcr	15, 0, r0, cr10, cr1, {1}
4010153c:	e59f01c8 	ldr	r0, [pc, #456]	; 4010170c <resume1_bin_start+0x6dc>
40101540:	ee0a0f31 	mcr	15, 0, r0, cr10, cr1, {1}
40101544:	e59f01c4 	ldr	r0, [pc, #452]	; 40101710 <resume1_bin_start+0x6e0>
40101548:	ee0a0f31 	mcr	15, 0, r0, cr10, cr1, {1}
4010154c:	e8bd000f 	pop	{r0, r1, r2, r3}
40101550:	e1a0f00e 	mov	pc, lr
40101554:	e92d000f 	push	{r0, r1, r2, r3}
40101558:	e3a00000 	mov	r0, #0
4010155c:	ee0a0f10 	mcr	15, 0, r0, cr10, cr0, {0}
40101560:	f57ff06f 	isb	sy
40101564:	e59f01a8 	ldr	r0, [pc, #424]	; 40101714 <resume1_bin_start+0x6e4>
40101568:	ee0a0f11 	mcr	15, 0, r0, cr10, cr1, {0}
4010156c:	e59f01a4 	ldr	r0, [pc, #420]	; 40101718 <resume1_bin_start+0x6e8>
40101570:	ee0a0f11 	mcr	15, 0, r0, cr10, cr1, {0}
40101574:	e59f01a0 	ldr	r0, [pc, #416]	; 4010171c <resume1_bin_start+0x6ec>
40101578:	ee0a0f11 	mcr	15, 0, r0, cr10, cr1, {0}
4010157c:	e59f019c 	ldr	r0, [pc, #412]	; 40101720 <resume1_bin_start+0x6f0>
40101580:	ee0a0f11 	mcr	15, 0, r0, cr10, cr1, {0}
40101584:	e59f0198 	ldr	r0, [pc, #408]	; 40101724 <resume1_bin_start+0x6f4>
40101588:	ee0a0f11 	mcr	15, 0, r0, cr10, cr1, {0}
4010158c:	e59f0194 	ldr	r0, [pc, #404]	; 40101728 <resume1_bin_start+0x6f8>
40101590:	ee0a0f11 	mcr	15, 0, r0, cr10, cr1, {0}
40101594:	e59f0190 	ldr	r0, [pc, #400]	; 4010172c <resume1_bin_start+0x6fc>
40101598:	ee0a0f11 	mcr	15, 0, r0, cr10, cr1, {0}
4010159c:	e59f018c 	ldr	r0, [pc, #396]	; 40101730 <resume1_bin_start+0x700>
401015a0:	ee0a0f11 	mcr	15, 0, r0, cr10, cr1, {0}
401015a4:	e3a00000 	mov	r0, #0
401015a8:	ee0a0f11 	mcr	15, 0, r0, cr10, cr1, {0}
401015ac:	e3a00b01 	mov	r0, #1024	; 0x400
401015b0:	ee0a0f11 	mcr	15, 0, r0, cr10, cr1, {0}
401015b4:	e3a00b02 	mov	r0, #2048	; 0x800
401015b8:	ee0a0f11 	mcr	15, 0, r0, cr10, cr1, {0}
401015bc:	e3a00b03 	mov	r0, #3072	; 0xc00
401015c0:	ee0a0f11 	mcr	15, 0, r0, cr10, cr1, {0}
401015c4:	e3a00a01 	mov	r0, #4096	; 0x1000
401015c8:	ee0a0f11 	mcr	15, 0, r0, cr10, cr1, {0}
401015cc:	e3a00b05 	mov	r0, #5120	; 0x1400
401015d0:	ee0a0f11 	mcr	15, 0, r0, cr10, cr1, {0}
401015d4:	e3a00b06 	mov	r0, #6144	; 0x1800
401015d8:	ee0a0f11 	mcr	15, 0, r0, cr10, cr1, {0}
401015dc:	e3a00b07 	mov	r0, #7168	; 0x1c00
401015e0:	ee0a0f11 	mcr	15, 0, r0, cr10, cr1, {0}
401015e4:	e3a00b1f 	mov	r0, #31744	; 0x7c00
401015e8:	ee0a0f11 	mcr	15, 0, r0, cr10, cr1, {0}
401015ec:	e3a00000 	mov	r0, #0
401015f0:	ee0a0f30 	mcr	15, 0, r0, cr10, cr0, {1}
401015f4:	f57ff06f 	isb	sy
401015f8:	e3a00000 	mov	r0, #0
401015fc:	ee0a0f31 	mcr	15, 0, r0, cr10, cr1, {1}
40101600:	e3a00b01 	mov	r0, #1024	; 0x400
40101604:	ee0a0f31 	mcr	15, 0, r0, cr10, cr1, {1}
40101608:	e3a00b02 	mov	r0, #2048	; 0x800
4010160c:	ee0a0f31 	mcr	15, 0, r0, cr10, cr1, {1}
40101610:	e3a00b03 	mov	r0, #3072	; 0xc00
40101614:	ee0a0f31 	mcr	15, 0, r0, cr10, cr1, {1}
40101618:	e3a00a01 	mov	r0, #4096	; 0x1000
4010161c:	ee0a0f31 	mcr	15, 0, r0, cr10, cr1, {1}
40101620:	e3a00b05 	mov	r0, #5120	; 0x1400
40101624:	ee0a0f31 	mcr	15, 0, r0, cr10, cr1, {1}
40101628:	e3a00b06 	mov	r0, #6144	; 0x1800
4010162c:	ee0a0f31 	mcr	15, 0, r0, cr10, cr1, {1}
40101630:	e3a00b07 	mov	r0, #7168	; 0x1c00
40101634:	ee0a0f31 	mcr	15, 0, r0, cr10, cr1, {1}
40101638:	e3a00b1f 	mov	r0, #31744	; 0x7c00
4010163c:	ee0a0f31 	mcr	15, 0, r0, cr10, cr1, {1}
40101640:	e8bd000f 	pop	{r0, r1, r2, r3}
40101644:	e1a0f00e 	mov	pc, lr
40101648:	ee111f10 	mrc	15, 0, r1, cr1, cr0, {0}
4010164c:	e3c11a01 	bic	r1, r1, #4096	; 0x1000
40101650:	e3c11007 	bic	r1, r1, #7
40101654:	e3c11000 	bic	r1, r1, #0
40101658:	ea000004 	b	40101670 <resume1_bin_start+0x640>
4010165c:	e320f000 	nop	{0}
40101660:	e320f000 	nop	{0}
40101664:	e320f000 	nop	{0}
40101668:	e320f000 	nop	{0}
4010166c:	e320f000 	nop	{0}
40101670:	ee011f10 	mcr	15, 0, r1, cr1, cr0, {0}
40101674:	ee103f10 	mrc	15, 0, r3, cr0, cr0, {0}
40101678:	e1a03003 	mov	r3, r3
4010167c:	e1a03003 	mov	r3, r3
40101680:	e1a0f00e 	mov	pc, lr
40101684:	ee111f10 	mrc	15, 0, r1, cr1, cr0, {0}
40101688:	e3811a01 	orr	r1, r1, #4096	; 0x1000
4010168c:	e3811007 	orr	r1, r1, #7
40101690:	e3811000 	orr	r1, r1, #0
40101694:	ea000005 	b	401016b0 <resume1_bin_start+0x680>
40101698:	e320f000 	nop	{0}
4010169c:	e320f000 	nop	{0}
401016a0:	e320f000 	nop	{0}
401016a4:	e320f000 	nop	{0}
401016a8:	e320f000 	nop	{0}
401016ac:	e320f000 	nop	{0}
401016b0:	ee011f10 	mcr	15, 0, r1, cr1, cr0, {0}
401016b4:	ee103f10 	mrc	15, 0, r3, cr0, cr0, {0}
401016b8:	e1a03003 	mov	r3, r3
401016bc:	e1a03003 	mov	r3, r3
401016c0:	e1a0f00e 	mov	pc, lr
401016c4:	f0007ffc 	undefined instruction 0xf0007ffc
401016c8:	00007ffc 	strdeq	r7, [r0], -ip
401016cc:	000003ff 	strdeq	r0, [r0], -pc
401016d0:	00007fff 	strdeq	r7, [r0], -pc
401016d4:	f1c20000 	undefined instruction 0xf1c20000
401016d8:	f1c2ac00 	undefined instruction 0xf1c2ac00
401016dc:	f1c2b000 	undefined instruction 0xf1c2b000
401016e0:	f1c2b400 	undefined instruction 0xf1c2b400
401016e4:	f1c20400 	undefined instruction 0xf1c20400
401016e8:	f1c20c00 	undefined instruction 0xf1c20c00
401016ec:	f1c22800 	undefined instruction 0xf1c22800
401016f0:	f1c01000 	undefined instruction 0xf1c01000
401016f4:	f0000400 	undefined instruction 0xf0000400
401016f8:	f0000800 	undefined instruction 0xf0000800
401016fc:	f0000c00 	undefined instruction 0xf0000c00
40101700:	f0001000 	undefined instruction 0xf0001000
40101704:	f0001400 	undefined instruction 0xf0001400
40101708:	f0001800 	undefined instruction 0xf0001800
4010170c:	f0001c00 	undefined instruction 0xf0001c00
40101710:	f0007c00 	undefined instruction 0xf0007c00
40101714:	01c20000 	biceq	r0, r2, r0
40101718:	01c2ac00 	biceq	sl, r2, r0, lsl #24
4010171c:	01c2b000 	biceq	fp, r2, r0
40101720:	01c2b400 	biceq	fp, r2, r0, lsl #8
40101724:	01c20400 	biceq	r0, r2, r0, lsl #8
40101728:	01c20c00 	biceq	r0, r2, r0, lsl #24
4010172c:	01c22800 	biceq	r2, r2, r0, lsl #16
40101730:	01c01000 	biceq	r1, r0, r0
40101734:	e320f000 	nop	{0}
40101738:	e320f000 	nop	{0}
4010173c:	e320f000 	nop	{0}
40101740:	e320f000 	nop	{0}
40101744:	e320f000 	nop	{0}
40101748:	e320f000 	nop	{0}
4010174c:	e320f000 	nop	{0}
40101750:	e59f2040 	ldr	r2, [pc, #64]	; 40101798 <resume1_bin_start+0x768>
40101754:	e59f3040 	ldr	r3, [pc, #64]	; 4010179c <resume1_bin_start+0x76c>
40101758:	e7922100 	ldr	r2, [r2, r0, lsl #2]
4010175c:	e5920014 	ldr	r0, [r2, #20]
40101760:	e592100c 	ldr	r1, [r2, #12]
40101764:	e5832000 	str	r2, [r3]
40101768:	e5830004 	str	r0, [r3, #4]
4010176c:	e2011080 	and	r1, r1, #128	; 0x80
40101770:	e5831008 	str	r1, [r3, #8]
40101774:	e3a03028 	mov	r3, #40	; 0x28
40101778:	e5823014 	str	r3, [r2, #20]
4010177c:	e5923018 	ldr	r3, [r2, #24]
40101780:	e3833001 	orr	r3, r3, #1
40101784:	e5823018 	str	r3, [r2, #24]
40101788:	e5920018 	ldr	r0, [r2, #24]
4010178c:	e2100001 	ands	r0, r0, #1
40101790:	1afffffc 	bne	40101788 <resume1_bin_start+0x758>
40101794:	e12fff1e 	bx	lr
40101798:	00003e88 	andeq	r3, r0, r8, lsl #29
4010179c:	0000428c 	andeq	r4, r0, ip, lsl #5
401017a0:	e59f308c 	ldr	r3, [pc, #140]	; 40101834 <resume1_bin_start+0x804>
401017a4:	e30f22ff 	movw	r2, #62207	; 0xf2ff
401017a8:	e5933000 	ldr	r3, [r3]
401017ac:	e593100c 	ldr	r1, [r3, #12]
401017b0:	e20110c0 	and	r1, r1, #192	; 0xc0
401017b4:	e3811010 	orr	r1, r1, #16
401017b8:	e583100c 	str	r1, [r3, #12]
401017bc:	e593100c 	ldr	r1, [r3, #12]
401017c0:	e593100c 	ldr	r1, [r3, #12]
401017c4:	e3110010 	tst	r1, #16
401017c8:	0a000002 	beq	401017d8 <resume1_bin_start+0x7a8>
401017cc:	e2522001 	subs	r2, r2, #1
401017d0:	1afffffa 	bne	401017c0 <resume1_bin_start+0x790>
401017d4:	ea000014 	b	4010182c <resume1_bin_start+0x7fc>
401017d8:	e3520000 	cmp	r2, #0
401017dc:	0a000012 	beq	4010182c <resume1_bin_start+0x7fc>
401017e0:	e30f22ff 	movw	r2, #62207	; 0xf2ff
401017e4:	e5931010 	ldr	r1, [r3, #16]
401017e8:	e35100f8 	cmp	r1, #248	; 0xf8
401017ec:	0a000002 	beq	401017fc <resume1_bin_start+0x7cc>
401017f0:	e2522001 	subs	r2, r2, #1
401017f4:	1afffffa 	bne	401017e4 <resume1_bin_start+0x7b4>
401017f8:	ea00000b 	b	4010182c <resume1_bin_start+0x7fc>
401017fc:	e3520000 	cmp	r2, #0
40101800:	0a000009 	beq	4010182c <resume1_bin_start+0x7fc>
40101804:	e30f22ff 	movw	r2, #62207	; 0xf2ff
40101808:	e5931020 	ldr	r1, [r3, #32]
4010180c:	e351003a 	cmp	r1, #58	; 0x3a
40101810:	0a000002 	beq	40101820 <resume1_bin_start+0x7f0>
40101814:	e2522001 	subs	r2, r2, #1
40101818:	1afffffa 	bne	40101808 <resume1_bin_start+0x7d8>
4010181c:	ea000002 	b	4010182c <resume1_bin_start+0x7fc>
40101820:	e3520000 	cmp	r2, #0
40101824:	13a00000 	movne	r0, #0
40101828:	112fff1e 	bxne	lr
4010182c:	e3e00000 	mvn	r0, #0
40101830:	e12fff1e 	bx	lr
40101834:	0000428c 	andeq	r4, r0, ip, lsl #5
40101838:	e59f1040 	ldr	r1, [pc, #64]	; 40101880 <resume1_bin_start+0x850>
4010183c:	e3a0c000 	mov	ip, #0
40101840:	e59f003c 	ldr	r0, [pc, #60]	; 40101884 <resume1_bin_start+0x854>
40101844:	e59f303c 	ldr	r3, [pc, #60]	; 40101888 <resume1_bin_start+0x858>
40101848:	e59f203c 	ldr	r2, [pc, #60]	; 4010188c <resume1_bin_start+0x85c>
4010184c:	e580c000 	str	ip, [r0]
40101850:	e5910000 	ldr	r0, [r1]
40101854:	e3800001 	orr	r0, r0, #1
40101858:	e5810000 	str	r0, [r1]
4010185c:	e59f002c 	ldr	r0, [pc, #44]	; 40101890 <resume1_bin_start+0x860>
40101860:	e5931824 	ldr	r1, [r3, #2084]	; 0x824
40101864:	e580300c 	str	r3, [r0, #12]
40101868:	e3811022 	orr	r1, r1, #34	; 0x22
4010186c:	e5831824 	str	r1, [r3, #2084]	; 0x824
40101870:	e5923c0c 	ldr	r3, [r2, #3084]	; 0xc0c
40101874:	e3833040 	orr	r3, r3, #64	; 0x40
40101878:	e5823c0c 	str	r3, [r2, #3084]	; 0xc0c
4010187c:	e12fff1e 	bx	lr
40101880:	f1c2006c 	undefined instruction 0xf1c2006c
40101884:	f1c20058 	undefined instruction 0xf1c20058
40101888:	f1c20000 	undefined instruction 0xf1c20000
4010188c:	f1c2a000 	undefined instruction 0xf1c2a000
40101890:	0000428c 	andeq	r4, r0, ip, lsl #5
40101894:	e59fc2c4 	ldr	ip, [pc, #708]	; 40101b60 <resume1_bin_start+0xb30>
40101898:	e92d4010 	push	{r4, lr}
4010189c:	e59c4000 	ldr	r4, [ip]
401018a0:	e3a0c000 	mov	ip, #0
401018a4:	e584c01c 	str	ip, [r4, #28]
401018a8:	e594c010 	ldr	ip, [r4, #16]
401018ac:	e6efc07c 	uxtb	ip, ip
401018b0:	e35c00f8 	cmp	ip, #248	; 0xf8
401018b4:	1a00007b 	bne	40101aa8 <resume1_bin_start+0xa78>
401018b8:	e594e00c 	ldr	lr, [r4, #12]
401018bc:	e30fc2ff 	movw	ip, #62207	; 0xf2ff
401018c0:	e38ee020 	orr	lr, lr, #32
401018c4:	e584e00c 	str	lr, [r4, #12]
401018c8:	e594e00c 	ldr	lr, [r4, #12]
401018cc:	e31e0008 	tst	lr, #8
401018d0:	1a000002 	bne	401018e0 <resume1_bin_start+0x8b0>
401018d4:	e25cc001 	subs	ip, ip, #1
401018d8:	1afffffa 	bne	401018c8 <resume1_bin_start+0x898>
401018dc:	ea000071 	b	40101aa8 <resume1_bin_start+0xa78>
401018e0:	e35c0000 	cmp	ip, #0
401018e4:	0a00006f 	beq	40101aa8 <resume1_bin_start+0xa78>
401018e8:	e594c010 	ldr	ip, [r4, #16]
401018ec:	e6efc07c 	uxtb	ip, ip
401018f0:	e35c0008 	cmp	ip, #8
401018f4:	1a00006b 	bne	40101aa8 <resume1_bin_start+0xa78>
401018f8:	e1a01081 	lsl	r1, r1, #1
401018fc:	e30fc2ff 	movw	ip, #62207	; 0xf2ff
40101900:	e5841008 	str	r1, [r4, #8]
40101904:	e594e00c 	ldr	lr, [r4, #12]
40101908:	e20ee0f7 	and	lr, lr, #247	; 0xf7
4010190c:	e584e00c 	str	lr, [r4, #12]
40101910:	e594e00c 	ldr	lr, [r4, #12]
40101914:	e31e0008 	tst	lr, #8
40101918:	1a000002 	bne	40101928 <resume1_bin_start+0x8f8>
4010191c:	e25cc001 	subs	ip, ip, #1
40101920:	1afffffa 	bne	40101910 <resume1_bin_start+0x8e0>
40101924:	ea00005f 	b	40101aa8 <resume1_bin_start+0xa78>
40101928:	e35c0000 	cmp	ip, #0
4010192c:	0a00005d 	beq	40101aa8 <resume1_bin_start+0xa78>
40101930:	e594c010 	ldr	ip, [r4, #16]
40101934:	e6efc07c 	uxtb	ip, ip
40101938:	e35c0018 	cmp	ip, #24
4010193c:	1a000059 	bne	40101aa8 <resume1_bin_start+0xa78>
40101940:	e5842008 	str	r2, [r4, #8]
40101944:	e30f22ff 	movw	r2, #62207	; 0xf2ff
40101948:	e594c00c 	ldr	ip, [r4, #12]
4010194c:	e20cc0f7 	and	ip, ip, #247	; 0xf7
40101950:	e584c00c 	str	ip, [r4, #12]
40101954:	e594c00c 	ldr	ip, [r4, #12]
40101958:	e31c0008 	tst	ip, #8
4010195c:	1a000002 	bne	4010196c <resume1_bin_start+0x93c>
40101960:	e2522001 	subs	r2, r2, #1
40101964:	1afffffa 	bne	40101954 <resume1_bin_start+0x924>
40101968:	ea00004e 	b	40101aa8 <resume1_bin_start+0xa78>
4010196c:	e3520000 	cmp	r2, #0
40101970:	0a00004c 	beq	40101aa8 <resume1_bin_start+0xa78>
40101974:	e5942010 	ldr	r2, [r4, #16]
40101978:	e6ef2072 	uxtb	r2, r2
4010197c:	e3520028 	cmp	r2, #40	; 0x28
40101980:	1a000048 	bne	40101aa8 <resume1_bin_start+0xa78>
40101984:	e3500001 	cmp	r0, #1
40101988:	1a000011 	bne	401019d4 <resume1_bin_start+0x9a4>
4010198c:	e5d32000 	ldrb	r2, [r3]
40101990:	e30f32ff 	movw	r3, #62207	; 0xf2ff
40101994:	e5842008 	str	r2, [r4, #8]
40101998:	e594200c 	ldr	r2, [r4, #12]
4010199c:	e20220f7 	and	r2, r2, #247	; 0xf7
401019a0:	e584200c 	str	r2, [r4, #12]
401019a4:	e594200c 	ldr	r2, [r4, #12]
401019a8:	e3120008 	tst	r2, #8
401019ac:	1a000002 	bne	401019bc <resume1_bin_start+0x98c>
401019b0:	e2533001 	subs	r3, r3, #1
401019b4:	1afffffa 	bne	401019a4 <resume1_bin_start+0x974>
401019b8:	ea00003a 	b	40101aa8 <resume1_bin_start+0xa78>
401019bc:	e3530000 	cmp	r3, #0
401019c0:	0a000038 	beq	40101aa8 <resume1_bin_start+0xa78>
401019c4:	e5943010 	ldr	r3, [r4, #16]
401019c8:	e6ef3073 	uxtb	r3, r3
401019cc:	e3530028 	cmp	r3, #40	; 0x28
401019d0:	ea000033 	b	40101aa4 <resume1_bin_start+0xa74>
401019d4:	e594000c 	ldr	r0, [r4, #12]
401019d8:	e30f22ff 	movw	r2, #62207	; 0xf2ff
401019dc:	e20000c0 	and	r0, r0, #192	; 0xc0
401019e0:	e3800020 	orr	r0, r0, #32
401019e4:	e584000c 	str	r0, [r4, #12]
401019e8:	e594000c 	ldr	r0, [r4, #12]
401019ec:	e3100008 	tst	r0, #8
401019f0:	1a000002 	bne	40101a00 <resume1_bin_start+0x9d0>
401019f4:	e2522001 	subs	r2, r2, #1
401019f8:	1afffffa 	bne	401019e8 <resume1_bin_start+0x9b8>
401019fc:	ea000029 	b	40101aa8 <resume1_bin_start+0xa78>
40101a00:	e3520000 	cmp	r2, #0
40101a04:	0a000027 	beq	40101aa8 <resume1_bin_start+0xa78>
40101a08:	e5942010 	ldr	r2, [r4, #16]
40101a0c:	e6ef2072 	uxtb	r2, r2
40101a10:	e3520010 	cmp	r2, #16
40101a14:	1a000023 	bne	40101aa8 <resume1_bin_start+0xa78>
40101a18:	e3811001 	orr	r1, r1, #1
40101a1c:	e30f22ff 	movw	r2, #62207	; 0xf2ff
40101a20:	e5841008 	str	r1, [r4, #8]
40101a24:	e594100c 	ldr	r1, [r4, #12]
40101a28:	e20110f7 	and	r1, r1, #247	; 0xf7
40101a2c:	e584100c 	str	r1, [r4, #12]
40101a30:	e594100c 	ldr	r1, [r4, #12]
40101a34:	e3110008 	tst	r1, #8
40101a38:	1a000002 	bne	40101a48 <resume1_bin_start+0xa18>
40101a3c:	e2522001 	subs	r2, r2, #1
40101a40:	1afffffa 	bne	40101a30 <resume1_bin_start+0xa00>
40101a44:	ea000017 	b	40101aa8 <resume1_bin_start+0xa78>
40101a48:	e3520000 	cmp	r2, #0
40101a4c:	0a000015 	beq	40101aa8 <resume1_bin_start+0xa78>
40101a50:	e5942010 	ldr	r2, [r4, #16]
40101a54:	e6ef2072 	uxtb	r2, r2
40101a58:	e3520040 	cmp	r2, #64	; 0x40
40101a5c:	1a000011 	bne	40101aa8 <resume1_bin_start+0xa78>
40101a60:	e594100c 	ldr	r1, [r4, #12]
40101a64:	e30f22ff 	movw	r2, #62207	; 0xf2ff
40101a68:	e20110f7 	and	r1, r1, #247	; 0xf7
40101a6c:	e584100c 	str	r1, [r4, #12]
40101a70:	e594100c 	ldr	r1, [r4, #12]
40101a74:	e3110008 	tst	r1, #8
40101a78:	1a000002 	bne	40101a88 <resume1_bin_start+0xa58>
40101a7c:	e2522001 	subs	r2, r2, #1
40101a80:	1afffffa 	bne	40101a70 <resume1_bin_start+0xa40>
40101a84:	ea000007 	b	40101aa8 <resume1_bin_start+0xa78>
40101a88:	e3520000 	cmp	r2, #0
40101a8c:	0a000005 	beq	40101aa8 <resume1_bin_start+0xa78>
40101a90:	e5942008 	ldr	r2, [r4, #8]
40101a94:	e5c32000 	strb	r2, [r3]
40101a98:	e5943010 	ldr	r3, [r4, #16]
40101a9c:	e6ef3073 	uxtb	r3, r3
40101aa0:	e3530058 	cmp	r3, #88	; 0x58
40101aa4:	0a000029 	beq	40101b50 <resume1_bin_start+0xb20>
40101aa8:	e59f30b4 	ldr	r3, [pc, #180]	; 40101b64 <resume1_bin_start+0xb34>
40101aac:	e59f00b4 	ldr	r0, [pc, #180]	; 40101b68 <resume1_bin_start+0xb38>
40101ab0:	e59f10a8 	ldr	r1, [pc, #168]	; 40101b60 <resume1_bin_start+0xb30>
40101ab4:	e5932000 	ldr	r2, [r3]
40101ab8:	e3c22001 	bic	r2, r2, #1
40101abc:	e5832000 	str	r2, [r3]
40101ac0:	e5932000 	ldr	r2, [r3]
40101ac4:	e581000c 	str	r0, [r1, #12]
40101ac8:	e3822001 	orr	r2, r2, #1
40101acc:	e5832000 	str	r2, [r3]
40101ad0:	e3a03028 	mov	r3, #40	; 0x28
40101ad4:	e5843014 	str	r3, [r4, #20]
40101ad8:	e5943018 	ldr	r3, [r4, #24]
40101adc:	e3833001 	orr	r3, r3, #1
40101ae0:	e5843018 	str	r3, [r4, #24]
40101ae4:	e5943018 	ldr	r3, [r4, #24]
40101ae8:	e3130001 	tst	r3, #1
40101aec:	1afffffc 	bne	40101ae4 <resume1_bin_start+0xab4>
40101af0:	e3e04000 	mvn	r4, #0
40101af4:	ea000012 	b	40101b44 <resume1_bin_start+0xb14>
40101af8:	e59f3064 	ldr	r3, [pc, #100]	; 40101b64 <resume1_bin_start+0xb34>
40101afc:	e59f0064 	ldr	r0, [pc, #100]	; 40101b68 <resume1_bin_start+0xb38>
40101b00:	e59f1058 	ldr	r1, [pc, #88]	; 40101b60 <resume1_bin_start+0xb30>
40101b04:	e5932000 	ldr	r2, [r3]
40101b08:	e3c22001 	bic	r2, r2, #1
40101b0c:	e5832000 	str	r2, [r3]
40101b10:	e5932000 	ldr	r2, [r3]
40101b14:	e581000c 	str	r0, [r1, #12]
40101b18:	e3822001 	orr	r2, r2, #1
40101b1c:	e5832000 	str	r2, [r3]
40101b20:	e3a03028 	mov	r3, #40	; 0x28
40101b24:	e5843014 	str	r3, [r4, #20]
40101b28:	e5943018 	ldr	r3, [r4, #24]
40101b2c:	e3833001 	orr	r3, r3, #1
40101b30:	e5843018 	str	r3, [r4, #24]
40101b34:	e5943018 	ldr	r3, [r4, #24]
40101b38:	e3130001 	tst	r3, #1
40101b3c:	1afffffc 	bne	40101b34 <resume1_bin_start+0xb04>
40101b40:	e3a04000 	mov	r4, #0
40101b44:	ebffff15 	bl	401017a0 <resume1_bin_start+0x770>
40101b48:	e1a00004 	mov	r0, r4
40101b4c:	e8bd8010 	pop	{r4, pc}
40101b50:	ebffff12 	bl	401017a0 <resume1_bin_start+0x770>
40101b54:	e3500000 	cmp	r0, #0
40101b58:	1affffe6 	bne	40101af8 <resume1_bin_start+0xac8>
40101b5c:	eafffff7 	b	40101b40 <resume1_bin_start+0xb10>
40101b60:	0000428c 	andeq	r4, r0, ip, lsl #5
40101b64:	f1c2006c 	undefined instruction 0xf1c2006c
40101b68:	f1c20000 	undefined instruction 0xf1c20000
40101b6c:	e59fc308 	ldr	ip, [pc, #776]	; 40101e7c <resume1_bin_start+0xe4c>
40101b70:	e92d4070 	push	{r4, r5, r6, lr}
40101b74:	e3a04000 	mov	r4, #0
40101b78:	e58c401c 	str	r4, [ip, #28]
40101b7c:	e59c4010 	ldr	r4, [ip, #16]
40101b80:	e59f52f8 	ldr	r5, [pc, #760]	; 40101e80 <resume1_bin_start+0xe50>
40101b84:	e6ef4074 	uxtb	r4, r4
40101b88:	e35400f8 	cmp	r4, #248	; 0xf8
40101b8c:	e585c000 	str	ip, [r5]
40101b90:	1a000089 	bne	40101dbc <resume1_bin_start+0xd8c>
40101b94:	e59c500c 	ldr	r5, [ip, #12]
40101b98:	e1a0600c 	mov	r6, ip
40101b9c:	e30f42ff 	movw	r4, #62207	; 0xf2ff
40101ba0:	e3855020 	orr	r5, r5, #32
40101ba4:	e58c500c 	str	r5, [ip, #12]
40101ba8:	e596500c 	ldr	r5, [r6, #12]
40101bac:	e59fc2c8 	ldr	ip, [pc, #712]	; 40101e7c <resume1_bin_start+0xe4c>
40101bb0:	e3150008 	tst	r5, #8
40101bb4:	1a000002 	bne	40101bc4 <resume1_bin_start+0xb94>
40101bb8:	e2544001 	subs	r4, r4, #1
40101bbc:	1afffff9 	bne	40101ba8 <resume1_bin_start+0xb78>
40101bc0:	ea00007d 	b	40101dbc <resume1_bin_start+0xd8c>
40101bc4:	e3540000 	cmp	r4, #0
40101bc8:	0a00007b 	beq	40101dbc <resume1_bin_start+0xd8c>
40101bcc:	e59c4010 	ldr	r4, [ip, #16]
40101bd0:	e6ef4074 	uxtb	r4, r4
40101bd4:	e3540008 	cmp	r4, #8
40101bd8:	1a000077 	bne	40101dbc <resume1_bin_start+0xd8c>
40101bdc:	e1a01081 	lsl	r1, r1, #1
40101be0:	e1a0600c 	mov	r6, ip
40101be4:	e58c1008 	str	r1, [ip, #8]
40101be8:	e30f42ff 	movw	r4, #62207	; 0xf2ff
40101bec:	e59c500c 	ldr	r5, [ip, #12]
40101bf0:	e20550f7 	and	r5, r5, #247	; 0xf7
40101bf4:	e58c500c 	str	r5, [ip, #12]
40101bf8:	e596500c 	ldr	r5, [r6, #12]
40101bfc:	e59fc278 	ldr	ip, [pc, #632]	; 40101e7c <resume1_bin_start+0xe4c>
40101c00:	e3150008 	tst	r5, #8
40101c04:	1a000002 	bne	40101c14 <resume1_bin_start+0xbe4>
40101c08:	e2544001 	subs	r4, r4, #1
40101c0c:	1afffff9 	bne	40101bf8 <resume1_bin_start+0xbc8>
40101c10:	ea000069 	b	40101dbc <resume1_bin_start+0xd8c>
40101c14:	e3540000 	cmp	r4, #0
40101c18:	0a000067 	beq	40101dbc <resume1_bin_start+0xd8c>
40101c1c:	e59c4010 	ldr	r4, [ip, #16]
40101c20:	e6ef4074 	uxtb	r4, r4
40101c24:	e3540018 	cmp	r4, #24
40101c28:	1a000063 	bne	40101dbc <resume1_bin_start+0xd8c>
40101c2c:	e58c2008 	str	r2, [ip, #8]
40101c30:	e1a0500c 	mov	r5, ip
40101c34:	e59c200c 	ldr	r2, [ip, #12]
40101c38:	e30f42ff 	movw	r4, #62207	; 0xf2ff
40101c3c:	e20220f7 	and	r2, r2, #247	; 0xf7
40101c40:	e58c200c 	str	r2, [ip, #12]
40101c44:	e595c00c 	ldr	ip, [r5, #12]
40101c48:	e59f222c 	ldr	r2, [pc, #556]	; 40101e7c <resume1_bin_start+0xe4c>
40101c4c:	e31c0008 	tst	ip, #8
40101c50:	1a000002 	bne	40101c60 <resume1_bin_start+0xc30>
40101c54:	e2544001 	subs	r4, r4, #1
40101c58:	1afffff9 	bne	40101c44 <resume1_bin_start+0xc14>
40101c5c:	ea000056 	b	40101dbc <resume1_bin_start+0xd8c>
40101c60:	e3540000 	cmp	r4, #0
40101c64:	0a000054 	beq	40101dbc <resume1_bin_start+0xd8c>
40101c68:	e592c010 	ldr	ip, [r2, #16]
40101c6c:	e6efc07c 	uxtb	ip, ip
40101c70:	e35c0028 	cmp	ip, #40	; 0x28
40101c74:	1a000050 	bne	40101dbc <resume1_bin_start+0xd8c>
40101c78:	e3500001 	cmp	r0, #1
40101c7c:	1a000013 	bne	40101cd0 <resume1_bin_start+0xca0>
40101c80:	e5d31000 	ldrb	r1, [r3]
40101c84:	e1a00002 	mov	r0, r2
40101c88:	e30f32ff 	movw	r3, #62207	; 0xf2ff
40101c8c:	e5821008 	str	r1, [r2, #8]
40101c90:	e592100c 	ldr	r1, [r2, #12]
40101c94:	e20110f7 	and	r1, r1, #247	; 0xf7
40101c98:	e582100c 	str	r1, [r2, #12]
40101c9c:	e590200c 	ldr	r2, [r0, #12]
40101ca0:	e3120008 	tst	r2, #8
40101ca4:	1a000002 	bne	40101cb4 <resume1_bin_start+0xc84>
40101ca8:	e2533001 	subs	r3, r3, #1
40101cac:	1afffffa 	bne	40101c9c <resume1_bin_start+0xc6c>
40101cb0:	ea000041 	b	40101dbc <resume1_bin_start+0xd8c>
40101cb4:	e3530000 	cmp	r3, #0
40101cb8:	0a00003f 	beq	40101dbc <resume1_bin_start+0xd8c>
40101cbc:	e59f31b8 	ldr	r3, [pc, #440]	; 40101e7c <resume1_bin_start+0xe4c>
40101cc0:	e5933010 	ldr	r3, [r3, #16]
40101cc4:	e6ef3073 	uxtb	r3, r3
40101cc8:	e3530028 	cmp	r3, #40	; 0x28
40101ccc:	ea000039 	b	40101db8 <resume1_bin_start+0xd88>
40101cd0:	e592c00c 	ldr	ip, [r2, #12]
40101cd4:	e1a04002 	mov	r4, r2
40101cd8:	e30f02ff 	movw	r0, #62207	; 0xf2ff
40101cdc:	e20cc0c0 	and	ip, ip, #192	; 0xc0
40101ce0:	e38cc020 	orr	ip, ip, #32
40101ce4:	e582c00c 	str	ip, [r2, #12]
40101ce8:	e594c00c 	ldr	ip, [r4, #12]
40101cec:	e59f2188 	ldr	r2, [pc, #392]	; 40101e7c <resume1_bin_start+0xe4c>
40101cf0:	e31c0008 	tst	ip, #8
40101cf4:	1a000002 	bne	40101d04 <resume1_bin_start+0xcd4>
40101cf8:	e2500001 	subs	r0, r0, #1
40101cfc:	1afffff9 	bne	40101ce8 <resume1_bin_start+0xcb8>
40101d00:	ea00002d 	b	40101dbc <resume1_bin_start+0xd8c>
40101d04:	e3500000 	cmp	r0, #0
40101d08:	0a00002b 	beq	40101dbc <resume1_bin_start+0xd8c>
40101d0c:	e5920010 	ldr	r0, [r2, #16]
40101d10:	e6ef0070 	uxtb	r0, r0
40101d14:	e3500010 	cmp	r0, #16
40101d18:	1a000027 	bne	40101dbc <resume1_bin_start+0xd8c>
40101d1c:	e3811001 	orr	r1, r1, #1
40101d20:	e1a0c002 	mov	ip, r2
40101d24:	e5821008 	str	r1, [r2, #8]
40101d28:	e30f02ff 	movw	r0, #62207	; 0xf2ff
40101d2c:	e592100c 	ldr	r1, [r2, #12]
40101d30:	e20110f7 	and	r1, r1, #247	; 0xf7
40101d34:	e582100c 	str	r1, [r2, #12]
40101d38:	e59c200c 	ldr	r2, [ip, #12]
40101d3c:	e59f1138 	ldr	r1, [pc, #312]	; 40101e7c <resume1_bin_start+0xe4c>
40101d40:	e3120008 	tst	r2, #8
40101d44:	1a000002 	bne	40101d54 <resume1_bin_start+0xd24>
40101d48:	e2500001 	subs	r0, r0, #1
40101d4c:	1afffff9 	bne	40101d38 <resume1_bin_start+0xd08>
40101d50:	ea000019 	b	40101dbc <resume1_bin_start+0xd8c>
40101d54:	e3500000 	cmp	r0, #0
40101d58:	0a000017 	beq	40101dbc <resume1_bin_start+0xd8c>
40101d5c:	e5912010 	ldr	r2, [r1, #16]
40101d60:	e6ef2072 	uxtb	r2, r2
40101d64:	e3520040 	cmp	r2, #64	; 0x40
40101d68:	1a000013 	bne	40101dbc <resume1_bin_start+0xd8c>
40101d6c:	e591000c 	ldr	r0, [r1, #12]
40101d70:	e1a0c001 	mov	ip, r1
40101d74:	e30f22ff 	movw	r2, #62207	; 0xf2ff
40101d78:	e20000f7 	and	r0, r0, #247	; 0xf7
40101d7c:	e581000c 	str	r0, [r1, #12]
40101d80:	e59c000c 	ldr	r0, [ip, #12]
40101d84:	e59f10f0 	ldr	r1, [pc, #240]	; 40101e7c <resume1_bin_start+0xe4c>
40101d88:	e3100008 	tst	r0, #8
40101d8c:	1a000002 	bne	40101d9c <resume1_bin_start+0xd6c>
40101d90:	e2522001 	subs	r2, r2, #1
40101d94:	1afffff9 	bne	40101d80 <resume1_bin_start+0xd50>
40101d98:	ea000007 	b	40101dbc <resume1_bin_start+0xd8c>
40101d9c:	e3520000 	cmp	r2, #0
40101da0:	0a000005 	beq	40101dbc <resume1_bin_start+0xd8c>
40101da4:	e5912008 	ldr	r2, [r1, #8]
40101da8:	e5c32000 	strb	r2, [r3]
40101dac:	e5913010 	ldr	r3, [r1, #16]
40101db0:	e6ef3073 	uxtb	r3, r3
40101db4:	e3530058 	cmp	r3, #88	; 0x58
40101db8:	0a00002b 	beq	40101e6c <resume1_bin_start+0xe3c>
40101dbc:	e59f20c0 	ldr	r2, [pc, #192]	; 40101e84 <resume1_bin_start+0xe54>
40101dc0:	e59f30b4 	ldr	r3, [pc, #180]	; 40101e7c <resume1_bin_start+0xe4c>
40101dc4:	e59fc0bc 	ldr	ip, [pc, #188]	; 40101e88 <resume1_bin_start+0xe58>
40101dc8:	e5921000 	ldr	r1, [r2]
40101dcc:	e1a04003 	mov	r4, r3
40101dd0:	e59f00a8 	ldr	r0, [pc, #168]	; 40101e80 <resume1_bin_start+0xe50>
40101dd4:	e3c11001 	bic	r1, r1, #1
40101dd8:	e5821000 	str	r1, [r2]
40101ddc:	e5921000 	ldr	r1, [r2]
40101de0:	e580c00c 	str	ip, [r0, #12]
40101de4:	e3811001 	orr	r1, r1, #1
40101de8:	e5821000 	str	r1, [r2]
40101dec:	e3a02028 	mov	r2, #40	; 0x28
40101df0:	e5832014 	str	r2, [r3, #20]
40101df4:	e5932018 	ldr	r2, [r3, #24]
40101df8:	e3822001 	orr	r2, r2, #1
40101dfc:	e5832018 	str	r2, [r3, #24]
40101e00:	e5943018 	ldr	r3, [r4, #24]
40101e04:	e3130001 	tst	r3, #1
40101e08:	1afffffc 	bne	40101e00 <resume1_bin_start+0xdd0>
40101e0c:	e3e00000 	mvn	r0, #0
40101e10:	e8bd8070 	pop	{r4, r5, r6, pc}
40101e14:	e59f2068 	ldr	r2, [pc, #104]	; 40101e84 <resume1_bin_start+0xe54>
40101e18:	e59f305c 	ldr	r3, [pc, #92]	; 40101e7c <resume1_bin_start+0xe4c>
40101e1c:	e59fc064 	ldr	ip, [pc, #100]	; 40101e88 <resume1_bin_start+0xe58>
40101e20:	e5921000 	ldr	r1, [r2]
40101e24:	e1a04003 	mov	r4, r3
40101e28:	e59f0050 	ldr	r0, [pc, #80]	; 40101e80 <resume1_bin_start+0xe50>
40101e2c:	e3c11001 	bic	r1, r1, #1
40101e30:	e5821000 	str	r1, [r2]
40101e34:	e5921000 	ldr	r1, [r2]
40101e38:	e580c00c 	str	ip, [r0, #12]
40101e3c:	e3811001 	orr	r1, r1, #1
40101e40:	e5821000 	str	r1, [r2]
40101e44:	e3a02028 	mov	r2, #40	; 0x28
40101e48:	e5832014 	str	r2, [r3, #20]
40101e4c:	e5932018 	ldr	r2, [r3, #24]
40101e50:	e3822001 	orr	r2, r2, #1
40101e54:	e5832018 	str	r2, [r3, #24]
40101e58:	e5943018 	ldr	r3, [r4, #24]
40101e5c:	e3130001 	tst	r3, #1
40101e60:	1afffffc 	bne	40101e58 <resume1_bin_start+0xe28>
40101e64:	e3a00000 	mov	r0, #0
40101e68:	e8bd8070 	pop	{r4, r5, r6, pc}
40101e6c:	ebfffe4b 	bl	401017a0 <resume1_bin_start+0x770>
40101e70:	e3500000 	cmp	r0, #0
40101e74:	1affffe6 	bne	40101e14 <resume1_bin_start+0xde4>
40101e78:	eafffff9 	b	40101e64 <resume1_bin_start+0xe34>
40101e7c:	01c2ac00 	biceq	sl, r2, r0, lsl #24
40101e80:	0000428c 	andeq	r4, r0, ip, lsl #5
40101e84:	01c2006c 	biceq	r0, r2, ip, rrx
40101e88:	01c20000 	biceq	r0, r2, r0
40101e8c:	e92d4010 	push	{r4, lr}
40101e90:	e59f4040 	ldr	r4, [pc, #64]	; 40101ed8 <resume1_bin_start+0xea8>
40101e94:	e3a00001 	mov	r0, #1
40101e98:	e5943000 	ldr	r3, [r4]
40101e9c:	e5932018 	ldr	r2, [r3, #24]
40101ea0:	e1822000 	orr	r2, r2, r0
40101ea4:	e5832018 	str	r2, [r3, #24]
40101ea8:	eb000868 	bl	40104050 <resume1_bin_start+0x3020>
40101eac:	e3a0000a 	mov	r0, #10
40101eb0:	eb0008d0 	bl	401041f8 <resume1_bin_start+0x31c8>
40101eb4:	e5943000 	ldr	r3, [r4]
40101eb8:	e5941004 	ldr	r1, [r4, #4]
40101ebc:	e3a00000 	mov	r0, #0
40101ec0:	e5942008 	ldr	r2, [r4, #8]
40101ec4:	e5831014 	str	r1, [r3, #20]
40101ec8:	e593100c 	ldr	r1, [r3, #12]
40101ecc:	e1812002 	orr	r2, r1, r2
40101ed0:	e583200c 	str	r2, [r3, #12]
40101ed4:	e8bd8010 	pop	{r4, pc}
40101ed8:	0000428c 	andeq	r4, r0, ip, lsl #5
40101edc:	e92d000f 	push	{r0, r1, r2, r3}
40101ee0:	e3a01011 	mov	r1, #17
40101ee4:	e1a03000 	mov	r3, r0
40101ee8:	e2500001 	subs	r0, r0, #1
40101eec:	8afffffd 	bhi	40101ee8 <resume1_bin_start+0xeb8>
40101ef0:	e1a00003 	mov	r0, r3
40101ef4:	e2511001 	subs	r1, r1, #1
40101ef8:	8afffffa 	bhi	40101ee8 <resume1_bin_start+0xeb8>
40101efc:	e8bd000f 	pop	{r0, r1, r2, r3}
40101f00:	e1a0f00e 	mov	pc, lr
40101f04:	e59f200c 	ldr	r2, [pc, #12]	; 40101f18 <resume1_bin_start+0xee8>
40101f08:	e3a00000 	mov	r0, #0
40101f0c:	e59f3008 	ldr	r3, [pc, #8]	; 40101f1c <resume1_bin_start+0xeec>
40101f10:	e5832000 	str	r2, [r3]
40101f14:	e12fff1e 	bx	lr
40101f18:	f1c20000 	undefined instruction 0xf1c20000
40101f1c:	0000429c 	muleq	r0, ip, r2
40101f20:	e59f3050 	ldr	r3, [pc, #80]	; 40101f78 <resume1_bin_start+0xf48>
40101f24:	e3a00000 	mov	r0, #0
40101f28:	e5933000 	ldr	r3, [r3]
40101f2c:	e5932000 	ldr	r2, [r3]
40101f30:	e7df2f9f 	bfc	r2, #31, #1
40101f34:	e5832000 	str	r2, [r3]
40101f38:	e5932008 	ldr	r2, [r3, #8]
40101f3c:	e7df2f9f 	bfc	r2, #31, #1
40101f40:	e5832008 	str	r2, [r3, #8]
40101f44:	e5932010 	ldr	r2, [r3, #16]
40101f48:	e7df2f9f 	bfc	r2, #31, #1
40101f4c:	e5832010 	str	r2, [r3, #16]
40101f50:	e5932018 	ldr	r2, [r3, #24]
40101f54:	e7df2f9f 	bfc	r2, #31, #1
40101f58:	e5832018 	str	r2, [r3, #24]
40101f5c:	e5932028 	ldr	r2, [r3, #40]	; 0x28
40101f60:	e7df2f9f 	bfc	r2, #31, #1
40101f64:	e5832028 	str	r2, [r3, #40]	; 0x28
40101f68:	e5932030 	ldr	r2, [r3, #48]	; 0x30
40101f6c:	e7df2f9f 	bfc	r2, #31, #1
40101f70:	e5832030 	str	r2, [r3, #48]	; 0x30
40101f74:	e12fff1e 	bx	lr
40101f78:	0000429c 	muleq	r0, ip, r2
40101f7c:	e59f3050 	ldr	r3, [pc, #80]	; 40101fd4 <resume1_bin_start+0xfa4>
40101f80:	e3a00000 	mov	r0, #0
40101f84:	e5933000 	ldr	r3, [r3]
40101f88:	e5932000 	ldr	r2, [r3]
40101f8c:	e3822102 	orr	r2, r2, #-2147483648	; 0x80000000
40101f90:	e5832000 	str	r2, [r3]
40101f94:	e5932008 	ldr	r2, [r3, #8]
40101f98:	e3822102 	orr	r2, r2, #-2147483648	; 0x80000000
40101f9c:	e5832008 	str	r2, [r3, #8]
40101fa0:	e5932010 	ldr	r2, [r3, #16]
40101fa4:	e3822102 	orr	r2, r2, #-2147483648	; 0x80000000
40101fa8:	e5832010 	str	r2, [r3, #16]
40101fac:	e5932018 	ldr	r2, [r3, #24]
40101fb0:	e3822102 	orr	r2, r2, #-2147483648	; 0x80000000
40101fb4:	e5832018 	str	r2, [r3, #24]
40101fb8:	e5932028 	ldr	r2, [r3, #40]	; 0x28
40101fbc:	e3822102 	orr	r2, r2, #-2147483648	; 0x80000000
40101fc0:	e5832028 	str	r2, [r3, #40]	; 0x28
40101fc4:	e5932030 	ldr	r2, [r3, #48]	; 0x30
40101fc8:	e3822102 	orr	r2, r2, #-2147483648	; 0x80000000
40101fcc:	e5832030 	str	r2, [r3, #48]	; 0x30
40101fd0:	e12fff1e 	bx	lr
40101fd4:	0000429c 	muleq	r0, ip, r2
40101fd8:	e2502000 	subs	r2, r0, #0
40101fdc:	03e00000 	mvneq	r0, #0
40101fe0:	012fff1e 	bxeq	lr
40101fe4:	e59f3048 	ldr	r3, [pc, #72]	; 40102034 <resume1_bin_start+0x1004>
40101fe8:	e3a00000 	mov	r0, #0
40101fec:	e59fc044 	ldr	ip, [pc, #68]	; 40102038 <resume1_bin_start+0x1008>
40101ff0:	e5931054 	ldr	r1, [r3, #84]	; 0x54
40101ff4:	e58c3000 	str	r3, [ip]
40101ff8:	e592c000 	ldr	ip, [r2]
40101ffc:	e7e1c25c 	ubfx	ip, ip, #4, #2
40102000:	e7c1101c 	bfi	r1, ip, #0, #2
40102004:	e5831054 	str	r1, [r3, #84]	; 0x54
40102008:	e592c000 	ldr	ip, [r2]
4010200c:	e5931054 	ldr	r1, [r3, #84]	; 0x54
40102010:	e7e1c45c 	ubfx	ip, ip, #8, #2
40102014:	e7c5121c 	bfi	r1, ip, #4, #2
40102018:	e5831054 	str	r1, [r3, #84]	; 0x54
4010201c:	e5921000 	ldr	r1, [r2]
40102020:	e5932054 	ldr	r2, [r3, #84]	; 0x54
40102024:	e7e11651 	ubfx	r1, r1, #12, #2
40102028:	e7c92411 	bfi	r2, r1, #8, #2
4010202c:	e5832054 	str	r2, [r3, #84]	; 0x54
40102030:	e12fff1e 	bx	lr
40102034:	f1c20000 	undefined instruction 0xf1c20000
40102038:	0000429c 	muleq	r0, ip, r2
4010203c:	e2503000 	subs	r3, r0, #0
40102040:	03e00000 	mvneq	r0, #0
40102044:	012fff1e 	bxeq	lr
40102048:	e59f2040 	ldr	r2, [pc, #64]	; 40102090 <resume1_bin_start+0x1060>
4010204c:	e3a00000 	mov	r0, #0
40102050:	e59f103c 	ldr	r1, [pc, #60]	; 40102094 <resume1_bin_start+0x1064>
40102054:	e592c054 	ldr	ip, [r2, #84]	; 0x54
40102058:	e5812000 	str	r2, [r1]
4010205c:	e5931000 	ldr	r1, [r3]
40102060:	e20cc003 	and	ip, ip, #3
40102064:	e7c7121c 	bfi	r1, ip, #4, #4
40102068:	e5831000 	str	r1, [r3]
4010206c:	e592c054 	ldr	ip, [r2, #84]	; 0x54
40102070:	e7e1c25c 	ubfx	ip, ip, #4, #2
40102074:	e7cb141c 	bfi	r1, ip, #8, #4
40102078:	e5831000 	str	r1, [r3]
4010207c:	e5922054 	ldr	r2, [r2, #84]	; 0x54
40102080:	e7e12452 	ubfx	r2, r2, #8, #2
40102084:	e7cf1612 	bfi	r1, r2, #12, #4
40102088:	e5831000 	str	r1, [r3]
4010208c:	e12fff1e 	bx	lr
40102090:	f1c20000 	undefined instruction 0xf1c20000
40102094:	0000429c 	muleq	r0, ip, r2
40102098:	e59f3050 	ldr	r3, [pc, #80]	; 401020f0 <resume1_bin_start+0x10c0>
4010209c:	e1a02000 	mov	r2, r0
401020a0:	e59fc04c 	ldr	ip, [pc, #76]	; 401020f4 <resume1_bin_start+0x10c4>
401020a4:	e3a00000 	mov	r0, #0
401020a8:	e5931000 	ldr	r1, [r3]
401020ac:	e58c3000 	str	r3, [ip]
401020b0:	e5d2c000 	ldrb	ip, [r2]
401020b4:	e7cc141c 	bfi	r1, ip, #8, #5
401020b8:	e5831000 	str	r1, [r3]
401020bc:	e5931000 	ldr	r1, [r3]
401020c0:	e5d2c001 	ldrb	ip, [r2, #1]
401020c4:	e7c5121c 	bfi	r1, ip, #4, #2
401020c8:	e5831000 	str	r1, [r3]
401020cc:	e5931000 	ldr	r1, [r3]
401020d0:	e5d2c002 	ldrb	ip, [r2, #2]
401020d4:	e7c1101c 	bfi	r1, ip, #0, #2
401020d8:	e5831000 	str	r1, [r3]
401020dc:	e5d21003 	ldrb	r1, [r2, #3]
401020e0:	e5932000 	ldr	r2, [r3]
401020e4:	e7d12811 	bfi	r2, r1, #16, #2
401020e8:	e5832000 	str	r2, [r3]
401020ec:	e12fff1e 	bx	lr
401020f0:	f1c20000 	undefined instruction 0xf1c20000
401020f4:	0000429c 	muleq	r0, ip, r2
401020f8:	e59f3040 	ldr	r3, [pc, #64]	; 40102140 <resume1_bin_start+0x1110>
401020fc:	e1a02000 	mov	r2, r0
40102100:	e59fc03c 	ldr	ip, [pc, #60]	; 40102144 <resume1_bin_start+0x1114>
40102104:	e3a00000 	mov	r0, #0
40102108:	e5931000 	ldr	r1, [r3]
4010210c:	e58c3000 	str	r3, [ip]
40102110:	e7e41451 	ubfx	r1, r1, #8, #5
40102114:	e5c21000 	strb	r1, [r2]
40102118:	e5931000 	ldr	r1, [r3]
4010211c:	e7e11251 	ubfx	r1, r1, #4, #2
40102120:	e5c21001 	strb	r1, [r2, #1]
40102124:	e5931000 	ldr	r1, [r3]
40102128:	e2011003 	and	r1, r1, #3
4010212c:	e5c21002 	strb	r1, [r2, #2]
40102130:	e5933000 	ldr	r3, [r3]
40102134:	e7e13853 	ubfx	r3, r3, #16, #2
40102138:	e5c23003 	strb	r3, [r2, #3]
4010213c:	e12fff1e 	bx	lr
40102140:	f1c20000 	undefined instruction 0xf1c20000
40102144:	0000429c 	muleq	r0, ip, r2
40102148:	e59f3024 	ldr	r3, [pc, #36]	; 40102174 <resume1_bin_start+0x1144>
4010214c:	e3500000 	cmp	r0, #0
40102150:	15932000 	ldrne	r2, [r3]
40102154:	05933000 	ldreq	r3, [r3]
40102158:	15923020 	ldrne	r3, [r2, #32]
4010215c:	05932020 	ldreq	r2, [r3, #32]
40102160:	13833202 	orrne	r3, r3, #536870912	; 0x20000000
40102164:	07dd2e90 	bfieq	r2, r0, #29, #1
40102168:	15823020 	strne	r3, [r2, #32]
4010216c:	05832020 	streq	r2, [r3, #32]
40102170:	e12fff1e 	bx	lr
40102174:	0000429c 	muleq	r0, ip, r2
40102178:	e92d4013 	push	{r0, r1, r4, lr}
4010217c:	e28d4008 	add	r4, sp, #8
40102180:	e3a03000 	mov	r3, #0
40102184:	e3a01034 	mov	r1, #52	; 0x34
40102188:	e1a00003 	mov	r0, r3
4010218c:	e5643001 	strb	r3, [r4, #-1]!
40102190:	e3a02031 	mov	r2, #49	; 0x31
40102194:	e1a03004 	mov	r3, r4
40102198:	ebfffe73 	bl	40101b6c <resume1_bin_start+0xb3c>
4010219c:	e3500000 	cmp	r0, #0
401021a0:	1a00001a 	bne	40102210 <resume1_bin_start+0x11e0>
401021a4:	e5ddc007 	ldrb	ip, [sp, #7]
401021a8:	e2800001 	add	r0, r0, #1
401021ac:	e3a01034 	mov	r1, #52	; 0x34
401021b0:	e3a02031 	mov	r2, #49	; 0x31
401021b4:	e1a03004 	mov	r3, r4
401021b8:	e38cc008 	orr	ip, ip, #8
401021bc:	e5cdc007 	strb	ip, [sp, #7]
401021c0:	ebfffe69 	bl	40101b6c <resume1_bin_start+0xb3c>
401021c4:	e3500000 	cmp	r0, #0
401021c8:	1a000010 	bne	40102210 <resume1_bin_start+0x11e0>
401021cc:	e3a01034 	mov	r1, #52	; 0x34
401021d0:	e3a02012 	mov	r2, #18
401021d4:	e1a03004 	mov	r3, r4
401021d8:	ebfffe63 	bl	40101b6c <resume1_bin_start+0xb3c>
401021dc:	e3500000 	cmp	r0, #0
401021e0:	1a00000a 	bne	40102210 <resume1_bin_start+0x11e0>
401021e4:	e5ddc007 	ldrb	ip, [sp, #7]
401021e8:	e1a03004 	mov	r3, r4
401021ec:	e2800001 	add	r0, r0, #1
401021f0:	e3a01034 	mov	r1, #52	; 0x34
401021f4:	e3a02012 	mov	r2, #18
401021f8:	e3ccc05b 	bic	ip, ip, #91	; 0x5b
401021fc:	e5cdc007 	strb	ip, [sp, #7]
40102200:	ebfffe59 	bl	40101b6c <resume1_bin_start+0xb3c>
40102204:	e3500000 	cmp	r0, #0
40102208:	1a000000 	bne	40102210 <resume1_bin_start+0x11e0>
4010220c:	e320f003 	wfi
40102210:	e3e00000 	mvn	r0, #0
40102214:	e8bd801c 	pop	{r2, r3, r4, pc}
40102218:	e92d4013 	push	{r0, r1, r4, lr}
4010221c:	e28d4008 	add	r4, sp, #8
40102220:	e3a03000 	mov	r3, #0
40102224:	e3a01034 	mov	r1, #52	; 0x34
40102228:	e1a00003 	mov	r0, r3
4010222c:	e5643001 	strb	r3, [r4, #-1]!
40102230:	e3a02031 	mov	r2, #49	; 0x31
40102234:	e1a03004 	mov	r3, r4
40102238:	ebfffd95 	bl	40101894 <resume1_bin_start+0x864>
4010223c:	e3500000 	cmp	r0, #0
40102240:	1a00001a 	bne	401022b0 <resume1_bin_start+0x1280>
40102244:	e5ddc007 	ldrb	ip, [sp, #7]
40102248:	e2800001 	add	r0, r0, #1
4010224c:	e3a01034 	mov	r1, #52	; 0x34
40102250:	e3a02031 	mov	r2, #49	; 0x31
40102254:	e1a03004 	mov	r3, r4
40102258:	e38cc008 	orr	ip, ip, #8
4010225c:	e5cdc007 	strb	ip, [sp, #7]
40102260:	ebfffd8b 	bl	40101894 <resume1_bin_start+0x864>
40102264:	e3500000 	cmp	r0, #0
40102268:	1a000010 	bne	401022b0 <resume1_bin_start+0x1280>
4010226c:	e3a01034 	mov	r1, #52	; 0x34
40102270:	e3a02012 	mov	r2, #18
40102274:	e1a03004 	mov	r3, r4
40102278:	ebfffd85 	bl	40101894 <resume1_bin_start+0x864>
4010227c:	e3500000 	cmp	r0, #0
40102280:	1a00000a 	bne	401022b0 <resume1_bin_start+0x1280>
40102284:	e5ddc007 	ldrb	ip, [sp, #7]
40102288:	e1a03004 	mov	r3, r4
4010228c:	e2800001 	add	r0, r0, #1
40102290:	e3a01034 	mov	r1, #52	; 0x34
40102294:	e3a02012 	mov	r2, #18
40102298:	e3ccc05b 	bic	ip, ip, #91	; 0x5b
4010229c:	e5cdc007 	strb	ip, [sp, #7]
401022a0:	ebfffd7b 	bl	40101894 <resume1_bin_start+0x864>
401022a4:	e3500000 	cmp	r0, #0
401022a8:	1a000000 	bne	401022b0 <resume1_bin_start+0x1280>
401022ac:	e320f003 	wfi
401022b0:	e3e00000 	mvn	r0, #0
401022b4:	e8bd801c 	pop	{r2, r3, r4, pc}
401022b8:	e3100001 	tst	r0, #1
401022bc:	e92d4037 	push	{r0, r1, r2, r4, r5, lr}
401022c0:	e1a04000 	mov	r4, r0
401022c4:	0a000011 	beq	40102310 <resume1_bin_start+0x12e0>
401022c8:	e28d5007 	add	r5, sp, #7
401022cc:	e3a00000 	mov	r0, #0
401022d0:	e3a01034 	mov	r1, #52	; 0x34
401022d4:	e3a02042 	mov	r2, #66	; 0x42
401022d8:	e1a03005 	mov	r3, r5
401022dc:	ebfffd6c 	bl	40101894 <resume1_bin_start+0x864>
401022e0:	e3500000 	cmp	r0, #0
401022e4:	1a0000b4 	bne	401025bc <resume1_bin_start+0x158c>
401022e8:	e5ddc007 	ldrb	ip, [sp, #7]
401022ec:	e1a03005 	mov	r3, r5
401022f0:	e2800001 	add	r0, r0, #1
401022f4:	e3a01034 	mov	r1, #52	; 0x34
401022f8:	e3a02042 	mov	r2, #66	; 0x42
401022fc:	e3ccc003 	bic	ip, ip, #3
40102300:	e5cdc007 	strb	ip, [sp, #7]
40102304:	ebfffd62 	bl	40101894 <resume1_bin_start+0x864>
40102308:	e3500000 	cmp	r0, #0
4010230c:	1a0000aa 	bne	401025bc <resume1_bin_start+0x158c>
40102310:	e3140040 	tst	r4, #64	; 0x40
40102314:	0a000011 	beq	40102360 <resume1_bin_start+0x1330>
40102318:	e28d5007 	add	r5, sp, #7
4010231c:	e3a00000 	mov	r0, #0
40102320:	e3a01034 	mov	r1, #52	; 0x34
40102324:	e3a02042 	mov	r2, #66	; 0x42
40102328:	e1a03005 	mov	r3, r5
4010232c:	ebfffd58 	bl	40101894 <resume1_bin_start+0x864>
40102330:	e3500000 	cmp	r0, #0
40102334:	1a0000a0 	bne	401025bc <resume1_bin_start+0x158c>
40102338:	e5ddc007 	ldrb	ip, [sp, #7]
4010233c:	e1a03005 	mov	r3, r5
40102340:	e2800001 	add	r0, r0, #1
40102344:	e3a01034 	mov	r1, #52	; 0x34
40102348:	e3a02042 	mov	r2, #66	; 0x42
4010234c:	e3ccc002 	bic	ip, ip, #2
40102350:	e5cdc007 	strb	ip, [sp, #7]
40102354:	ebfffd4e 	bl	40101894 <resume1_bin_start+0x864>
40102358:	e3500000 	cmp	r0, #0
4010235c:	1a000096 	bne	401025bc <resume1_bin_start+0x158c>
40102360:	e3140080 	tst	r4, #128	; 0x80
40102364:	0a000011 	beq	401023b0 <resume1_bin_start+0x1380>
40102368:	e28d5007 	add	r5, sp, #7
4010236c:	e3a00000 	mov	r0, #0
40102370:	e3a01034 	mov	r1, #52	; 0x34
40102374:	e3a02042 	mov	r2, #66	; 0x42
40102378:	e1a03005 	mov	r3, r5
4010237c:	ebfffd44 	bl	40101894 <resume1_bin_start+0x864>
40102380:	e3500000 	cmp	r0, #0
40102384:	1a00008c 	bne	401025bc <resume1_bin_start+0x158c>
40102388:	e5ddc007 	ldrb	ip, [sp, #7]
4010238c:	e1a03005 	mov	r3, r5
40102390:	e2800001 	add	r0, r0, #1
40102394:	e3a01034 	mov	r1, #52	; 0x34
40102398:	e3a02042 	mov	r2, #66	; 0x42
4010239c:	e3ccc001 	bic	ip, ip, #1
401023a0:	e5cdc007 	strb	ip, [sp, #7]
401023a4:	ebfffd3a 	bl	40101894 <resume1_bin_start+0x864>
401023a8:	e3500000 	cmp	r0, #0
401023ac:	1a000082 	bne	401025bc <resume1_bin_start+0x158c>
401023b0:	e3140010 	tst	r4, #16
401023b4:	0a000011 	beq	40102400 <resume1_bin_start+0x13d0>
401023b8:	e28d5007 	add	r5, sp, #7
401023bc:	e3a00000 	mov	r0, #0
401023c0:	e3a01034 	mov	r1, #52	; 0x34
401023c4:	e3a02044 	mov	r2, #68	; 0x44
401023c8:	e1a03005 	mov	r3, r5
401023cc:	ebfffd30 	bl	40101894 <resume1_bin_start+0x864>
401023d0:	e3500000 	cmp	r0, #0
401023d4:	1a000078 	bne	401025bc <resume1_bin_start+0x158c>
401023d8:	e5ddc007 	ldrb	ip, [sp, #7]
401023dc:	e1a03005 	mov	r3, r5
401023e0:	e2800001 	add	r0, r0, #1
401023e4:	e3a01034 	mov	r1, #52	; 0x34
401023e8:	e3a02044 	mov	r2, #68	; 0x44
401023ec:	e3ccc040 	bic	ip, ip, #64	; 0x40
401023f0:	e5cdc007 	strb	ip, [sp, #7]
401023f4:	ebfffd26 	bl	40101894 <resume1_bin_start+0x864>
401023f8:	e3500000 	cmp	r0, #0
401023fc:	1a00006e 	bne	401025bc <resume1_bin_start+0x158c>
40102400:	e3140020 	tst	r4, #32
40102404:	0a000011 	beq	40102450 <resume1_bin_start+0x1420>
40102408:	e28d5007 	add	r5, sp, #7
4010240c:	e3a00000 	mov	r0, #0
40102410:	e3a01034 	mov	r1, #52	; 0x34
40102414:	e3a02044 	mov	r2, #68	; 0x44
40102418:	e1a03005 	mov	r3, r5
4010241c:	ebfffd1c 	bl	40101894 <resume1_bin_start+0x864>
40102420:	e3500000 	cmp	r0, #0
40102424:	1a000064 	bne	401025bc <resume1_bin_start+0x158c>
40102428:	e5ddc007 	ldrb	ip, [sp, #7]
4010242c:	e1a03005 	mov	r3, r5
40102430:	e2800001 	add	r0, r0, #1
40102434:	e3a01034 	mov	r1, #52	; 0x34
40102438:	e3a02044 	mov	r2, #68	; 0x44
4010243c:	e3ccc020 	bic	ip, ip, #32
40102440:	e5cdc007 	strb	ip, [sp, #7]
40102444:	ebfffd12 	bl	40101894 <resume1_bin_start+0x864>
40102448:	e3500000 	cmp	r0, #0
4010244c:	1a00005a 	bne	401025bc <resume1_bin_start+0x158c>
40102450:	e3140002 	tst	r4, #2
40102454:	0a000011 	beq	401024a0 <resume1_bin_start+0x1470>
40102458:	e28d5007 	add	r5, sp, #7
4010245c:	e3a00000 	mov	r0, #0
40102460:	e3a01034 	mov	r1, #52	; 0x34
40102464:	e3a02043 	mov	r2, #67	; 0x43
40102468:	e1a03005 	mov	r3, r5
4010246c:	ebfffd08 	bl	40101894 <resume1_bin_start+0x864>
40102470:	e3500000 	cmp	r0, #0
40102474:	1a000050 	bne	401025bc <resume1_bin_start+0x158c>
40102478:	e5ddc007 	ldrb	ip, [sp, #7]
4010247c:	e1a03005 	mov	r3, r5
40102480:	e2800001 	add	r0, r0, #1
40102484:	e3a01034 	mov	r1, #52	; 0x34
40102488:	e3a02043 	mov	r2, #67	; 0x43
4010248c:	e3ccc003 	bic	ip, ip, #3
40102490:	e5cdc007 	strb	ip, [sp, #7]
40102494:	ebfffcfe 	bl	40101894 <resume1_bin_start+0x864>
40102498:	e3500000 	cmp	r0, #0
4010249c:	1a000046 	bne	401025bc <resume1_bin_start+0x158c>
401024a0:	e3140004 	tst	r4, #4
401024a4:	0a000030 	beq	4010256c <resume1_bin_start+0x153c>
401024a8:	e28d5007 	add	r5, sp, #7
401024ac:	e3a00000 	mov	r0, #0
401024b0:	e3a01034 	mov	r1, #52	; 0x34
401024b4:	e3a02040 	mov	r2, #64	; 0x40
401024b8:	e1a03005 	mov	r3, r5
401024bc:	ebfffcf4 	bl	40101894 <resume1_bin_start+0x864>
401024c0:	e3500000 	cmp	r0, #0
401024c4:	1a00003c 	bne	401025bc <resume1_bin_start+0x158c>
401024c8:	e5ddc007 	ldrb	ip, [sp, #7]
401024cc:	e2800001 	add	r0, r0, #1
401024d0:	e3a01034 	mov	r1, #52	; 0x34
401024d4:	e3a02040 	mov	r2, #64	; 0x40
401024d8:	e1a03005 	mov	r3, r5
401024dc:	e3ccc00c 	bic	ip, ip, #12
401024e0:	e5cdc007 	strb	ip, [sp, #7]
401024e4:	ebfffcea 	bl	40101894 <resume1_bin_start+0x864>
401024e8:	e3500000 	cmp	r0, #0
401024ec:	1a000032 	bne	401025bc <resume1_bin_start+0x158c>
401024f0:	e3a01034 	mov	r1, #52	; 0x34
401024f4:	e3a02092 	mov	r2, #146	; 0x92
401024f8:	e1a03005 	mov	r3, r5
401024fc:	ebfffce4 	bl	40101894 <resume1_bin_start+0x864>
40102500:	e3500000 	cmp	r0, #0
40102504:	1a00002c 	bne	401025bc <resume1_bin_start+0x158c>
40102508:	e2800001 	add	r0, r0, #1
4010250c:	e3a01034 	mov	r1, #52	; 0x34
40102510:	e3a02092 	mov	r2, #146	; 0x92
40102514:	e1a03005 	mov	r3, r5
40102518:	e3a0c007 	mov	ip, #7
4010251c:	e5cdc007 	strb	ip, [sp, #7]
40102520:	ebfffcdb 	bl	40101894 <resume1_bin_start+0x864>
40102524:	e3500000 	cmp	r0, #0
40102528:	1a000023 	bne	401025bc <resume1_bin_start+0x158c>
4010252c:	e3a01034 	mov	r1, #52	; 0x34
40102530:	e3a02044 	mov	r2, #68	; 0x44
40102534:	e1a03005 	mov	r3, r5
40102538:	ebfffcd5 	bl	40101894 <resume1_bin_start+0x864>
4010253c:	e3500000 	cmp	r0, #0
40102540:	1a00001d 	bne	401025bc <resume1_bin_start+0x158c>
40102544:	e5ddc007 	ldrb	ip, [sp, #7]
40102548:	e1a03005 	mov	r3, r5
4010254c:	e2800001 	add	r0, r0, #1
40102550:	e3a01034 	mov	r1, #52	; 0x34
40102554:	e3a02044 	mov	r2, #68	; 0x44
40102558:	e3ccc002 	bic	ip, ip, #2
4010255c:	e5cdc007 	strb	ip, [sp, #7]
40102560:	ebfffccb 	bl	40101894 <resume1_bin_start+0x864>
40102564:	e3500000 	cmp	r0, #0
40102568:	1a000013 	bne	401025bc <resume1_bin_start+0x158c>
4010256c:	e3140008 	tst	r4, #8
40102570:	0a000013 	beq	401025c4 <resume1_bin_start+0x1594>
40102574:	e28d4007 	add	r4, sp, #7
40102578:	e3a00000 	mov	r0, #0
4010257c:	e3a01034 	mov	r1, #52	; 0x34
40102580:	e3a02040 	mov	r2, #64	; 0x40
40102584:	e1a03004 	mov	r3, r4
40102588:	ebfffcc1 	bl	40101894 <resume1_bin_start+0x864>
4010258c:	e3500000 	cmp	r0, #0
40102590:	1a000009 	bne	401025bc <resume1_bin_start+0x158c>
40102594:	e5ddc007 	ldrb	ip, [sp, #7]
40102598:	e1a03004 	mov	r3, r4
4010259c:	e2800001 	add	r0, r0, #1
401025a0:	e3a01034 	mov	r1, #52	; 0x34
401025a4:	e3a02040 	mov	r2, #64	; 0x40
401025a8:	e3ccc060 	bic	ip, ip, #96	; 0x60
401025ac:	e5cdc007 	strb	ip, [sp, #7]
401025b0:	ebfffcb7 	bl	40101894 <resume1_bin_start+0x864>
401025b4:	e3500000 	cmp	r0, #0
401025b8:	0a000001 	beq	401025c4 <resume1_bin_start+0x1594>
401025bc:	e3e00000 	mvn	r0, #0
401025c0:	ea000000 	b	401025c8 <resume1_bin_start+0x1598>
401025c4:	e3a00000 	mov	r0, #0
401025c8:	e8bd803e 	pop	{r1, r2, r3, r4, r5, pc}
401025cc:	e59f3098 	ldr	r3, [pc, #152]	; 4010266c <resume1_bin_start+0x163c>
401025d0:	e92d4037 	push	{r0, r1, r2, r4, r5, lr}
401025d4:	e1a05000 	mov	r5, r0
401025d8:	e28320a8 	add	r2, r3, #168	; 0xa8
401025dc:	ea000002 	b	401025ec <resume1_bin_start+0x15bc>
401025e0:	e493101c 	ldr	r1, [r3], #28
401025e4:	e1510005 	cmp	r1, r5
401025e8:	0a000003 	beq	401025fc <resume1_bin_start+0x15cc>
401025ec:	e1530002 	cmp	r3, r2
401025f0:	e1a04003 	mov	r4, r3
401025f4:	1afffff9 	bne	401025e0 <resume1_bin_start+0x15b0>
401025f8:	ea000019 	b	40102664 <resume1_bin_start+0x1634>
401025fc:	e3540000 	cmp	r4, #0
40102600:	0a000017 	beq	40102664 <resume1_bin_start+0x1634>
40102604:	e3a00000 	mov	r0, #0
40102608:	e3a01034 	mov	r1, #52	; 0x34
4010260c:	e5d42010 	ldrb	r2, [r4, #16]
40102610:	e28d3007 	add	r3, sp, #7
40102614:	ebfffc9e 	bl	40101894 <resume1_bin_start+0x864>
40102618:	e3500000 	cmp	r0, #0
4010261c:	1a000010 	bne	40102664 <resume1_bin_start+0x1634>
40102620:	e3e01000 	mvn	r1, #0
40102624:	e5943018 	ldr	r3, [r4, #24]
40102628:	e5942014 	ldr	r2, [r4, #20]
4010262c:	e3550006 	cmp	r5, #6
40102630:	e1e03311 	mvn	r3, r1, lsl r3
40102634:	e5dd1007 	ldrb	r1, [sp, #7]
40102638:	1594000c 	ldrne	r0, [r4, #12]
4010263c:	03a00ffa 	moveq	r0, #1000	; 0x3e8
40102640:	e0013213 	and	r3, r1, r3, lsl r2
40102644:	e1a03253 	asr	r3, r3, r2
40102648:	059f2020 	ldreq	r2, [pc, #32]	; 40102670 <resume1_bin_start+0x1640>
4010264c:	15942004 	ldrne	r2, [r4, #4]
40102650:	e6ef3073 	uxtb	r3, r3
40102654:	07923103 	ldreq	r3, [r2, r3, lsl #2]
40102658:	10202390 	mlane	r0, r0, r3, r2
4010265c:	00000390 	muleq	r0, r0, r3
40102660:	ea000000 	b	40102668 <resume1_bin_start+0x1638>
40102664:	e3e00000 	mvn	r0, #0
40102668:	e8bd803e 	pop	{r1, r2, r3, r4, r5, pc}
4010266c:	00003ed8 	ldrdeq	r3, [r0], -r8
40102670:	00003e94 	muleq	r0, r4, lr
40102674:	e59f31e0 	ldr	r3, [pc, #480]	; 4010285c <resume1_bin_start+0x182c>
40102678:	e92d41f3 	push	{r0, r1, r4, r5, r6, r7, r8, lr}
4010267c:	e28320a8 	add	r2, r3, #168	; 0xa8
40102680:	ea000002 	b	40102690 <resume1_bin_start+0x1660>
40102684:	e594c000 	ldr	ip, [r4]
40102688:	e15c0000 	cmp	ip, r0
4010268c:	0a000004 	beq	401026a4 <resume1_bin_start+0x1674>
40102690:	e1530002 	cmp	r3, r2
40102694:	e1a04003 	mov	r4, r3
40102698:	e283301c 	add	r3, r3, #28
4010269c:	1afffff8 	bne	40102684 <resume1_bin_start+0x1654>
401026a0:	ea000066 	b	40102840 <resume1_bin_start+0x1810>
401026a4:	e3540000 	cmp	r4, #0
401026a8:	0a000064 	beq	40102840 <resume1_bin_start+0x1810>
401026ac:	e5943004 	ldr	r3, [r4, #4]
401026b0:	e1510003 	cmp	r1, r3
401026b4:	ba000061 	blt	40102840 <resume1_bin_start+0x1810>
401026b8:	e5942008 	ldr	r2, [r4, #8]
401026bc:	e1510002 	cmp	r1, r2
401026c0:	ca00005e 	bgt	40102840 <resume1_bin_start+0x1810>
401026c4:	ea000061 	b	40102850 <resume1_bin_start+0x1820>
401026c8:	e594500c 	ldr	r5, [r4, #12]
401026cc:	e3550000 	cmp	r5, #0
401026d0:	e1a02005 	mov	r2, r5
401026d4:	13a00000 	movne	r0, #0
401026d8:	1a000002 	bne	401026e8 <resume1_bin_start+0x16b8>
401026dc:	ea000030 	b	401027a4 <resume1_bin_start+0x1774>
401026e0:	e1a02082 	lsl	r2, r2, #1
401026e4:	e2800001 	add	r0, r0, #1
401026e8:	e3520000 	cmp	r2, #0
401026ec:	aafffffb 	bge	401026e0 <resume1_bin_start+0x16b0>
401026f0:	e245c001 	sub	ip, r5, #1
401026f4:	e3a05000 	mov	r5, #0
401026f8:	e063300c 	rsb	r3, r3, ip
401026fc:	e0831001 	add	r1, r3, r1
40102700:	e1510002 	cmp	r1, r2
40102704:	e1a03085 	lsl	r3, r5, #1
40102708:	20621001 	rsbcs	r1, r2, r1
4010270c:	e3835001 	orr	r5, r3, #1
40102710:	31a05003 	movcc	r5, r3
40102714:	e2500001 	subs	r0, r0, #1
40102718:	e1a020a2 	lsr	r2, r2, #1
4010271c:	5afffff7 	bpl	40102700 <resume1_bin_start+0x16d0>
40102720:	ea00001f 	b	401027a4 <resume1_bin_start+0x1774>
40102724:	e59f3134 	ldr	r3, [pc, #308]	; 40102860 <resume1_bin_start+0x1830>
40102728:	e1510003 	cmp	r1, r3
4010272c:	03a05000 	moveq	r5, #0
40102730:	0a000024 	beq	401027c8 <resume1_bin_start+0x1798>
40102734:	e594000c 	ldr	r0, [r4, #12]
40102738:	e3500000 	cmp	r0, #0
4010273c:	e1a03000 	mov	r3, r0
40102740:	13a02000 	movne	r2, #0
40102744:	1a000002 	bne	40102754 <resume1_bin_start+0x1724>
40102748:	ea000010 	b	40102790 <resume1_bin_start+0x1760>
4010274c:	e1a03083 	lsl	r3, r3, #1
40102750:	e2822001 	add	r2, r2, #1
40102754:	e3530000 	cmp	r3, #0
40102758:	aafffffb 	bge	4010274c <resume1_bin_start+0x171c>
4010275c:	e59fc100 	ldr	ip, [pc, #256]	; 40102864 <resume1_bin_start+0x1834>
40102760:	e3a05000 	mov	r5, #0
40102764:	e080c00c 	add	ip, r0, ip
40102768:	e08c1001 	add	r1, ip, r1
4010276c:	e1510003 	cmp	r1, r3
40102770:	e1a00085 	lsl	r0, r5, #1
40102774:	20631001 	rsbcs	r1, r3, r1
40102778:	e3805001 	orr	r5, r0, #1
4010277c:	31a05000 	movcc	r5, r0
40102780:	e2522001 	subs	r2, r2, #1
40102784:	e1a030a3 	lsr	r3, r3, #1
40102788:	5afffff7 	bpl	4010276c <resume1_bin_start+0x173c>
4010278c:	ea000000 	b	40102794 <resume1_bin_start+0x1764>
40102790:	e1a05000 	mov	r5, r0
40102794:	e6ef5075 	uxtb	r5, r5
40102798:	e3550010 	cmp	r5, #16
4010279c:	9a000002 	bls	401027ac <resume1_bin_start+0x177c>
401027a0:	e2455006 	sub	r5, r5, #6
401027a4:	e6ef5075 	uxtb	r5, r5
401027a8:	ea000006 	b	401027c8 <resume1_bin_start+0x1798>
401027ac:	e355000d 	cmp	r5, #13
401027b0:	82455005 	subhi	r5, r5, #5
401027b4:	8afffffa 	bhi	401027a4 <resume1_bin_start+0x1774>
401027b8:	03a05009 	moveq	r5, #9
401027bc:	0a000001 	beq	401027c8 <resume1_bin_start+0x1798>
401027c0:	e3550008 	cmp	r5, #8
401027c4:	23a05008 	movcs	r5, #8
401027c8:	e28d6007 	add	r6, sp, #7
401027cc:	e3a00000 	mov	r0, #0
401027d0:	e3a01034 	mov	r1, #52	; 0x34
401027d4:	e5d42010 	ldrb	r2, [r4, #16]
401027d8:	e1a03006 	mov	r3, r6
401027dc:	e5947014 	ldr	r7, [r4, #20]
401027e0:	e5948018 	ldr	r8, [r4, #24]
401027e4:	ebfffc2a 	bl	40101894 <resume1_bin_start+0x864>
401027e8:	e3500000 	cmp	r0, #0
401027ec:	1a000013 	bne	40102840 <resume1_bin_start+0x1810>
401027f0:	e2800001 	add	r0, r0, #1
401027f4:	e1a05715 	lsl	r5, r5, r7
401027f8:	e5dd3007 	ldrb	r3, [sp, #7]
401027fc:	e1a08810 	lsl	r8, r0, r8
40102800:	e6ef5075 	uxtb	r5, r5
40102804:	e2488001 	sub	r8, r8, #1
40102808:	e1a07718 	lsl	r7, r8, r7
4010280c:	e6ef7077 	uxtb	r7, r7
40102810:	e0072003 	and	r2, r7, r3
40102814:	e1520005 	cmp	r2, r5
40102818:	0a00000a 	beq	40102848 <resume1_bin_start+0x1818>
4010281c:	e1c33007 	bic	r3, r3, r7
40102820:	e3a01034 	mov	r1, #52	; 0x34
40102824:	e1855003 	orr	r5, r5, r3
40102828:	e1a03006 	mov	r3, r6
4010282c:	e5cd5007 	strb	r5, [sp, #7]
40102830:	e5d42010 	ldrb	r2, [r4, #16]
40102834:	ebfffc16 	bl	40101894 <resume1_bin_start+0x864>
40102838:	e3500000 	cmp	r0, #0
4010283c:	0a000001 	beq	40102848 <resume1_bin_start+0x1818>
40102840:	e3e00000 	mvn	r0, #0
40102844:	ea000000 	b	4010284c <resume1_bin_start+0x181c>
40102848:	e3a00000 	mov	r0, #0
4010284c:	e8bd81fc 	pop	{r2, r3, r4, r5, r6, r7, r8, pc}
40102850:	e3500006 	cmp	r0, #6
40102854:	1affff9b 	bne	401026c8 <resume1_bin_start+0x1698>
40102858:	eaffffb1 	b	40102724 <resume1_bin_start+0x16f4>
4010285c:	00003ed8 	ldrdeq	r3, [r0], -r8
40102860:	001312d0 	undefined instruction 0x001312d0
40102864:	ffedb07f 	undefined instruction 0xffedb07f
40102868:	e92d4037 	push	{r0, r1, r2, r4, r5, lr}
4010286c:	e1a04000 	mov	r4, r0
40102870:	e3a00901 	mov	r0, #16384	; 0x4000
40102874:	eb0005b6 	bl	40103f54 <resume1_bin_start+0x2f24>
40102878:	e3140001 	tst	r4, #1
4010287c:	0a000011 	beq	401028c8 <resume1_bin_start+0x1898>
40102880:	e28d5007 	add	r5, sp, #7
40102884:	e3a00000 	mov	r0, #0
40102888:	e3a01034 	mov	r1, #52	; 0x34
4010288c:	e3a02042 	mov	r2, #66	; 0x42
40102890:	e1a03005 	mov	r3, r5
40102894:	ebfffbfe 	bl	40101894 <resume1_bin_start+0x864>
40102898:	e3500000 	cmp	r0, #0
4010289c:	1a0001ed 	bne	40103058 <resume1_bin_start+0x2028>
401028a0:	e5ddc007 	ldrb	ip, [sp, #7]
401028a4:	e1a03005 	mov	r3, r5
401028a8:	e2800001 	add	r0, r0, #1
401028ac:	e3a01034 	mov	r1, #52	; 0x34
401028b0:	e3a02042 	mov	r2, #66	; 0x42
401028b4:	e38cc003 	orr	ip, ip, #3
401028b8:	e5cdc007 	strb	ip, [sp, #7]
401028bc:	ebfffbf4 	bl	40101894 <resume1_bin_start+0x864>
401028c0:	e3500000 	cmp	r0, #0
401028c4:	1a0001e3 	bne	40103058 <resume1_bin_start+0x2028>
401028c8:	e3140040 	tst	r4, #64	; 0x40
401028cc:	0a000011 	beq	40102918 <resume1_bin_start+0x18e8>
401028d0:	e28d5007 	add	r5, sp, #7
401028d4:	e3a00000 	mov	r0, #0
401028d8:	e3a01034 	mov	r1, #52	; 0x34
401028dc:	e3a02042 	mov	r2, #66	; 0x42
401028e0:	e1a03005 	mov	r3, r5
401028e4:	ebfffbea 	bl	40101894 <resume1_bin_start+0x864>
401028e8:	e3500000 	cmp	r0, #0
401028ec:	1a0001d9 	bne	40103058 <resume1_bin_start+0x2028>
401028f0:	e5ddc007 	ldrb	ip, [sp, #7]
401028f4:	e1a03005 	mov	r3, r5
401028f8:	e2800001 	add	r0, r0, #1
401028fc:	e3a01034 	mov	r1, #52	; 0x34
40102900:	e3a02042 	mov	r2, #66	; 0x42
40102904:	e38cc002 	orr	ip, ip, #2
40102908:	e5cdc007 	strb	ip, [sp, #7]
4010290c:	ebfffbe0 	bl	40101894 <resume1_bin_start+0x864>
40102910:	e3500000 	cmp	r0, #0
40102914:	1a0001cf 	bne	40103058 <resume1_bin_start+0x2028>
40102918:	e3140080 	tst	r4, #128	; 0x80
4010291c:	0a000011 	beq	40102968 <resume1_bin_start+0x1938>
40102920:	e28d5007 	add	r5, sp, #7
40102924:	e3a00000 	mov	r0, #0
40102928:	e3a01034 	mov	r1, #52	; 0x34
4010292c:	e3a02042 	mov	r2, #66	; 0x42
40102930:	e1a03005 	mov	r3, r5
40102934:	ebfffbd6 	bl	40101894 <resume1_bin_start+0x864>
40102938:	e3500000 	cmp	r0, #0
4010293c:	1a0001c5 	bne	40103058 <resume1_bin_start+0x2028>
40102940:	e5ddc007 	ldrb	ip, [sp, #7]
40102944:	e2800001 	add	r0, r0, #1
40102948:	e1a03005 	mov	r3, r5
4010294c:	e3a01034 	mov	r1, #52	; 0x34
40102950:	e3a02042 	mov	r2, #66	; 0x42
40102954:	e18cc000 	orr	ip, ip, r0
40102958:	e5cdc007 	strb	ip, [sp, #7]
4010295c:	ebfffbcc 	bl	40101894 <resume1_bin_start+0x864>
40102960:	e3500000 	cmp	r0, #0
40102964:	1a0001bb 	bne	40103058 <resume1_bin_start+0x2028>
40102968:	e3140010 	tst	r4, #16
4010296c:	0a000011 	beq	401029b8 <resume1_bin_start+0x1988>
40102970:	e28d5007 	add	r5, sp, #7
40102974:	e3a00000 	mov	r0, #0
40102978:	e3a01034 	mov	r1, #52	; 0x34
4010297c:	e3a02044 	mov	r2, #68	; 0x44
40102980:	e1a03005 	mov	r3, r5
40102984:	ebfffbc2 	bl	40101894 <resume1_bin_start+0x864>
40102988:	e3500000 	cmp	r0, #0
4010298c:	1a0001b1 	bne	40103058 <resume1_bin_start+0x2028>
40102990:	e5ddc007 	ldrb	ip, [sp, #7]
40102994:	e1a03005 	mov	r3, r5
40102998:	e2800001 	add	r0, r0, #1
4010299c:	e3a01034 	mov	r1, #52	; 0x34
401029a0:	e3a02044 	mov	r2, #68	; 0x44
401029a4:	e38cc040 	orr	ip, ip, #64	; 0x40
401029a8:	e5cdc007 	strb	ip, [sp, #7]
401029ac:	ebfffbb8 	bl	40101894 <resume1_bin_start+0x864>
401029b0:	e3500000 	cmp	r0, #0
401029b4:	1a0001a7 	bne	40103058 <resume1_bin_start+0x2028>
401029b8:	e3140020 	tst	r4, #32
401029bc:	0a000011 	beq	40102a08 <resume1_bin_start+0x19d8>
401029c0:	e28d5007 	add	r5, sp, #7
401029c4:	e3a00000 	mov	r0, #0
401029c8:	e3a01034 	mov	r1, #52	; 0x34
401029cc:	e3a02044 	mov	r2, #68	; 0x44
401029d0:	e1a03005 	mov	r3, r5
401029d4:	ebfffbae 	bl	40101894 <resume1_bin_start+0x864>
401029d8:	e3500000 	cmp	r0, #0
401029dc:	1a00019d 	bne	40103058 <resume1_bin_start+0x2028>
401029e0:	e5ddc007 	ldrb	ip, [sp, #7]
401029e4:	e1a03005 	mov	r3, r5
401029e8:	e2800001 	add	r0, r0, #1
401029ec:	e3a01034 	mov	r1, #52	; 0x34
401029f0:	e3a02044 	mov	r2, #68	; 0x44
401029f4:	e38cc020 	orr	ip, ip, #32
401029f8:	e5cdc007 	strb	ip, [sp, #7]
401029fc:	ebfffba4 	bl	40101894 <resume1_bin_start+0x864>
40102a00:	e3500000 	cmp	r0, #0
40102a04:	1a000193 	bne	40103058 <resume1_bin_start+0x2028>
40102a08:	e3140002 	tst	r4, #2
40102a0c:	0a00001a 	beq	40102a7c <resume1_bin_start+0x1a4c>
40102a10:	e28d5007 	add	r5, sp, #7
40102a14:	e3a00000 	mov	r0, #0
40102a18:	e3a01034 	mov	r1, #52	; 0x34
40102a1c:	e3a02043 	mov	r2, #67	; 0x43
40102a20:	e1a03005 	mov	r3, r5
40102a24:	ebfffb9a 	bl	40101894 <resume1_bin_start+0x864>
40102a28:	e3500000 	cmp	r0, #0
40102a2c:	1a000189 	bne	40103058 <resume1_bin_start+0x2028>
40102a30:	e5ddc007 	ldrb	ip, [sp, #7]
40102a34:	e2800001 	add	r0, r0, #1
40102a38:	e3a01034 	mov	r1, #52	; 0x34
40102a3c:	e3a02043 	mov	r2, #67	; 0x43
40102a40:	e1a03005 	mov	r3, r5
40102a44:	e38cc003 	orr	ip, ip, #3
40102a48:	e5cdc007 	strb	ip, [sp, #7]
40102a4c:	ebfffb90 	bl	40101894 <resume1_bin_start+0x864>
40102a50:	e3500000 	cmp	r0, #0
40102a54:	1a00017f 	bne	40103058 <resume1_bin_start+0x2028>
40102a58:	e1a03005 	mov	r3, r5
40102a5c:	e2800001 	add	r0, r0, #1
40102a60:	e3a01034 	mov	r1, #52	; 0x34
40102a64:	e3a0204b 	mov	r2, #75	; 0x4b
40102a68:	e3a0c003 	mov	ip, #3
40102a6c:	e5cdc007 	strb	ip, [sp, #7]
40102a70:	ebfffb87 	bl	40101894 <resume1_bin_start+0x864>
40102a74:	e3500000 	cmp	r0, #0
40102a78:	1a000176 	bne	40103058 <resume1_bin_start+0x2028>
40102a7c:	e3140004 	tst	r4, #4
40102a80:	0a000030 	beq	40102b48 <resume1_bin_start+0x1b18>
40102a84:	e28d5007 	add	r5, sp, #7
40102a88:	e3a00000 	mov	r0, #0
40102a8c:	e3a01034 	mov	r1, #52	; 0x34
40102a90:	e3a02040 	mov	r2, #64	; 0x40
40102a94:	e1a03005 	mov	r3, r5
40102a98:	ebfffb7d 	bl	40101894 <resume1_bin_start+0x864>
40102a9c:	e3500000 	cmp	r0, #0
40102aa0:	1a00016c 	bne	40103058 <resume1_bin_start+0x2028>
40102aa4:	e5ddc007 	ldrb	ip, [sp, #7]
40102aa8:	e2800001 	add	r0, r0, #1
40102aac:	e3a01034 	mov	r1, #52	; 0x34
40102ab0:	e3a02040 	mov	r2, #64	; 0x40
40102ab4:	e1a03005 	mov	r3, r5
40102ab8:	e38cc00c 	orr	ip, ip, #12
40102abc:	e5cdc007 	strb	ip, [sp, #7]
40102ac0:	ebfffb73 	bl	40101894 <resume1_bin_start+0x864>
40102ac4:	e3500000 	cmp	r0, #0
40102ac8:	1a000162 	bne	40103058 <resume1_bin_start+0x2028>
40102acc:	e3a01034 	mov	r1, #52	; 0x34
40102ad0:	e3a02092 	mov	r2, #146	; 0x92
40102ad4:	e1a03005 	mov	r3, r5
40102ad8:	ebfffb6d 	bl	40101894 <resume1_bin_start+0x864>
40102adc:	e3500000 	cmp	r0, #0
40102ae0:	1a00015c 	bne	40103058 <resume1_bin_start+0x2028>
40102ae4:	e2800001 	add	r0, r0, #1
40102ae8:	e3a01034 	mov	r1, #52	; 0x34
40102aec:	e3a02092 	mov	r2, #146	; 0x92
40102af0:	e1a03005 	mov	r3, r5
40102af4:	e3e0c07d 	mvn	ip, #125	; 0x7d
40102af8:	e5cdc007 	strb	ip, [sp, #7]
40102afc:	ebfffb64 	bl	40101894 <resume1_bin_start+0x864>
40102b00:	e3500000 	cmp	r0, #0
40102b04:	1a000153 	bne	40103058 <resume1_bin_start+0x2028>
40102b08:	e3a01034 	mov	r1, #52	; 0x34
40102b0c:	e3a02044 	mov	r2, #68	; 0x44
40102b10:	e1a03005 	mov	r3, r5
40102b14:	ebfffb5e 	bl	40101894 <resume1_bin_start+0x864>
40102b18:	e3500000 	cmp	r0, #0
40102b1c:	1a00014d 	bne	40103058 <resume1_bin_start+0x2028>
40102b20:	e5ddc007 	ldrb	ip, [sp, #7]
40102b24:	e1a03005 	mov	r3, r5
40102b28:	e2800001 	add	r0, r0, #1
40102b2c:	e3a01034 	mov	r1, #52	; 0x34
40102b30:	e3a02044 	mov	r2, #68	; 0x44
40102b34:	e38cc002 	orr	ip, ip, #2
40102b38:	e5cdc007 	strb	ip, [sp, #7]
40102b3c:	ebfffb54 	bl	40101894 <resume1_bin_start+0x864>
40102b40:	e3500000 	cmp	r0, #0
40102b44:	1a000143 	bne	40103058 <resume1_bin_start+0x2028>
40102b48:	e3140008 	tst	r4, #8
40102b4c:	0a000011 	beq	40102b98 <resume1_bin_start+0x1b68>
40102b50:	e28d5007 	add	r5, sp, #7
40102b54:	e3a00000 	mov	r0, #0
40102b58:	e3a01034 	mov	r1, #52	; 0x34
40102b5c:	e3a02040 	mov	r2, #64	; 0x40
40102b60:	e1a03005 	mov	r3, r5
40102b64:	ebfffb4a 	bl	40101894 <resume1_bin_start+0x864>
40102b68:	e3500000 	cmp	r0, #0
40102b6c:	1a000139 	bne	40103058 <resume1_bin_start+0x2028>
40102b70:	e5ddc007 	ldrb	ip, [sp, #7]
40102b74:	e1a03005 	mov	r3, r5
40102b78:	e2800001 	add	r0, r0, #1
40102b7c:	e3a01034 	mov	r1, #52	; 0x34
40102b80:	e3a02040 	mov	r2, #64	; 0x40
40102b84:	e38cc060 	orr	ip, ip, #96	; 0x60
40102b88:	e5cdc007 	strb	ip, [sp, #7]
40102b8c:	ebfffb40 	bl	40101894 <resume1_bin_start+0x864>
40102b90:	e3500000 	cmp	r0, #0
40102b94:	1a00012f 	bne	40103058 <resume1_bin_start+0x2028>
40102b98:	e3140c01 	tst	r4, #256	; 0x100
40102b9c:	0a000022 	beq	40102c2c <resume1_bin_start+0x1bfc>
40102ba0:	e28d5007 	add	r5, sp, #7
40102ba4:	e3a00000 	mov	r0, #0
40102ba8:	e3a01034 	mov	r1, #52	; 0x34
40102bac:	e3a02044 	mov	r2, #68	; 0x44
40102bb0:	e1a03005 	mov	r3, r5
40102bb4:	ebfffb36 	bl	40101894 <resume1_bin_start+0x864>
40102bb8:	e3500000 	cmp	r0, #0
40102bbc:	1a000125 	bne	40103058 <resume1_bin_start+0x2028>
40102bc0:	e5ddc007 	ldrb	ip, [sp, #7]
40102bc4:	e2800001 	add	r0, r0, #1
40102bc8:	e3a01034 	mov	r1, #52	; 0x34
40102bcc:	e3a02044 	mov	r2, #68	; 0x44
40102bd0:	e1a03005 	mov	r3, r5
40102bd4:	e18cc000 	orr	ip, ip, r0
40102bd8:	e5cdc007 	strb	ip, [sp, #7]
40102bdc:	ebfffb2c 	bl	40101894 <resume1_bin_start+0x864>
40102be0:	e3500000 	cmp	r0, #0
40102be4:	1a00011b 	bne	40103058 <resume1_bin_start+0x2028>
40102be8:	e3a01034 	mov	r1, #52	; 0x34
40102bec:	e3a02090 	mov	r2, #144	; 0x90
40102bf0:	e1a03005 	mov	r3, r5
40102bf4:	ebfffb26 	bl	40101894 <resume1_bin_start+0x864>
40102bf8:	e3500000 	cmp	r0, #0
40102bfc:	1a000115 	bne	40103058 <resume1_bin_start+0x2028>
40102c00:	e5ddc007 	ldrb	ip, [sp, #7]
40102c04:	e1a03005 	mov	r3, r5
40102c08:	e2800001 	add	r0, r0, #1
40102c0c:	e3a01034 	mov	r1, #52	; 0x34
40102c10:	e3ccc007 	bic	ip, ip, #7
40102c14:	e3a02090 	mov	r2, #144	; 0x90
40102c18:	e38cc042 	orr	ip, ip, #66	; 0x42
40102c1c:	e5cdc007 	strb	ip, [sp, #7]
40102c20:	ebfffb1b 	bl	40101894 <resume1_bin_start+0x864>
40102c24:	e3500000 	cmp	r0, #0
40102c28:	1a00010a 	bne	40103058 <resume1_bin_start+0x2028>
40102c2c:	e3140c02 	tst	r4, #512	; 0x200
40102c30:	0a000024 	beq	40102cc8 <resume1_bin_start+0x1c98>
40102c34:	e28d5007 	add	r5, sp, #7
40102c38:	e3a00000 	mov	r0, #0
40102c3c:	e3a01034 	mov	r1, #52	; 0x34
40102c40:	e3a02044 	mov	r2, #68	; 0x44
40102c44:	e1a03005 	mov	r3, r5
40102c48:	ebfffb11 	bl	40101894 <resume1_bin_start+0x864>
40102c4c:	e3500000 	cmp	r0, #0
40102c50:	1a000100 	bne	40103058 <resume1_bin_start+0x2028>
40102c54:	e5ddc007 	ldrb	ip, [sp, #7]
40102c58:	e2800001 	add	r0, r0, #1
40102c5c:	e3a01034 	mov	r1, #52	; 0x34
40102c60:	e3a02044 	mov	r2, #68	; 0x44
40102c64:	e1a03005 	mov	r3, r5
40102c68:	e18cc000 	orr	ip, ip, r0
40102c6c:	e5cdc007 	strb	ip, [sp, #7]
40102c70:	ebfffb07 	bl	40101894 <resume1_bin_start+0x864>
40102c74:	e3500000 	cmp	r0, #0
40102c78:	1a0000f6 	bne	40103058 <resume1_bin_start+0x2028>
40102c7c:	e3a01034 	mov	r1, #52	; 0x34
40102c80:	e3a02090 	mov	r2, #144	; 0x90
40102c84:	e1a03005 	mov	r3, r5
40102c88:	ebfffb01 	bl	40101894 <resume1_bin_start+0x864>
40102c8c:	e3500000 	cmp	r0, #0
40102c90:	1a0000f0 	bne	40103058 <resume1_bin_start+0x2028>
40102c94:	e5ddc007 	ldrb	ip, [sp, #7]
40102c98:	e1a03005 	mov	r3, r5
40102c9c:	e2800001 	add	r0, r0, #1
40102ca0:	e3a01034 	mov	r1, #52	; 0x34
40102ca4:	e3ccc007 	bic	ip, ip, #7
40102ca8:	e3a02090 	mov	r2, #144	; 0x90
40102cac:	e1e0c00c 	mvn	ip, ip
40102cb0:	e20cc07d 	and	ip, ip, #125	; 0x7d
40102cb4:	e1e0c00c 	mvn	ip, ip
40102cb8:	e5cdc007 	strb	ip, [sp, #7]
40102cbc:	ebfffaf4 	bl	40101894 <resume1_bin_start+0x864>
40102cc0:	e3500000 	cmp	r0, #0
40102cc4:	1a0000e3 	bne	40103058 <resume1_bin_start+0x2028>
40102cc8:	e3140b01 	tst	r4, #1024	; 0x400
40102ccc:	0a000022 	beq	40102d5c <resume1_bin_start+0x1d2c>
40102cd0:	e28d5007 	add	r5, sp, #7
40102cd4:	e3a00000 	mov	r0, #0
40102cd8:	e3a01034 	mov	r1, #52	; 0x34
40102cdc:	e3a02044 	mov	r2, #68	; 0x44
40102ce0:	e1a03005 	mov	r3, r5
40102ce4:	ebfffaea 	bl	40101894 <resume1_bin_start+0x864>
40102ce8:	e3500000 	cmp	r0, #0
40102cec:	1a0000d9 	bne	40103058 <resume1_bin_start+0x2028>
40102cf0:	e5ddc007 	ldrb	ip, [sp, #7]
40102cf4:	e2800001 	add	r0, r0, #1
40102cf8:	e3a01034 	mov	r1, #52	; 0x34
40102cfc:	e3a02044 	mov	r2, #68	; 0x44
40102d00:	e1a03005 	mov	r3, r5
40102d04:	e38cc002 	orr	ip, ip, #2
40102d08:	e5cdc007 	strb	ip, [sp, #7]
40102d0c:	ebfffae0 	bl	40101894 <resume1_bin_start+0x864>
40102d10:	e3500000 	cmp	r0, #0
40102d14:	1a0000cf 	bne	40103058 <resume1_bin_start+0x2028>
40102d18:	e3a01034 	mov	r1, #52	; 0x34
40102d1c:	e3a02092 	mov	r2, #146	; 0x92
40102d20:	e1a03005 	mov	r3, r5
40102d24:	ebfffada 	bl	40101894 <resume1_bin_start+0x864>
40102d28:	e3500000 	cmp	r0, #0
40102d2c:	1a0000c9 	bne	40103058 <resume1_bin_start+0x2028>
40102d30:	e5ddc007 	ldrb	ip, [sp, #7]
40102d34:	e1a03005 	mov	r3, r5
40102d38:	e2800001 	add	r0, r0, #1
40102d3c:	e3a01034 	mov	r1, #52	; 0x34
40102d40:	e3ccc007 	bic	ip, ip, #7
40102d44:	e3a02092 	mov	r2, #146	; 0x92
40102d48:	e38cc042 	orr	ip, ip, #66	; 0x42
40102d4c:	e5cdc007 	strb	ip, [sp, #7]
40102d50:	ebfffacf 	bl	40101894 <resume1_bin_start+0x864>
40102d54:	e3500000 	cmp	r0, #0
40102d58:	1a0000be 	bne	40103058 <resume1_bin_start+0x2028>
40102d5c:	e3140b02 	tst	r4, #2048	; 0x800
40102d60:	0a000024 	beq	40102df8 <resume1_bin_start+0x1dc8>
40102d64:	e28d5007 	add	r5, sp, #7
40102d68:	e3a00000 	mov	r0, #0
40102d6c:	e3a01034 	mov	r1, #52	; 0x34
40102d70:	e3a02044 	mov	r2, #68	; 0x44
40102d74:	e1a03005 	mov	r3, r5
40102d78:	ebfffac5 	bl	40101894 <resume1_bin_start+0x864>
40102d7c:	e3500000 	cmp	r0, #0
40102d80:	1a0000b4 	bne	40103058 <resume1_bin_start+0x2028>
40102d84:	e5ddc007 	ldrb	ip, [sp, #7]
40102d88:	e2800001 	add	r0, r0, #1
40102d8c:	e3a01034 	mov	r1, #52	; 0x34
40102d90:	e3a02044 	mov	r2, #68	; 0x44
40102d94:	e1a03005 	mov	r3, r5
40102d98:	e38cc002 	orr	ip, ip, #2
40102d9c:	e5cdc007 	strb	ip, [sp, #7]
40102da0:	ebfffabb 	bl	40101894 <resume1_bin_start+0x864>
40102da4:	e3500000 	cmp	r0, #0
40102da8:	1a0000aa 	bne	40103058 <resume1_bin_start+0x2028>
40102dac:	e3a01034 	mov	r1, #52	; 0x34
40102db0:	e3a02092 	mov	r2, #146	; 0x92
40102db4:	e1a03005 	mov	r3, r5
40102db8:	ebfffab5 	bl	40101894 <resume1_bin_start+0x864>
40102dbc:	e3500000 	cmp	r0, #0
40102dc0:	1a0000a4 	bne	40103058 <resume1_bin_start+0x2028>
40102dc4:	e5ddc007 	ldrb	ip, [sp, #7]
40102dc8:	e1a03005 	mov	r3, r5
40102dcc:	e2800001 	add	r0, r0, #1
40102dd0:	e3a01034 	mov	r1, #52	; 0x34
40102dd4:	e3ccc007 	bic	ip, ip, #7
40102dd8:	e3a02092 	mov	r2, #146	; 0x92
40102ddc:	e1e0c00c 	mvn	ip, ip
40102de0:	e20cc07d 	and	ip, ip, #125	; 0x7d
40102de4:	e1e0c00c 	mvn	ip, ip
40102de8:	e5cdc007 	strb	ip, [sp, #7]
40102dec:	ebfffaa8 	bl	40101894 <resume1_bin_start+0x864>
40102df0:	e3500000 	cmp	r0, #0
40102df4:	1a000097 	bne	40103058 <resume1_bin_start+0x2028>
40102df8:	e3140a01 	tst	r4, #4096	; 0x1000
40102dfc:	0a000022 	beq	40102e8c <resume1_bin_start+0x1e5c>
40102e00:	e28d5007 	add	r5, sp, #7
40102e04:	e3a00000 	mov	r0, #0
40102e08:	e3a01034 	mov	r1, #52	; 0x34
40102e0c:	e3a02044 	mov	r2, #68	; 0x44
40102e10:	e1a03005 	mov	r3, r5
40102e14:	ebfffa9e 	bl	40101894 <resume1_bin_start+0x864>
40102e18:	e3500000 	cmp	r0, #0
40102e1c:	1a00008d 	bne	40103058 <resume1_bin_start+0x2028>
40102e20:	e5ddc007 	ldrb	ip, [sp, #7]
40102e24:	e2800001 	add	r0, r0, #1
40102e28:	e3a01034 	mov	r1, #52	; 0x34
40102e2c:	e3a02044 	mov	r2, #68	; 0x44
40102e30:	e1a03005 	mov	r3, r5
40102e34:	e38cc004 	orr	ip, ip, #4
40102e38:	e5cdc007 	strb	ip, [sp, #7]
40102e3c:	ebfffa94 	bl	40101894 <resume1_bin_start+0x864>
40102e40:	e3500000 	cmp	r0, #0
40102e44:	1a000083 	bne	40103058 <resume1_bin_start+0x2028>
40102e48:	e3a01034 	mov	r1, #52	; 0x34
40102e4c:	e3a02093 	mov	r2, #147	; 0x93
40102e50:	e1a03005 	mov	r3, r5
40102e54:	ebfffa8e 	bl	40101894 <resume1_bin_start+0x864>
40102e58:	e3500000 	cmp	r0, #0
40102e5c:	1a00007d 	bne	40103058 <resume1_bin_start+0x2028>
40102e60:	e5ddc007 	ldrb	ip, [sp, #7]
40102e64:	e1a03005 	mov	r3, r5
40102e68:	e2800001 	add	r0, r0, #1
40102e6c:	e3a01034 	mov	r1, #52	; 0x34
40102e70:	e3ccc007 	bic	ip, ip, #7
40102e74:	e3a02093 	mov	r2, #147	; 0x93
40102e78:	e38cc042 	orr	ip, ip, #66	; 0x42
40102e7c:	e5cdc007 	strb	ip, [sp, #7]
40102e80:	ebfffa83 	bl	40101894 <resume1_bin_start+0x864>
40102e84:	e3500000 	cmp	r0, #0
40102e88:	1a000072 	bne	40103058 <resume1_bin_start+0x2028>
40102e8c:	e3140a02 	tst	r4, #8192	; 0x2000
40102e90:	0a000024 	beq	40102f28 <resume1_bin_start+0x1ef8>
40102e94:	e28d5007 	add	r5, sp, #7
40102e98:	e3a00000 	mov	r0, #0
40102e9c:	e3a01034 	mov	r1, #52	; 0x34
40102ea0:	e3a02044 	mov	r2, #68	; 0x44
40102ea4:	e1a03005 	mov	r3, r5
40102ea8:	ebfffa79 	bl	40101894 <resume1_bin_start+0x864>
40102eac:	e3500000 	cmp	r0, #0
40102eb0:	1a000068 	bne	40103058 <resume1_bin_start+0x2028>
40102eb4:	e5ddc007 	ldrb	ip, [sp, #7]
40102eb8:	e2800001 	add	r0, r0, #1
40102ebc:	e3a01034 	mov	r1, #52	; 0x34
40102ec0:	e3a02044 	mov	r2, #68	; 0x44
40102ec4:	e1a03005 	mov	r3, r5
40102ec8:	e38cc004 	orr	ip, ip, #4
40102ecc:	e5cdc007 	strb	ip, [sp, #7]
40102ed0:	ebfffa6f 	bl	40101894 <resume1_bin_start+0x864>
40102ed4:	e3500000 	cmp	r0, #0
40102ed8:	1a00005e 	bne	40103058 <resume1_bin_start+0x2028>
40102edc:	e3a01034 	mov	r1, #52	; 0x34
40102ee0:	e3a02093 	mov	r2, #147	; 0x93
40102ee4:	e1a03005 	mov	r3, r5
40102ee8:	ebfffa69 	bl	40101894 <resume1_bin_start+0x864>
40102eec:	e3500000 	cmp	r0, #0
40102ef0:	1a000058 	bne	40103058 <resume1_bin_start+0x2028>
40102ef4:	e5ddc007 	ldrb	ip, [sp, #7]
40102ef8:	e1a03005 	mov	r3, r5
40102efc:	e2800001 	add	r0, r0, #1
40102f00:	e3a01034 	mov	r1, #52	; 0x34
40102f04:	e3ccc007 	bic	ip, ip, #7
40102f08:	e3a02093 	mov	r2, #147	; 0x93
40102f0c:	e1e0c00c 	mvn	ip, ip
40102f10:	e20cc07d 	and	ip, ip, #125	; 0x7d
40102f14:	e1e0c00c 	mvn	ip, ip
40102f18:	e5cdc007 	strb	ip, [sp, #7]
40102f1c:	ebfffa5c 	bl	40101894 <resume1_bin_start+0x864>
40102f20:	e3500000 	cmp	r0, #0
40102f24:	1a00004b 	bne	40103058 <resume1_bin_start+0x2028>
40102f28:	e3140901 	tst	r4, #16384	; 0x4000
40102f2c:	0a000022 	beq	40102fbc <resume1_bin_start+0x1f8c>
40102f30:	e28d5007 	add	r5, sp, #7
40102f34:	e3a00000 	mov	r0, #0
40102f38:	e3a01034 	mov	r1, #52	; 0x34
40102f3c:	e3a02044 	mov	r2, #68	; 0x44
40102f40:	e1a03005 	mov	r3, r5
40102f44:	ebfffa52 	bl	40101894 <resume1_bin_start+0x864>
40102f48:	e3500000 	cmp	r0, #0
40102f4c:	1a000041 	bne	40103058 <resume1_bin_start+0x2028>
40102f50:	e5ddc007 	ldrb	ip, [sp, #7]
40102f54:	e2800001 	add	r0, r0, #1
40102f58:	e3a01034 	mov	r1, #52	; 0x34
40102f5c:	e3a02044 	mov	r2, #68	; 0x44
40102f60:	e1a03005 	mov	r3, r5
40102f64:	e38cc008 	orr	ip, ip, #8
40102f68:	e5cdc007 	strb	ip, [sp, #7]
40102f6c:	ebfffa48 	bl	40101894 <resume1_bin_start+0x864>
40102f70:	e3500000 	cmp	r0, #0
40102f74:	1a000037 	bne	40103058 <resume1_bin_start+0x2028>
40102f78:	e3a01034 	mov	r1, #52	; 0x34
40102f7c:	e3a02095 	mov	r2, #149	; 0x95
40102f80:	e1a03005 	mov	r3, r5
40102f84:	ebfffa42 	bl	40101894 <resume1_bin_start+0x864>
40102f88:	e3500000 	cmp	r0, #0
40102f8c:	1a000031 	bne	40103058 <resume1_bin_start+0x2028>
40102f90:	e5ddc007 	ldrb	ip, [sp, #7]
40102f94:	e1a03005 	mov	r3, r5
40102f98:	e2800001 	add	r0, r0, #1
40102f9c:	e3a01034 	mov	r1, #52	; 0x34
40102fa0:	e3ccc007 	bic	ip, ip, #7
40102fa4:	e3a02095 	mov	r2, #149	; 0x95
40102fa8:	e38cc042 	orr	ip, ip, #66	; 0x42
40102fac:	e5cdc007 	strb	ip, [sp, #7]
40102fb0:	ebfffa37 	bl	40101894 <resume1_bin_start+0x864>
40102fb4:	e3500000 	cmp	r0, #0
40102fb8:	1a000026 	bne	40103058 <resume1_bin_start+0x2028>
40102fbc:	e3140902 	tst	r4, #32768	; 0x8000
40102fc0:	0a000026 	beq	40103060 <resume1_bin_start+0x2030>
40102fc4:	e28d4007 	add	r4, sp, #7
40102fc8:	e3a00000 	mov	r0, #0
40102fcc:	e3a01034 	mov	r1, #52	; 0x34
40102fd0:	e3a02044 	mov	r2, #68	; 0x44
40102fd4:	e1a03004 	mov	r3, r4
40102fd8:	ebfffa2d 	bl	40101894 <resume1_bin_start+0x864>
40102fdc:	e3500000 	cmp	r0, #0
40102fe0:	1a00001c 	bne	40103058 <resume1_bin_start+0x2028>
40102fe4:	e5ddc007 	ldrb	ip, [sp, #7]
40102fe8:	e2800001 	add	r0, r0, #1
40102fec:	e3a01034 	mov	r1, #52	; 0x34
40102ff0:	e3a02044 	mov	r2, #68	; 0x44
40102ff4:	e1a03004 	mov	r3, r4
40102ff8:	e38cc008 	orr	ip, ip, #8
40102ffc:	e5cdc007 	strb	ip, [sp, #7]
40103000:	ebfffa23 	bl	40101894 <resume1_bin_start+0x864>
40103004:	e3500000 	cmp	r0, #0
40103008:	1a000012 	bne	40103058 <resume1_bin_start+0x2028>
4010300c:	e3a01034 	mov	r1, #52	; 0x34
40103010:	e3a02095 	mov	r2, #149	; 0x95
40103014:	e1a03004 	mov	r3, r4
40103018:	ebfffa1d 	bl	40101894 <resume1_bin_start+0x864>
4010301c:	e3500000 	cmp	r0, #0
40103020:	1a00000c 	bne	40103058 <resume1_bin_start+0x2028>
40103024:	e5ddc007 	ldrb	ip, [sp, #7]
40103028:	e1a03004 	mov	r3, r4
4010302c:	e2800001 	add	r0, r0, #1
40103030:	e3a01034 	mov	r1, #52	; 0x34
40103034:	e3ccc007 	bic	ip, ip, #7
40103038:	e3a02095 	mov	r2, #149	; 0x95
4010303c:	e1e0c00c 	mvn	ip, ip
40103040:	e20cc07d 	and	ip, ip, #125	; 0x7d
40103044:	e1e0c00c 	mvn	ip, ip
40103048:	e5cdc007 	strb	ip, [sp, #7]
4010304c:	ebfffa10 	bl	40101894 <resume1_bin_start+0x864>
40103050:	e3500000 	cmp	r0, #0
40103054:	0a000001 	beq	40103060 <resume1_bin_start+0x2030>
40103058:	e3e00000 	mvn	r0, #0
4010305c:	ea000000 	b	40103064 <resume1_bin_start+0x2034>
40103060:	e3a00000 	mov	r0, #0
40103064:	e8bd803e 	pop	{r1, r2, r3, r4, r5, pc}
40103068:	e59f308c 	ldr	r3, [pc, #140]	; 401030fc <resume1_bin_start+0x20cc>
4010306c:	e3a01000 	mov	r1, #0
40103070:	e59f2088 	ldr	r2, [pc, #136]	; 40103100 <resume1_bin_start+0x20d0>
40103074:	e3e0c000 	mvn	ip, #0
40103078:	e92d4ff0 	push	{r4, r5, r6, r7, r8, r9, sl, fp, lr}
4010307c:	e593a040 	ldr	sl, [r3, #64]	; 0x40
40103080:	e5938044 	ldr	r8, [r3, #68]	; 0x44
40103084:	e1a00001 	mov	r0, r1
40103088:	e5936048 	ldr	r6, [r3, #72]	; 0x48
4010308c:	e5935050 	ldr	r5, [r3, #80]	; 0x50
40103090:	e5934054 	ldr	r4, [r3, #84]	; 0x54
40103094:	e5939058 	ldr	r9, [r3, #88]	; 0x58
40103098:	e593b030 	ldr	fp, [r3, #48]	; 0x30
4010309c:	e5937034 	ldr	r7, [r3, #52]	; 0x34
401030a0:	e5823000 	str	r3, [r2]
401030a4:	e5827020 	str	r7, [r2, #32]
401030a8:	e5937038 	ldr	r7, [r3, #56]	; 0x38
401030ac:	e582a004 	str	sl, [r2, #4]
401030b0:	e5828008 	str	r8, [r2, #8]
401030b4:	e5827024 	str	r7, [r2, #36]	; 0x24
401030b8:	e582600c 	str	r6, [r2, #12]
401030bc:	e5825010 	str	r5, [r2, #16]
401030c0:	e5824014 	str	r4, [r2, #20]
401030c4:	e5829018 	str	r9, [r2, #24]
401030c8:	e582b01c 	str	fp, [r2, #28]
401030cc:	e3a02001 	mov	r2, #1
401030d0:	e5831040 	str	r1, [r3, #64]	; 0x40
401030d4:	e5831044 	str	r1, [r3, #68]	; 0x44
401030d8:	e5831048 	str	r1, [r3, #72]	; 0x48
401030dc:	e583c050 	str	ip, [r3, #80]	; 0x50
401030e0:	e583c054 	str	ip, [r3, #84]	; 0x54
401030e4:	e583c058 	str	ip, [r3, #88]	; 0x58
401030e8:	e5831030 	str	r1, [r3, #48]	; 0x30
401030ec:	e5831034 	str	r1, [r3, #52]	; 0x34
401030f0:	e5831038 	str	r1, [r3, #56]	; 0x38
401030f4:	e5832010 	str	r2, [r3, #16]
401030f8:	e8bd8ff0 	pop	{r4, r5, r6, r7, r8, r9, sl, fp, pc}
401030fc:	f1c20400 	undefined instruction 0xf1c20400
40103100:	000042a0 	andeq	r4, r0, r0, lsr #5
40103104:	e59f3050 	ldr	r3, [pc, #80]	; 4010315c <resume1_bin_start+0x212c>
40103108:	e3a00000 	mov	r0, #0
4010310c:	e5931004 	ldr	r1, [r3, #4]
40103110:	e5932000 	ldr	r2, [r3]
40103114:	e5821040 	str	r1, [r2, #64]	; 0x40
40103118:	e5931008 	ldr	r1, [r3, #8]
4010311c:	e5821044 	str	r1, [r2, #68]	; 0x44
40103120:	e593100c 	ldr	r1, [r3, #12]
40103124:	e5821048 	str	r1, [r2, #72]	; 0x48
40103128:	e5931010 	ldr	r1, [r3, #16]
4010312c:	e5821050 	str	r1, [r2, #80]	; 0x50
40103130:	e5931014 	ldr	r1, [r3, #20]
40103134:	e5821054 	str	r1, [r2, #84]	; 0x54
40103138:	e5931018 	ldr	r1, [r3, #24]
4010313c:	e5821058 	str	r1, [r2, #88]	; 0x58
40103140:	e593101c 	ldr	r1, [r3, #28]
40103144:	e5821030 	str	r1, [r2, #48]	; 0x30
40103148:	e5931020 	ldr	r1, [r3, #32]
4010314c:	e5821034 	str	r1, [r2, #52]	; 0x34
40103150:	e5933024 	ldr	r3, [r3, #36]	; 0x24
40103154:	e5823038 	str	r3, [r2, #56]	; 0x38
40103158:	e12fff1e 	bx	lr
4010315c:	000042a0 	andeq	r4, r0, r0, lsr #5
40103160:	e59f303c 	ldr	r3, [pc, #60]	; 401031a4 <resume1_bin_start+0x2174>
40103164:	e1a022a0 	lsr	r2, r0, #5
40103168:	e282c010 	add	ip, r2, #16
4010316c:	e200101f 	and	r1, r0, #31
40103170:	e92d4010 	push	{r4, lr}
40103174:	e5933000 	ldr	r3, [r3]
40103178:	e3a04001 	mov	r4, #1
4010317c:	e2822014 	add	r2, r2, #20
40103180:	e3a00000 	mov	r0, #0
40103184:	e1a01114 	lsl	r1, r4, r1
40103188:	e793410c 	ldr	r4, [r3, ip, lsl #2]
4010318c:	e1814004 	orr	r4, r1, r4
40103190:	e783410c 	str	r4, [r3, ip, lsl #2]
40103194:	e793c102 	ldr	ip, [r3, r2, lsl #2]
40103198:	e1cc1001 	bic	r1, ip, r1
4010319c:	e7831102 	str	r1, [r3, r2, lsl #2]
401031a0:	e8bd8010 	pop	{r4, pc}
401031a4:	000042a0 	andeq	r4, r0, r0, lsr #5
401031a8:	e59f3024 	ldr	r3, [pc, #36]	; 401031d4 <resume1_bin_start+0x21a4>
401031ac:	e200201f 	and	r2, r0, #31
401031b0:	e1a002a0 	lsr	r0, r0, #5
401031b4:	e3a01001 	mov	r1, #1
401031b8:	e2800004 	add	r0, r0, #4
401031bc:	e5933000 	ldr	r3, [r3]
401031c0:	e7933100 	ldr	r3, [r3, r0, lsl #2]
401031c4:	e0131211 	ands	r1, r3, r1, lsl r2
401031c8:	03e00000 	mvneq	r0, #0
401031cc:	13a00000 	movne	r0, #0
401031d0:	e12fff1e 	bx	lr
401031d4:	000042a0 	andeq	r4, r0, r0, lsr #5
401031d8:	e59f2008 	ldr	r2, [pc, #8]	; 401031e8 <resume1_bin_start+0x21b8>
401031dc:	e59f3008 	ldr	r3, [pc, #8]	; 401031ec <resume1_bin_start+0x21bc>
401031e0:	e5832000 	str	r2, [r3]
401031e4:	e12fff1e 	bx	lr
401031e8:	f1c20c00 	undefined instruction 0xf1c20c00
401031ec:	000042c8 	andeq	r4, r0, r8, asr #5
401031f0:	e59f301c 	ldr	r3, [pc, #28]	; 40103214 <resume1_bin_start+0x21e4>
401031f4:	e5933000 	ldr	r3, [r3]
401031f8:	e5932094 	ldr	r2, [r3, #148]	; 0x94
401031fc:	e3c22002 	bic	r2, r2, #2
40103200:	e5832094 	str	r2, [r3, #148]	; 0x94
40103204:	e5932094 	ldr	r2, [r3, #148]	; 0x94
40103208:	e3c22001 	bic	r2, r2, #1
4010320c:	e5832094 	str	r2, [r3, #148]	; 0x94
40103210:	e12fff1e 	bx	lr
40103214:	000042c8 	andeq	r4, r0, r8, asr #5
40103218:	e350001f 	cmp	r0, #31
4010321c:	812fff1e 	bxhi	lr
40103220:	e59f3014 	ldr	r3, [pc, #20]	; 4010323c <resume1_bin_start+0x220c>
40103224:	e3510000 	cmp	r1, #0
40103228:	e7932100 	ldr	r2, [r3, r0, lsl #2]
4010322c:	13822001 	orrne	r2, r2, #1
40103230:	03c22001 	biceq	r2, r2, #1
40103234:	e7832100 	str	r2, [r3, r0, lsl #2]
40103238:	e12fff1e 	bx	lr
4010323c:	f1c01250 	undefined instruction 0xf1c01250
40103240:	e350001f 	cmp	r0, #31
40103244:	83a00000 	movhi	r0, #0
40103248:	959f300c 	ldrls	r3, [pc, #12]	; 4010325c <resume1_bin_start+0x222c>
4010324c:	95933234 	ldrls	r3, [r3, #564]	; 0x234
40103250:	91a00033 	lsrls	r0, r3, r0
40103254:	92000001 	andls	r0, r0, #1
40103258:	e12fff1e 	bx	lr
4010325c:	f1c01000 	undefined instruction 0xf1c01000
40103260:	e350001f 	cmp	r0, #31
40103264:	e92d4010 	push	{r4, lr}
40103268:	88bd8010 	pophi	{r4, pc}
4010326c:	e59fc030 	ldr	ip, [pc, #48]	; 401032a4 <resume1_bin_start+0x2274>
40103270:	e1a02202 	lsl	r2, r2, #4
40103274:	e20240ff 	and	r4, r2, #255	; 0xff
40103278:	e2011003 	and	r1, r1, #3
4010327c:	e2033003 	and	r3, r3, #3
40103280:	e79c2100 	ldr	r2, [ip, r0, lsl #2]
40103284:	e3c2200c 	bic	r2, r2, #12
40103288:	e1822101 	orr	r2, r2, r1, lsl #2
4010328c:	e3c220f0 	bic	r2, r2, #240	; 0xf0
40103290:	e1822004 	orr	r2, r2, r4
40103294:	e3c22cff 	bic	r2, r2, #65280	; 0xff00
40103298:	e1823403 	orr	r3, r2, r3, lsl #8
4010329c:	e78c3100 	str	r3, [ip, r0, lsl #2]
401032a0:	e8bd8010 	pop	{r4, pc}
401032a4:	f1c01250 	undefined instruction 0xf1c01250
401032a8:	e350001f 	cmp	r0, #31
401032ac:	812fff1e 	bxhi	lr
401032b0:	e59f3014 	ldr	r3, [pc, #20]	; 401032cc <resume1_bin_start+0x229c>
401032b4:	e3510000 	cmp	r1, #0
401032b8:	e7932100 	ldr	r2, [r3, r0, lsl #2]
401032bc:	13822001 	orrne	r2, r2, #1
401032c0:	03c22001 	biceq	r2, r2, #1
401032c4:	e7832100 	str	r2, [r3, r0, lsl #2]
401032c8:	e12fff1e 	bx	lr
401032cc:	f1c01250 	undefined instruction 0xf1c01250
401032d0:	e350001f 	cmp	r0, #31
401032d4:	83a00000 	movhi	r0, #0
401032d8:	959f300c 	ldrls	r3, [pc, #12]	; 401032ec <resume1_bin_start+0x22bc>
401032dc:	95933234 	ldrls	r3, [r3, #564]	; 0x234
401032e0:	91a00033 	lsrls	r0, r3, r0
401032e4:	92000001 	andls	r0, r0, #1
401032e8:	e12fff1e 	bx	lr
401032ec:	f1c01000 	undefined instruction 0xf1c01000
401032f0:	eaffffda 	b	40103260 <resume1_bin_start+0x2230>
401032f4:	e92d4010 	push	{r4, lr}
401032f8:	e59f4020 	ldr	r4, [pc, #32]	; 40103320 <resume1_bin_start+0x22f0>
401032fc:	e3a00010 	mov	r0, #16
40103300:	e5943060 	ldr	r3, [r4, #96]	; 0x60
40103304:	e3c33903 	bic	r3, r3, #49152	; 0xc000
40103308:	e5843060 	str	r3, [r4, #96]	; 0x60
4010330c:	ebfffaf2 	bl	40101edc <resume1_bin_start+0xeac>
40103310:	e5943060 	ldr	r3, [r4, #96]	; 0x60
40103314:	e3833903 	orr	r3, r3, #49152	; 0xc000
40103318:	e5843060 	str	r3, [r4, #96]	; 0x60
4010331c:	e8bd8010 	pop	{r4, pc}
40103320:	f1c20000 	undefined instruction 0xf1c20000
40103324:	e59f3024 	ldr	r3, [pc, #36]	; 40103350 <resume1_bin_start+0x2320>
40103328:	e1a01003 	mov	r1, r3
4010332c:	e5932004 	ldr	r2, [r3, #4]
40103330:	e3c2233e 	bic	r2, r2, #-134217728	; 0xf8000000
40103334:	e382220f 	orr	r2, r2, #-268435456	; 0xf0000000
40103338:	e5832004 	str	r2, [r3, #4]
4010333c:	e5913004 	ldr	r3, [r1, #4]
40103340:	e3530000 	cmp	r3, #0
40103344:	bafffffc 	blt	4010333c <resume1_bin_start+0x230c>
40103348:	e3a00c01 	mov	r0, #256	; 0x100
4010334c:	eafffae2 	b	40101edc <resume1_bin_start+0xeac>
40103350:	f1c01000 	undefined instruction 0xf1c01000
40103354:	eafffff2 	b	40103324 <resume1_bin_start+0x22f4>
40103358:	e59f3024 	ldr	r3, [pc, #36]	; 40103384 <resume1_bin_start+0x2354>
4010335c:	e1a01003 	mov	r1, r3
40103360:	e5932004 	ldr	r2, [r3, #4]
40103364:	e3c2233e 	bic	r2, r2, #-134217728	; 0xf8000000
40103368:	e382232e 	orr	r2, r2, #-1207959552	; 0xb8000000
4010336c:	e5832004 	str	r2, [r3, #4]
40103370:	e5913004 	ldr	r3, [r1, #4]
40103374:	e3530000 	cmp	r3, #0
40103378:	bafffffc 	blt	40103370 <resume1_bin_start+0x2340>
4010337c:	e3a00c01 	mov	r0, #256	; 0x100
40103380:	eafffad5 	b	40101edc <resume1_bin_start+0xeac>
40103384:	f1c01000 	undefined instruction 0xf1c01000
40103388:	eafffff2 	b	40103358 <resume1_bin_start+0x2328>
4010338c:	eafffff1 	b	40103358 <resume1_bin_start+0x2328>
40103390:	e92d4010 	push	{r4, lr}
40103394:	ebffffef 	bl	40103358 <resume1_bin_start+0x2328>
40103398:	e59f3060 	ldr	r3, [pc, #96]	; 40103400 <resume1_bin_start+0x23d0>
4010339c:	e1a01003 	mov	r1, r3
401033a0:	e5932004 	ldr	r2, [r3, #4]
401033a4:	e3c2233e 	bic	r2, r2, #-134217728	; 0xf8000000
401033a8:	e3822326 	orr	r2, r2, #-1744830464	; 0x98000000
401033ac:	e5832004 	str	r2, [r3, #4]
401033b0:	e5913004 	ldr	r3, [r1, #4]
401033b4:	e59f4044 	ldr	r4, [pc, #68]	; 40103400 <resume1_bin_start+0x23d0>
401033b8:	e3530000 	cmp	r3, #0
401033bc:	bafffffb 	blt	401033b0 <resume1_bin_start+0x2380>
401033c0:	e3a00c01 	mov	r0, #256	; 0x100
401033c4:	ebfffac4 	bl	40101edc <resume1_bin_start+0xeac>
401033c8:	e5942010 	ldr	r2, [r4, #16]
401033cc:	e3a03000 	mov	r3, #0
401033d0:	e3c22102 	bic	r2, r2, #-2147483648	; 0x80000000
401033d4:	e5842010 	str	r2, [r4, #16]
401033d8:	e59f2024 	ldr	r2, [pc, #36]	; 40103404 <resume1_bin_start+0x23d4>
401033dc:	e1a01103 	lsl	r1, r3, #2
401033e0:	e2833001 	add	r3, r3, #1
401033e4:	e0812002 	add	r2, r1, r2
401033e8:	e353001f 	cmp	r3, #31
401033ec:	e5921000 	ldr	r1, [r2]
401033f0:	e3811001 	orr	r1, r1, #1
401033f4:	e5821000 	str	r1, [r2]
401033f8:	1afffff6 	bne	401033d8 <resume1_bin_start+0x23a8>
401033fc:	e8bd8010 	pop	{r4, pc}
40103400:	f1c01000 	undefined instruction 0xf1c01000
40103404:	f1c01250 	undefined instruction 0xf1c01250
40103408:	eaffffe0 	b	40103390 <resume1_bin_start+0x2360>
4010340c:	e59f3024 	ldr	r3, [pc, #36]	; 40103438 <resume1_bin_start+0x2408>
40103410:	e1a01003 	mov	r1, r3
40103414:	e5932004 	ldr	r2, [r3, #4]
40103418:	e3c2233e 	bic	r2, r2, #-134217728	; 0xf8000000
4010341c:	e382232a 	orr	r2, r2, #-1476395008	; 0xa8000000
40103420:	e5832004 	str	r2, [r3, #4]
40103424:	e5913004 	ldr	r3, [r1, #4]
40103428:	e3530000 	cmp	r3, #0
4010342c:	bafffffc 	blt	40103424 <resume1_bin_start+0x23f4>
40103430:	e3a00c01 	mov	r0, #256	; 0x100
40103434:	eafffaa8 	b	40101edc <resume1_bin_start+0xeac>
40103438:	f1c01000 	undefined instruction 0xf1c01000
4010343c:	e3a03000 	mov	r3, #0
40103440:	e92d4010 	push	{r4, lr}
40103444:	e59f205c 	ldr	r2, [pc, #92]	; 401034a8 <resume1_bin_start+0x2478>
40103448:	e1a01103 	lsl	r1, r3, #2
4010344c:	e2833001 	add	r3, r3, #1
40103450:	e0812002 	add	r2, r1, r2
40103454:	e353001f 	cmp	r3, #31
40103458:	e5921000 	ldr	r1, [r2]
4010345c:	e3c11001 	bic	r1, r1, #1
40103460:	e5821000 	str	r1, [r2]
40103464:	1afffff6 	bne	40103444 <resume1_bin_start+0x2414>
40103468:	ebffffe7 	bl	4010340c <resume1_bin_start+0x23dc>
4010346c:	e59f3038 	ldr	r3, [pc, #56]	; 401034ac <resume1_bin_start+0x247c>
40103470:	e1a01003 	mov	r1, r3
40103474:	e5932004 	ldr	r2, [r3, #4]
40103478:	e3c2233e 	bic	r2, r2, #-134217728	; 0xf8000000
4010347c:	e3822209 	orr	r2, r2, #-1879048192	; 0x90000000
40103480:	e5832004 	str	r2, [r3, #4]
40103484:	e5913004 	ldr	r3, [r1, #4]
40103488:	e3530000 	cmp	r3, #0
4010348c:	bafffffc 	blt	40103484 <resume1_bin_start+0x2454>
40103490:	e3a00c01 	mov	r0, #256	; 0x100
40103494:	ebfffa90 	bl	40101edc <resume1_bin_start+0xeac>
40103498:	e59f300c 	ldr	r3, [pc, #12]	; 401034ac <resume1_bin_start+0x247c>
4010349c:	e3a02001 	mov	r2, #1
401034a0:	e583223c 	str	r2, [r3, #572]	; 0x23c
401034a4:	e8bd8010 	pop	{r4, pc}
401034a8:	f1c01250 	undefined instruction 0xf1c01250
401034ac:	f1c01000 	undefined instruction 0xf1c01000
401034b0:	eaffffe1 	b	4010343c <resume1_bin_start+0x240c>
401034b4:	e92d40f7 	push	{r0, r1, r2, r4, r5, r6, r7, lr}
401034b8:	e59f70ac 	ldr	r7, [pc, #172]	; 4010356c <resume1_bin_start+0x253c>
401034bc:	e3a05005 	mov	r5, #5
401034c0:	e28d6007 	add	r6, sp, #7
401034c4:	e59740b0 	ldr	r4, [r7, #176]	; 0xb0
401034c8:	e3a01034 	mov	r1, #52	; 0x34
401034cc:	e3a0200a 	mov	r2, #10
401034d0:	e1a03006 	mov	r3, r6
401034d4:	e3c444ff 	bic	r4, r4, #-16777216	; 0xff000000
401034d8:	e3a00001 	mov	r0, #1
401034dc:	e3c4460f 	bic	r4, r4, #15728640	; 0xf00000
401034e0:	e5cd4007 	strb	r4, [sp, #7]
401034e4:	ebfff8ea 	bl	40101894 <resume1_bin_start+0x864>
401034e8:	e3500000 	cmp	r0, #0
401034ec:	1a000011 	bne	40103538 <resume1_bin_start+0x2508>
401034f0:	e3a01034 	mov	r1, #52	; 0x34
401034f4:	e3a0200b 	mov	r2, #11
401034f8:	e1a03006 	mov	r3, r6
401034fc:	e2800001 	add	r0, r0, #1
40103500:	e1a0c424 	lsr	ip, r4, #8
40103504:	e5cdc007 	strb	ip, [sp, #7]
40103508:	ebfff8e1 	bl	40101894 <resume1_bin_start+0x864>
4010350c:	e3500000 	cmp	r0, #0
40103510:	1a000008 	bne	40103538 <resume1_bin_start+0x2508>
40103514:	e2800001 	add	r0, r0, #1
40103518:	e3a01034 	mov	r1, #52	; 0x34
4010351c:	e3a0200c 	mov	r2, #12
40103520:	e1a03006 	mov	r3, r6
40103524:	e1a04824 	lsr	r4, r4, #16
40103528:	e5cd4007 	strb	r4, [sp, #7]
4010352c:	ebfff8d8 	bl	40101894 <resume1_bin_start+0x864>
40103530:	e2504000 	subs	r4, r0, #0
40103534:	0a000009 	beq	40103560 <resume1_bin_start+0x2530>
40103538:	e2555001 	subs	r5, r5, #1
4010353c:	1affffe0 	bne	401034c4 <resume1_bin_start+0x2494>
40103540:	ea000004 	b	40103558 <resume1_bin_start+0x2528>
40103544:	ebffffbc 	bl	4010343c <resume1_bin_start+0x240c>
40103548:	eb000065 	bl	401036e4 <resume1_bin_start+0x26b4>
4010354c:	eb000070 	bl	40103714 <resume1_bin_start+0x26e4>
40103550:	e1a00004 	mov	r0, r4
40103554:	ea000000 	b	4010355c <resume1_bin_start+0x252c>
40103558:	e3e00000 	mvn	r0, #0
4010355c:	e8bd80fe 	pop	{r1, r2, r3, r4, r5, r6, r7, pc}
40103560:	e3550000 	cmp	r5, #0
40103564:	1afffff6 	bne	40103544 <resume1_bin_start+0x2514>
40103568:	eafffffa 	b	40103558 <resume1_bin_start+0x2528>
4010356c:	f1c01000 	undefined instruction 0xf1c01000
40103570:	e59f3144 	ldr	r3, [pc, #324]	; 401036bc <resume1_bin_start+0x268c>
40103574:	e92d4ff0 	push	{r4, r5, r6, r7, r8, r9, sl, fp, lr}
40103578:	e24dd024 	sub	sp, sp, #36	; 0x24
4010357c:	e5931004 	ldr	r1, [r3, #4]
40103580:	e1a05003 	mov	r5, r3
40103584:	e593b010 	ldr	fp, [r3, #16]
40103588:	e1a04003 	mov	r4, r3
4010358c:	e5939014 	ldr	r9, [r3, #20]
40103590:	e593a018 	ldr	sl, [r3, #24]
40103594:	e593801c 	ldr	r8, [r3, #28]
40103598:	e59371f0 	ldr	r7, [r3, #496]	; 0x1f0
4010359c:	e59321f4 	ldr	r2, [r3, #500]	; 0x1f4
401035a0:	e58d1018 	str	r1, [sp, #24]
401035a4:	e59311f8 	ldr	r1, [r3, #504]	; 0x1f8
401035a8:	e58d2014 	str	r2, [sp, #20]
401035ac:	e59321fc 	ldr	r2, [r3, #508]	; 0x1fc
401035b0:	e58d1010 	str	r1, [sp, #16]
401035b4:	e58d200c 	str	r2, [sp, #12]
401035b8:	e59320a8 	ldr	r2, [r3, #168]	; 0xa8
401035bc:	e5931008 	ldr	r1, [r3, #8]
401035c0:	e58d1008 	str	r1, [sp, #8]
401035c4:	e5931000 	ldr	r1, [r3]
401035c8:	e59330b0 	ldr	r3, [r3, #176]	; 0xb0
401035cc:	e3c334ff 	bic	r3, r3, #-16777216	; 0xff000000
401035d0:	e58d1004 	str	r1, [sp, #4]
401035d4:	e3c3360f 	bic	r3, r3, #15728640	; 0xf00000
401035d8:	e20216ff 	and	r1, r2, #267386880	; 0xff00000
401035dc:	e1833001 	orr	r3, r3, r1
401035e0:	e2022202 	and	r2, r2, #536870912	; 0x20000000
401035e4:	e3833205 	orr	r3, r3, #1342177280	; 0x50000000
401035e8:	e1832002 	orr	r2, r3, r2
401035ec:	e58d201c 	str	r2, [sp, #28]
401035f0:	ebffff3f 	bl	401032f4 <resume1_bin_start+0x22c4>
401035f4:	eb000162 	bl	40103b84 <resume1_bin_start+0x2b54>
401035f8:	eb000031 	bl	401036c4 <resume1_bin_start+0x2694>
401035fc:	eb000038 	bl	401036e4 <resume1_bin_start+0x26b4>
40103600:	eb00014a 	bl	40103b30 <resume1_bin_start+0x2b00>
40103604:	e59d2004 	ldr	r2, [sp, #4]
40103608:	e59d3018 	ldr	r3, [sp, #24]
4010360c:	e3a00001 	mov	r0, #1
40103610:	e59d101c 	ldr	r1, [sp, #28]
40103614:	e5852000 	str	r2, [r5]
40103618:	e5853004 	str	r3, [r5, #4]
4010361c:	e58510a8 	str	r1, [r5, #168]	; 0xa8
40103620:	eb00006f 	bl	401037e4 <resume1_bin_start+0x27b4>
40103624:	e3a00010 	mov	r0, #16
40103628:	ebfffa2b 	bl	40101edc <resume1_bin_start+0xeac>
4010362c:	e5953000 	ldr	r3, [r5]
40103630:	e3530000 	cmp	r3, #0
40103634:	bafffffc 	blt	4010362c <resume1_bin_start+0x25fc>
40103638:	eb00010c 	bl	40103a70 <resume1_bin_start+0x2a40>
4010363c:	e59d2008 	ldr	r2, [sp, #8]
40103640:	e59d3014 	ldr	r3, [sp, #20]
40103644:	e59d1010 	ldr	r1, [sp, #16]
40103648:	e5842008 	str	r2, [r4, #8]
4010364c:	e59d200c 	ldr	r2, [sp, #12]
40103650:	e584b010 	str	fp, [r4, #16]
40103654:	e5849014 	str	r9, [r4, #20]
40103658:	e584a018 	str	sl, [r4, #24]
4010365c:	e584801c 	str	r8, [r4, #28]
40103660:	e58471f0 	str	r7, [r4, #496]	; 0x1f0
40103664:	e58431f4 	str	r3, [r4, #500]	; 0x1f4
40103668:	e58411f8 	str	r1, [r4, #504]	; 0x1f8
4010366c:	e58421fc 	str	r2, [r4, #508]	; 0x1fc
40103670:	e5943000 	ldr	r3, [r4]
40103674:	e3833102 	orr	r3, r3, #-2147483648	; 0x80000000
40103678:	e5843000 	str	r3, [r4]
4010367c:	e5953000 	ldr	r3, [r5]
40103680:	e3530000 	cmp	r3, #0
40103684:	bafffffc 	blt	4010367c <resume1_bin_start+0x264c>
40103688:	e3a03000 	mov	r3, #0
4010368c:	e3a00801 	mov	r0, #65536	; 0x10000
40103690:	e584323c 	str	r3, [r4, #572]	; 0x23c
40103694:	ebfffa10 	bl	40101edc <resume1_bin_start+0xeac>
40103698:	eb000017 	bl	401036fc <resume1_bin_start+0x26cc>
4010369c:	eb000042 	bl	401037ac <resume1_bin_start+0x277c>
401036a0:	e1a06000 	mov	r6, r0
401036a4:	eb000031 	bl	40103770 <resume1_bin_start+0x2740>
401036a8:	e3560000 	cmp	r6, #0
401036ac:	1affffcf 	bne	401035f0 <resume1_bin_start+0x25c0>
401036b0:	e1a00006 	mov	r0, r6
401036b4:	e28dd024 	add	sp, sp, #36	; 0x24
401036b8:	e8bd8ff0 	pop	{r4, r5, r6, r7, r8, r9, sl, fp, pc}
401036bc:	f1c01000 	undefined instruction 0xf1c01000
401036c0:	eaffffaa 	b	40103570 <resume1_bin_start+0x2540>
401036c4:	e59f2014 	ldr	r2, [pc, #20]	; 401036e0 <resume1_bin_start+0x26b0>
401036c8:	e5923230 	ldr	r3, [r2, #560]	; 0x230
401036cc:	e3833c6f 	orr	r3, r3, #28416	; 0x6f00
401036d0:	e38330fc 	orr	r3, r3, #252	; 0xfc
401036d4:	e3c33003 	bic	r3, r3, #3
401036d8:	e5823230 	str	r3, [r2, #560]	; 0x230
401036dc:	e12fff1e 	bx	lr
401036e0:	f1c01000 	undefined instruction 0xf1c01000
401036e4:	e59f300c 	ldr	r3, [pc, #12]	; 401036f8 <resume1_bin_start+0x26c8>
401036e8:	e5932000 	ldr	r2, [r3]
401036ec:	e3822201 	orr	r2, r2, #268435456	; 0x10000000
401036f0:	e5832000 	str	r2, [r3]
401036f4:	e12fff1e 	bx	lr
401036f8:	f1c01000 	undefined instruction 0xf1c01000
401036fc:	e59f300c 	ldr	r3, [pc, #12]	; 40103710 <resume1_bin_start+0x26e0>
40103700:	e5932000 	ldr	r2, [r3]
40103704:	e3c22201 	bic	r2, r2, #268435456	; 0x10000000
40103708:	e5832000 	str	r2, [r3]
4010370c:	e12fff1e 	bx	lr
40103710:	f1c01000 	undefined instruction 0xf1c01000
40103714:	e59f3050 	ldr	r3, [pc, #80]	; 4010376c <resume1_bin_start+0x273c>
40103718:	e5932204 	ldr	r2, [r3, #516]	; 0x204
4010371c:	e3c22101 	bic	r2, r2, #1073741824	; 0x40000000
40103720:	e3822102 	orr	r2, r2, #-2147483648	; 0x80000000
40103724:	e5832204 	str	r2, [r3, #516]	; 0x204
40103728:	e5932208 	ldr	r2, [r3, #520]	; 0x208
4010372c:	e3c22101 	bic	r2, r2, #1073741824	; 0x40000000
40103730:	e3822102 	orr	r2, r2, #-2147483648	; 0x80000000
40103734:	e5832208 	str	r2, [r3, #520]	; 0x208
40103738:	e593220c 	ldr	r2, [r3, #524]	; 0x20c
4010373c:	e3c22101 	bic	r2, r2, #1073741824	; 0x40000000
40103740:	e3822102 	orr	r2, r2, #-2147483648	; 0x80000000
40103744:	e583220c 	str	r2, [r3, #524]	; 0x20c
40103748:	e5932210 	ldr	r2, [r3, #528]	; 0x210
4010374c:	e3c22101 	bic	r2, r2, #1073741824	; 0x40000000
40103750:	e3822102 	orr	r2, r2, #-2147483648	; 0x80000000
40103754:	e5832210 	str	r2, [r3, #528]	; 0x210
40103758:	e5932214 	ldr	r2, [r3, #532]	; 0x214
4010375c:	e3c22101 	bic	r2, r2, #1073741824	; 0x40000000
40103760:	e3822102 	orr	r2, r2, #-2147483648	; 0x80000000
40103764:	e5832214 	str	r2, [r3, #532]	; 0x214
40103768:	e12fff1e 	bx	lr
4010376c:	f1c01000 	undefined instruction 0xf1c01000
40103770:	e59f1024 	ldr	r1, [pc, #36]	; 4010379c <resume1_bin_start+0x276c>
40103774:	e3a03000 	mov	r3, #0
40103778:	e59f2020 	ldr	r2, [pc, #32]	; 401037a0 <resume1_bin_start+0x2770>
4010377c:	e1a0c103 	lsl	ip, r3, #2
40103780:	e7910103 	ldr	r0, [r1, r3, lsl #2]
40103784:	e2833001 	add	r3, r3, #1
40103788:	e08c2002 	add	r2, ip, r2
4010378c:	e3530020 	cmp	r3, #32
40103790:	e5820000 	str	r0, [r2]
40103794:	1afffff7 	bne	40103778 <resume1_bin_start+0x2748>
40103798:	e12fff1e 	bx	lr
4010379c:	00003f80 	andeq	r3, r0, r0, lsl #31
401037a0:	f1c01250 	undefined instruction 0xf1c01250
401037a4:	e3a00000 	mov	r0, #0
401037a8:	e12fff1e 	bx	lr
401037ac:	e59f302c 	ldr	r3, [pc, #44]	; 401037e0 <resume1_bin_start+0x27b0>
401037b0:	e1a01003 	mov	r1, r3
401037b4:	e5932000 	ldr	r2, [r3]
401037b8:	e3822101 	orr	r2, r2, #1073741824	; 0x40000000
401037bc:	e5832000 	str	r2, [r3]
401037c0:	e5913000 	ldr	r3, [r1]
401037c4:	e3130101 	tst	r3, #1073741824	; 0x40000000
401037c8:	1afffffc 	bne	401037c0 <resume1_bin_start+0x2790>
401037cc:	e59f300c 	ldr	r3, [pc, #12]	; 401037e0 <resume1_bin_start+0x27b0>
401037d0:	e593000c 	ldr	r0, [r3, #12]
401037d4:	e2100601 	ands	r0, r0, #1048576	; 0x100000
401037d8:	13e00000 	mvnne	r0, #0
401037dc:	e12fff1e 	bx	lr
401037e0:	f1c01000 	undefined instruction 0xf1c01000
401037e4:	e59f3018 	ldr	r3, [pc, #24]	; 40103804 <resume1_bin_start+0x27d4>
401037e8:	e3500000 	cmp	r0, #0
401037ec:	e59f2010 	ldr	r2, [pc, #16]	; 40103804 <resume1_bin_start+0x27d4>
401037f0:	e5933230 	ldr	r3, [r3, #560]	; 0x230
401037f4:	13833801 	orrne	r3, r3, #65536	; 0x10000
401037f8:	03c33801 	biceq	r3, r3, #65536	; 0x10000
401037fc:	e5823230 	str	r3, [r2, #560]	; 0x230
40103800:	e12fff1e 	bx	lr
40103804:	f1c01000 	undefined instruction 0xf1c01000
40103808:	e3013f33 	movw	r3, #7987	; 0x1f33
4010380c:	e3a02009 	mov	r2, #9
40103810:	e59f101c 	ldr	r1, [pc, #28]	; 40103834 <resume1_bin_start+0x2804>
40103814:	e0030093 	mul	r3, r3, r0
40103818:	e1a03523 	lsr	r3, r3, #10
4010381c:	e0020392 	mul	r2, r2, r3
40103820:	e59f3010 	ldr	r3, [pc, #16]	; 40103838 <resume1_bin_start+0x2808>
40103824:	e24220c8 	sub	r2, r2, #200	; 0xc8
40103828:	e1812402 	orr	r2, r1, r2, lsl #8
4010382c:	e5832010 	str	r2, [r3, #16]
40103830:	e12fff1e 	bx	lr
40103834:	08000083 	stmdaeq	r0, {r0, r1, r7}
40103838:	f1c01000 	undefined instruction 0xf1c01000
4010383c:	e59f3068 	ldr	r3, [pc, #104]	; 401038ac <resume1_bin_start+0x287c>
40103840:	e5933004 	ldr	r3, [r3, #4]
40103844:	e7e201d3 	ubfx	r0, r3, #3, #3
40103848:	e3500000 	cmp	r0, #0
4010384c:	02800020 	addeq	r0, r0, #32
40103850:	0a00000b 	beq	40103884 <resume1_bin_start+0x2854>
40103854:	e3500001 	cmp	r0, #1
40103858:	0280003f 	addeq	r0, r0, #63	; 0x3f
4010385c:	0a000008 	beq	40103884 <resume1_bin_start+0x2854>
40103860:	e3500002 	cmp	r0, #2
40103864:	0280007e 	addeq	r0, r0, #126	; 0x7e
40103868:	0a000005 	beq	40103884 <resume1_bin_start+0x2854>
4010386c:	e3500003 	cmp	r0, #3
40103870:	028000fd 	addeq	r0, r0, #253	; 0xfd
40103874:	0a000002 	beq	40103884 <resume1_bin_start+0x2854>
40103878:	e3500004 	cmp	r0, #4
4010387c:	03a00c02 	moveq	r0, #512	; 0x200
40103880:	13a00b01 	movne	r0, #1024	; 0x400
40103884:	e7e120d3 	ubfx	r2, r3, #1, #2
40103888:	e3520001 	cmp	r2, #1
4010388c:	e7e22353 	ubfx	r2, r3, #6, #3
40103890:	01a00080 	lsleq	r0, r0, #1
40103894:	e3520003 	cmp	r2, #3
40103898:	e7e13553 	ubfx	r3, r3, #10, #2
4010389c:	01a00080 	lsleq	r0, r0, #1
401038a0:	e3530001 	cmp	r3, #1
401038a4:	01a00080 	lsleq	r0, r0, #1
401038a8:	e12fff1e 	bx	lr
401038ac:	f1c01000 	undefined instruction 0xf1c01000
401038b0:	e3a00000 	mov	r0, #0
401038b4:	e12fff1e 	bx	lr
401038b8:	e3a00000 	mov	r0, #0
401038bc:	e12fff1e 	bx	lr
401038c0:	eaffffdd 	b	4010383c <resume1_bin_start+0x280c>
401038c4:	e59f2014 	ldr	r2, [pc, #20]	; 401038e0 <resume1_bin_start+0x28b0>
401038c8:	e5923230 	ldr	r3, [r2, #560]	; 0x230
401038cc:	e3833c6f 	orr	r3, r3, #28416	; 0x6f00
401038d0:	e38330fc 	orr	r3, r3, #252	; 0xfc
401038d4:	e3c33003 	bic	r3, r3, #3
401038d8:	e5823230 	str	r3, [r2, #560]	; 0x230
401038dc:	e12fff1e 	bx	lr
401038e0:	f1c01000 	undefined instruction 0xf1c01000
401038e4:	e3013f33 	movw	r3, #7987	; 0x1f33
401038e8:	e3a02009 	mov	r2, #9
401038ec:	e59f101c 	ldr	r1, [pc, #28]	; 40103910 <resume1_bin_start+0x28e0>
401038f0:	e0030093 	mul	r3, r3, r0
401038f4:	e1a03523 	lsr	r3, r3, #10
401038f8:	e0020392 	mul	r2, r2, r3
401038fc:	e59f3010 	ldr	r3, [pc, #16]	; 40103914 <resume1_bin_start+0x28e4>
40103900:	e24220c8 	sub	r2, r2, #200	; 0xc8
40103904:	e1812402 	orr	r2, r1, r2, lsl #8
40103908:	e5832010 	str	r2, [r3, #16]
4010390c:	e12fff1e 	bx	lr
40103910:	08000083 	stmdaeq	r0, {r0, r1, r7}
40103914:	f1c01000 	undefined instruction 0xf1c01000
40103918:	e59f302c 	ldr	r3, [pc, #44]	; 4010394c <resume1_bin_start+0x291c>
4010391c:	e1a01003 	mov	r1, r3
40103920:	e5932000 	ldr	r2, [r3]
40103924:	e3822101 	orr	r2, r2, #1073741824	; 0x40000000
40103928:	e5832000 	str	r2, [r3]
4010392c:	e5913000 	ldr	r3, [r1]
40103930:	e3130101 	tst	r3, #1073741824	; 0x40000000
40103934:	1afffffc 	bne	4010392c <resume1_bin_start+0x28fc>
40103938:	e59f300c 	ldr	r3, [pc, #12]	; 4010394c <resume1_bin_start+0x291c>
4010393c:	e593000c 	ldr	r0, [r3, #12]
40103940:	e2100601 	ands	r0, r0, #1048576	; 0x100000
40103944:	13e00000 	mvnne	r0, #0
40103948:	e12fff1e 	bx	lr
4010394c:	f1c01000 	undefined instruction 0xf1c01000
40103950:	e59f1004 	ldr	r1, [pc, #4]	; 4010395c <resume1_bin_start+0x292c>
40103954:	e3a02050 	mov	r2, #80	; 0x50
40103958:	eafff62c 	b	40101210 <resume1_bin_start+0x1e0>
4010395c:	00004000 	andeq	r4, r0, r0
40103960:	e59f30fc 	ldr	r3, [pc, #252]	; 40103a64 <resume1_bin_start+0x2a34>
40103964:	e3a01000 	mov	r1, #0
40103968:	e92d4ff1 	push	{r0, r4, r5, r6, r7, r8, r9, sl, fp, lr}
4010396c:	e3a04018 	mov	r4, #24
40103970:	e593c020 	ldr	ip, [r3, #32]
40103974:	e3a05000 	mov	r5, #0
40103978:	e0944004 	adds	r4, r4, r4
4010397c:	e2811001 	add	r1, r1, #1
40103980:	e0a55005 	adc	r5, r5, r5
40103984:	e351003b 	cmp	r1, #59	; 0x3b
40103988:	1afffffa 	bne	40103978 <resume1_bin_start+0x2948>
4010398c:	e1a06000 	mov	r6, r0
40103990:	e3a07000 	mov	r7, #0
40103994:	e3a02000 	mov	r2, #0
40103998:	e3a03000 	mov	r3, #0
4010399c:	e3a08001 	mov	r8, #1
401039a0:	e3a09000 	mov	r9, #0
401039a4:	e1550007 	cmp	r5, r7
401039a8:	8a000009 	bhi	401039d4 <resume1_bin_start+0x29a4>
401039ac:	1a000001 	bne	401039b8 <resume1_bin_start+0x2988>
401039b0:	e1540006 	cmp	r4, r6
401039b4:	8a000006 	bhi	401039d4 <resume1_bin_start+0x29a4>
401039b8:	e092a002 	adds	sl, r2, r2
401039bc:	e0a3b003 	adc	fp, r3, r3
401039c0:	e18a2008 	orr	r2, sl, r8
401039c4:	e0566004 	subs	r6, r6, r4
401039c8:	e0c77005 	sbc	r7, r7, r5
401039cc:	e18b3009 	orr	r3, fp, r9
401039d0:	ea000001 	b	401039dc <resume1_bin_start+0x29ac>
401039d4:	e0922002 	adds	r2, r2, r2
401039d8:	e0a33003 	adc	r3, r3, r3
401039dc:	e2511001 	subs	r1, r1, #1
401039e0:	4a000002 	bmi	401039f0 <resume1_bin_start+0x29c0>
401039e4:	e1b050a5 	lsrs	r5, r5, #1
401039e8:	e1a04064 	rrx	r4, r4
401039ec:	eaffffec 	b	401039a4 <resume1_bin_start+0x2974>
401039f0:	e3cc1033 	bic	r1, ip, #51	; 0x33
401039f4:	e202201f 	and	r2, r2, #31
401039f8:	e3813011 	orr	r3, r1, #17
401039fc:	e59f4060 	ldr	r4, [pc, #96]	; 40103a64 <resume1_bin_start+0x2a34>
40103a00:	e3c33c1f 	bic	r3, r3, #7936	; 0x1f00
40103a04:	e3a00601 	mov	r0, #1048576	; 0x100000
40103a08:	e1833402 	orr	r3, r3, r2, lsl #8
40103a0c:	e3c33803 	bic	r3, r3, #196608	; 0x30000
40103a10:	e3833801 	orr	r3, r3, #65536	; 0x10000
40103a14:	e3c33202 	bic	r3, r3, #536870912	; 0x20000000
40103a18:	e3833102 	orr	r3, r3, #-2147483648	; 0x80000000
40103a1c:	e5843020 	str	r3, [r4, #32]
40103a20:	ebfff92d 	bl	40101edc <resume1_bin_start+0xeac>
40103a24:	e5943020 	ldr	r3, [r4, #32]
40103a28:	e3a00a01 	mov	r0, #4096	; 0x1000
40103a2c:	e3833202 	orr	r3, r3, #536870912	; 0x20000000
40103a30:	e5843020 	str	r3, [r4, #32]
40103a34:	e59f302c 	ldr	r3, [pc, #44]	; 40103a68 <resume1_bin_start+0x2a38>
40103a38:	e584315c 	str	r3, [r4, #348]	; 0x15c
40103a3c:	e5945060 	ldr	r5, [r4, #96]	; 0x60
40103a40:	e3c55903 	bic	r5, r5, #49152	; 0xc000
40103a44:	e5845060 	str	r5, [r4, #96]	; 0x60
40103a48:	ebfff923 	bl	40101edc <resume1_bin_start+0xeac>
40103a4c:	e3855903 	orr	r5, r5, #49152	; 0xc000
40103a50:	e3a00a01 	mov	r0, #4096	; 0x1000
40103a54:	e5845060 	str	r5, [r4, #96]	; 0x60
40103a58:	e28dd004 	add	sp, sp, #4
40103a5c:	e8bd4ff0 	pop	{r4, r5, r6, r7, r8, r9, sl, fp, lr}
40103a60:	eafff91d 	b	40101edc <resume1_bin_start+0xeac>
40103a64:	f1c20000 	undefined instruction 0xf1c20000
40103a68:	82000001 	andhi	r0, r0, #1
40103a6c:	eaffffbb 	b	40103960 <resume1_bin_start+0x2930>
40103a70:	e59f20b0 	ldr	r2, [pc, #176]	; 40103b28 <resume1_bin_start+0x2af8>
40103a74:	e3a03001 	mov	r3, #1
40103a78:	e92d4010 	push	{r4, lr}
40103a7c:	e5924004 	ldr	r4, [r2, #4]
40103a80:	e7e24354 	ubfx	r4, r4, #6, #3
40103a84:	e3540003 	cmp	r4, #3
40103a88:	03a04005 	moveq	r4, #5
40103a8c:	13a04003 	movne	r4, #3
40103a90:	e59f2094 	ldr	r2, [pc, #148]	; 40103b2c <resume1_bin_start+0x2afc>
40103a94:	e1a01103 	lsl	r1, r3, #2
40103a98:	e2833001 	add	r3, r3, #1
40103a9c:	e0812002 	add	r2, r1, r2
40103aa0:	e1530004 	cmp	r3, r4
40103aa4:	e5921000 	ldr	r1, [r2]
40103aa8:	e3c11103 	bic	r1, r1, #-1073741824	; 0xc0000000
40103aac:	e3811102 	orr	r1, r1, #-2147483648	; 0x80000000
40103ab0:	e5821000 	str	r1, [r2]
40103ab4:	3afffff5 	bcc	40103a90 <resume1_bin_start+0x2a60>
40103ab8:	e3a00c01 	mov	r0, #256	; 0x100
40103abc:	ebfff906 	bl	40101edc <resume1_bin_start+0xeac>
40103ac0:	e3a03001 	mov	r3, #1
40103ac4:	e59f2060 	ldr	r2, [pc, #96]	; 40103b2c <resume1_bin_start+0x2afc>
40103ac8:	e1a01103 	lsl	r1, r3, #2
40103acc:	e2833001 	add	r3, r3, #1
40103ad0:	e0812002 	add	r2, r1, r2
40103ad4:	e1530004 	cmp	r3, r4
40103ad8:	e5921000 	ldr	r1, [r2]
40103adc:	e3c11103 	bic	r1, r1, #-1073741824	; 0xc0000000
40103ae0:	e5821000 	str	r1, [r2]
40103ae4:	3afffff6 	bcc	40103ac4 <resume1_bin_start+0x2a94>
40103ae8:	e3a00a01 	mov	r0, #4096	; 0x1000
40103aec:	ebfff8fa 	bl	40101edc <resume1_bin_start+0xeac>
40103af0:	e3a03001 	mov	r3, #1
40103af4:	e59f2030 	ldr	r2, [pc, #48]	; 40103b2c <resume1_bin_start+0x2afc>
40103af8:	e1a01103 	lsl	r1, r3, #2
40103afc:	e2833001 	add	r3, r3, #1
40103b00:	e0812002 	add	r2, r1, r2
40103b04:	e1530004 	cmp	r3, r4
40103b08:	e5921000 	ldr	r1, [r2]
40103b0c:	e3c11103 	bic	r1, r1, #-1073741824	; 0xc0000000
40103b10:	e3811101 	orr	r1, r1, #1073741824	; 0x40000000
40103b14:	e5821000 	str	r1, [r2]
40103b18:	3afffff5 	bcc	40103af4 <resume1_bin_start+0x2ac4>
40103b1c:	e3a00a01 	mov	r0, #4096	; 0x1000
40103b20:	e8bd4010 	pop	{r4, lr}
40103b24:	eafff8ec 	b	40101edc <resume1_bin_start+0xeac>
40103b28:	f1c01000 	undefined instruction 0xf1c01000
40103b2c:	f1c01204 	undefined instruction 0xf1c01204
40103b30:	e92d4010 	push	{r4, lr}
40103b34:	e59f4044 	ldr	r4, [pc, #68]	; 40103b80 <resume1_bin_start+0x2b50>
40103b38:	e3a00c01 	mov	r0, #256	; 0x100
40103b3c:	e5943204 	ldr	r3, [r4, #516]	; 0x204
40103b40:	e3c33103 	bic	r3, r3, #-1073741824	; 0xc0000000
40103b44:	e3833102 	orr	r3, r3, #-2147483648	; 0x80000000
40103b48:	e5843204 	str	r3, [r4, #516]	; 0x204
40103b4c:	ebfff8e2 	bl	40101edc <resume1_bin_start+0xeac>
40103b50:	e5943204 	ldr	r3, [r4, #516]	; 0x204
40103b54:	e3a00a01 	mov	r0, #4096	; 0x1000
40103b58:	e3c33103 	bic	r3, r3, #-1073741824	; 0xc0000000
40103b5c:	e5843204 	str	r3, [r4, #516]	; 0x204
40103b60:	ebfff8dd 	bl	40101edc <resume1_bin_start+0xeac>
40103b64:	e5943204 	ldr	r3, [r4, #516]	; 0x204
40103b68:	e3a00a01 	mov	r0, #4096	; 0x1000
40103b6c:	e3c33103 	bic	r3, r3, #-1073741824	; 0xc0000000
40103b70:	e3833101 	orr	r3, r3, #1073741824	; 0x40000000
40103b74:	e5843204 	str	r3, [r4, #516]	; 0x204
40103b78:	e8bd4010 	pop	{r4, lr}
40103b7c:	eafff8d6 	b	40101edc <resume1_bin_start+0xeac>
40103b80:	f1c01000 	undefined instruction 0xf1c01000
40103b84:	e92d4010 	push	{r4, lr}
40103b88:	e59f4020 	ldr	r4, [pc, #32]	; 40103bb0 <resume1_bin_start+0x2b80>
40103b8c:	e3a00c01 	mov	r0, #256	; 0x100
40103b90:	e5943230 	ldr	r3, [r4, #560]	; 0x230
40103b94:	e3c33a01 	bic	r3, r3, #4096	; 0x1000
40103b98:	e5843230 	str	r3, [r4, #560]	; 0x230
40103b9c:	ebfff8ce 	bl	40101edc <resume1_bin_start+0xeac>
40103ba0:	e5943230 	ldr	r3, [r4, #560]	; 0x230
40103ba4:	e3833a01 	orr	r3, r3, #4096	; 0x1000
40103ba8:	e5843230 	str	r3, [r4, #560]	; 0x230
40103bac:	e8bd8010 	pop	{r4, pc}
40103bb0:	f1c01000 	undefined instruction 0xf1c01000
40103bb4:	e92d41f0 	push	{r4, r5, r6, r7, r8, lr}
40103bb8:	e2504000 	subs	r4, r0, #0
40103bbc:	03e00000 	mvneq	r0, #0
40103bc0:	08bd81f0 	popeq	{r4, r5, r6, r7, r8, pc}
40103bc4:	e59f5238 	ldr	r5, [pc, #568]	; 40103e04 <resume1_bin_start+0x2dd4>
40103bc8:	e5940004 	ldr	r0, [r4, #4]
40103bcc:	ebffff63 	bl	40103960 <resume1_bin_start+0x2930>
40103bd0:	e3a03000 	mov	r3, #0
40103bd4:	e585323c 	str	r3, [r5, #572]	; 0x23c
40103bd8:	ebffffe9 	bl	40103b84 <resume1_bin_start+0x2b54>
40103bdc:	e5953230 	ldr	r3, [r5, #560]	; 0x230
40103be0:	e3833c6f 	orr	r3, r3, #28416	; 0x6f00
40103be4:	e38330fc 	orr	r3, r3, #252	; 0xfc
40103be8:	e3c33003 	bic	r3, r3, #3
40103bec:	e5853230 	str	r3, [r5, #560]	; 0x230
40103bf0:	e5953230 	ldr	r3, [r5, #560]	; 0x230
40103bf4:	e3c33801 	bic	r3, r3, #65536	; 0x10000
40103bf8:	e5853230 	str	r3, [r5, #560]	; 0x230
40103bfc:	e5953000 	ldr	r3, [r5]
40103c00:	e3833201 	orr	r3, r3, #268435456	; 0x10000000
40103c04:	e5853000 	str	r3, [r5]
40103c08:	ebffffc8 	bl	40103b30 <resume1_bin_start+0x2b00>
40103c0c:	e5943014 	ldr	r3, [r4, #20]
40103c10:	e5941008 	ldr	r1, [r4, #8]
40103c14:	e5942010 	ldr	r2, [r4, #16]
40103c18:	e3510003 	cmp	r1, #3
40103c1c:	13a01000 	movne	r1, #0
40103c20:	03a01001 	moveq	r1, #1
40103c24:	e1a031a3 	lsr	r3, r3, #3
40103c28:	e3520c01 	cmp	r2, #256	; 0x100
40103c2c:	e1813083 	orr	r3, r1, r3, lsl #1
40103c30:	0a00000d 	beq	40103c6c <resume1_bin_start+0x2c3c>
40103c34:	e3520c02 	cmp	r2, #512	; 0x200
40103c38:	03833008 	orreq	r3, r3, #8
40103c3c:	0a00000a 	beq	40103c6c <resume1_bin_start+0x2c3c>
40103c40:	e3520b01 	cmp	r2, #1024	; 0x400
40103c44:	03833010 	orreq	r3, r3, #16
40103c48:	0a000007 	beq	40103c6c <resume1_bin_start+0x2c3c>
40103c4c:	e3520b02 	cmp	r2, #2048	; 0x800
40103c50:	03833018 	orreq	r3, r3, #24
40103c54:	0a000004 	beq	40103c6c <resume1_bin_start+0x2c3c>
40103c58:	e3520a01 	cmp	r2, #4096	; 0x1000
40103c5c:	03833020 	orreq	r3, r3, #32
40103c60:	0a000001 	beq	40103c6c <resume1_bin_start+0x2c3c>
40103c64:	e3520a02 	cmp	r2, #8192	; 0x2000
40103c68:	03833028 	orreq	r3, r3, #40	; 0x28
40103c6c:	e594200c 	ldr	r2, [r4, #12]
40103c70:	e3a00010 	mov	r0, #16
40103c74:	e5941018 	ldr	r1, [r4, #24]
40103c78:	e2422001 	sub	r2, r2, #1
40103c7c:	e59f6180 	ldr	r6, [pc, #384]	; 40103e04 <resume1_bin_start+0x2dd4>
40103c80:	e1a011a1 	lsr	r1, r1, #3
40103c84:	e1a02502 	lsl	r2, r2, #10
40103c88:	e2411001 	sub	r1, r1, #1
40103c8c:	e3822a03 	orr	r2, r2, #12288	; 0x3000
40103c90:	e1822301 	orr	r2, r2, r1, lsl #6
40103c94:	e1823003 	orr	r3, r2, r3
40103c98:	e5863004 	str	r3, [r6, #4]
40103c9c:	e5943020 	ldr	r3, [r4, #32]
40103ca0:	e20350ff 	and	r5, r3, #255	; 0xff
40103ca4:	e7f32453 	ubfx	r2, r3, #8, #20
40103ca8:	e203320f 	and	r3, r3, #-268435456	; 0xf0000000
40103cac:	e1825a05 	orr	r5, r2, r5, lsl #20
40103cb0:	e1855003 	orr	r5, r5, r3
40103cb4:	e58650a8 	str	r5, [r6, #168]	; 0xa8
40103cb8:	e5963230 	ldr	r3, [r6, #560]	; 0x230
40103cbc:	e3833801 	orr	r3, r3, #65536	; 0x10000
40103cc0:	e5863230 	str	r3, [r6, #560]	; 0x230
40103cc4:	ebfff884 	bl	40101edc <resume1_bin_start+0xeac>
40103cc8:	e5963000 	ldr	r3, [r6]
40103ccc:	e59f7130 	ldr	r7, [pc, #304]	; 40103e04 <resume1_bin_start+0x2dd4>
40103cd0:	e3530000 	cmp	r3, #0
40103cd4:	bafffffb 	blt	40103cc8 <resume1_bin_start+0x2c98>
40103cd8:	ebffff64 	bl	40103a70 <resume1_bin_start+0x2a40>
40103cdc:	e5942004 	ldr	r2, [r4, #4]
40103ce0:	e3013f33 	movw	r3, #7987	; 0x1f33
40103ce4:	e0030392 	mul	r3, r2, r3
40103ce8:	e3a02009 	mov	r2, #9
40103cec:	e1a03523 	lsr	r3, r3, #10
40103cf0:	e0030392 	mul	r3, r2, r3
40103cf4:	e24330c8 	sub	r3, r3, #200	; 0xc8
40103cf8:	e1a03403 	lsl	r3, r3, #8
40103cfc:	e3833302 	orr	r3, r3, #134217728	; 0x8000000
40103d00:	e3833083 	orr	r3, r3, #131	; 0x83
40103d04:	e5873010 	str	r3, [r7, #16]
40103d08:	e594302c 	ldr	r3, [r4, #44]	; 0x2c
40103d0c:	e5873014 	str	r3, [r7, #20]
40103d10:	e5943030 	ldr	r3, [r4, #48]	; 0x30
40103d14:	e5873018 	str	r3, [r7, #24]
40103d18:	e5943034 	ldr	r3, [r4, #52]	; 0x34
40103d1c:	e587301c 	str	r3, [r7, #28]
40103d20:	e5943008 	ldr	r3, [r4, #8]
40103d24:	e3530003 	cmp	r3, #3
40103d28:	0594501c 	ldreq	r5, [r4, #28]
40103d2c:	02455004 	subeq	r5, r5, #4
40103d30:	01a05205 	lsleq	r5, r5, #4
40103d34:	03855c1a 	orreq	r5, r5, #6656	; 0x1a00
40103d38:	0a000004 	beq	40103d50 <resume1_bin_start+0x2d20>
40103d3c:	e3530002 	cmp	r3, #2
40103d40:	0594501c 	ldreq	r5, [r4, #28]
40103d44:	01a05205 	lsleq	r5, r5, #4
40103d48:	03855c0a 	orreq	r5, r5, #2560	; 0xa00
40103d4c:	03855002 	orreq	r5, r5, #2
40103d50:	e59f30ac 	ldr	r3, [pc, #172]	; 40103e04 <resume1_bin_start+0x2dd4>
40103d54:	e1a01003 	mov	r1, r3
40103d58:	e58351f0 	str	r5, [r3, #496]	; 0x1f0
40103d5c:	e5942044 	ldr	r2, [r4, #68]	; 0x44
40103d60:	e58321f4 	str	r2, [r3, #500]	; 0x1f4
40103d64:	e5942048 	ldr	r2, [r4, #72]	; 0x48
40103d68:	e58321f8 	str	r2, [r3, #504]	; 0x1f8
40103d6c:	e594204c 	ldr	r2, [r4, #76]	; 0x4c
40103d70:	e58321fc 	str	r2, [r3, #508]	; 0x1fc
40103d74:	e5932000 	ldr	r2, [r3]
40103d78:	e3822901 	orr	r2, r2, #16384	; 0x4000
40103d7c:	e3c22802 	bic	r2, r2, #131072	; 0x20000
40103d80:	e5832000 	str	r2, [r3]
40103d84:	e5932000 	ldr	r2, [r3]
40103d88:	e3822102 	orr	r2, r2, #-2147483648	; 0x80000000
40103d8c:	e5832000 	str	r2, [r3]
40103d90:	e5912000 	ldr	r2, [r1]
40103d94:	e59f3068 	ldr	r3, [pc, #104]	; 40103e04 <resume1_bin_start+0x2dd4>
40103d98:	e3520000 	cmp	r2, #0
40103d9c:	bafffffb 	blt	40103d90 <resume1_bin_start+0x2d60>
40103da0:	e5932000 	ldr	r2, [r3]
40103da4:	e1a01003 	mov	r1, r3
40103da8:	e3c22201 	bic	r2, r2, #268435456	; 0x10000000
40103dac:	e5832000 	str	r2, [r3]
40103db0:	e5932000 	ldr	r2, [r3]
40103db4:	e3822101 	orr	r2, r2, #1073741824	; 0x40000000
40103db8:	e5832000 	str	r2, [r3]
40103dbc:	e5910000 	ldr	r0, [r1]
40103dc0:	e2100101 	ands	r0, r0, #1073741824	; 0x40000000
40103dc4:	1afffffc 	bne	40103dbc <resume1_bin_start+0x2d8c>
40103dc8:	e59f3034 	ldr	r3, [pc, #52]	; 40103e04 <resume1_bin_start+0x2dd4>
40103dcc:	e593300c 	ldr	r3, [r3, #12]
40103dd0:	e2133601 	ands	r3, r3, #1048576	; 0x100000
40103dd4:	18bd81f0 	popne	{r4, r5, r6, r7, r8, pc}
40103dd8:	e59f1028 	ldr	r1, [pc, #40]	; 40103e08 <resume1_bin_start+0x2dd8>
40103ddc:	e59f2028 	ldr	r2, [pc, #40]	; 40103e0c <resume1_bin_start+0x2ddc>
40103de0:	e1a0c103 	lsl	ip, r3, #2
40103de4:	e7910103 	ldr	r0, [r1, r3, lsl #2]
40103de8:	e2833001 	add	r3, r3, #1
40103dec:	e08c2002 	add	r2, ip, r2
40103df0:	e3530020 	cmp	r3, #32
40103df4:	e5820000 	str	r0, [r2]
40103df8:	1afffff7 	bne	40103ddc <resume1_bin_start+0x2dac>
40103dfc:	e8bd41f0 	pop	{r4, r5, r6, r7, r8, lr}
40103e00:	eafffe8d 	b	4010383c <resume1_bin_start+0x280c>
40103e04:	f1c01000 	undefined instruction 0xf1c01000
40103e08:	00003f80 	andeq	r3, r0, r0, lsl #31
40103e0c:	f1c01250 	undefined instruction 0xf1c01250
40103e10:	e92d43f0 	push	{r4, r5, r6, r7, r8, r9, lr}
40103e14:	e24dd054 	sub	sp, sp, #84	; 0x54
40103e18:	e1a0000d 	mov	r0, sp
40103e1c:	ebfffecb 	bl	40103950 <resume1_bin_start+0x2920>
40103e20:	e59d4004 	ldr	r4, [sp, #4]
40103e24:	e3540e7d 	cmp	r4, #2000	; 0x7d0
40103e28:	9a000020 	bls	40103eb0 <resume1_bin_start+0x2e80>
40103e2c:	e59f20c4 	ldr	r2, [pc, #196]	; 40103ef8 <resume1_bin_start+0x2ec8>
40103e30:	e3a0c000 	mov	ip, #0
40103e34:	e3a03000 	mov	r3, #0
40103e38:	e0922002 	adds	r2, r2, r2
40103e3c:	e28cc001 	add	ip, ip, #1
40103e40:	e0a33003 	adc	r3, r3, r3
40103e44:	e35c002c 	cmp	ip, #44	; 0x2c
40103e48:	1afffffa 	bne	40103e38 <resume1_bin_start+0x2e08>
40103e4c:	e3a05000 	mov	r5, #0
40103e50:	e3a00000 	mov	r0, #0
40103e54:	e3a01000 	mov	r1, #0
40103e58:	e3a06001 	mov	r6, #1
40103e5c:	e3a07000 	mov	r7, #0
40103e60:	e1530005 	cmp	r3, r5
40103e64:	8a000009 	bhi	40103e90 <resume1_bin_start+0x2e60>
40103e68:	1a000001 	bne	40103e74 <resume1_bin_start+0x2e44>
40103e6c:	e1520004 	cmp	r2, r4
40103e70:	8a000006 	bhi	40103e90 <resume1_bin_start+0x2e60>
40103e74:	e0908000 	adds	r8, r0, r0
40103e78:	e0a19001 	adc	r9, r1, r1
40103e7c:	e1880006 	orr	r0, r8, r6
40103e80:	e0544002 	subs	r4, r4, r2
40103e84:	e0c55003 	sbc	r5, r5, r3
40103e88:	e1891007 	orr	r1, r9, r7
40103e8c:	ea000001 	b	40103e98 <resume1_bin_start+0x2e68>
40103e90:	e0900000 	adds	r0, r0, r0
40103e94:	e0a11001 	adc	r1, r1, r1
40103e98:	e25cc001 	subs	ip, ip, #1
40103e9c:	4a000002 	bmi	40103eac <resume1_bin_start+0x2e7c>
40103ea0:	e1b030a3 	lsrs	r3, r3, #1
40103ea4:	e1a02062 	rrx	r2, r2
40103ea8:	eaffffec 	b	40103e60 <resume1_bin_start+0x2e30>
40103eac:	e58d0004 	str	r0, [sp, #4]
40103eb0:	e3030010 	movw	r0, #12304	; 0x3010
40103eb4:	e3a04000 	mov	r4, #0
40103eb8:	eb000025 	bl	40103f54 <resume1_bin_start+0x2f24>
40103ebc:	e1a05004 	mov	r5, r4
40103ec0:	e1a0600d 	mov	r6, sp
40103ec4:	ea000001 	b	40103ed0 <resume1_bin_start+0x2ea0>
40103ec8:	ebffff39 	bl	40103bb4 <resume1_bin_start+0x2b84>
40103ecc:	e1a04000 	mov	r4, r0
40103ed0:	e3550003 	cmp	r5, #3
40103ed4:	93540000 	cmpls	r4, #0
40103ed8:	e1a0000d 	mov	r0, sp
40103edc:	e2855001 	add	r5, r5, #1
40103ee0:	0afffff8 	beq	40103ec8 <resume1_bin_start+0x2e98>
40103ee4:	e3030011 	movw	r0, #12305	; 0x3011
40103ee8:	eb000019 	bl	40103f54 <resume1_bin_start+0x2f24>
40103eec:	e1a00004 	mov	r0, r4
40103ef0:	e28dd054 	add	sp, sp, #84	; 0x54
40103ef4:	e8bd83f0 	pop	{r4, r5, r6, r7, r8, r9, pc}
40103ef8:	000f4240 	andeq	r4, pc, r0, asr #4
40103efc:	e24dd008 	sub	sp, sp, #8
40103f00:	e3a03001 	mov	r3, #1
40103f04:	e58d3004 	str	r3, [sp, #4]
40103f08:	e59d3004 	ldr	r3, [sp, #4]
40103f0c:	e3530001 	cmp	r3, #1
40103f10:	0afffffc 	beq	40103f08 <resume1_bin_start+0x2ed8>
40103f14:	e28dd008 	add	sp, sp, #8
40103f18:	e12fff1e 	bx	lr
40103f1c:	e24dd008 	sub	sp, sp, #8
40103f20:	e3a03002 	mov	r3, #2
40103f24:	e58d3004 	str	r3, [sp, #4]
40103f28:	e59d3004 	ldr	r3, [sp, #4]
40103f2c:	e3530001 	cmp	r3, #1
40103f30:	0afffffc 	beq	40103f28 <resume1_bin_start+0x2ef8>
40103f34:	e28dd008 	add	sp, sp, #8
40103f38:	e12fff1e 	bx	lr
40103f3c:	e59f300c 	ldr	r3, [pc, #12]	; 40103f50 <resume1_bin_start+0x2f20>
40103f40:	e593223c 	ldr	r2, [r3, #572]	; 0x23c
40103f44:	e3822001 	orr	r2, r2, #1
40103f48:	e583223c 	str	r2, [r3, #572]	; 0x23c
40103f4c:	e12fff1e 	bx	lr
40103f50:	f1c01000 	undefined instruction 0xf1c01000
40103f54:	e24dd008 	sub	sp, sp, #8
40103f58:	e58d0004 	str	r0, [sp, #4]
40103f5c:	e28dd008 	add	sp, sp, #8
40103f60:	e12fff1e 	bx	lr
40103f64:	e59f3004 	ldr	r3, [pc, #4]	; 40103f70 <resume1_bin_start+0x2f40>
40103f68:	e5930004 	ldr	r0, [r3, #4]
40103f6c:	e12fff1e 	bx	lr
40103f70:	c0200000 	eorgt	r0, r0, r0
40103f74:	e24dd008 	sub	sp, sp, #8
40103f78:	e58d0004 	str	r0, [sp, #4]
40103f7c:	e28dd008 	add	sp, sp, #8
40103f80:	e12fff1e 	bx	lr
40103f84:	e24dd008 	sub	sp, sp, #8
40103f88:	e59f3014 	ldr	r3, [pc, #20]	; 40103fa4 <resume1_bin_start+0x2f74>
40103f8c:	e58d0004 	str	r0, [sp, #4]
40103f90:	e5930ffc 	ldr	r0, [r3, #4092]	; 0xffc
40103f94:	e59d2004 	ldr	r2, [sp, #4]
40103f98:	e5832ffc 	str	r2, [r3, #4092]	; 0xffc
40103f9c:	e28dd008 	add	sp, sp, #8
40103fa0:	e12fff1e 	bx	lr
40103fa4:	c010f000 	andsgt	pc, r0, r0
40103fa8:	e24dd008 	sub	sp, sp, #8
40103fac:	e59f3014 	ldr	r3, [pc, #20]	; 40103fc8 <resume1_bin_start+0x2f98>
40103fb0:	e58d0004 	str	r0, [sp, #4]
40103fb4:	e5930ffc 	ldr	r0, [r3, #4092]	; 0xffc
40103fb8:	e59d2004 	ldr	r2, [sp, #4]
40103fbc:	e5832ffc 	str	r2, [r3, #4092]	; 0xffc
40103fc0:	e28dd008 	add	sp, sp, #8
40103fc4:	e12fff1e 	bx	lr
40103fc8:	4010f000 	andsmi	pc, r0, r0
40103fcc:	ee190f1d 	mrc	15, 0, r0, cr9, cr13, {0}
40103fd0:	e12fff1e 	bx	lr
40103fd4:	ee192f1c 	mrc	15, 0, r2, cr9, cr12, {0}
40103fd8:	e59f300c 	ldr	r3, [pc, #12]	; 40103fec <resume1_bin_start+0x2fbc>
40103fdc:	e5832000 	str	r2, [r3]
40103fe0:	ee192f3c 	mrc	15, 0, r2, cr9, cr12, {1}
40103fe4:	e5832004 	str	r2, [r3, #4]
40103fe8:	e12fff1e 	bx	lr
40103fec:	000042cc 	andeq	r4, r0, ip, asr #5
40103ff0:	e3500000 	cmp	r0, #0
40103ff4:	03a00001 	moveq	r0, #1
40103ff8:	13a00007 	movne	r0, #7
40103ffc:	e3510000 	cmp	r1, #0
40104000:	13800008 	orrne	r0, r0, #8
40104004:	e3800010 	orr	r0, r0, #16
40104008:	ee090f1c 	mcr	15, 0, r0, cr9, cr12, {0}
4010400c:	e3a0313e 	mov	r3, #-2147483633	; 0x8000000f
40104010:	ee093f3c 	mcr	15, 0, r3, cr9, cr12, {1}
40104014:	ee093f7c 	mcr	15, 0, r3, cr9, cr12, {3}
40104018:	e12fff1e 	bx	lr
4010401c:	e59f3014 	ldr	r3, [pc, #20]	; 40104038 <resume1_bin_start+0x3008>
40104020:	e5933000 	ldr	r3, [r3]
40104024:	ee093f1c 	mcr	15, 0, r3, cr9, cr12, {0}
40104028:	e59f3008 	ldr	r3, [pc, #8]	; 40104038 <resume1_bin_start+0x3008>
4010402c:	e5933004 	ldr	r3, [r3, #4]
40104030:	ee093f3c 	mcr	15, 0, r3, cr9, cr12, {1}
40104034:	e12fff1e 	bx	lr
40104038:	000042cc 	andeq	r4, r0, ip, asr #5
4010403c:	e3a03000 	mov	r3, #0
40104040:	ee193f1c 	mrc	15, 0, r3, cr9, cr12, {0}
40104044:	e2833004 	add	r3, r3, #4
40104048:	ee093f1c 	mcr	15, 0, r3, cr9, cr12, {0}
4010404c:	e12fff1e 	bx	lr
40104050:	e92d4013 	push	{r0, r1, r4, lr}
40104054:	e3a03000 	mov	r3, #0
40104058:	e59f1108 	ldr	r1, [pc, #264]	; 40104168 <resume1_bin_start+0x3138>
4010405c:	e1500003 	cmp	r0, r3
40104060:	e58d3004 	str	r3, [sp, #4]
40104064:	e59f2100 	ldr	r2, [pc, #256]	; 4010416c <resume1_bin_start+0x313c>
40104068:	11a02001 	movne	r2, r1
4010406c:	ee191f1d 	mrc	15, 0, r1, cr9, cr13, {0}
40104070:	ee190f1d 	mrc	15, 0, r0, cr9, cr13, {0}
40104074:	e59fc0f4 	ldr	ip, [pc, #244]	; 40104170 <resume1_bin_start+0x3140>
40104078:	e0611000 	rsb	r1, r1, r0
4010407c:	e58c1008 	str	r1, [ip, #8]
40104080:	e5921054 	ldr	r1, [r2, #84]	; 0x54
40104084:	e58d1004 	str	r1, [sp, #4]
40104088:	e59d1004 	ldr	r1, [sp, #4]
4010408c:	e1a01821 	lsr	r1, r1, #16
40104090:	e58d1004 	str	r1, [sp, #4]
40104094:	e59d1004 	ldr	r1, [sp, #4]
40104098:	e2011003 	and	r1, r1, #3
4010409c:	e58d1004 	str	r1, [sp, #4]
401040a0:	e59d1004 	ldr	r1, [sp, #4]
401040a4:	e1510003 	cmp	r1, r3
401040a8:	02833020 	addeq	r3, r3, #32
401040ac:	0a000003 	beq	401040c0 <resume1_bin_start+0x3090>
401040b0:	e59d1004 	ldr	r1, [sp, #4]
401040b4:	e3510001 	cmp	r1, #1
401040b8:	1a000002 	bne	401040c8 <resume1_bin_start+0x3098>
401040bc:	e3053dc0 	movw	r3, #24000	; 0x5dc0
401040c0:	e58c300c 	str	r3, [ip, #12]
401040c4:	ea000026 	b	40104164 <resume1_bin_start+0x3134>
401040c8:	e59d1004 	ldr	r1, [sp, #4]
401040cc:	e3510002 	cmp	r1, #2
401040d0:	1a000023 	bne	40104164 <resume1_bin_start+0x3134>
401040d4:	e5922000 	ldr	r2, [r2]
401040d8:	e3a04001 	mov	r4, #1
401040dc:	e58d2004 	str	r2, [sp, #4]
401040e0:	e59d1004 	ldr	r1, [sp, #4]
401040e4:	e59dc004 	ldr	ip, [sp, #4]
401040e8:	e59d0004 	ldr	r0, [sp, #4]
401040ec:	e7e11851 	ubfx	r1, r1, #16, #2
401040f0:	e59d2004 	ldr	r2, [sp, #4]
401040f4:	e1a01114 	lsl	r1, r4, r1
401040f8:	e2022003 	and	r2, r2, #3
401040fc:	e0822004 	add	r2, r2, r4
40104100:	e0120192 	muls	r2, r2, r1
40104104:	01a01002 	moveq	r1, r2
40104108:	0a000013 	beq	4010415c <resume1_bin_start+0x312c>
4010410c:	ea000001 	b	40104118 <resume1_bin_start+0x30e8>
40104110:	e1a02082 	lsl	r2, r2, #1
40104114:	e2833001 	add	r3, r3, #1
40104118:	e3520000 	cmp	r2, #0
4010411c:	aafffffb 	bge	40104110 <resume1_bin_start+0x30e0>
40104120:	e7e4c45c 	ubfx	ip, ip, #8, #5
40104124:	e3054dc0 	movw	r4, #24000	; 0x5dc0
40104128:	e7e10250 	ubfx	r0, r0, #4, #2
4010412c:	e3a01000 	mov	r1, #0
40104130:	e00c0c94 	mul	ip, r4, ip
40104134:	e2800001 	add	r0, r0, #1
40104138:	e0000c90 	mul	r0, r0, ip
4010413c:	e1500002 	cmp	r0, r2
40104140:	e1a0c081 	lsl	ip, r1, #1
40104144:	20620000 	rsbcs	r0, r2, r0
40104148:	e38c1001 	orr	r1, ip, #1
4010414c:	31a0100c 	movcc	r1, ip
40104150:	e2533001 	subs	r3, r3, #1
40104154:	e1a020a2 	lsr	r2, r2, #1
40104158:	5afffff7 	bpl	4010413c <resume1_bin_start+0x310c>
4010415c:	e59f300c 	ldr	r3, [pc, #12]	; 40104170 <resume1_bin_start+0x3140>
40104160:	e583100c 	str	r1, [r3, #12]
40104164:	e8bd801c 	pop	{r2, r3, r4, pc}
40104168:	f1c20000 	undefined instruction 0xf1c20000
4010416c:	01c20000 	biceq	r0, r2, r0
40104170:	000042cc 	andeq	r4, r0, ip, asr #5
40104174:	e59f3078 	ldr	r3, [pc, #120]	; 401041f4 <resume1_bin_start+0x31c4>
40104178:	e92d4010 	push	{r4, lr}
4010417c:	e593c00c 	ldr	ip, [r3, #12]
40104180:	e35c0ffa 	cmp	ip, #1000	; 0x3e8
40104184:	98bd8010 	popls	{r4, pc}
40104188:	e3a02000 	mov	r2, #0
4010418c:	e3a03ffa 	mov	r3, #1000	; 0x3e8
40104190:	e2822001 	add	r2, r2, #1
40104194:	e1a03083 	lsl	r3, r3, #1
40104198:	e3520016 	cmp	r2, #22
4010419c:	1afffffb 	bne	40104190 <resume1_bin_start+0x3160>
401041a0:	e3a01000 	mov	r1, #0
401041a4:	e15c0003 	cmp	ip, r3
401041a8:	e1a04081 	lsl	r4, r1, #1
401041ac:	2063c00c 	rsbcs	ip, r3, ip
401041b0:	e3841001 	orr	r1, r4, #1
401041b4:	31a01004 	movcc	r1, r4
401041b8:	e2522001 	subs	r2, r2, #1
401041bc:	e1a030a3 	lsr	r3, r3, #1
401041c0:	5afffff7 	bpl	401041a4 <resume1_bin_start+0x3174>
401041c4:	ee193f1d 	mrc	15, 0, r3, cr9, cr13, {0}
401041c8:	e59f2024 	ldr	r2, [pc, #36]	; 401041f4 <resume1_bin_start+0x31c4>
401041cc:	e2811001 	add	r1, r1, #1
401041d0:	e5922008 	ldr	r2, [r2, #8]
401041d4:	e0622003 	rsb	r2, r2, r3
401041d8:	e0212190 	mla	r1, r0, r1, r2
401041dc:	ea000000 	b	401041e4 <resume1_bin_start+0x31b4>
401041e0:	ee193f1d 	mrc	15, 0, r3, cr9, cr13, {0}
401041e4:	e0613003 	rsb	r3, r1, r3
401041e8:	e3530000 	cmp	r3, #0
401041ec:	bafffffb 	blt	401041e0 <resume1_bin_start+0x31b0>
401041f0:	e8bd8010 	pop	{r4, pc}
401041f4:	000042cc 	andeq	r4, r0, ip, asr #5
401041f8:	e3a03ffa 	mov	r3, #1000	; 0x3e8
401041fc:	e0000093 	mul	r0, r3, r0
40104200:	eaffffdb 	b	40104174 <resume1_bin_start+0x3144>
40104204:	e59f2008 	ldr	r2, [pc, #8]	; 40104214 <resume1_bin_start+0x31e4>
40104208:	e59f3008 	ldr	r3, [pc, #8]	; 40104218 <resume1_bin_start+0x31e8>
4010420c:	e5832890 	str	r2, [r3, #2192]	; 0x890
40104210:	e12fff1e 	bx	lr
40104214:	00111111 	andseq	r1, r1, r1, lsl r1
40104218:	f1c20000 	undefined instruction 0xf1c20000
4010421c:	e59f300c 	ldr	r3, [pc, #12]	; 40104230 <resume1_bin_start+0x3200>
40104220:	e59328a0 	ldr	r2, [r3, #2208]	; 0x8a0
40104224:	e382203f 	orr	r2, r2, #63	; 0x3f
40104228:	e58328a0 	str	r2, [r3, #2208]	; 0x8a0
4010422c:	e12fff1e 	bx	lr
40104230:	f1c20000 	undefined instruction 0xf1c20000
40104234:	e59f300c 	ldr	r3, [pc, #12]	; 40104248 <resume1_bin_start+0x3218>
40104238:	e59328a0 	ldr	r2, [r3, #2208]	; 0x8a0
4010423c:	e3c2203f 	bic	r2, r2, #63	; 0x3f
40104240:	e58328a0 	str	r2, [r3, #2208]	; 0x8a0
40104244:	e12fff1e 	bx	lr
40104248:	f1c20000 	undefined instruction 0xf1c20000
4010424c:	e92d4070 	push	{r4, r5, r6, lr}
40104250:	e59f4024 	ldr	r4, [pc, #36]	; 4010427c <resume1_bin_start+0x324c>
40104254:	e3a05001 	mov	r5, #1
40104258:	e59468a0 	ldr	r6, [r4, #2208]	; 0x8a0
4010425c:	e1a05015 	lsl	r5, r5, r0
40104260:	e3020710 	movw	r0, #10000	; 0x2710
40104264:	e1c66005 	bic	r6, r6, r5
40104268:	e58468a0 	str	r6, [r4, #2208]	; 0x8a0
4010426c:	ebffffc0 	bl	40104174 <resume1_bin_start+0x3144>
40104270:	e1865005 	orr	r5, r6, r5
40104274:	e58458a0 	str	r5, [r4, #2208]	; 0x8a0
40104278:	e8bd8070 	pop	{r4, r5, r6, pc}
4010427c:	f1c20000 	undefined instruction 0xf1c20000
	...
40104290:	ee503f10 	mrc	15, 2, r3, cr0, cr0, {0}
40104294:	e5803000 	str	r3, [r0]
40104298:	ee113f50 	mrc	15, 0, r3, cr1, cr0, {2}
4010429c:	e5803008 	str	r3, [r0, #8]
401042a0:	ee133f10 	mrc	15, 0, r3, cr3, cr0, {0}
401042a4:	e5803018 	str	r3, [r0, #24]
401042a8:	ee123f10 	mrc	15, 0, r3, cr2, cr0, {0}
401042ac:	e580300c 	str	r3, [r0, #12]
401042b0:	ee123f30 	mrc	15, 0, r3, cr2, cr0, {1}
401042b4:	e5803010 	str	r3, [r0, #16]
401042b8:	ee123f50 	mrc	15, 0, r3, cr2, cr0, {2}
401042bc:	e5803014 	str	r3, [r0, #20]
401042c0:	ee113f10 	mrc	15, 0, r3, cr1, cr0, {0}
401042c4:	e5803004 	str	r3, [r0, #4]
401042c8:	e12fff1e 	bx	lr
401042cc:	e5903000 	ldr	r3, [r0]
401042d0:	ee403f10 	mcr	15, 2, r3, cr0, cr0, {0}
401042d4:	e5903008 	ldr	r3, [r0, #8]
401042d8:	ee013f50 	mcr	15, 0, r3, cr1, cr0, {2}
401042dc:	e5903018 	ldr	r3, [r0, #24]
401042e0:	ee033f10 	mcr	15, 0, r3, cr3, cr0, {0}
401042e4:	e5903010 	ldr	r3, [r0, #16]
401042e8:	ee023f10 	mcr	15, 0, r3, cr2, cr0, {0}
401042ec:	ee023f30 	mcr	15, 0, r3, cr2, cr0, {1}
401042f0:	e5903014 	ldr	r3, [r0, #20]
401042f4:	ee023f50 	mcr	15, 0, r3, cr2, cr0, {2}
401042f8:	ea000004 	b	40104310 <resume1_bin_start+0x32e0>
401042fc:	e320f000 	nop	{0}
40104300:	e320f000 	nop	{0}
40104304:	e320f000 	nop	{0}
40104308:	e320f000 	nop	{0}
4010430c:	e320f000 	nop	{0}
40104310:	e1a00000 	nop			; (mov r0, r0)
40104314:	e5903004 	ldr	r3, [r0, #4]
40104318:	ee013f10 	mcr	15, 0, r3, cr1, cr0, {0}
4010431c:	ee103f10 	mrc	15, 0, r3, cr0, cr0, {0}
40104320:	e1a03003 	mov	r3, r3
40104324:	e1a03003 	mov	r3, r3
40104328:	f57ff06f 	isb	sy
4010432c:	e12fff1e 	bx	lr
40104330:	ee123f30 	mrc	15, 0, r3, cr2, cr0, {1}
40104334:	ee023f10 	mcr	15, 0, r3, cr2, cr0, {0}
40104338:	f57ff06f 	isb	sy
4010433c:	e12fff1e 	bx	lr
40104340:	e320f000 	nop	{0}
40104344:	e320f000 	nop	{0}
40104348:	e320f000 	nop	{0}
4010434c:	e320f000 	nop	{0}
40104350:	f57ff05f 	dmb	sy
40104354:	ee300f30 	mrc	15, 1, r0, cr0, cr0, {1}
40104358:	e2103407 	ands	r3, r0, #117440512	; 0x7000000
4010435c:	e1a03ba3 	lsr	r3, r3, #23
40104360:	0a00001a 	beq	401043d0 <resume1_bin_start+0x33a0>
40104364:	e3a0a000 	mov	sl, #0
40104368:	e08a20aa 	add	r2, sl, sl, lsr #1
4010436c:	e1a01230 	lsr	r1, r0, r2
40104370:	e2011007 	and	r1, r1, #7
40104374:	e3510002 	cmp	r1, #2
40104378:	ba000011 	blt	401043c4 <resume1_bin_start+0x3394>
4010437c:	ee40af10 	mcr	15, 2, sl, cr0, cr0, {0}
40104380:	f57ff06f 	isb	sy
40104384:	ee301f10 	mrc	15, 1, r1, cr0, cr0, {0}
40104388:	e2012007 	and	r2, r1, #7
4010438c:	e2822004 	add	r2, r2, #4
40104390:	e59f4100 	ldr	r4, [pc, #256]	; 40104498 <resume1_bin_start+0x3468>
40104394:	e01441a1 	ands	r4, r4, r1, lsr #3
40104398:	e16f5f14 	clz	r5, r4
4010439c:	e59f70f8 	ldr	r7, [pc, #248]	; 4010449c <resume1_bin_start+0x346c>
401043a0:	e01776a1 	ands	r7, r7, r1, lsr #13
401043a4:	e1a09004 	mov	r9, r4
401043a8:	e18ab519 	orr	fp, sl, r9, lsl r5
401043ac:	e18bb217 	orr	fp, fp, r7, lsl r2
401043b0:	ee07bf56 	mcr	15, 0, fp, cr7, cr6, {2}
401043b4:	e2599001 	subs	r9, r9, #1
401043b8:	aafffffa 	bge	401043a8 <resume1_bin_start+0x3378>
401043bc:	e2577001 	subs	r7, r7, #1
401043c0:	aafffff7 	bge	401043a4 <resume1_bin_start+0x3374>
401043c4:	e28aa002 	add	sl, sl, #2
401043c8:	e153000a 	cmp	r3, sl
401043cc:	caffffe5 	bgt	40104368 <resume1_bin_start+0x3338>
401043d0:	e3a0a000 	mov	sl, #0
401043d4:	ee40af10 	mcr	15, 2, sl, cr0, cr0, {0}
401043d8:	f57ff04f 	dsb	sy
401043dc:	f57ff06f 	isb	sy
401043e0:	e1a0f00e 	mov	pc, lr
401043e4:	e320f000 	nop	{0}
401043e8:	e320f000 	nop	{0}
401043ec:	e320f000 	nop	{0}
401043f0:	e1a0c000 	mov	ip, r0
401043f4:	e1a08001 	mov	r8, r1
401043f8:	ebffffd4 	bl	40104350 <resume1_bin_start+0x3320>
401043fc:	e1a01008 	mov	r1, r8
40104400:	e1a0e00c 	mov	lr, ip
40104404:	e8913fff 	ldm	r1, {r0, r1, r2, r3, r4, r5, r6, r7, r8, r9, sl, fp, ip, sp}
40104408:	e1a0f00e 	mov	pc, lr
4010440c:	e320f000 	nop	{0}
40104410:	e1a0e000 	mov	lr, r0
40104414:	e1a0f00e 	mov	pc, lr
40104418:	e320f000 	nop	{0}
4010441c:	e320f000 	nop	{0}
40104420:	ee111f10 	mrc	15, 0, r1, cr1, cr0, {0}
40104424:	e3c11a01 	bic	r1, r1, #4096	; 0x1000
40104428:	e3c11007 	bic	r1, r1, #7
4010442c:	ee011f10 	mcr	15, 0, r1, cr1, cr0, {0}
40104430:	ee103f10 	mrc	15, 0, r3, cr0, cr0, {0}
40104434:	e1a03003 	mov	r3, r3
40104438:	e1a03003 	mov	r3, r3
4010443c:	e1a0e000 	mov	lr, r0
40104440:	f57ff06f 	isb	sy
40104444:	e1a0f00e 	mov	pc, lr
40104448:	e320f000 	nop	{0}
4010444c:	e320f000 	nop	{0}
40104450:	e8803fff 	stm	r0, {r0, r1, r2, r3, r4, r5, r6, r7, r8, r9, sl, fp, ip, sp}
40104454:	e1a0f00e 	mov	pc, lr
40104458:	e320f000 	nop	{0}
4010445c:	e320f000 	nop	{0}
40104460:	e3a00000 	mov	r0, #0
40104464:	e3a01000 	mov	r1, #0
40104468:	e3a02000 	mov	r2, #0
4010446c:	e3a03000 	mov	r3, #0
40104470:	e3a04000 	mov	r4, #0
40104474:	e3a05000 	mov	r5, #0
40104478:	e3a06000 	mov	r6, #0
4010447c:	e3a07000 	mov	r7, #0
40104480:	e3a08000 	mov	r8, #0
40104484:	e3a09000 	mov	r9, #0
40104488:	e3a0a000 	mov	sl, #0
4010448c:	e3a0b000 	mov	fp, #0
40104490:	e3a0c000 	mov	ip, #0
40104494:	e1a0f00e 	mov	pc, lr
40104498:	000003ff 	strdeq	r0, [r0], -pc
4010449c:	00007fff 	strdeq	r7, [r0], -pc
401044a0:	ee503f10 	mrc	15, 2, r3, cr0, cr0, {0}
401044a4:	e5c03000 	strb	r3, [r0]
401044a8:	e1a02c23 	lsr	r2, r3, #24
401044ac:	e5c02003 	strb	r2, [r0, #3]
401044b0:	e7e72453 	ubfx	r2, r3, #8, #8
401044b4:	e7e73853 	ubfx	r3, r3, #16, #8
401044b8:	e5c02001 	strb	r2, [r0, #1]
401044bc:	e5c03002 	strb	r3, [r0, #2]
401044c0:	ee113f10 	mrc	15, 0, r3, cr1, cr0, {0}
401044c4:	e5c03004 	strb	r3, [r0, #4]
401044c8:	e1a02c23 	lsr	r2, r3, #24
401044cc:	e5c02007 	strb	r2, [r0, #7]
401044d0:	e7e72453 	ubfx	r2, r3, #8, #8
401044d4:	e7e73853 	ubfx	r3, r3, #16, #8
401044d8:	e5c02005 	strb	r2, [r0, #5]
401044dc:	e5c03006 	strb	r3, [r0, #6]
401044e0:	ee113f50 	mrc	15, 0, r3, cr1, cr0, {2}
401044e4:	e5c0300c 	strb	r3, [r0, #12]
401044e8:	e1a02c23 	lsr	r2, r3, #24
401044ec:	e5c0200f 	strb	r2, [r0, #15]
401044f0:	e7e72453 	ubfx	r2, r3, #8, #8
401044f4:	e7e73853 	ubfx	r3, r3, #16, #8
401044f8:	e5c0200d 	strb	r2, [r0, #13]
401044fc:	e5c0300e 	strb	r3, [r0, #14]
40104500:	ee123f10 	mrc	15, 0, r3, cr2, cr0, {0}
40104504:	e5c0301c 	strb	r3, [r0, #28]
40104508:	e1a02c23 	lsr	r2, r3, #24
4010450c:	e5c0201f 	strb	r2, [r0, #31]
40104510:	e7e72453 	ubfx	r2, r3, #8, #8
40104514:	e7e73853 	ubfx	r3, r3, #16, #8
40104518:	e5c0201d 	strb	r2, [r0, #29]
4010451c:	e5c0301e 	strb	r3, [r0, #30]
40104520:	ee123f30 	mrc	15, 0, r3, cr2, cr0, {1}
40104524:	e5c03020 	strb	r3, [r0, #32]
40104528:	e1a02c23 	lsr	r2, r3, #24
4010452c:	e5c02023 	strb	r2, [r0, #35]	; 0x23
40104530:	e7e72453 	ubfx	r2, r3, #8, #8
40104534:	e7e73853 	ubfx	r3, r3, #16, #8
40104538:	e5c02021 	strb	r2, [r0, #33]	; 0x21
4010453c:	e5c03022 	strb	r3, [r0, #34]	; 0x22
40104540:	ee123f50 	mrc	15, 0, r3, cr2, cr0, {2}
40104544:	e5c03024 	strb	r3, [r0, #36]	; 0x24
40104548:	e1a02c23 	lsr	r2, r3, #24
4010454c:	e5c02027 	strb	r2, [r0, #39]	; 0x27
40104550:	e7e72453 	ubfx	r2, r3, #8, #8
40104554:	e7e73853 	ubfx	r3, r3, #16, #8
40104558:	e5c02025 	strb	r2, [r0, #37]	; 0x25
4010455c:	e5c03026 	strb	r3, [r0, #38]	; 0x26
40104560:	ee133f10 	mrc	15, 0, r3, cr3, cr0, {0}
40104564:	e5c03028 	strb	r3, [r0, #40]	; 0x28
40104568:	e1a02c23 	lsr	r2, r3, #24
4010456c:	e5c0202b 	strb	r2, [r0, #43]	; 0x2b
40104570:	e7e72453 	ubfx	r2, r3, #8, #8
40104574:	e7e73853 	ubfx	r3, r3, #16, #8
40104578:	e5c02029 	strb	r2, [r0, #41]	; 0x29
4010457c:	e5c0302a 	strb	r3, [r0, #42]	; 0x2a
40104580:	ee153f10 	mrc	15, 0, r3, cr5, cr0, {0}
40104584:	e5c0302c 	strb	r3, [r0, #44]	; 0x2c
40104588:	e1a02c23 	lsr	r2, r3, #24
4010458c:	e5c0202f 	strb	r2, [r0, #47]	; 0x2f
40104590:	e7e72453 	ubfx	r2, r3, #8, #8
40104594:	e7e73853 	ubfx	r3, r3, #16, #8
40104598:	e5c0202d 	strb	r2, [r0, #45]	; 0x2d
4010459c:	e5c0302e 	strb	r3, [r0, #46]	; 0x2e
401045a0:	ee153f30 	mrc	15, 0, r3, cr5, cr0, {1}
401045a4:	e5c03030 	strb	r3, [r0, #48]	; 0x30
401045a8:	e1a02c23 	lsr	r2, r3, #24
401045ac:	e7e71453 	ubfx	r1, r3, #8, #8
401045b0:	e7e73853 	ubfx	r3, r3, #16, #8
401045b4:	e5c01031 	strb	r1, [r0, #49]	; 0x31
401045b8:	e5c02033 	strb	r2, [r0, #51]	; 0x33
401045bc:	e5c03032 	strb	r3, [r0, #50]	; 0x32
401045c0:	ee153f11 	mrc	15, 0, r3, cr5, cr1, {0}
401045c4:	e5c03034 	strb	r3, [r0, #52]	; 0x34
401045c8:	e1a02c23 	lsr	r2, r3, #24
401045cc:	e5c02037 	strb	r2, [r0, #55]	; 0x37
401045d0:	e7e72453 	ubfx	r2, r3, #8, #8
401045d4:	e7e73853 	ubfx	r3, r3, #16, #8
401045d8:	e5c02035 	strb	r2, [r0, #53]	; 0x35
401045dc:	e5c03036 	strb	r3, [r0, #54]	; 0x36
401045e0:	ee153f31 	mrc	15, 0, r3, cr5, cr1, {1}
401045e4:	e5c03038 	strb	r3, [r0, #56]	; 0x38
401045e8:	e1a02c23 	lsr	r2, r3, #24
401045ec:	e5c0203b 	strb	r2, [r0, #59]	; 0x3b
401045f0:	e7e72453 	ubfx	r2, r3, #8, #8
401045f4:	e7e73853 	ubfx	r3, r3, #16, #8
401045f8:	e5c02039 	strb	r2, [r0, #57]	; 0x39
401045fc:	e5c0303a 	strb	r3, [r0, #58]	; 0x3a
40104600:	ee163f10 	mrc	15, 0, r3, cr6, cr0, {0}
40104604:	e5c0303c 	strb	r3, [r0, #60]	; 0x3c
40104608:	e1a02c23 	lsr	r2, r3, #24
4010460c:	e5c0203f 	strb	r2, [r0, #63]	; 0x3f
40104610:	e7e72453 	ubfx	r2, r3, #8, #8
40104614:	e7e73853 	ubfx	r3, r3, #16, #8
40104618:	e5c0203d 	strb	r2, [r0, #61]	; 0x3d
4010461c:	e5c0303e 	strb	r3, [r0, #62]	; 0x3e
40104620:	ee163f50 	mrc	15, 0, r3, cr6, cr0, {2}
40104624:	e5c03040 	strb	r3, [r0, #64]	; 0x40
40104628:	e1a02c23 	lsr	r2, r3, #24
4010462c:	e5c02043 	strb	r2, [r0, #67]	; 0x43
40104630:	e7e72453 	ubfx	r2, r3, #8, #8
40104634:	e7e73853 	ubfx	r3, r3, #16, #8
40104638:	e5c02041 	strb	r2, [r0, #65]	; 0x41
4010463c:	e5c03042 	strb	r3, [r0, #66]	; 0x42
40104640:	ee173f14 	mrc	15, 0, r3, cr7, cr4, {0}
40104644:	e5c03044 	strb	r3, [r0, #68]	; 0x44
40104648:	e1a02c23 	lsr	r2, r3, #24
4010464c:	e5c02047 	strb	r2, [r0, #71]	; 0x47
40104650:	e7e72453 	ubfx	r2, r3, #8, #8
40104654:	e7e73853 	ubfx	r3, r3, #16, #8
40104658:	e5c02045 	strb	r2, [r0, #69]	; 0x45
4010465c:	e5c03046 	strb	r3, [r0, #70]	; 0x46
40104660:	ee193f1c 	mrc	15, 0, r3, cr9, cr12, {0}
40104664:	e5c03048 	strb	r3, [r0, #72]	; 0x48
40104668:	e1a02c23 	lsr	r2, r3, #24
4010466c:	e5c0204b 	strb	r2, [r0, #75]	; 0x4b
40104670:	e7e72453 	ubfx	r2, r3, #8, #8
40104674:	e7e73853 	ubfx	r3, r3, #16, #8
40104678:	e5c02049 	strb	r2, [r0, #73]	; 0x49
4010467c:	e5c0304a 	strb	r3, [r0, #74]	; 0x4a
40104680:	ee193f3c 	mrc	15, 0, r3, cr9, cr12, {1}
40104684:	e5c0304c 	strb	r3, [r0, #76]	; 0x4c
40104688:	e1a02c23 	lsr	r2, r3, #24
4010468c:	e5c0204f 	strb	r2, [r0, #79]	; 0x4f
40104690:	e7e72453 	ubfx	r2, r3, #8, #8
40104694:	e7e73853 	ubfx	r3, r3, #16, #8
40104698:	e5c0204d 	strb	r2, [r0, #77]	; 0x4d
4010469c:	e5c0304e 	strb	r3, [r0, #78]	; 0x4e
401046a0:	ee193f5c 	mrc	15, 0, r3, cr9, cr12, {2}
401046a4:	e5c03050 	strb	r3, [r0, #80]	; 0x50
401046a8:	e1a02c23 	lsr	r2, r3, #24
401046ac:	e7e71453 	ubfx	r1, r3, #8, #8
401046b0:	e7e73853 	ubfx	r3, r3, #16, #8
401046b4:	e5c01051 	strb	r1, [r0, #81]	; 0x51
401046b8:	e5c03052 	strb	r3, [r0, #82]	; 0x52
401046bc:	e5c02053 	strb	r2, [r0, #83]	; 0x53
401046c0:	ee193f7c 	mrc	15, 0, r3, cr9, cr12, {3}
401046c4:	e5c03054 	strb	r3, [r0, #84]	; 0x54
401046c8:	e1a02c23 	lsr	r2, r3, #24
401046cc:	e5c02057 	strb	r2, [r0, #87]	; 0x57
401046d0:	e7e72453 	ubfx	r2, r3, #8, #8
401046d4:	e7e73853 	ubfx	r3, r3, #16, #8
401046d8:	e5c02055 	strb	r2, [r0, #85]	; 0x55
401046dc:	e5c03056 	strb	r3, [r0, #86]	; 0x56
401046e0:	ee193f9c 	mrc	15, 0, r3, cr9, cr12, {4}
401046e4:	e5c03058 	strb	r3, [r0, #88]	; 0x58
401046e8:	e1a02c23 	lsr	r2, r3, #24
401046ec:	e5c0205b 	strb	r2, [r0, #91]	; 0x5b
401046f0:	e7e72453 	ubfx	r2, r3, #8, #8
401046f4:	e7e73853 	ubfx	r3, r3, #16, #8
401046f8:	e5c02059 	strb	r2, [r0, #89]	; 0x59
401046fc:	e5c0305a 	strb	r3, [r0, #90]	; 0x5a
40104700:	ee193fbc 	mrc	15, 0, r3, cr9, cr12, {5}
40104704:	e5c0305c 	strb	r3, [r0, #92]	; 0x5c
40104708:	e1a02c23 	lsr	r2, r3, #24
4010470c:	e5c0205f 	strb	r2, [r0, #95]	; 0x5f
40104710:	e7e72453 	ubfx	r2, r3, #8, #8
40104714:	e7e73853 	ubfx	r3, r3, #16, #8
40104718:	e5c0205d 	strb	r2, [r0, #93]	; 0x5d
4010471c:	e5c0305e 	strb	r3, [r0, #94]	; 0x5e
40104720:	ee193f1d 	mrc	15, 0, r3, cr9, cr13, {0}
40104724:	e5c03060 	strb	r3, [r0, #96]	; 0x60
40104728:	e1a02c23 	lsr	r2, r3, #24
4010472c:	e5c02063 	strb	r2, [r0, #99]	; 0x63
40104730:	e7e72453 	ubfx	r2, r3, #8, #8
40104734:	e7e73853 	ubfx	r3, r3, #16, #8
40104738:	e5c02061 	strb	r2, [r0, #97]	; 0x61
4010473c:	e5c03062 	strb	r3, [r0, #98]	; 0x62
40104740:	ee193f3d 	mrc	15, 0, r3, cr9, cr13, {1}
40104744:	e5c03064 	strb	r3, [r0, #100]	; 0x64
40104748:	e1a02c23 	lsr	r2, r3, #24
4010474c:	e5c02067 	strb	r2, [r0, #103]	; 0x67
40104750:	e7e72453 	ubfx	r2, r3, #8, #8
40104754:	e7e73853 	ubfx	r3, r3, #16, #8
40104758:	e5c02065 	strb	r2, [r0, #101]	; 0x65
4010475c:	e5c03066 	strb	r3, [r0, #102]	; 0x66
40104760:	ee193f5d 	mrc	15, 0, r3, cr9, cr13, {2}
40104764:	e5c03068 	strb	r3, [r0, #104]	; 0x68
40104768:	e1a02c23 	lsr	r2, r3, #24
4010476c:	e5c0206b 	strb	r2, [r0, #107]	; 0x6b
40104770:	e7e72453 	ubfx	r2, r3, #8, #8
40104774:	e7e73853 	ubfx	r3, r3, #16, #8
40104778:	e5c02069 	strb	r2, [r0, #105]	; 0x69
4010477c:	e5c0306a 	strb	r3, [r0, #106]	; 0x6a
40104780:	ee193f1e 	mrc	15, 0, r3, cr9, cr14, {0}
40104784:	e5c0306c 	strb	r3, [r0, #108]	; 0x6c
40104788:	e1a02c23 	lsr	r2, r3, #24
4010478c:	e5c0206f 	strb	r2, [r0, #111]	; 0x6f
40104790:	e7e72453 	ubfx	r2, r3, #8, #8
40104794:	e7e73853 	ubfx	r3, r3, #16, #8
40104798:	e5c0206d 	strb	r2, [r0, #109]	; 0x6d
4010479c:	e5c0306e 	strb	r3, [r0, #110]	; 0x6e
401047a0:	ee193f3e 	mrc	15, 0, r3, cr9, cr14, {1}
401047a4:	e5c03070 	strb	r3, [r0, #112]	; 0x70
401047a8:	e1a02c23 	lsr	r2, r3, #24
401047ac:	e5c02073 	strb	r2, [r0, #115]	; 0x73
401047b0:	e7e72453 	ubfx	r2, r3, #8, #8
401047b4:	e7e73853 	ubfx	r3, r3, #16, #8
401047b8:	e5c02071 	strb	r2, [r0, #113]	; 0x71
401047bc:	e5c03072 	strb	r3, [r0, #114]	; 0x72
401047c0:	ee193f5e 	mrc	15, 0, r3, cr9, cr14, {2}
401047c4:	e5c03074 	strb	r3, [r0, #116]	; 0x74
401047c8:	e1a02c23 	lsr	r2, r3, #24
401047cc:	e7e71453 	ubfx	r1, r3, #8, #8
401047d0:	e7e73853 	ubfx	r3, r3, #16, #8
401047d4:	e5c01075 	strb	r1, [r0, #117]	; 0x75
401047d8:	e5c02077 	strb	r2, [r0, #119]	; 0x77
401047dc:	e5c03076 	strb	r3, [r0, #118]	; 0x76
401047e0:	ee393f10 	mrc	15, 1, r3, cr9, cr0, {0}
401047e4:	e5c03078 	strb	r3, [r0, #120]	; 0x78
401047e8:	e1a02c23 	lsr	r2, r3, #24
401047ec:	e5c0207b 	strb	r2, [r0, #123]	; 0x7b
401047f0:	e7e72453 	ubfx	r2, r3, #8, #8
401047f4:	e7e73853 	ubfx	r3, r3, #16, #8
401047f8:	e5c02079 	strb	r2, [r0, #121]	; 0x79
401047fc:	e5c0307a 	strb	r3, [r0, #122]	; 0x7a
40104800:	ee393f50 	mrc	15, 1, r3, cr9, cr0, {2}
40104804:	e5c0307c 	strb	r3, [r0, #124]	; 0x7c
40104808:	e1a02c23 	lsr	r2, r3, #24
4010480c:	e5c0207f 	strb	r2, [r0, #127]	; 0x7f
40104810:	e7e72453 	ubfx	r2, r3, #8, #8
40104814:	e7e73853 	ubfx	r3, r3, #16, #8
40104818:	e5c0207d 	strb	r2, [r0, #125]	; 0x7d
4010481c:	e5c0307e 	strb	r3, [r0, #126]	; 0x7e
40104820:	ee1a3f10 	mrc	15, 0, r3, cr10, cr0, {0}
40104824:	e5c03080 	strb	r3, [r0, #128]	; 0x80
40104828:	e1a02c23 	lsr	r2, r3, #24
4010482c:	e5c02083 	strb	r2, [r0, #131]	; 0x83
40104830:	e7e72453 	ubfx	r2, r3, #8, #8
40104834:	e7e73853 	ubfx	r3, r3, #16, #8
40104838:	e5c02081 	strb	r2, [r0, #129]	; 0x81
4010483c:	e5c03082 	strb	r3, [r0, #130]	; 0x82
40104840:	ee1a3f30 	mrc	15, 0, r3, cr10, cr0, {1}
40104844:	e5c03084 	strb	r3, [r0, #132]	; 0x84
40104848:	e1a02c23 	lsr	r2, r3, #24
4010484c:	e5c02087 	strb	r2, [r0, #135]	; 0x87
40104850:	e7e72453 	ubfx	r2, r3, #8, #8
40104854:	e7e73853 	ubfx	r3, r3, #16, #8
40104858:	e5c02085 	strb	r2, [r0, #133]	; 0x85
4010485c:	e5c03086 	strb	r3, [r0, #134]	; 0x86
40104860:	ee1a3f12 	mrc	15, 0, r3, cr10, cr2, {0}
40104864:	e5c03088 	strb	r3, [r0, #136]	; 0x88
40104868:	e1a02c23 	lsr	r2, r3, #24
4010486c:	e5c0208b 	strb	r2, [r0, #139]	; 0x8b
40104870:	e7e72453 	ubfx	r2, r3, #8, #8
40104874:	e7e73853 	ubfx	r3, r3, #16, #8
40104878:	e5c02089 	strb	r2, [r0, #137]	; 0x89
4010487c:	e5c0308a 	strb	r3, [r0, #138]	; 0x8a
40104880:	ee1a3f32 	mrc	15, 0, r3, cr10, cr2, {1}
40104884:	e5c0308c 	strb	r3, [r0, #140]	; 0x8c
40104888:	e1a02c23 	lsr	r2, r3, #24
4010488c:	e5c0208f 	strb	r2, [r0, #143]	; 0x8f
40104890:	e7e72453 	ubfx	r2, r3, #8, #8
40104894:	e7e73853 	ubfx	r3, r3, #16, #8
40104898:	e5c0208d 	strb	r2, [r0, #141]	; 0x8d
4010489c:	e5c0308e 	strb	r3, [r0, #142]	; 0x8e
401048a0:	ee1b3f11 	mrc	15, 0, r3, cr11, cr1, {0}
401048a4:	e5c03090 	strb	r3, [r0, #144]	; 0x90
401048a8:	e1a02c23 	lsr	r2, r3, #24
401048ac:	e5c02093 	strb	r2, [r0, #147]	; 0x93
401048b0:	e7e72453 	ubfx	r2, r3, #8, #8
401048b4:	e7e73853 	ubfx	r3, r3, #16, #8
401048b8:	e5c02091 	strb	r2, [r0, #145]	; 0x91
401048bc:	e5c03092 	strb	r3, [r0, #146]	; 0x92
401048c0:	ee1b3f12 	mrc	15, 0, r3, cr11, cr2, {0}
401048c4:	e5c03094 	strb	r3, [r0, #148]	; 0x94
401048c8:	e1a02c23 	lsr	r2, r3, #24
401048cc:	e7e71453 	ubfx	r1, r3, #8, #8
401048d0:	e7e73853 	ubfx	r3, r3, #16, #8
401048d4:	e5c01095 	strb	r1, [r0, #149]	; 0x95
401048d8:	e5c03096 	strb	r3, [r0, #150]	; 0x96
401048dc:	e5c02097 	strb	r2, [r0, #151]	; 0x97
401048e0:	ee1b3f14 	mrc	15, 0, r3, cr11, cr4, {0}
401048e4:	e5c03098 	strb	r3, [r0, #152]	; 0x98
401048e8:	e1a02c23 	lsr	r2, r3, #24
401048ec:	e5c0209b 	strb	r2, [r0, #155]	; 0x9b
401048f0:	e7e72453 	ubfx	r2, r3, #8, #8
401048f4:	e7e73853 	ubfx	r3, r3, #16, #8
401048f8:	e5c02099 	strb	r2, [r0, #153]	; 0x99
401048fc:	e5c0309a 	strb	r3, [r0, #154]	; 0x9a
40104900:	ee1b3f15 	mrc	15, 0, r3, cr11, cr5, {0}
40104904:	e5c0309c 	strb	r3, [r0, #156]	; 0x9c
40104908:	e1a02c23 	lsr	r2, r3, #24
4010490c:	e5c0209f 	strb	r2, [r0, #159]	; 0x9f
40104910:	e7e72453 	ubfx	r2, r3, #8, #8
40104914:	e7e73853 	ubfx	r3, r3, #16, #8
40104918:	e5c0209d 	strb	r2, [r0, #157]	; 0x9d
4010491c:	e5c0309e 	strb	r3, [r0, #158]	; 0x9e
40104920:	ee1b3f17 	mrc	15, 0, r3, cr11, cr7, {0}
40104924:	e5c030a0 	strb	r3, [r0, #160]	; 0xa0
40104928:	e1a02c23 	lsr	r2, r3, #24
4010492c:	e5c020a3 	strb	r2, [r0, #163]	; 0xa3
40104930:	e7e72453 	ubfx	r2, r3, #8, #8
40104934:	e7e73853 	ubfx	r3, r3, #16, #8
40104938:	e5c020a1 	strb	r2, [r0, #161]	; 0xa1
4010493c:	e5c030a2 	strb	r3, [r0, #162]	; 0xa2
40104940:	ee1b3f1f 	mrc	15, 0, r3, cr11, cr15, {0}
40104944:	e5c030a4 	strb	r3, [r0, #164]	; 0xa4
40104948:	e1a02c23 	lsr	r2, r3, #24
4010494c:	e5c020a7 	strb	r2, [r0, #167]	; 0xa7
40104950:	e7e72453 	ubfx	r2, r3, #8, #8
40104954:	e7e73853 	ubfx	r3, r3, #16, #8
40104958:	e5c020a5 	strb	r2, [r0, #165]	; 0xa5
4010495c:	e5c030a6 	strb	r3, [r0, #166]	; 0xa6
40104960:	ee1c3f10 	mrc	15, 0, r3, cr12, cr0, {0}
40104964:	e5c030a8 	strb	r3, [r0, #168]	; 0xa8
40104968:	e1a02c23 	lsr	r2, r3, #24
4010496c:	e5c020ab 	strb	r2, [r0, #171]	; 0xab
40104970:	e7e72453 	ubfx	r2, r3, #8, #8
40104974:	e7e73853 	ubfx	r3, r3, #16, #8
40104978:	e5c020a9 	strb	r2, [r0, #169]	; 0xa9
4010497c:	e5c030aa 	strb	r3, [r0, #170]	; 0xaa
40104980:	ee1c3f30 	mrc	15, 0, r3, cr12, cr0, {1}
40104984:	e5c030ac 	strb	r3, [r0, #172]	; 0xac
40104988:	e1a02c23 	lsr	r2, r3, #24
4010498c:	e5c020af 	strb	r2, [r0, #175]	; 0xaf
40104990:	e7e72453 	ubfx	r2, r3, #8, #8
40104994:	e7e73853 	ubfx	r3, r3, #16, #8
40104998:	e5c020ad 	strb	r2, [r0, #173]	; 0xad
4010499c:	e5c030ae 	strb	r3, [r0, #174]	; 0xae
401049a0:	ee1d3f10 	mrc	15, 0, r3, cr13, cr0, {0}
401049a4:	e5c030b0 	strb	r3, [r0, #176]	; 0xb0
401049a8:	e1a02c23 	lsr	r2, r3, #24
401049ac:	e5c020b3 	strb	r2, [r0, #179]	; 0xb3
401049b0:	e7e72453 	ubfx	r2, r3, #8, #8
401049b4:	e7e73853 	ubfx	r3, r3, #16, #8
401049b8:	e5c020b1 	strb	r2, [r0, #177]	; 0xb1
401049bc:	e5c030b2 	strb	r3, [r0, #178]	; 0xb2
401049c0:	ee1d3f30 	mrc	15, 0, r3, cr13, cr0, {1}
401049c4:	e5c030b4 	strb	r3, [r0, #180]	; 0xb4
401049c8:	e1a02c23 	lsr	r2, r3, #24
401049cc:	e5c020b7 	strb	r2, [r0, #183]	; 0xb7
401049d0:	e7e72453 	ubfx	r2, r3, #8, #8
401049d4:	e7e73853 	ubfx	r3, r3, #16, #8
401049d8:	e5c020b5 	strb	r2, [r0, #181]	; 0xb5
401049dc:	e5c030b6 	strb	r3, [r0, #182]	; 0xb6
401049e0:	ee1d3f50 	mrc	15, 0, r3, cr13, cr0, {2}
401049e4:	e5c030b8 	strb	r3, [r0, #184]	; 0xb8
401049e8:	e1a02c23 	lsr	r2, r3, #24
401049ec:	e7e71453 	ubfx	r1, r3, #8, #8
401049f0:	e7e73853 	ubfx	r3, r3, #16, #8
401049f4:	e5c010b9 	strb	r1, [r0, #185]	; 0xb9
401049f8:	e5c020bb 	strb	r2, [r0, #187]	; 0xbb
401049fc:	e5c030ba 	strb	r3, [r0, #186]	; 0xba
40104a00:	ee1d3f70 	mrc	15, 0, r3, cr13, cr0, {3}
40104a04:	e1a02c23 	lsr	r2, r3, #24
40104a08:	e5c030bc 	strb	r3, [r0, #188]	; 0xbc
40104a0c:	e5c020bf 	strb	r2, [r0, #191]	; 0xbf
40104a10:	e7e72453 	ubfx	r2, r3, #8, #8
40104a14:	e7e73853 	ubfx	r3, r3, #16, #8
40104a18:	e5c020bd 	strb	r2, [r0, #189]	; 0xbd
40104a1c:	e5c030be 	strb	r3, [r0, #190]	; 0xbe
40104a20:	ee1d3f90 	mrc	15, 0, r3, cr13, cr0, {4}
40104a24:	e1a02c23 	lsr	r2, r3, #24
40104a28:	e5c030c0 	strb	r3, [r0, #192]	; 0xc0
40104a2c:	e5c020c3 	strb	r2, [r0, #195]	; 0xc3
40104a30:	e7e72453 	ubfx	r2, r3, #8, #8
40104a34:	e7e73853 	ubfx	r3, r3, #16, #8
40104a38:	e5c020c1 	strb	r2, [r0, #193]	; 0xc1
40104a3c:	e5c030c2 	strb	r3, [r0, #194]	; 0xc2
40104a40:	e12fff1e 	bx	lr
40104a44:	e5d0c001 	ldrb	ip, [r0, #1]
40104a48:	e5d03000 	ldrb	r3, [r0]
40104a4c:	e5d01002 	ldrb	r1, [r0, #2]
40104a50:	e5d02003 	ldrb	r2, [r0, #3]
40104a54:	e183340c 	orr	r3, r3, ip, lsl #8
40104a58:	e1833801 	orr	r3, r3, r1, lsl #16
40104a5c:	e1833c02 	orr	r3, r3, r2, lsl #24
40104a60:	ee403f10 	mcr	15, 2, r3, cr0, cr0, {0}
40104a64:	e5d0c00d 	ldrb	ip, [r0, #13]
40104a68:	e5d0300c 	ldrb	r3, [r0, #12]
40104a6c:	e5d0100e 	ldrb	r1, [r0, #14]
40104a70:	e5d0200f 	ldrb	r2, [r0, #15]
40104a74:	e183340c 	orr	r3, r3, ip, lsl #8
40104a78:	e1833801 	orr	r3, r3, r1, lsl #16
40104a7c:	e1833c02 	orr	r3, r3, r2, lsl #24
40104a80:	ee013f50 	mcr	15, 0, r3, cr1, cr0, {2}
40104a84:	e5d0c01d 	ldrb	ip, [r0, #29]
40104a88:	e5d0301c 	ldrb	r3, [r0, #28]
40104a8c:	e5d0101e 	ldrb	r1, [r0, #30]
40104a90:	e5d0201f 	ldrb	r2, [r0, #31]
40104a94:	e183340c 	orr	r3, r3, ip, lsl #8
40104a98:	e1833801 	orr	r3, r3, r1, lsl #16
40104a9c:	e1833c02 	orr	r3, r3, r2, lsl #24
40104aa0:	ee023f10 	mcr	15, 0, r3, cr2, cr0, {0}
40104aa4:	f57ff04f 	dsb	sy
40104aa8:	f57ff06f 	isb	sy
40104aac:	e5d0c021 	ldrb	ip, [r0, #33]	; 0x21
40104ab0:	e5d03020 	ldrb	r3, [r0, #32]
40104ab4:	e5d01022 	ldrb	r1, [r0, #34]	; 0x22
40104ab8:	e5d02023 	ldrb	r2, [r0, #35]	; 0x23
40104abc:	e183340c 	orr	r3, r3, ip, lsl #8
40104ac0:	e1833801 	orr	r3, r3, r1, lsl #16
40104ac4:	e1833c02 	orr	r3, r3, r2, lsl #24
40104ac8:	ee023f30 	mcr	15, 0, r3, cr2, cr0, {1}
40104acc:	f57ff04f 	dsb	sy
40104ad0:	f57ff06f 	isb	sy
40104ad4:	e5d0c025 	ldrb	ip, [r0, #37]	; 0x25
40104ad8:	e5d03024 	ldrb	r3, [r0, #36]	; 0x24
40104adc:	e5d01026 	ldrb	r1, [r0, #38]	; 0x26
40104ae0:	e5d02027 	ldrb	r2, [r0, #39]	; 0x27
40104ae4:	e183340c 	orr	r3, r3, ip, lsl #8
40104ae8:	e1833801 	orr	r3, r3, r1, lsl #16
40104aec:	e1833c02 	orr	r3, r3, r2, lsl #24
40104af0:	ee023f50 	mcr	15, 0, r3, cr2, cr0, {2}
40104af4:	f57ff04f 	dsb	sy
40104af8:	f57ff06f 	isb	sy
40104afc:	e5d0c029 	ldrb	ip, [r0, #41]	; 0x29
40104b00:	e5d03028 	ldrb	r3, [r0, #40]	; 0x28
40104b04:	e5d0102a 	ldrb	r1, [r0, #42]	; 0x2a
40104b08:	e5d0202b 	ldrb	r2, [r0, #43]	; 0x2b
40104b0c:	e183340c 	orr	r3, r3, ip, lsl #8
40104b10:	e1833801 	orr	r3, r3, r1, lsl #16
40104b14:	e1833c02 	orr	r3, r3, r2, lsl #24
40104b18:	ee033f10 	mcr	15, 0, r3, cr3, cr0, {0}
40104b1c:	e5d0c045 	ldrb	ip, [r0, #69]	; 0x45
40104b20:	e5d03044 	ldrb	r3, [r0, #68]	; 0x44
40104b24:	e5d01046 	ldrb	r1, [r0, #70]	; 0x46
40104b28:	e5d02047 	ldrb	r2, [r0, #71]	; 0x47
40104b2c:	e183340c 	orr	r3, r3, ip, lsl #8
40104b30:	e1833801 	orr	r3, r3, r1, lsl #16
40104b34:	e1833c02 	orr	r3, r3, r2, lsl #24
40104b38:	ee073f14 	mcr	15, 0, r3, cr7, cr4, {0}
40104b3c:	e5d0c06d 	ldrb	ip, [r0, #109]	; 0x6d
40104b40:	e5d0306c 	ldrb	r3, [r0, #108]	; 0x6c
40104b44:	e5d0106e 	ldrb	r1, [r0, #110]	; 0x6e
40104b48:	e5d0206f 	ldrb	r2, [r0, #111]	; 0x6f
40104b4c:	e183340c 	orr	r3, r3, ip, lsl #8
40104b50:	e1833801 	orr	r3, r3, r1, lsl #16
40104b54:	e1833c02 	orr	r3, r3, r2, lsl #24
40104b58:	ee093f1e 	mcr	15, 0, r3, cr9, cr14, {0}
40104b5c:	e5d0c071 	ldrb	ip, [r0, #113]	; 0x71
40104b60:	e5d03070 	ldrb	r3, [r0, #112]	; 0x70
40104b64:	e5d01072 	ldrb	r1, [r0, #114]	; 0x72
40104b68:	e5d02073 	ldrb	r2, [r0, #115]	; 0x73
40104b6c:	e183340c 	orr	r3, r3, ip, lsl #8
40104b70:	e1833801 	orr	r3, r3, r1, lsl #16
40104b74:	e1833c02 	orr	r3, r3, r2, lsl #24
40104b78:	ee093f3e 	mcr	15, 0, r3, cr9, cr14, {1}
40104b7c:	e5d0c075 	ldrb	ip, [r0, #117]	; 0x75
40104b80:	e5d03074 	ldrb	r3, [r0, #116]	; 0x74
40104b84:	e5d01076 	ldrb	r1, [r0, #118]	; 0x76
40104b88:	e5d02077 	ldrb	r2, [r0, #119]	; 0x77
40104b8c:	e183340c 	orr	r3, r3, ip, lsl #8
40104b90:	e1833801 	orr	r3, r3, r1, lsl #16
40104b94:	e1833c02 	orr	r3, r3, r2, lsl #24
40104b98:	ee093f5e 	mcr	15, 0, r3, cr9, cr14, {2}
40104b9c:	e5d0c079 	ldrb	ip, [r0, #121]	; 0x79
40104ba0:	e5d03078 	ldrb	r3, [r0, #120]	; 0x78
40104ba4:	e5d0107a 	ldrb	r1, [r0, #122]	; 0x7a
40104ba8:	e5d0207b 	ldrb	r2, [r0, #123]	; 0x7b
40104bac:	e183340c 	orr	r3, r3, ip, lsl #8
40104bb0:	e1833801 	orr	r3, r3, r1, lsl #16
40104bb4:	e1833c02 	orr	r3, r3, r2, lsl #24
40104bb8:	ee293f10 	mcr	15, 1, r3, cr9, cr0, {0}
40104bbc:	e5d0c07d 	ldrb	ip, [r0, #125]	; 0x7d
40104bc0:	e5d0307c 	ldrb	r3, [r0, #124]	; 0x7c
40104bc4:	e5d0107e 	ldrb	r1, [r0, #126]	; 0x7e
40104bc8:	e5d0207f 	ldrb	r2, [r0, #127]	; 0x7f
40104bcc:	e183340c 	orr	r3, r3, ip, lsl #8
40104bd0:	e1833801 	orr	r3, r3, r1, lsl #16
40104bd4:	e1833c02 	orr	r3, r3, r2, lsl #24
40104bd8:	ee293f50 	mcr	15, 1, r3, cr9, cr0, {2}
40104bdc:	e5d0c089 	ldrb	ip, [r0, #137]	; 0x89
40104be0:	e5d03088 	ldrb	r3, [r0, #136]	; 0x88
40104be4:	e5d0108a 	ldrb	r1, [r0, #138]	; 0x8a
40104be8:	e5d0208b 	ldrb	r2, [r0, #139]	; 0x8b
40104bec:	e183340c 	orr	r3, r3, ip, lsl #8
40104bf0:	e1833801 	orr	r3, r3, r1, lsl #16
40104bf4:	e1833c02 	orr	r3, r3, r2, lsl #24
40104bf8:	ee0a3f12 	mcr	15, 0, r3, cr10, cr2, {0}
40104bfc:	e5d0c08d 	ldrb	ip, [r0, #141]	; 0x8d
40104c00:	e5d0308c 	ldrb	r3, [r0, #140]	; 0x8c
40104c04:	e5d0108e 	ldrb	r1, [r0, #142]	; 0x8e
40104c08:	e5d0208f 	ldrb	r2, [r0, #143]	; 0x8f
40104c0c:	e183340c 	orr	r3, r3, ip, lsl #8
40104c10:	e1833801 	orr	r3, r3, r1, lsl #16
40104c14:	e1833c02 	orr	r3, r3, r2, lsl #24
40104c18:	ee0a3f32 	mcr	15, 0, r3, cr10, cr2, {1}
40104c1c:	e5d0c091 	ldrb	ip, [r0, #145]	; 0x91
40104c20:	e5d03090 	ldrb	r3, [r0, #144]	; 0x90
40104c24:	e5d01092 	ldrb	r1, [r0, #146]	; 0x92
40104c28:	e5d02093 	ldrb	r2, [r0, #147]	; 0x93
40104c2c:	e183340c 	orr	r3, r3, ip, lsl #8
40104c30:	e1833801 	orr	r3, r3, r1, lsl #16
40104c34:	e1833c02 	orr	r3, r3, r2, lsl #24
40104c38:	ee0b3f11 	mcr	15, 0, r3, cr11, cr1, {0}
40104c3c:	e5d0c095 	ldrb	ip, [r0, #149]	; 0x95
40104c40:	e5d03094 	ldrb	r3, [r0, #148]	; 0x94
40104c44:	e5d01096 	ldrb	r1, [r0, #150]	; 0x96
40104c48:	e5d02097 	ldrb	r2, [r0, #151]	; 0x97
40104c4c:	e183340c 	orr	r3, r3, ip, lsl #8
40104c50:	e1833801 	orr	r3, r3, r1, lsl #16
40104c54:	e1833c02 	orr	r3, r3, r2, lsl #24
40104c58:	ee0b3f12 	mcr	15, 0, r3, cr11, cr2, {0}
40104c5c:	e5d0c099 	ldrb	ip, [r0, #153]	; 0x99
40104c60:	e5d03098 	ldrb	r3, [r0, #152]	; 0x98
40104c64:	e5d0109a 	ldrb	r1, [r0, #154]	; 0x9a
40104c68:	e5d0209b 	ldrb	r2, [r0, #155]	; 0x9b
40104c6c:	e183340c 	orr	r3, r3, ip, lsl #8
40104c70:	e1833801 	orr	r3, r3, r1, lsl #16
40104c74:	e1833c02 	orr	r3, r3, r2, lsl #24
40104c78:	ee0b3f14 	mcr	15, 0, r3, cr11, cr4, {0}
40104c7c:	e5d0c09d 	ldrb	ip, [r0, #157]	; 0x9d
40104c80:	e5d0309c 	ldrb	r3, [r0, #156]	; 0x9c
40104c84:	e5d0109e 	ldrb	r1, [r0, #158]	; 0x9e
40104c88:	e5d0209f 	ldrb	r2, [r0, #159]	; 0x9f
40104c8c:	e183340c 	orr	r3, r3, ip, lsl #8
40104c90:	e1833801 	orr	r3, r3, r1, lsl #16
40104c94:	e1833c02 	orr	r3, r3, r2, lsl #24
40104c98:	ee0b3f15 	mcr	15, 0, r3, cr11, cr5, {0}
40104c9c:	e5d0c0a1 	ldrb	ip, [r0, #161]	; 0xa1
40104ca0:	e5d030a0 	ldrb	r3, [r0, #160]	; 0xa0
40104ca4:	e5d010a2 	ldrb	r1, [r0, #162]	; 0xa2
40104ca8:	e5d020a3 	ldrb	r2, [r0, #163]	; 0xa3
40104cac:	e183340c 	orr	r3, r3, ip, lsl #8
40104cb0:	e1833801 	orr	r3, r3, r1, lsl #16
40104cb4:	e1833c02 	orr	r3, r3, r2, lsl #24
40104cb8:	ee0b3f17 	mcr	15, 0, r3, cr11, cr7, {0}
40104cbc:	e5d0c0a5 	ldrb	ip, [r0, #165]	; 0xa5
40104cc0:	e5d030a4 	ldrb	r3, [r0, #164]	; 0xa4
40104cc4:	e5d010a6 	ldrb	r1, [r0, #166]	; 0xa6
40104cc8:	e5d020a7 	ldrb	r2, [r0, #167]	; 0xa7
40104ccc:	e183340c 	orr	r3, r3, ip, lsl #8
40104cd0:	e1833801 	orr	r3, r3, r1, lsl #16
40104cd4:	e1833c02 	orr	r3, r3, r2, lsl #24
40104cd8:	ee0b3f1f 	mcr	15, 0, r3, cr11, cr15, {0}
40104cdc:	e5d0c0a9 	ldrb	ip, [r0, #169]	; 0xa9
40104ce0:	e5d030a8 	ldrb	r3, [r0, #168]	; 0xa8
40104ce4:	e5d010aa 	ldrb	r1, [r0, #170]	; 0xaa
40104ce8:	e5d020ab 	ldrb	r2, [r0, #171]	; 0xab
40104cec:	e183340c 	orr	r3, r3, ip, lsl #8
40104cf0:	e1833801 	orr	r3, r3, r1, lsl #16
40104cf4:	e1833c02 	orr	r3, r3, r2, lsl #24
40104cf8:	ee0c3f10 	mcr	15, 0, r3, cr12, cr0, {0}
40104cfc:	e5d0c0ad 	ldrb	ip, [r0, #173]	; 0xad
40104d00:	e5d030ac 	ldrb	r3, [r0, #172]	; 0xac
40104d04:	e5d010ae 	ldrb	r1, [r0, #174]	; 0xae
40104d08:	e5d020af 	ldrb	r2, [r0, #175]	; 0xaf
40104d0c:	e183340c 	orr	r3, r3, ip, lsl #8
40104d10:	e1833801 	orr	r3, r3, r1, lsl #16
40104d14:	e1833c02 	orr	r3, r3, r2, lsl #24
40104d18:	ee0c3f30 	mcr	15, 0, r3, cr12, cr0, {1}
40104d1c:	e5d0c0b1 	ldrb	ip, [r0, #177]	; 0xb1
40104d20:	e5d030b0 	ldrb	r3, [r0, #176]	; 0xb0
40104d24:	e5d010b2 	ldrb	r1, [r0, #178]	; 0xb2
40104d28:	e5d020b3 	ldrb	r2, [r0, #179]	; 0xb3
40104d2c:	e183340c 	orr	r3, r3, ip, lsl #8
40104d30:	e1833801 	orr	r3, r3, r1, lsl #16
40104d34:	e1833c02 	orr	r3, r3, r2, lsl #24
40104d38:	ee0d3f10 	mcr	15, 0, r3, cr13, cr0, {0}
40104d3c:	e5d0c0b5 	ldrb	ip, [r0, #181]	; 0xb5
40104d40:	e5d030b4 	ldrb	r3, [r0, #180]	; 0xb4
40104d44:	e5d010b6 	ldrb	r1, [r0, #182]	; 0xb6
40104d48:	e5d020b7 	ldrb	r2, [r0, #183]	; 0xb7
40104d4c:	e183340c 	orr	r3, r3, ip, lsl #8
40104d50:	e1833801 	orr	r3, r3, r1, lsl #16
40104d54:	e1833c02 	orr	r3, r3, r2, lsl #24
40104d58:	ee0d3f30 	mcr	15, 0, r3, cr13, cr0, {1}
40104d5c:	e5d0c0b9 	ldrb	ip, [r0, #185]	; 0xb9
40104d60:	e5d030b8 	ldrb	r3, [r0, #184]	; 0xb8
40104d64:	e5d010ba 	ldrb	r1, [r0, #186]	; 0xba
40104d68:	e5d020bb 	ldrb	r2, [r0, #187]	; 0xbb
40104d6c:	e183340c 	orr	r3, r3, ip, lsl #8
40104d70:	e1833801 	orr	r3, r3, r1, lsl #16
40104d74:	e1833c02 	orr	r3, r3, r2, lsl #24
40104d78:	ee0d3f50 	mcr	15, 0, r3, cr13, cr0, {2}
40104d7c:	e5d0c0bd 	ldrb	ip, [r0, #189]	; 0xbd
40104d80:	e5d030bc 	ldrb	r3, [r0, #188]	; 0xbc
40104d84:	e5d010be 	ldrb	r1, [r0, #190]	; 0xbe
40104d88:	e5d020bf 	ldrb	r2, [r0, #191]	; 0xbf
40104d8c:	e183340c 	orr	r3, r3, ip, lsl #8
40104d90:	e1833801 	orr	r3, r3, r1, lsl #16
40104d94:	e1833c02 	orr	r3, r3, r2, lsl #24
40104d98:	ee0d3f70 	mcr	15, 0, r3, cr13, cr0, {3}
40104d9c:	e5d0c0c1 	ldrb	ip, [r0, #193]	; 0xc1
40104da0:	e5d030c0 	ldrb	r3, [r0, #192]	; 0xc0
40104da4:	e5d010c2 	ldrb	r1, [r0, #194]	; 0xc2
40104da8:	e5d020c3 	ldrb	r2, [r0, #195]	; 0xc3
40104dac:	e183340c 	orr	r3, r3, ip, lsl #8
40104db0:	e1833801 	orr	r3, r3, r1, lsl #16
40104db4:	e1833c02 	orr	r3, r3, r2, lsl #24
40104db8:	ee0d3f90 	mcr	15, 0, r3, cr13, cr0, {4}
40104dbc:	f57ff04f 	dsb	sy
40104dc0:	f57ff06f 	isb	sy
40104dc4:	e12fff1e 	bx	lr
40104dc8:	e12fff1e 	bx	lr
40104dcc:	e59f300c 	ldr	r3, [pc, #12]	; 40104de0 <resume1_bin_start+0x3db0>
40104dd0:	e5932d3c 	ldr	r2, [r3, #3388]	; 0xd3c
40104dd4:	e3822003 	orr	r2, r2, #3
40104dd8:	e5832d3c 	str	r2, [r3, #3388]	; 0xd3c
40104ddc:	e12fff1e 	bx	lr
40104de0:	f1c20000 	undefined instruction 0xf1c20000
40104de4:	e3a03002 	mov	r3, #2
40104de8:	ee403f10 	mcr	15, 2, r3, cr0, cr0, {0}
40104dec:	e59f30b8 	ldr	r3, [pc, #184]	; 40104eac <resume1_bin_start+0x3e7c>
40104df0:	ee013f10 	mcr	15, 0, r3, cr1, cr0, {0}
40104df4:	e3a03002 	mov	r3, #2
40104df8:	ee013f30 	mcr	15, 0, r3, cr1, cr0, {1}
40104dfc:	e3a03000 	mov	r3, #0
40104e00:	ee013f50 	mcr	15, 0, r3, cr1, cr0, {2}
40104e04:	ee013f11 	mcr	15, 0, r3, cr1, cr1, {0}
40104e08:	ee013f31 	mcr	15, 0, r3, cr1, cr1, {1}
40104e0c:	ee013f51 	mcr	15, 0, r3, cr1, cr1, {2}
40104e10:	ee023f10 	mcr	15, 0, r3, cr2, cr0, {0}
40104e14:	ee023f30 	mcr	15, 0, r3, cr2, cr0, {1}
40104e18:	ee023f50 	mcr	15, 0, r3, cr2, cr0, {2}
40104e1c:	ee033f10 	mcr	15, 0, r3, cr3, cr0, {0}
40104e20:	ee053f10 	mcr	15, 0, r3, cr5, cr0, {0}
40104e24:	ee053f30 	mcr	15, 0, r3, cr5, cr0, {1}
40104e28:	ee053f11 	mcr	15, 0, r3, cr5, cr1, {0}
40104e2c:	ee053f31 	mcr	15, 0, r3, cr5, cr1, {1}
40104e30:	ee063f10 	mcr	15, 0, r3, cr6, cr0, {0}
40104e34:	ee063f50 	mcr	15, 0, r3, cr6, cr0, {2}
40104e38:	ee073f14 	mcr	15, 0, r3, cr7, cr4, {0}
40104e3c:	ee093f1e 	mcr	15, 0, r3, cr9, cr14, {0}
40104e40:	ee093f3e 	mcr	15, 0, r3, cr9, cr14, {1}
40104e44:	ee093f5e 	mcr	15, 0, r3, cr9, cr14, {2}
40104e48:	ee293f10 	mcr	15, 1, r3, cr9, cr0, {0}
40104e4c:	e2833042 	add	r3, r3, #66	; 0x42
40104e50:	ee293f50 	mcr	15, 1, r3, cr9, cr0, {2}
40104e54:	e3a03000 	mov	r3, #0
40104e58:	ee0a3f10 	mcr	15, 0, r3, cr10, cr0, {0}
40104e5c:	ee0a3f30 	mcr	15, 0, r3, cr10, cr0, {1}
40104e60:	e59f3048 	ldr	r3, [pc, #72]	; 40104eb0 <resume1_bin_start+0x3e80>
40104e64:	ee0a3f12 	mcr	15, 0, r3, cr10, cr2, {0}
40104e68:	e59f3044 	ldr	r3, [pc, #68]	; 40104eb4 <resume1_bin_start+0x3e84>
40104e6c:	ee0a3f32 	mcr	15, 0, r3, cr10, cr2, {1}
40104e70:	e3a03000 	mov	r3, #0
40104e74:	ee0b3f11 	mcr	15, 0, r3, cr11, cr1, {0}
40104e78:	ee0b3f12 	mcr	15, 0, r3, cr11, cr2, {0}
40104e7c:	ee0b3f14 	mcr	15, 0, r3, cr11, cr4, {0}
40104e80:	ee0b3f15 	mcr	15, 0, r3, cr11, cr5, {0}
40104e84:	ee0b3f17 	mcr	15, 0, r3, cr11, cr7, {0}
40104e88:	ee0b3f1f 	mcr	15, 0, r3, cr11, cr15, {0}
40104e8c:	ee0c3f10 	mcr	15, 0, r3, cr12, cr0, {0}
40104e90:	ee0c3f30 	mcr	15, 0, r3, cr12, cr0, {1}
40104e94:	ee0d3f10 	mcr	15, 0, r3, cr13, cr0, {0}
40104e98:	ee0d3f30 	mcr	15, 0, r3, cr13, cr0, {1}
40104e9c:	ee0d3f50 	mcr	15, 0, r3, cr13, cr0, {2}
40104ea0:	ee0d3f70 	mcr	15, 0, r3, cr13, cr0, {3}
40104ea4:	ee0d3f90 	mcr	15, 0, r3, cr13, cr0, {4}
40104ea8:	e12fff1e 	bx	lr
40104eac:	00c52078 	sbceq	r2, r5, r8, ror r0
40104eb0:	00098aa4 	andeq	r8, r9, r4, lsr #21
40104eb4:	44e048e0 	strbtmi	r4, [r0], #2272	; 0x8e0
40104eb8:	f1c2ac00 	undefined instruction 0xf1c2ac00
40104ebc:	f1c2b000 	undefined instruction 0xf1c2b000
40104ec0:	f1c2b400 	undefined instruction 0xf1c2b400
40104ec4:	000004e2 	andeq	r0, r0, r2, ror #9
40104ec8:	00000514 	andeq	r0, r0, r4, lsl r5
40104ecc:	00000578 	andeq	r0, r0, r8, ror r5
40104ed0:	000005dc 	ldrdeq	r0, [r0], -ip
40104ed4:	00000640 	andeq	r0, r0, r0, asr #12
40104ed8:	000006a4 	andeq	r0, r0, r4, lsr #13
40104edc:	00000708 	andeq	r0, r0, r8, lsl #14
40104ee0:	0000076c 	andeq	r0, r0, ip, ror #14
40104ee4:	000007d0 	ldrdeq	r0, [r0], -r0
40104ee8:	000009c4 	andeq	r0, r0, r4, asr #19
40104eec:	00000a8c 	andeq	r0, r0, ip, lsl #21
40104ef0:	00000af0 	strdeq	r0, [r0], -r0
40104ef4:	00000bb8 	undefined instruction 0x00000bb8
40104ef8:	00000c1c 	andeq	r0, r0, ip, lsl ip
40104efc:	00000c80 	andeq	r0, r0, r0, lsl #25
40104f00:	00000ce4 	andeq	r0, r0, r4, ror #25
40104f04:	00004050 	andeq	r4, r0, r0, asr r0
40104f08:	00000003 	andeq	r0, r0, r3
40104f0c:	00000514 	andeq	r0, r0, r4, lsl r5
40104f10:	00000514 	andeq	r0, r0, r4, lsl r5
	...
40104f24:	00000004 	andeq	r0, r0, r4
40104f28:	00000708 	andeq	r0, r0, r8, lsl #14
40104f2c:	00000ce4 	andeq	r0, r0, r4, ror #25
40104f30:	00000064 	andeq	r0, r0, r4, rrx
40104f34:	00000028 	andeq	r0, r0, r8, lsr #32
40104f38:	00000004 	andeq	r0, r0, r4
40104f3c:	00000004 	andeq	r0, r0, r4
40104f40:	00000005 	andeq	r0, r0, r5
40104f44:	000002bc 	undefined instruction 0x000002bc
40104f48:	00000dac 	andeq	r0, r0, ip, lsr #27
40104f4c:	00000019 	andeq	r0, r0, r9, lsl r0
40104f50:	00000029 	andeq	r0, r0, r9, lsr #32
40104f54:	00000000 	andeq	r0, r0, r0
40104f58:	00000007 	andeq	r0, r0, r7
40104f5c:	00000006 	andeq	r0, r0, r6
40104f60:	000004e2 	andeq	r0, r0, r2, ror #9
40104f64:	00000ce4 	andeq	r0, r0, r4, ror #25
40104f68:	00000064 	andeq	r0, r0, r4, rrx
40104f6c:	00000028 	andeq	r0, r0, r8, lsr #32
40104f70:	00000000 	andeq	r0, r0, r0
40104f74:	00000004 	andeq	r0, r0, r4
40104f78:	00000001 	andeq	r0, r0, r1
40104f7c:	000002bc 	undefined instruction 0x000002bc
40104f80:	000008e3 	andeq	r0, r0, r3, ror #17
40104f84:	00000019 	andeq	r0, r0, r9, lsl r0
40104f88:	00000023 	andeq	r0, r0, r3, lsr #32
40104f8c:	00000000 	andeq	r0, r0, r0
40104f90:	00000006 	andeq	r0, r0, r6
40104f94:	00000002 	andeq	r0, r0, r2
40104f98:	000002bc 	undefined instruction 0x000002bc
40104f9c:	00000dac 	andeq	r0, r0, ip, lsr #27
40104fa0:	00000019 	andeq	r0, r0, r9, lsl r0
40104fa4:	00000027 	andeq	r0, r0, r7, lsr #32
40104fa8:	00000000 	andeq	r0, r0, r0
40104fac:	00000007 	andeq	r0, r0, r7
	...
40104ff0:	00001031 	andeq	r1, r0, r1, lsr r0
40104ff4:	00001031 	andeq	r1, r0, r1, lsr r0
40104ff8:	00000735 	andeq	r0, r0, r5, lsr r7
40104ffc:	00001035 	andeq	r1, r0, r5, lsr r0
40105000:	00001035 	andeq	r1, r0, r5, lsr r0
40105004:	00000731 	andeq	r0, r0, r1, lsr r7
40105008:	00001031 	andeq	r1, r0, r1, lsr r0
4010500c:	00000000 	andeq	r0, r0, r0
40105010:	00000301 	andeq	r0, r0, r1, lsl #6
40105014:	00000301 	andeq	r0, r0, r1, lsl #6
40105018:	00000301 	andeq	r0, r0, r1, lsl #6
4010501c:	00000301 	andeq	r0, r0, r1, lsl #6
40105020:	00000301 	andeq	r0, r0, r1, lsl #6
40105024:	00000301 	andeq	r0, r0, r1, lsl #6
40105028:	00000301 	andeq	r0, r0, r1, lsl #6
4010502c:	00000000 	andeq	r0, r0, r0
40105030:	40000000 	andmi	r0, r0, r0
40105034:	00000168 	andeq	r0, r0, r8, ror #2
40105038:	00000003 	andeq	r0, r0, r3
4010503c:	00000002 	andeq	r0, r0, r2
40105040:	00000800 	andeq	r0, r0, r0, lsl #16
40105044:	00000010 	andeq	r0, r0, r0, lsl r0
40105048:	00000020 	andeq	r0, r0, r0, lsr #32
4010504c:	00000006 	andeq	r0, r0, r6
40105050:	0000007b 	andeq	r0, r0, fp, ror r0
40105054:	00000000 	andeq	r0, r0, r0
40105058:	00000200 	andeq	r0, r0, r0, lsl #4
4010505c:	30926692 	umullscc	r6, r2, r2, r6
40105060:	00001090 	muleq	r0, r0, r0
40105064:	0001a0c8 	andeq	sl, r1, r8, asr #1
	...

40105080 <busy_waiting>:
40105080:	e24dd008 	sub	sp, sp, #8
40105084:	e3a03001 	mov	r3, #1
40105088:	e58d3004 	str	r3, [sp, #4]
4010508c:	e59d3004 	ldr	r3, [sp, #4]
40105090:	e3530001 	cmp	r3, #1
40105094:	0afffffc 	beq	4010508c <busy_waiting+0xc>
40105098:	e28dd008 	add	sp, sp, #8
4010509c:	e12fff1e 	bx	lr

401050a0 <fake_busy_waiting>:
401050a0:	e24dd008 	sub	sp, sp, #8
401050a4:	e3a03002 	mov	r3, #2
401050a8:	e58d3004 	str	r3, [sp, #4]
401050ac:	e59d3004 	ldr	r3, [sp, #4]
401050b0:	e3530001 	cmp	r3, #1
401050b4:	0afffffc 	beq	401050ac <fake_busy_waiting+0xc>
401050b8:	e28dd008 	add	sp, sp, #8
401050bc:	e12fff1e 	bx	lr

401050c0 <save_mem_flag>:
401050c0:	e59f300c 	ldr	r3, [pc, #12]	; 401050d4 <save_mem_flag+0x14>
401050c4:	e593223c 	ldr	r2, [r3, #572]	; 0x23c
401050c8:	e3822001 	orr	r2, r2, #1
401050cc:	e583223c 	str	r2, [r3, #572]	; 0x23c
401050d0:	e12fff1e 	bx	lr
401050d4:	f1c01000 	undefined instruction 0xf1c01000

401050d8 <save_mem_status>:
401050d8:	e24dd008 	sub	sp, sp, #8
401050dc:	e58d0004 	str	r0, [sp, #4]
401050e0:	e28dd008 	add	sp, sp, #8
401050e4:	e12fff1e 	bx	lr

401050e8 <get_mem_status>:
401050e8:	e59f3004 	ldr	r3, [pc, #4]	; 401050f4 <get_mem_status+0xc>
401050ec:	e5930004 	ldr	r0, [r3, #4]
401050f0:	e12fff1e 	bx	lr
401050f4:	c0200000 	eorgt	r0, r0, r0

401050f8 <save_mem_status_nommu>:
401050f8:	e24dd008 	sub	sp, sp, #8
401050fc:	e58d0004 	str	r0, [sp, #4]
40105100:	e28dd008 	add	sp, sp, #8
40105104:	e12fff1e 	bx	lr

40105108 <save_sun5i_mem_status>:
40105108:	e24dd008 	sub	sp, sp, #8
4010510c:	e59f3014 	ldr	r3, [pc, #20]	; 40105128 <save_sun5i_mem_status+0x20>
40105110:	e58d0004 	str	r0, [sp, #4]
40105114:	e5930ffc 	ldr	r0, [r3, #4092]	; 0xffc
40105118:	e59d2004 	ldr	r2, [sp, #4]
4010511c:	e5832ffc 	str	r2, [r3, #4092]	; 0xffc
40105120:	e28dd008 	add	sp, sp, #8
40105124:	e12fff1e 	bx	lr
40105128:	c010f000 	andsgt	pc, r0, r0

4010512c <save_sun5i_mem_status_nommu>:
4010512c:	e24dd008 	sub	sp, sp, #8
40105130:	e59f3014 	ldr	r3, [pc, #20]	; 4010514c <save_sun5i_mem_status_nommu+0x20>
40105134:	e58d0004 	str	r0, [sp, #4]
40105138:	e5930ffc 	ldr	r0, [r3, #4092]	; 0xffc
4010513c:	e59d2004 	ldr	r2, [sp, #4]
40105140:	e5832ffc 	str	r2, [r3, #4092]	; 0xffc
40105144:	e28dd008 	add	sp, sp, #8
40105148:	e12fff1e 	bx	lr
4010514c:	4010f000 	andsmi	pc, r0, r0

40105150 <get_cyclecount>:
40105150:	ee190f1d 	mrc	15, 0, r0, cr9, cr13, {0}
40105154:	e12fff1e 	bx	lr

40105158 <backup_perfcounter>:
40105158:	ee192f1c 	mrc	15, 0, r2, cr9, cr12, {0}
4010515c:	e59f300c 	ldr	r3, [pc, #12]	; 40105170 <backup_perfcounter+0x18>
40105160:	e5832000 	str	r2, [r3]
40105164:	ee192f3c 	mrc	15, 0, r2, cr9, cr12, {1}
40105168:	e5832004 	str	r2, [r3, #4]
4010516c:	e12fff1e 	bx	lr
40105170:	40105f9c 	mulsmi	r0, ip, pc

40105174 <init_perfcounters>:
40105174:	e3500000 	cmp	r0, #0
40105178:	03a00001 	moveq	r0, #1
4010517c:	13a00007 	movne	r0, #7
40105180:	e3510000 	cmp	r1, #0
40105184:	13800008 	orrne	r0, r0, #8
40105188:	e3800010 	orr	r0, r0, #16
4010518c:	ee090f1c 	mcr	15, 0, r0, cr9, cr12, {0}
40105190:	e3a0313e 	mov	r3, #-2147483633	; 0x8000000f
40105194:	ee093f3c 	mcr	15, 0, r3, cr9, cr12, {1}
40105198:	ee093f7c 	mcr	15, 0, r3, cr9, cr12, {3}
4010519c:	e12fff1e 	bx	lr

401051a0 <restore_perfcounter>:
401051a0:	e59f3014 	ldr	r3, [pc, #20]	; 401051bc <restore_perfcounter+0x1c>
401051a4:	e5933000 	ldr	r3, [r3]
401051a8:	ee093f1c 	mcr	15, 0, r3, cr9, cr12, {0}
401051ac:	e59f3008 	ldr	r3, [pc, #8]	; 401051bc <restore_perfcounter+0x1c>
401051b0:	e5933004 	ldr	r3, [r3, #4]
401051b4:	ee093f3c 	mcr	15, 0, r3, cr9, cr12, {1}
401051b8:	e12fff1e 	bx	lr
401051bc:	40105f9c 	mulsmi	r0, ip, pc

401051c0 <reset_counter>:
401051c0:	e3a03000 	mov	r3, #0
401051c4:	ee193f1c 	mrc	15, 0, r3, cr9, cr12, {0}
401051c8:	e2833004 	add	r3, r3, #4
401051cc:	ee093f1c 	mcr	15, 0, r3, cr9, cr12, {0}
401051d0:	e12fff1e 	bx	lr

401051d4 <change_runtime_env>:
401051d4:	e92d4013 	push	{r0, r1, r4, lr}
401051d8:	e3a03000 	mov	r3, #0
401051dc:	e59f1108 	ldr	r1, [pc, #264]	; 401052ec <change_runtime_env+0x118>
401051e0:	e1500003 	cmp	r0, r3
401051e4:	e58d3004 	str	r3, [sp, #4]
401051e8:	e59f2100 	ldr	r2, [pc, #256]	; 401052f0 <change_runtime_env+0x11c>
401051ec:	11a02001 	movne	r2, r1
401051f0:	ee191f1d 	mrc	15, 0, r1, cr9, cr13, {0}
401051f4:	ee190f1d 	mrc	15, 0, r0, cr9, cr13, {0}
401051f8:	e59fc0f4 	ldr	ip, [pc, #244]	; 401052f4 <change_runtime_env+0x120>
401051fc:	e0611000 	rsb	r1, r1, r0
40105200:	e58c1008 	str	r1, [ip, #8]
40105204:	e5921054 	ldr	r1, [r2, #84]	; 0x54
40105208:	e58d1004 	str	r1, [sp, #4]
4010520c:	e59d1004 	ldr	r1, [sp, #4]
40105210:	e1a01821 	lsr	r1, r1, #16
40105214:	e58d1004 	str	r1, [sp, #4]
40105218:	e59d1004 	ldr	r1, [sp, #4]
4010521c:	e2011003 	and	r1, r1, #3
40105220:	e58d1004 	str	r1, [sp, #4]
40105224:	e59d1004 	ldr	r1, [sp, #4]
40105228:	e1510003 	cmp	r1, r3
4010522c:	02833020 	addeq	r3, r3, #32
40105230:	0a000003 	beq	40105244 <change_runtime_env+0x70>
40105234:	e59d1004 	ldr	r1, [sp, #4]
40105238:	e3510001 	cmp	r1, #1
4010523c:	1a000002 	bne	4010524c <change_runtime_env+0x78>
40105240:	e3053dc0 	movw	r3, #24000	; 0x5dc0
40105244:	e58c300c 	str	r3, [ip, #12]
40105248:	ea000026 	b	401052e8 <change_runtime_env+0x114>
4010524c:	e59d1004 	ldr	r1, [sp, #4]
40105250:	e3510002 	cmp	r1, #2
40105254:	1a000023 	bne	401052e8 <change_runtime_env+0x114>
40105258:	e5922000 	ldr	r2, [r2]
4010525c:	e3a04001 	mov	r4, #1
40105260:	e58d2004 	str	r2, [sp, #4]
40105264:	e59d1004 	ldr	r1, [sp, #4]
40105268:	e59dc004 	ldr	ip, [sp, #4]
4010526c:	e59d0004 	ldr	r0, [sp, #4]
40105270:	e7e11851 	ubfx	r1, r1, #16, #2
40105274:	e59d2004 	ldr	r2, [sp, #4]
40105278:	e1a01114 	lsl	r1, r4, r1
4010527c:	e2022003 	and	r2, r2, #3
40105280:	e0822004 	add	r2, r2, r4
40105284:	e0120192 	muls	r2, r2, r1
40105288:	01a01002 	moveq	r1, r2
4010528c:	0a000013 	beq	401052e0 <change_runtime_env+0x10c>
40105290:	ea000001 	b	4010529c <change_runtime_env+0xc8>
40105294:	e1a02082 	lsl	r2, r2, #1
40105298:	e2833001 	add	r3, r3, #1
4010529c:	e3520000 	cmp	r2, #0
401052a0:	aafffffb 	bge	40105294 <change_runtime_env+0xc0>
401052a4:	e7e4c45c 	ubfx	ip, ip, #8, #5
401052a8:	e3054dc0 	movw	r4, #24000	; 0x5dc0
401052ac:	e7e10250 	ubfx	r0, r0, #4, #2
401052b0:	e3a01000 	mov	r1, #0
401052b4:	e00c0c94 	mul	ip, r4, ip
401052b8:	e2800001 	add	r0, r0, #1
401052bc:	e0000c90 	mul	r0, r0, ip
401052c0:	e1500002 	cmp	r0, r2
401052c4:	e1a0c081 	lsl	ip, r1, #1
401052c8:	20620000 	rsbcs	r0, r2, r0
401052cc:	e38c1001 	orr	r1, ip, #1
401052d0:	31a0100c 	movcc	r1, ip
401052d4:	e2533001 	subs	r3, r3, #1
401052d8:	e1a020a2 	lsr	r2, r2, #1
401052dc:	5afffff7 	bpl	401052c0 <change_runtime_env+0xec>
401052e0:	e59f300c 	ldr	r3, [pc, #12]	; 401052f4 <change_runtime_env+0x120>
401052e4:	e583100c 	str	r1, [r3, #12]
401052e8:	e8bd801c 	pop	{r2, r3, r4, pc}
401052ec:	f1c20000 	undefined instruction 0xf1c20000
401052f0:	01c20000 	biceq	r0, r2, r0
401052f4:	40105f9c 	mulsmi	r0, ip, pc

401052f8 <delay_us>:
401052f8:	e59f3078 	ldr	r3, [pc, #120]	; 40105378 <delay_us+0x80>
401052fc:	e92d4010 	push	{r4, lr}
40105300:	e593c00c 	ldr	ip, [r3, #12]
40105304:	e35c0ffa 	cmp	ip, #1000	; 0x3e8
40105308:	98bd8010 	popls	{r4, pc}
4010530c:	e3a02000 	mov	r2, #0
40105310:	e3a03ffa 	mov	r3, #1000	; 0x3e8
40105314:	e2822001 	add	r2, r2, #1
40105318:	e1a03083 	lsl	r3, r3, #1
4010531c:	e3520016 	cmp	r2, #22
40105320:	1afffffb 	bne	40105314 <delay_us+0x1c>
40105324:	e3a01000 	mov	r1, #0
40105328:	e15c0003 	cmp	ip, r3
4010532c:	e1a04081 	lsl	r4, r1, #1
40105330:	2063c00c 	rsbcs	ip, r3, ip
40105334:	e3841001 	orr	r1, r4, #1
40105338:	31a01004 	movcc	r1, r4
4010533c:	e2522001 	subs	r2, r2, #1
40105340:	e1a030a3 	lsr	r3, r3, #1
40105344:	5afffff7 	bpl	40105328 <delay_us+0x30>
40105348:	ee193f1d 	mrc	15, 0, r3, cr9, cr13, {0}
4010534c:	e59f2024 	ldr	r2, [pc, #36]	; 40105378 <delay_us+0x80>
40105350:	e2811001 	add	r1, r1, #1
40105354:	e5922008 	ldr	r2, [r2, #8]
40105358:	e0622003 	rsb	r2, r2, r3
4010535c:	e0212190 	mla	r1, r0, r1, r2
40105360:	ea000000 	b	40105368 <delay_us+0x70>
40105364:	ee193f1d 	mrc	15, 0, r3, cr9, cr13, {0}
40105368:	e0613003 	rsb	r3, r1, r3
4010536c:	e3530000 	cmp	r3, #0
40105370:	bafffffb 	blt	40105364 <delay_us+0x6c>
40105374:	e8bd8010 	pop	{r4, pc}
40105378:	40105f9c 	mulsmi	r0, ip, pc

4010537c <delay_ms>:
4010537c:	e3a03ffa 	mov	r3, #1000	; 0x3e8
40105380:	e0000093 	mul	r0, r3, r0
40105384:	eaffffdb 	b	401052f8 <delay_us>

40105388 <io_init>:
40105388:	e59f2008 	ldr	r2, [pc, #8]	; 40105398 <io_init+0x10>
4010538c:	e59f3008 	ldr	r3, [pc, #8]	; 4010539c <io_init+0x14>
40105390:	e5832890 	str	r2, [r3, #2192]	; 0x890
40105394:	e12fff1e 	bx	lr
40105398:	00111111 	andseq	r1, r1, r1, lsl r1
4010539c:	f1c20000 	undefined instruction 0xf1c20000

401053a0 <io_init_high>:
401053a0:	e59f300c 	ldr	r3, [pc, #12]	; 401053b4 <io_init_high+0x14>
401053a4:	e59328a0 	ldr	r2, [r3, #2208]	; 0x8a0
401053a8:	e382203f 	orr	r2, r2, #63	; 0x3f
401053ac:	e58328a0 	str	r2, [r3, #2208]	; 0x8a0
401053b0:	e12fff1e 	bx	lr
401053b4:	f1c20000 	undefined instruction 0xf1c20000

401053b8 <io_init_low>:
401053b8:	e59f300c 	ldr	r3, [pc, #12]	; 401053cc <io_init_low+0x14>
401053bc:	e59328a0 	ldr	r2, [r3, #2208]	; 0x8a0
401053c0:	e3c2203f 	bic	r2, r2, #63	; 0x3f
401053c4:	e58328a0 	str	r2, [r3, #2208]	; 0x8a0
401053c8:	e12fff1e 	bx	lr
401053cc:	f1c20000 	undefined instruction 0xf1c20000

401053d0 <io_high>:
401053d0:	e92d4070 	push	{r4, r5, r6, lr}
401053d4:	e59f4024 	ldr	r4, [pc, #36]	; 40105400 <io_high+0x30>
401053d8:	e3a05001 	mov	r5, #1
401053dc:	e59468a0 	ldr	r6, [r4, #2208]	; 0x8a0
401053e0:	e1a05015 	lsl	r5, r5, r0
401053e4:	e3020710 	movw	r0, #10000	; 0x2710
401053e8:	e1c66005 	bic	r6, r6, r5
401053ec:	e58468a0 	str	r6, [r4, #2208]	; 0x8a0
401053f0:	ebffffc0 	bl	401052f8 <delay_us>
401053f4:	e1865005 	orr	r5, r6, r5
401053f8:	e58458a0 	str	r5, [r4, #2208]	; 0x8a0
401053fc:	e8bd8070 	pop	{r4, r5, r6, pc}
40105400:	f1c20000 	undefined instruction 0xf1c20000
	...

40105410 <invalidate_dcache>:
40105410:	f57ff05f 	dmb	sy
40105414:	ee300f30 	mrc	15, 1, r0, cr0, cr0, {1}
40105418:	e2103407 	ands	r3, r0, #117440512	; 0x7000000
4010541c:	e1a03ba3 	lsr	r3, r3, #23
40105420:	0a00001a 	beq	40105490 <inv_finished>
40105424:	e3a0a000 	mov	sl, #0

40105428 <inv_loop1>:
40105428:	e08a20aa 	add	r2, sl, sl, lsr #1
4010542c:	e1a01230 	lsr	r1, r0, r2
40105430:	e2011007 	and	r1, r1, #7
40105434:	e3510002 	cmp	r1, #2
40105438:	ba000011 	blt	40105484 <inv_skip>
4010543c:	ee40af10 	mcr	15, 2, sl, cr0, cr0, {0}
40105440:	f57ff06f 	isb	sy
40105444:	ee301f10 	mrc	15, 1, r1, cr0, cr0, {0}
40105448:	e2012007 	and	r2, r1, #7
4010544c:	e2822004 	add	r2, r2, #4
40105450:	e59f4100 	ldr	r4, [pc, #256]	; 40105558 <clear_reg_context+0x38>
40105454:	e01441a1 	ands	r4, r4, r1, lsr #3
40105458:	e16f5f14 	clz	r5, r4
4010545c:	e59f70f8 	ldr	r7, [pc, #248]	; 4010555c <clear_reg_context+0x3c>
40105460:	e01776a1 	ands	r7, r7, r1, lsr #13

40105464 <inv_loop2>:
40105464:	e1a09004 	mov	r9, r4

40105468 <inv_loop3>:
40105468:	e18ab519 	orr	fp, sl, r9, lsl r5
4010546c:	e18bb217 	orr	fp, fp, r7, lsl r2
40105470:	ee07bf56 	mcr	15, 0, fp, cr7, cr6, {2}
40105474:	e2599001 	subs	r9, r9, #1
40105478:	aafffffa 	bge	40105468 <inv_loop3>
4010547c:	e2577001 	subs	r7, r7, #1
40105480:	aafffff7 	bge	40105464 <inv_loop2>

40105484 <inv_skip>:
40105484:	e28aa002 	add	sl, sl, #2
40105488:	e153000a 	cmp	r3, sl
4010548c:	caffffe5 	bgt	40105428 <inv_loop1>

40105490 <inv_finished>:
40105490:	e3a0a000 	mov	sl, #0
40105494:	ee40af10 	mcr	15, 2, sl, cr0, cr0, {0}
40105498:	f57ff04f 	dsb	sy
4010549c:	f57ff06f 	isb	sy
401054a0:	e1a0f00e 	mov	pc, lr
401054a4:	e320f000 	nop	{0}
401054a8:	e320f000 	nop	{0}
401054ac:	e320f000 	nop	{0}

401054b0 <jump_to_resume>:
401054b0:	e1a0c000 	mov	ip, r0
401054b4:	e1a08001 	mov	r8, r1
401054b8:	ebffffd4 	bl	40105410 <invalidate_dcache>
401054bc:	e1a01008 	mov	r1, r8
401054c0:	e1a0e00c 	mov	lr, ip
401054c4:	e8913fff 	ldm	r1, {r0, r1, r2, r3, r4, r5, r6, r7, r8, r9, sl, fp, ip, sp}
401054c8:	e1a0f00e 	mov	pc, lr
401054cc:	e320f000 	nop	{0}

401054d0 <jump_to_resume0>:
401054d0:	e1a0e000 	mov	lr, r0
401054d4:	e1a0f00e 	mov	pc, lr
401054d8:	e320f000 	nop	{0}
401054dc:	e320f000 	nop	{0}

401054e0 <jump_to_resume0_nommu>:
401054e0:	ee111f10 	mrc	15, 0, r1, cr1, cr0, {0}
401054e4:	e3c11a01 	bic	r1, r1, #4096	; 0x1000
401054e8:	e3c11007 	bic	r1, r1, #7
401054ec:	ee011f10 	mcr	15, 0, r1, cr1, cr0, {0}
401054f0:	ee103f10 	mrc	15, 0, r3, cr0, cr0, {0}
401054f4:	e1a03003 	mov	r3, r3
401054f8:	e1a03003 	mov	r3, r3
401054fc:	e1a0e000 	mov	lr, r0
40105500:	f57ff06f 	isb	sy
40105504:	e1a0f00e 	mov	pc, lr
40105508:	e320f000 	nop	{0}
4010550c:	e320f000 	nop	{0}

40105510 <save_runtime_context>:
40105510:	e8803fff 	stm	r0, {r0, r1, r2, r3, r4, r5, r6, r7, r8, r9, sl, fp, ip, sp}
40105514:	e1a0f00e 	mov	pc, lr
40105518:	e320f000 	nop	{0}
4010551c:	e320f000 	nop	{0}

40105520 <clear_reg_context>:
40105520:	e3a00000 	mov	r0, #0
40105524:	e3a01000 	mov	r1, #0
40105528:	e3a02000 	mov	r2, #0
4010552c:	e3a03000 	mov	r3, #0
40105530:	e3a04000 	mov	r4, #0
40105534:	e3a05000 	mov	r5, #0
40105538:	e3a06000 	mov	r6, #0
4010553c:	e3a07000 	mov	r7, #0
40105540:	e3a08000 	mov	r8, #0
40105544:	e3a09000 	mov	r9, #0
40105548:	e3a0a000 	mov	sl, #0
4010554c:	e3a0b000 	mov	fp, #0
40105550:	e3a0c000 	mov	ip, #0
40105554:	e1a0f00e 	mov	pc, lr
40105558:	000003ff 	strdeq	r0, [r0], -pc
4010555c:	00007fff 	strdeq	r7, [r0], -pc

40105560 <__save_processor_state>:
40105560:	ee503f10 	mrc	15, 2, r3, cr0, cr0, {0}
40105564:	e5c03000 	strb	r3, [r0]
40105568:	e1a02c23 	lsr	r2, r3, #24
4010556c:	e5c02003 	strb	r2, [r0, #3]
40105570:	e7e72453 	ubfx	r2, r3, #8, #8
40105574:	e7e73853 	ubfx	r3, r3, #16, #8
40105578:	e5c02001 	strb	r2, [r0, #1]
4010557c:	e5c03002 	strb	r3, [r0, #2]
40105580:	ee113f10 	mrc	15, 0, r3, cr1, cr0, {0}
40105584:	e5c03004 	strb	r3, [r0, #4]
40105588:	e1a02c23 	lsr	r2, r3, #24
4010558c:	e5c02007 	strb	r2, [r0, #7]
40105590:	e7e72453 	ubfx	r2, r3, #8, #8
40105594:	e7e73853 	ubfx	r3, r3, #16, #8
40105598:	e5c02005 	strb	r2, [r0, #5]
4010559c:	e5c03006 	strb	r3, [r0, #6]
401055a0:	ee113f50 	mrc	15, 0, r3, cr1, cr0, {2}
401055a4:	e5c0300c 	strb	r3, [r0, #12]
401055a8:	e1a02c23 	lsr	r2, r3, #24
401055ac:	e5c0200f 	strb	r2, [r0, #15]
401055b0:	e7e72453 	ubfx	r2, r3, #8, #8
401055b4:	e7e73853 	ubfx	r3, r3, #16, #8
401055b8:	e5c0200d 	strb	r2, [r0, #13]
401055bc:	e5c0300e 	strb	r3, [r0, #14]
401055c0:	ee123f10 	mrc	15, 0, r3, cr2, cr0, {0}
401055c4:	e5c0301c 	strb	r3, [r0, #28]
401055c8:	e1a02c23 	lsr	r2, r3, #24
401055cc:	e5c0201f 	strb	r2, [r0, #31]
401055d0:	e7e72453 	ubfx	r2, r3, #8, #8
401055d4:	e7e73853 	ubfx	r3, r3, #16, #8
401055d8:	e5c0201d 	strb	r2, [r0, #29]
401055dc:	e5c0301e 	strb	r3, [r0, #30]
401055e0:	ee123f30 	mrc	15, 0, r3, cr2, cr0, {1}
401055e4:	e5c03020 	strb	r3, [r0, #32]
401055e8:	e1a02c23 	lsr	r2, r3, #24
401055ec:	e5c02023 	strb	r2, [r0, #35]	; 0x23
401055f0:	e7e72453 	ubfx	r2, r3, #8, #8
401055f4:	e7e73853 	ubfx	r3, r3, #16, #8
401055f8:	e5c02021 	strb	r2, [r0, #33]	; 0x21
401055fc:	e5c03022 	strb	r3, [r0, #34]	; 0x22
40105600:	ee123f50 	mrc	15, 0, r3, cr2, cr0, {2}
40105604:	e5c03024 	strb	r3, [r0, #36]	; 0x24
40105608:	e1a02c23 	lsr	r2, r3, #24
4010560c:	e5c02027 	strb	r2, [r0, #39]	; 0x27
40105610:	e7e72453 	ubfx	r2, r3, #8, #8
40105614:	e7e73853 	ubfx	r3, r3, #16, #8
40105618:	e5c02025 	strb	r2, [r0, #37]	; 0x25
4010561c:	e5c03026 	strb	r3, [r0, #38]	; 0x26
40105620:	ee133f10 	mrc	15, 0, r3, cr3, cr0, {0}
40105624:	e5c03028 	strb	r3, [r0, #40]	; 0x28
40105628:	e1a02c23 	lsr	r2, r3, #24
4010562c:	e5c0202b 	strb	r2, [r0, #43]	; 0x2b
40105630:	e7e72453 	ubfx	r2, r3, #8, #8
40105634:	e7e73853 	ubfx	r3, r3, #16, #8
40105638:	e5c02029 	strb	r2, [r0, #41]	; 0x29
4010563c:	e5c0302a 	strb	r3, [r0, #42]	; 0x2a
40105640:	ee153f10 	mrc	15, 0, r3, cr5, cr0, {0}
40105644:	e5c0302c 	strb	r3, [r0, #44]	; 0x2c
40105648:	e1a02c23 	lsr	r2, r3, #24
4010564c:	e5c0202f 	strb	r2, [r0, #47]	; 0x2f
40105650:	e7e72453 	ubfx	r2, r3, #8, #8
40105654:	e7e73853 	ubfx	r3, r3, #16, #8
40105658:	e5c0202d 	strb	r2, [r0, #45]	; 0x2d
4010565c:	e5c0302e 	strb	r3, [r0, #46]	; 0x2e
40105660:	ee153f30 	mrc	15, 0, r3, cr5, cr0, {1}
40105664:	e5c03030 	strb	r3, [r0, #48]	; 0x30
40105668:	e1a02c23 	lsr	r2, r3, #24
4010566c:	e7e71453 	ubfx	r1, r3, #8, #8
40105670:	e7e73853 	ubfx	r3, r3, #16, #8
40105674:	e5c01031 	strb	r1, [r0, #49]	; 0x31
40105678:	e5c02033 	strb	r2, [r0, #51]	; 0x33
4010567c:	e5c03032 	strb	r3, [r0, #50]	; 0x32
40105680:	ee153f11 	mrc	15, 0, r3, cr5, cr1, {0}
40105684:	e5c03034 	strb	r3, [r0, #52]	; 0x34
40105688:	e1a02c23 	lsr	r2, r3, #24
4010568c:	e5c02037 	strb	r2, [r0, #55]	; 0x37
40105690:	e7e72453 	ubfx	r2, r3, #8, #8
40105694:	e7e73853 	ubfx	r3, r3, #16, #8
40105698:	e5c02035 	strb	r2, [r0, #53]	; 0x35
4010569c:	e5c03036 	strb	r3, [r0, #54]	; 0x36
401056a0:	ee153f31 	mrc	15, 0, r3, cr5, cr1, {1}
401056a4:	e5c03038 	strb	r3, [r0, #56]	; 0x38
401056a8:	e1a02c23 	lsr	r2, r3, #24
401056ac:	e5c0203b 	strb	r2, [r0, #59]	; 0x3b
401056b0:	e7e72453 	ubfx	r2, r3, #8, #8
401056b4:	e7e73853 	ubfx	r3, r3, #16, #8
401056b8:	e5c02039 	strb	r2, [r0, #57]	; 0x39
401056bc:	e5c0303a 	strb	r3, [r0, #58]	; 0x3a
401056c0:	ee163f10 	mrc	15, 0, r3, cr6, cr0, {0}
401056c4:	e5c0303c 	strb	r3, [r0, #60]	; 0x3c
401056c8:	e1a02c23 	lsr	r2, r3, #24
401056cc:	e5c0203f 	strb	r2, [r0, #63]	; 0x3f
401056d0:	e7e72453 	ubfx	r2, r3, #8, #8
401056d4:	e7e73853 	ubfx	r3, r3, #16, #8
401056d8:	e5c0203d 	strb	r2, [r0, #61]	; 0x3d
401056dc:	e5c0303e 	strb	r3, [r0, #62]	; 0x3e
401056e0:	ee163f50 	mrc	15, 0, r3, cr6, cr0, {2}
401056e4:	e5c03040 	strb	r3, [r0, #64]	; 0x40
401056e8:	e1a02c23 	lsr	r2, r3, #24
401056ec:	e5c02043 	strb	r2, [r0, #67]	; 0x43
401056f0:	e7e72453 	ubfx	r2, r3, #8, #8
401056f4:	e7e73853 	ubfx	r3, r3, #16, #8
401056f8:	e5c02041 	strb	r2, [r0, #65]	; 0x41
401056fc:	e5c03042 	strb	r3, [r0, #66]	; 0x42
40105700:	ee173f14 	mrc	15, 0, r3, cr7, cr4, {0}
40105704:	e5c03044 	strb	r3, [r0, #68]	; 0x44
40105708:	e1a02c23 	lsr	r2, r3, #24
4010570c:	e5c02047 	strb	r2, [r0, #71]	; 0x47
40105710:	e7e72453 	ubfx	r2, r3, #8, #8
40105714:	e7e73853 	ubfx	r3, r3, #16, #8
40105718:	e5c02045 	strb	r2, [r0, #69]	; 0x45
4010571c:	e5c03046 	strb	r3, [r0, #70]	; 0x46
40105720:	ee193f1c 	mrc	15, 0, r3, cr9, cr12, {0}
40105724:	e5c03048 	strb	r3, [r0, #72]	; 0x48
40105728:	e1a02c23 	lsr	r2, r3, #24
4010572c:	e5c0204b 	strb	r2, [r0, #75]	; 0x4b
40105730:	e7e72453 	ubfx	r2, r3, #8, #8
40105734:	e7e73853 	ubfx	r3, r3, #16, #8
40105738:	e5c02049 	strb	r2, [r0, #73]	; 0x49
4010573c:	e5c0304a 	strb	r3, [r0, #74]	; 0x4a
40105740:	ee193f3c 	mrc	15, 0, r3, cr9, cr12, {1}
40105744:	e5c0304c 	strb	r3, [r0, #76]	; 0x4c
40105748:	e1a02c23 	lsr	r2, r3, #24
4010574c:	e5c0204f 	strb	r2, [r0, #79]	; 0x4f
40105750:	e7e72453 	ubfx	r2, r3, #8, #8
40105754:	e7e73853 	ubfx	r3, r3, #16, #8
40105758:	e5c0204d 	strb	r2, [r0, #77]	; 0x4d
4010575c:	e5c0304e 	strb	r3, [r0, #78]	; 0x4e
40105760:	ee193f5c 	mrc	15, 0, r3, cr9, cr12, {2}
40105764:	e5c03050 	strb	r3, [r0, #80]	; 0x50
40105768:	e1a02c23 	lsr	r2, r3, #24
4010576c:	e7e71453 	ubfx	r1, r3, #8, #8
40105770:	e7e73853 	ubfx	r3, r3, #16, #8
40105774:	e5c01051 	strb	r1, [r0, #81]	; 0x51
40105778:	e5c03052 	strb	r3, [r0, #82]	; 0x52
4010577c:	e5c02053 	strb	r2, [r0, #83]	; 0x53
40105780:	ee193f7c 	mrc	15, 0, r3, cr9, cr12, {3}
40105784:	e5c03054 	strb	r3, [r0, #84]	; 0x54
40105788:	e1a02c23 	lsr	r2, r3, #24
4010578c:	e5c02057 	strb	r2, [r0, #87]	; 0x57
40105790:	e7e72453 	ubfx	r2, r3, #8, #8
40105794:	e7e73853 	ubfx	r3, r3, #16, #8
40105798:	e5c02055 	strb	r2, [r0, #85]	; 0x55
4010579c:	e5c03056 	strb	r3, [r0, #86]	; 0x56
401057a0:	ee193f9c 	mrc	15, 0, r3, cr9, cr12, {4}
401057a4:	e5c03058 	strb	r3, [r0, #88]	; 0x58
401057a8:	e1a02c23 	lsr	r2, r3, #24
401057ac:	e5c0205b 	strb	r2, [r0, #91]	; 0x5b
401057b0:	e7e72453 	ubfx	r2, r3, #8, #8
401057b4:	e7e73853 	ubfx	r3, r3, #16, #8
401057b8:	e5c02059 	strb	r2, [r0, #89]	; 0x59
401057bc:	e5c0305a 	strb	r3, [r0, #90]	; 0x5a
401057c0:	ee193fbc 	mrc	15, 0, r3, cr9, cr12, {5}
401057c4:	e5c0305c 	strb	r3, [r0, #92]	; 0x5c
401057c8:	e1a02c23 	lsr	r2, r3, #24
401057cc:	e5c0205f 	strb	r2, [r0, #95]	; 0x5f
401057d0:	e7e72453 	ubfx	r2, r3, #8, #8
401057d4:	e7e73853 	ubfx	r3, r3, #16, #8
401057d8:	e5c0205d 	strb	r2, [r0, #93]	; 0x5d
401057dc:	e5c0305e 	strb	r3, [r0, #94]	; 0x5e
401057e0:	ee193f1d 	mrc	15, 0, r3, cr9, cr13, {0}
401057e4:	e5c03060 	strb	r3, [r0, #96]	; 0x60
401057e8:	e1a02c23 	lsr	r2, r3, #24
401057ec:	e5c02063 	strb	r2, [r0, #99]	; 0x63
401057f0:	e7e72453 	ubfx	r2, r3, #8, #8
401057f4:	e7e73853 	ubfx	r3, r3, #16, #8
401057f8:	e5c02061 	strb	r2, [r0, #97]	; 0x61
401057fc:	e5c03062 	strb	r3, [r0, #98]	; 0x62
40105800:	ee193f3d 	mrc	15, 0, r3, cr9, cr13, {1}
40105804:	e5c03064 	strb	r3, [r0, #100]	; 0x64
40105808:	e1a02c23 	lsr	r2, r3, #24
4010580c:	e5c02067 	strb	r2, [r0, #103]	; 0x67
40105810:	e7e72453 	ubfx	r2, r3, #8, #8
40105814:	e7e73853 	ubfx	r3, r3, #16, #8
40105818:	e5c02065 	strb	r2, [r0, #101]	; 0x65
4010581c:	e5c03066 	strb	r3, [r0, #102]	; 0x66
40105820:	ee193f5d 	mrc	15, 0, r3, cr9, cr13, {2}
40105824:	e5c03068 	strb	r3, [r0, #104]	; 0x68
40105828:	e1a02c23 	lsr	r2, r3, #24
4010582c:	e5c0206b 	strb	r2, [r0, #107]	; 0x6b
40105830:	e7e72453 	ubfx	r2, r3, #8, #8
40105834:	e7e73853 	ubfx	r3, r3, #16, #8
40105838:	e5c02069 	strb	r2, [r0, #105]	; 0x69
4010583c:	e5c0306a 	strb	r3, [r0, #106]	; 0x6a
40105840:	ee193f1e 	mrc	15, 0, r3, cr9, cr14, {0}
40105844:	e5c0306c 	strb	r3, [r0, #108]	; 0x6c
40105848:	e1a02c23 	lsr	r2, r3, #24
4010584c:	e5c0206f 	strb	r2, [r0, #111]	; 0x6f
40105850:	e7e72453 	ubfx	r2, r3, #8, #8
40105854:	e7e73853 	ubfx	r3, r3, #16, #8
40105858:	e5c0206d 	strb	r2, [r0, #109]	; 0x6d
4010585c:	e5c0306e 	strb	r3, [r0, #110]	; 0x6e
40105860:	ee193f3e 	mrc	15, 0, r3, cr9, cr14, {1}
40105864:	e5c03070 	strb	r3, [r0, #112]	; 0x70
40105868:	e1a02c23 	lsr	r2, r3, #24
4010586c:	e5c02073 	strb	r2, [r0, #115]	; 0x73
40105870:	e7e72453 	ubfx	r2, r3, #8, #8
40105874:	e7e73853 	ubfx	r3, r3, #16, #8
40105878:	e5c02071 	strb	r2, [r0, #113]	; 0x71
4010587c:	e5c03072 	strb	r3, [r0, #114]	; 0x72
40105880:	ee193f5e 	mrc	15, 0, r3, cr9, cr14, {2}
40105884:	e5c03074 	strb	r3, [r0, #116]	; 0x74
40105888:	e1a02c23 	lsr	r2, r3, #24
4010588c:	e7e71453 	ubfx	r1, r3, #8, #8
40105890:	e7e73853 	ubfx	r3, r3, #16, #8
40105894:	e5c01075 	strb	r1, [r0, #117]	; 0x75
40105898:	e5c02077 	strb	r2, [r0, #119]	; 0x77
4010589c:	e5c03076 	strb	r3, [r0, #118]	; 0x76
401058a0:	ee393f10 	mrc	15, 1, r3, cr9, cr0, {0}
401058a4:	e5c03078 	strb	r3, [r0, #120]	; 0x78
401058a8:	e1a02c23 	lsr	r2, r3, #24
401058ac:	e5c0207b 	strb	r2, [r0, #123]	; 0x7b
401058b0:	e7e72453 	ubfx	r2, r3, #8, #8
401058b4:	e7e73853 	ubfx	r3, r3, #16, #8
401058b8:	e5c02079 	strb	r2, [r0, #121]	; 0x79
401058bc:	e5c0307a 	strb	r3, [r0, #122]	; 0x7a
401058c0:	ee393f50 	mrc	15, 1, r3, cr9, cr0, {2}
401058c4:	e5c0307c 	strb	r3, [r0, #124]	; 0x7c
401058c8:	e1a02c23 	lsr	r2, r3, #24
401058cc:	e5c0207f 	strb	r2, [r0, #127]	; 0x7f
401058d0:	e7e72453 	ubfx	r2, r3, #8, #8
401058d4:	e7e73853 	ubfx	r3, r3, #16, #8
401058d8:	e5c0207d 	strb	r2, [r0, #125]	; 0x7d
401058dc:	e5c0307e 	strb	r3, [r0, #126]	; 0x7e
401058e0:	ee1a3f10 	mrc	15, 0, r3, cr10, cr0, {0}
401058e4:	e5c03080 	strb	r3, [r0, #128]	; 0x80
401058e8:	e1a02c23 	lsr	r2, r3, #24
401058ec:	e5c02083 	strb	r2, [r0, #131]	; 0x83
401058f0:	e7e72453 	ubfx	r2, r3, #8, #8
401058f4:	e7e73853 	ubfx	r3, r3, #16, #8
401058f8:	e5c02081 	strb	r2, [r0, #129]	; 0x81
401058fc:	e5c03082 	strb	r3, [r0, #130]	; 0x82
40105900:	ee1a3f30 	mrc	15, 0, r3, cr10, cr0, {1}
40105904:	e5c03084 	strb	r3, [r0, #132]	; 0x84
40105908:	e1a02c23 	lsr	r2, r3, #24
4010590c:	e5c02087 	strb	r2, [r0, #135]	; 0x87
40105910:	e7e72453 	ubfx	r2, r3, #8, #8
40105914:	e7e73853 	ubfx	r3, r3, #16, #8
40105918:	e5c02085 	strb	r2, [r0, #133]	; 0x85
4010591c:	e5c03086 	strb	r3, [r0, #134]	; 0x86
40105920:	ee1a3f12 	mrc	15, 0, r3, cr10, cr2, {0}
40105924:	e5c03088 	strb	r3, [r0, #136]	; 0x88
40105928:	e1a02c23 	lsr	r2, r3, #24
4010592c:	e5c0208b 	strb	r2, [r0, #139]	; 0x8b
40105930:	e7e72453 	ubfx	r2, r3, #8, #8
40105934:	e7e73853 	ubfx	r3, r3, #16, #8
40105938:	e5c02089 	strb	r2, [r0, #137]	; 0x89
4010593c:	e5c0308a 	strb	r3, [r0, #138]	; 0x8a
40105940:	ee1a3f32 	mrc	15, 0, r3, cr10, cr2, {1}
40105944:	e5c0308c 	strb	r3, [r0, #140]	; 0x8c
40105948:	e1a02c23 	lsr	r2, r3, #24
4010594c:	e5c0208f 	strb	r2, [r0, #143]	; 0x8f
40105950:	e7e72453 	ubfx	r2, r3, #8, #8
40105954:	e7e73853 	ubfx	r3, r3, #16, #8
40105958:	e5c0208d 	strb	r2, [r0, #141]	; 0x8d
4010595c:	e5c0308e 	strb	r3, [r0, #142]	; 0x8e
40105960:	ee1b3f11 	mrc	15, 0, r3, cr11, cr1, {0}
40105964:	e5c03090 	strb	r3, [r0, #144]	; 0x90
40105968:	e1a02c23 	lsr	r2, r3, #24
4010596c:	e5c02093 	strb	r2, [r0, #147]	; 0x93
40105970:	e7e72453 	ubfx	r2, r3, #8, #8
40105974:	e7e73853 	ubfx	r3, r3, #16, #8
40105978:	e5c02091 	strb	r2, [r0, #145]	; 0x91
4010597c:	e5c03092 	strb	r3, [r0, #146]	; 0x92
40105980:	ee1b3f12 	mrc	15, 0, r3, cr11, cr2, {0}
40105984:	e5c03094 	strb	r3, [r0, #148]	; 0x94
40105988:	e1a02c23 	lsr	r2, r3, #24
4010598c:	e7e71453 	ubfx	r1, r3, #8, #8
40105990:	e7e73853 	ubfx	r3, r3, #16, #8
40105994:	e5c01095 	strb	r1, [r0, #149]	; 0x95
40105998:	e5c03096 	strb	r3, [r0, #150]	; 0x96
4010599c:	e5c02097 	strb	r2, [r0, #151]	; 0x97
401059a0:	ee1b3f14 	mrc	15, 0, r3, cr11, cr4, {0}
401059a4:	e5c03098 	strb	r3, [r0, #152]	; 0x98
401059a8:	e1a02c23 	lsr	r2, r3, #24
401059ac:	e5c0209b 	strb	r2, [r0, #155]	; 0x9b
401059b0:	e7e72453 	ubfx	r2, r3, #8, #8
401059b4:	e7e73853 	ubfx	r3, r3, #16, #8
401059b8:	e5c02099 	strb	r2, [r0, #153]	; 0x99
401059bc:	e5c0309a 	strb	r3, [r0, #154]	; 0x9a
401059c0:	ee1b3f15 	mrc	15, 0, r3, cr11, cr5, {0}
401059c4:	e5c0309c 	strb	r3, [r0, #156]	; 0x9c
401059c8:	e1a02c23 	lsr	r2, r3, #24
401059cc:	e5c0209f 	strb	r2, [r0, #159]	; 0x9f
401059d0:	e7e72453 	ubfx	r2, r3, #8, #8
401059d4:	e7e73853 	ubfx	r3, r3, #16, #8
401059d8:	e5c0209d 	strb	r2, [r0, #157]	; 0x9d
401059dc:	e5c0309e 	strb	r3, [r0, #158]	; 0x9e
401059e0:	ee1b3f17 	mrc	15, 0, r3, cr11, cr7, {0}
401059e4:	e5c030a0 	strb	r3, [r0, #160]	; 0xa0
401059e8:	e1a02c23 	lsr	r2, r3, #24
401059ec:	e5c020a3 	strb	r2, [r0, #163]	; 0xa3
401059f0:	e7e72453 	ubfx	r2, r3, #8, #8
401059f4:	e7e73853 	ubfx	r3, r3, #16, #8
401059f8:	e5c020a1 	strb	r2, [r0, #161]	; 0xa1
401059fc:	e5c030a2 	strb	r3, [r0, #162]	; 0xa2
40105a00:	ee1b3f1f 	mrc	15, 0, r3, cr11, cr15, {0}
40105a04:	e5c030a4 	strb	r3, [r0, #164]	; 0xa4
40105a08:	e1a02c23 	lsr	r2, r3, #24
40105a0c:	e5c020a7 	strb	r2, [r0, #167]	; 0xa7
40105a10:	e7e72453 	ubfx	r2, r3, #8, #8
40105a14:	e7e73853 	ubfx	r3, r3, #16, #8
40105a18:	e5c020a5 	strb	r2, [r0, #165]	; 0xa5
40105a1c:	e5c030a6 	strb	r3, [r0, #166]	; 0xa6
40105a20:	ee1c3f10 	mrc	15, 0, r3, cr12, cr0, {0}
40105a24:	e5c030a8 	strb	r3, [r0, #168]	; 0xa8
40105a28:	e1a02c23 	lsr	r2, r3, #24
40105a2c:	e5c020ab 	strb	r2, [r0, #171]	; 0xab
40105a30:	e7e72453 	ubfx	r2, r3, #8, #8
40105a34:	e7e73853 	ubfx	r3, r3, #16, #8
40105a38:	e5c020a9 	strb	r2, [r0, #169]	; 0xa9
40105a3c:	e5c030aa 	strb	r3, [r0, #170]	; 0xaa
40105a40:	ee1c3f30 	mrc	15, 0, r3, cr12, cr0, {1}
40105a44:	e5c030ac 	strb	r3, [r0, #172]	; 0xac
40105a48:	e1a02c23 	lsr	r2, r3, #24
40105a4c:	e5c020af 	strb	r2, [r0, #175]	; 0xaf
40105a50:	e7e72453 	ubfx	r2, r3, #8, #8
40105a54:	e7e73853 	ubfx	r3, r3, #16, #8
40105a58:	e5c020ad 	strb	r2, [r0, #173]	; 0xad
40105a5c:	e5c030ae 	strb	r3, [r0, #174]	; 0xae
40105a60:	ee1d3f10 	mrc	15, 0, r3, cr13, cr0, {0}
40105a64:	e5c030b0 	strb	r3, [r0, #176]	; 0xb0
40105a68:	e1a02c23 	lsr	r2, r3, #24
40105a6c:	e5c020b3 	strb	r2, [r0, #179]	; 0xb3
40105a70:	e7e72453 	ubfx	r2, r3, #8, #8
40105a74:	e7e73853 	ubfx	r3, r3, #16, #8
40105a78:	e5c020b1 	strb	r2, [r0, #177]	; 0xb1
40105a7c:	e5c030b2 	strb	r3, [r0, #178]	; 0xb2
40105a80:	ee1d3f30 	mrc	15, 0, r3, cr13, cr0, {1}
40105a84:	e5c030b4 	strb	r3, [r0, #180]	; 0xb4
40105a88:	e1a02c23 	lsr	r2, r3, #24
40105a8c:	e5c020b7 	strb	r2, [r0, #183]	; 0xb7
40105a90:	e7e72453 	ubfx	r2, r3, #8, #8
40105a94:	e7e73853 	ubfx	r3, r3, #16, #8
40105a98:	e5c020b5 	strb	r2, [r0, #181]	; 0xb5
40105a9c:	e5c030b6 	strb	r3, [r0, #182]	; 0xb6
40105aa0:	ee1d3f50 	mrc	15, 0, r3, cr13, cr0, {2}
40105aa4:	e5c030b8 	strb	r3, [r0, #184]	; 0xb8
40105aa8:	e1a02c23 	lsr	r2, r3, #24
40105aac:	e7e71453 	ubfx	r1, r3, #8, #8
40105ab0:	e7e73853 	ubfx	r3, r3, #16, #8
40105ab4:	e5c010b9 	strb	r1, [r0, #185]	; 0xb9
40105ab8:	e5c020bb 	strb	r2, [r0, #187]	; 0xbb
40105abc:	e5c030ba 	strb	r3, [r0, #186]	; 0xba
40105ac0:	ee1d3f70 	mrc	15, 0, r3, cr13, cr0, {3}
40105ac4:	e1a02c23 	lsr	r2, r3, #24
40105ac8:	e5c030bc 	strb	r3, [r0, #188]	; 0xbc
40105acc:	e5c020bf 	strb	r2, [r0, #191]	; 0xbf
40105ad0:	e7e72453 	ubfx	r2, r3, #8, #8
40105ad4:	e7e73853 	ubfx	r3, r3, #16, #8
40105ad8:	e5c020bd 	strb	r2, [r0, #189]	; 0xbd
40105adc:	e5c030be 	strb	r3, [r0, #190]	; 0xbe
40105ae0:	ee1d3f90 	mrc	15, 0, r3, cr13, cr0, {4}
40105ae4:	e1a02c23 	lsr	r2, r3, #24
40105ae8:	e5c030c0 	strb	r3, [r0, #192]	; 0xc0
40105aec:	e5c020c3 	strb	r2, [r0, #195]	; 0xc3
40105af0:	e7e72453 	ubfx	r2, r3, #8, #8
40105af4:	e7e73853 	ubfx	r3, r3, #16, #8
40105af8:	e5c020c1 	strb	r2, [r0, #193]	; 0xc1
40105afc:	e5c030c2 	strb	r3, [r0, #194]	; 0xc2
40105b00:	e12fff1e 	bx	lr

40105b04 <__restore_processor_state>:
40105b04:	e5d0c001 	ldrb	ip, [r0, #1]
40105b08:	e5d03000 	ldrb	r3, [r0]
40105b0c:	e5d01002 	ldrb	r1, [r0, #2]
40105b10:	e5d02003 	ldrb	r2, [r0, #3]
40105b14:	e183340c 	orr	r3, r3, ip, lsl #8
40105b18:	e1833801 	orr	r3, r3, r1, lsl #16
40105b1c:	e1833c02 	orr	r3, r3, r2, lsl #24
40105b20:	ee403f10 	mcr	15, 2, r3, cr0, cr0, {0}
40105b24:	e5d0c00d 	ldrb	ip, [r0, #13]
40105b28:	e5d0300c 	ldrb	r3, [r0, #12]
40105b2c:	e5d0100e 	ldrb	r1, [r0, #14]
40105b30:	e5d0200f 	ldrb	r2, [r0, #15]
40105b34:	e183340c 	orr	r3, r3, ip, lsl #8
40105b38:	e1833801 	orr	r3, r3, r1, lsl #16
40105b3c:	e1833c02 	orr	r3, r3, r2, lsl #24
40105b40:	ee013f50 	mcr	15, 0, r3, cr1, cr0, {2}
40105b44:	e5d0c01d 	ldrb	ip, [r0, #29]
40105b48:	e5d0301c 	ldrb	r3, [r0, #28]
40105b4c:	e5d0101e 	ldrb	r1, [r0, #30]
40105b50:	e5d0201f 	ldrb	r2, [r0, #31]
40105b54:	e183340c 	orr	r3, r3, ip, lsl #8
40105b58:	e1833801 	orr	r3, r3, r1, lsl #16
40105b5c:	e1833c02 	orr	r3, r3, r2, lsl #24
40105b60:	ee023f10 	mcr	15, 0, r3, cr2, cr0, {0}
40105b64:	f57ff04f 	dsb	sy
40105b68:	f57ff06f 	isb	sy
40105b6c:	e5d0c021 	ldrb	ip, [r0, #33]	; 0x21
40105b70:	e5d03020 	ldrb	r3, [r0, #32]
40105b74:	e5d01022 	ldrb	r1, [r0, #34]	; 0x22
40105b78:	e5d02023 	ldrb	r2, [r0, #35]	; 0x23
40105b7c:	e183340c 	orr	r3, r3, ip, lsl #8
40105b80:	e1833801 	orr	r3, r3, r1, lsl #16
40105b84:	e1833c02 	orr	r3, r3, r2, lsl #24
40105b88:	ee023f30 	mcr	15, 0, r3, cr2, cr0, {1}
40105b8c:	f57ff04f 	dsb	sy
40105b90:	f57ff06f 	isb	sy
40105b94:	e5d0c025 	ldrb	ip, [r0, #37]	; 0x25
40105b98:	e5d03024 	ldrb	r3, [r0, #36]	; 0x24
40105b9c:	e5d01026 	ldrb	r1, [r0, #38]	; 0x26
40105ba0:	e5d02027 	ldrb	r2, [r0, #39]	; 0x27
40105ba4:	e183340c 	orr	r3, r3, ip, lsl #8
40105ba8:	e1833801 	orr	r3, r3, r1, lsl #16
40105bac:	e1833c02 	orr	r3, r3, r2, lsl #24
40105bb0:	ee023f50 	mcr	15, 0, r3, cr2, cr0, {2}
40105bb4:	f57ff04f 	dsb	sy
40105bb8:	f57ff06f 	isb	sy
40105bbc:	e5d0c029 	ldrb	ip, [r0, #41]	; 0x29
40105bc0:	e5d03028 	ldrb	r3, [r0, #40]	; 0x28
40105bc4:	e5d0102a 	ldrb	r1, [r0, #42]	; 0x2a
40105bc8:	e5d0202b 	ldrb	r2, [r0, #43]	; 0x2b
40105bcc:	e183340c 	orr	r3, r3, ip, lsl #8
40105bd0:	e1833801 	orr	r3, r3, r1, lsl #16
40105bd4:	e1833c02 	orr	r3, r3, r2, lsl #24
40105bd8:	ee033f10 	mcr	15, 0, r3, cr3, cr0, {0}
40105bdc:	e5d0c045 	ldrb	ip, [r0, #69]	; 0x45
40105be0:	e5d03044 	ldrb	r3, [r0, #68]	; 0x44
40105be4:	e5d01046 	ldrb	r1, [r0, #70]	; 0x46
40105be8:	e5d02047 	ldrb	r2, [r0, #71]	; 0x47
40105bec:	e183340c 	orr	r3, r3, ip, lsl #8
40105bf0:	e1833801 	orr	r3, r3, r1, lsl #16
40105bf4:	e1833c02 	orr	r3, r3, r2, lsl #24
40105bf8:	ee073f14 	mcr	15, 0, r3, cr7, cr4, {0}
40105bfc:	e5d0c06d 	ldrb	ip, [r0, #109]	; 0x6d
40105c00:	e5d0306c 	ldrb	r3, [r0, #108]	; 0x6c
40105c04:	e5d0106e 	ldrb	r1, [r0, #110]	; 0x6e
40105c08:	e5d0206f 	ldrb	r2, [r0, #111]	; 0x6f
40105c0c:	e183340c 	orr	r3, r3, ip, lsl #8
40105c10:	e1833801 	orr	r3, r3, r1, lsl #16
40105c14:	e1833c02 	orr	r3, r3, r2, lsl #24
40105c18:	ee093f1e 	mcr	15, 0, r3, cr9, cr14, {0}
40105c1c:	e5d0c071 	ldrb	ip, [r0, #113]	; 0x71
40105c20:	e5d03070 	ldrb	r3, [r0, #112]	; 0x70
40105c24:	e5d01072 	ldrb	r1, [r0, #114]	; 0x72
40105c28:	e5d02073 	ldrb	r2, [r0, #115]	; 0x73
40105c2c:	e183340c 	orr	r3, r3, ip, lsl #8
40105c30:	e1833801 	orr	r3, r3, r1, lsl #16
40105c34:	e1833c02 	orr	r3, r3, r2, lsl #24
40105c38:	ee093f3e 	mcr	15, 0, r3, cr9, cr14, {1}
40105c3c:	e5d0c075 	ldrb	ip, [r0, #117]	; 0x75
40105c40:	e5d03074 	ldrb	r3, [r0, #116]	; 0x74
40105c44:	e5d01076 	ldrb	r1, [r0, #118]	; 0x76
40105c48:	e5d02077 	ldrb	r2, [r0, #119]	; 0x77
40105c4c:	e183340c 	orr	r3, r3, ip, lsl #8
40105c50:	e1833801 	orr	r3, r3, r1, lsl #16
40105c54:	e1833c02 	orr	r3, r3, r2, lsl #24
40105c58:	ee093f5e 	mcr	15, 0, r3, cr9, cr14, {2}
40105c5c:	e5d0c079 	ldrb	ip, [r0, #121]	; 0x79
40105c60:	e5d03078 	ldrb	r3, [r0, #120]	; 0x78
40105c64:	e5d0107a 	ldrb	r1, [r0, #122]	; 0x7a
40105c68:	e5d0207b 	ldrb	r2, [r0, #123]	; 0x7b
40105c6c:	e183340c 	orr	r3, r3, ip, lsl #8
40105c70:	e1833801 	orr	r3, r3, r1, lsl #16
40105c74:	e1833c02 	orr	r3, r3, r2, lsl #24
40105c78:	ee293f10 	mcr	15, 1, r3, cr9, cr0, {0}
40105c7c:	e5d0c07d 	ldrb	ip, [r0, #125]	; 0x7d
40105c80:	e5d0307c 	ldrb	r3, [r0, #124]	; 0x7c
40105c84:	e5d0107e 	ldrb	r1, [r0, #126]	; 0x7e
40105c88:	e5d0207f 	ldrb	r2, [r0, #127]	; 0x7f
40105c8c:	e183340c 	orr	r3, r3, ip, lsl #8
40105c90:	e1833801 	orr	r3, r3, r1, lsl #16
40105c94:	e1833c02 	orr	r3, r3, r2, lsl #24
40105c98:	ee293f50 	mcr	15, 1, r3, cr9, cr0, {2}
40105c9c:	e5d0c089 	ldrb	ip, [r0, #137]	; 0x89
40105ca0:	e5d03088 	ldrb	r3, [r0, #136]	; 0x88
40105ca4:	e5d0108a 	ldrb	r1, [r0, #138]	; 0x8a
40105ca8:	e5d0208b 	ldrb	r2, [r0, #139]	; 0x8b
40105cac:	e183340c 	orr	r3, r3, ip, lsl #8
40105cb0:	e1833801 	orr	r3, r3, r1, lsl #16
40105cb4:	e1833c02 	orr	r3, r3, r2, lsl #24
40105cb8:	ee0a3f12 	mcr	15, 0, r3, cr10, cr2, {0}
40105cbc:	e5d0c08d 	ldrb	ip, [r0, #141]	; 0x8d
40105cc0:	e5d0308c 	ldrb	r3, [r0, #140]	; 0x8c
40105cc4:	e5d0108e 	ldrb	r1, [r0, #142]	; 0x8e
40105cc8:	e5d0208f 	ldrb	r2, [r0, #143]	; 0x8f
40105ccc:	e183340c 	orr	r3, r3, ip, lsl #8
40105cd0:	e1833801 	orr	r3, r3, r1, lsl #16
40105cd4:	e1833c02 	orr	r3, r3, r2, lsl #24
40105cd8:	ee0a3f32 	mcr	15, 0, r3, cr10, cr2, {1}
40105cdc:	e5d0c091 	ldrb	ip, [r0, #145]	; 0x91
40105ce0:	e5d03090 	ldrb	r3, [r0, #144]	; 0x90
40105ce4:	e5d01092 	ldrb	r1, [r0, #146]	; 0x92
40105ce8:	e5d02093 	ldrb	r2, [r0, #147]	; 0x93
40105cec:	e183340c 	orr	r3, r3, ip, lsl #8
40105cf0:	e1833801 	orr	r3, r3, r1, lsl #16
40105cf4:	e1833c02 	orr	r3, r3, r2, lsl #24
40105cf8:	ee0b3f11 	mcr	15, 0, r3, cr11, cr1, {0}
40105cfc:	e5d0c095 	ldrb	ip, [r0, #149]	; 0x95
40105d00:	e5d03094 	ldrb	r3, [r0, #148]	; 0x94
40105d04:	e5d01096 	ldrb	r1, [r0, #150]	; 0x96
40105d08:	e5d02097 	ldrb	r2, [r0, #151]	; 0x97
40105d0c:	e183340c 	orr	r3, r3, ip, lsl #8
40105d10:	e1833801 	orr	r3, r3, r1, lsl #16
40105d14:	e1833c02 	orr	r3, r3, r2, lsl #24
40105d18:	ee0b3f12 	mcr	15, 0, r3, cr11, cr2, {0}
40105d1c:	e5d0c099 	ldrb	ip, [r0, #153]	; 0x99
40105d20:	e5d03098 	ldrb	r3, [r0, #152]	; 0x98
40105d24:	e5d0109a 	ldrb	r1, [r0, #154]	; 0x9a
40105d28:	e5d0209b 	ldrb	r2, [r0, #155]	; 0x9b
40105d2c:	e183340c 	orr	r3, r3, ip, lsl #8
40105d30:	e1833801 	orr	r3, r3, r1, lsl #16
40105d34:	e1833c02 	orr	r3, r3, r2, lsl #24
40105d38:	ee0b3f14 	mcr	15, 0, r3, cr11, cr4, {0}
40105d3c:	e5d0c09d 	ldrb	ip, [r0, #157]	; 0x9d
40105d40:	e5d0309c 	ldrb	r3, [r0, #156]	; 0x9c
40105d44:	e5d0109e 	ldrb	r1, [r0, #158]	; 0x9e
40105d48:	e5d0209f 	ldrb	r2, [r0, #159]	; 0x9f
40105d4c:	e183340c 	orr	r3, r3, ip, lsl #8
40105d50:	e1833801 	orr	r3, r3, r1, lsl #16
40105d54:	e1833c02 	orr	r3, r3, r2, lsl #24
40105d58:	ee0b3f15 	mcr	15, 0, r3, cr11, cr5, {0}
40105d5c:	e5d0c0a1 	ldrb	ip, [r0, #161]	; 0xa1
40105d60:	e5d030a0 	ldrb	r3, [r0, #160]	; 0xa0
40105d64:	e5d010a2 	ldrb	r1, [r0, #162]	; 0xa2
40105d68:	e5d020a3 	ldrb	r2, [r0, #163]	; 0xa3
40105d6c:	e183340c 	orr	r3, r3, ip, lsl #8
40105d70:	e1833801 	orr	r3, r3, r1, lsl #16
40105d74:	e1833c02 	orr	r3, r3, r2, lsl #24
40105d78:	ee0b3f17 	mcr	15, 0, r3, cr11, cr7, {0}
40105d7c:	e5d0c0a5 	ldrb	ip, [r0, #165]	; 0xa5
40105d80:	e5d030a4 	ldrb	r3, [r0, #164]	; 0xa4
40105d84:	e5d010a6 	ldrb	r1, [r0, #166]	; 0xa6
40105d88:	e5d020a7 	ldrb	r2, [r0, #167]	; 0xa7
40105d8c:	e183340c 	orr	r3, r3, ip, lsl #8
40105d90:	e1833801 	orr	r3, r3, r1, lsl #16
40105d94:	e1833c02 	orr	r3, r3, r2, lsl #24
40105d98:	ee0b3f1f 	mcr	15, 0, r3, cr11, cr15, {0}
40105d9c:	e5d0c0a9 	ldrb	ip, [r0, #169]	; 0xa9
40105da0:	e5d030a8 	ldrb	r3, [r0, #168]	; 0xa8
40105da4:	e5d010aa 	ldrb	r1, [r0, #170]	; 0xaa
40105da8:	e5d020ab 	ldrb	r2, [r0, #171]	; 0xab
40105dac:	e183340c 	orr	r3, r3, ip, lsl #8
40105db0:	e1833801 	orr	r3, r3, r1, lsl #16
40105db4:	e1833c02 	orr	r3, r3, r2, lsl #24
40105db8:	ee0c3f10 	mcr	15, 0, r3, cr12, cr0, {0}
40105dbc:	e5d0c0ad 	ldrb	ip, [r0, #173]	; 0xad
40105dc0:	e5d030ac 	ldrb	r3, [r0, #172]	; 0xac
40105dc4:	e5d010ae 	ldrb	r1, [r0, #174]	; 0xae
40105dc8:	e5d020af 	ldrb	r2, [r0, #175]	; 0xaf
40105dcc:	e183340c 	orr	r3, r3, ip, lsl #8
40105dd0:	e1833801 	orr	r3, r3, r1, lsl #16
40105dd4:	e1833c02 	orr	r3, r3, r2, lsl #24
40105dd8:	ee0c3f30 	mcr	15, 0, r3, cr12, cr0, {1}
40105ddc:	e5d0c0b1 	ldrb	ip, [r0, #177]	; 0xb1
40105de0:	e5d030b0 	ldrb	r3, [r0, #176]	; 0xb0
40105de4:	e5d010b2 	ldrb	r1, [r0, #178]	; 0xb2
40105de8:	e5d020b3 	ldrb	r2, [r0, #179]	; 0xb3
40105dec:	e183340c 	orr	r3, r3, ip, lsl #8
40105df0:	e1833801 	orr	r3, r3, r1, lsl #16
40105df4:	e1833c02 	orr	r3, r3, r2, lsl #24
40105df8:	ee0d3f10 	mcr	15, 0, r3, cr13, cr0, {0}
40105dfc:	e5d0c0b5 	ldrb	ip, [r0, #181]	; 0xb5
40105e00:	e5d030b4 	ldrb	r3, [r0, #180]	; 0xb4
40105e04:	e5d010b6 	ldrb	r1, [r0, #182]	; 0xb6
40105e08:	e5d020b7 	ldrb	r2, [r0, #183]	; 0xb7
40105e0c:	e183340c 	orr	r3, r3, ip, lsl #8
40105e10:	e1833801 	orr	r3, r3, r1, lsl #16
40105e14:	e1833c02 	orr	r3, r3, r2, lsl #24
40105e18:	ee0d3f30 	mcr	15, 0, r3, cr13, cr0, {1}
40105e1c:	e5d0c0b9 	ldrb	ip, [r0, #185]	; 0xb9
40105e20:	e5d030b8 	ldrb	r3, [r0, #184]	; 0xb8
40105e24:	e5d010ba 	ldrb	r1, [r0, #186]	; 0xba
40105e28:	e5d020bb 	ldrb	r2, [r0, #187]	; 0xbb
40105e2c:	e183340c 	orr	r3, r3, ip, lsl #8
40105e30:	e1833801 	orr	r3, r3, r1, lsl #16
40105e34:	e1833c02 	orr	r3, r3, r2, lsl #24
40105e38:	ee0d3f50 	mcr	15, 0, r3, cr13, cr0, {2}
40105e3c:	e5d0c0bd 	ldrb	ip, [r0, #189]	; 0xbd
40105e40:	e5d030bc 	ldrb	r3, [r0, #188]	; 0xbc
40105e44:	e5d010be 	ldrb	r1, [r0, #190]	; 0xbe
40105e48:	e5d020bf 	ldrb	r2, [r0, #191]	; 0xbf
40105e4c:	e183340c 	orr	r3, r3, ip, lsl #8
40105e50:	e1833801 	orr	r3, r3, r1, lsl #16
40105e54:	e1833c02 	orr	r3, r3, r2, lsl #24
40105e58:	ee0d3f70 	mcr	15, 0, r3, cr13, cr0, {3}
40105e5c:	e5d0c0c1 	ldrb	ip, [r0, #193]	; 0xc1
40105e60:	e5d030c0 	ldrb	r3, [r0, #192]	; 0xc0
40105e64:	e5d010c2 	ldrb	r1, [r0, #194]	; 0xc2
40105e68:	e5d020c3 	ldrb	r2, [r0, #195]	; 0xc3
40105e6c:	e183340c 	orr	r3, r3, ip, lsl #8
40105e70:	e1833801 	orr	r3, r3, r1, lsl #16
40105e74:	e1833c02 	orr	r3, r3, r2, lsl #24
40105e78:	ee0d3f90 	mcr	15, 0, r3, cr13, cr0, {4}
40105e7c:	f57ff04f 	dsb	sy
40105e80:	f57ff06f 	isb	sy
40105e84:	e12fff1e 	bx	lr

40105e88 <mem_restore_processor_state>:
40105e88:	e12fff1e 	bx	lr

40105e8c <disable_cache_invalidate>:
40105e8c:	e59f300c 	ldr	r3, [pc, #12]	; 40105ea0 <disable_cache_invalidate+0x14>
40105e90:	e5932d3c 	ldr	r2, [r3, #3388]	; 0xd3c
40105e94:	e3822003 	orr	r2, r2, #3
40105e98:	e5832d3c 	str	r2, [r3, #3388]	; 0xd3c
40105e9c:	e12fff1e 	bx	lr
40105ea0:	f1c20000 	undefined instruction 0xf1c20000

40105ea4 <set_copro_default>:
40105ea4:	e3a03002 	mov	r3, #2
40105ea8:	ee403f10 	mcr	15, 2, r3, cr0, cr0, {0}
40105eac:	e59f30b8 	ldr	r3, [pc, #184]	; 40105f6c <set_copro_default+0xc8>
40105eb0:	ee013f10 	mcr	15, 0, r3, cr1, cr0, {0}
40105eb4:	e3a03002 	mov	r3, #2
40105eb8:	ee013f30 	mcr	15, 0, r3, cr1, cr0, {1}
40105ebc:	e3a03000 	mov	r3, #0
40105ec0:	ee013f50 	mcr	15, 0, r3, cr1, cr0, {2}
40105ec4:	ee013f11 	mcr	15, 0, r3, cr1, cr1, {0}
40105ec8:	ee013f31 	mcr	15, 0, r3, cr1, cr1, {1}
40105ecc:	ee013f51 	mcr	15, 0, r3, cr1, cr1, {2}
40105ed0:	ee023f10 	mcr	15, 0, r3, cr2, cr0, {0}
40105ed4:	ee023f30 	mcr	15, 0, r3, cr2, cr0, {1}
40105ed8:	ee023f50 	mcr	15, 0, r3, cr2, cr0, {2}
40105edc:	ee033f10 	mcr	15, 0, r3, cr3, cr0, {0}
40105ee0:	ee053f10 	mcr	15, 0, r3, cr5, cr0, {0}
40105ee4:	ee053f30 	mcr	15, 0, r3, cr5, cr0, {1}
40105ee8:	ee053f11 	mcr	15, 0, r3, cr5, cr1, {0}
40105eec:	ee053f31 	mcr	15, 0, r3, cr5, cr1, {1}
40105ef0:	ee063f10 	mcr	15, 0, r3, cr6, cr0, {0}
40105ef4:	ee063f50 	mcr	15, 0, r3, cr6, cr0, {2}
40105ef8:	ee073f14 	mcr	15, 0, r3, cr7, cr4, {0}
40105efc:	ee093f1e 	mcr	15, 0, r3, cr9, cr14, {0}
40105f00:	ee093f3e 	mcr	15, 0, r3, cr9, cr14, {1}
40105f04:	ee093f5e 	mcr	15, 0, r3, cr9, cr14, {2}
40105f08:	ee293f10 	mcr	15, 1, r3, cr9, cr0, {0}
40105f0c:	e2833042 	add	r3, r3, #66	; 0x42
40105f10:	ee293f50 	mcr	15, 1, r3, cr9, cr0, {2}
40105f14:	e3a03000 	mov	r3, #0
40105f18:	ee0a3f10 	mcr	15, 0, r3, cr10, cr0, {0}
40105f1c:	ee0a3f30 	mcr	15, 0, r3, cr10, cr0, {1}
40105f20:	e59f3048 	ldr	r3, [pc, #72]	; 40105f70 <set_copro_default+0xcc>
40105f24:	ee0a3f12 	mcr	15, 0, r3, cr10, cr2, {0}
40105f28:	e59f3044 	ldr	r3, [pc, #68]	; 40105f74 <set_copro_default+0xd0>
40105f2c:	ee0a3f32 	mcr	15, 0, r3, cr10, cr2, {1}
40105f30:	e3a03000 	mov	r3, #0
40105f34:	ee0b3f11 	mcr	15, 0, r3, cr11, cr1, {0}
40105f38:	ee0b3f12 	mcr	15, 0, r3, cr11, cr2, {0}
40105f3c:	ee0b3f14 	mcr	15, 0, r3, cr11, cr4, {0}
40105f40:	ee0b3f15 	mcr	15, 0, r3, cr11, cr5, {0}
40105f44:	ee0b3f17 	mcr	15, 0, r3, cr11, cr7, {0}
40105f48:	ee0b3f1f 	mcr	15, 0, r3, cr11, cr15, {0}
40105f4c:	ee0c3f10 	mcr	15, 0, r3, cr12, cr0, {0}
40105f50:	ee0c3f30 	mcr	15, 0, r3, cr12, cr0, {1}
40105f54:	ee0d3f10 	mcr	15, 0, r3, cr13, cr0, {0}
40105f58:	ee0d3f30 	mcr	15, 0, r3, cr13, cr0, {1}
40105f5c:	ee0d3f50 	mcr	15, 0, r3, cr13, cr0, {2}
40105f60:	ee0d3f70 	mcr	15, 0, r3, cr13, cr0, {3}
40105f64:	ee0d3f90 	mcr	15, 0, r3, cr13, cr0, {4}
40105f68:	e12fff1e 	bx	lr
40105f6c:	00c52078 	sbceq	r2, r5, r8, ror r0
40105f70:	00098aa4 	andeq	r8, r9, r4, lsr #21
40105f74:	44e048e0 	strbtmi	r4, [r0], #2272	; 0x8e0

Disassembly of section .rodata:

40105f78 <TWI_REG_BASE>:
40105f78:	f1c2ac00 	undefined instruction 0xf1c2ac00
40105f7c:	f1c2b000 	undefined instruction 0xf1c2b000
40105f80:	f1c2b400 	undefined instruction 0xf1c2b400

Disassembly of section .bss:

40105f84 <resume1>:
40105f84:	00000000 	andeq	r0, r0, r0

40105f88 <twi_reg>:
40105f88:	00000000 	andeq	r0, r0, r0

40105f8c <TwiClkRegBak>:
40105f8c:	00000000 	andeq	r0, r0, r0

40105f90 <TwiCtlRegBak>:
40105f90:	00000000 	andeq	r0, r0, r0

40105f94 <CmuReg>:
40105f94:	00000000 	andeq	r0, r0, r0

40105f98 <CmuReg>:
40105f98:	00000000 	andeq	r0, r0, r0

40105f9c <backup_perf_counter_ctrl_reg>:
40105f9c:	00000000 	andeq	r0, r0, r0

40105fa0 <backup_perf_counter_enable_reg>:
40105fa0:	00000000 	andeq	r0, r0, r0

40105fa4 <overhead>:
40105fa4:	00000000 	andeq	r0, r0, r0

40105fa8 <cpu_freq>:
40105fa8:	00000000 	andeq	r0, r0, r0

40105fac <cpu_ms_loopcnt>:
40105fac:	00000000 	andeq	r0, r0, r0

Disassembly of section .debug_abbrev:

00000000 <.debug_abbrev>:
   0:	25011101 	strcs	r1, [r1, #-257]	; 0x101
   4:	030b130e 	movweq	r1, #45838	; 0xb30e
   8:	110e1b0e 	tstne	lr, lr, lsl #22
   c:	10011201 	andne	r1, r1, r1, lsl #4
  10:	02000006 	andeq	r0, r0, #6
  14:	0b0b0024 	bleq	2c00ac <__resume0_start+0x2c00ac>
  18:	0e030b3e 	vmoveq.16	d3[0], r0
  1c:	16030000 	strne	r0, [r3], -r0
  20:	3a0e0300 	bcc	380c28 <__resume0_start+0x380c28>
  24:	490b3b0b 	stmdbmi	fp, {r0, r1, r3, r8, r9, fp, ip, sp}
  28:	04000013 	streq	r0, [r0], #-19
  2c:	0b0b0024 	bleq	2c00c4 <__resume0_start+0x2c00c4>
  30:	08030b3e 	stmdaeq	r3, {r1, r2, r3, r4, r5, r8, r9, fp}
  34:	13050000 	movwne	r0, #20480	; 0x5000
  38:	0b0e0301 	bleq	380c44 <__resume0_start+0x380c44>
  3c:	3b0b3a0b 	blcc	2ce870 <__resume0_start+0x2ce870>
  40:	0013010b 	andseq	r0, r3, fp, lsl #2
  44:	000d0600 	andeq	r0, sp, r0, lsl #12
  48:	0b3a0e03 	bleq	e8385c <__resume0_start+0xe8385c>
  4c:	13490b3b 	movtne	r0, #39739	; 0x9b3b
  50:	00000a38 	andeq	r0, r0, r8, lsr sl
  54:	03000d07 	movweq	r0, #3335	; 0xd07
  58:	3b0b3a08 	blcc	2ce880 <__resume0_start+0x2ce880>
  5c:	3813490b 	ldmdacc	r3, {r0, r1, r3, r8, fp, lr}
  60:	0800000a 	stmdaeq	r0, {r1, r3}
  64:	0e03000d 	cdpeq	0, 0, cr0, cr3, cr13, {0}
  68:	0b3b0b3a 	bleq	ec2d58 <__resume0_start+0xec2d58>
  6c:	0b0b1349 	bleq	2c4d98 <__resume0_start+0x2c4d98>
  70:	0b0c0b0d 	bleq	302cac <__resume0_start+0x302cac>
  74:	00000a38 	andeq	r0, r0, r8, lsr sl
  78:	03011309 	movweq	r1, #4873	; 0x1309
  7c:	3a050b0e 	bcc	142cbc <__resume0_start+0x142cbc>
  80:	010b3b0b 	tsteq	fp, fp, lsl #22
  84:	0a000013 	beq	d8 <__resume0_start+0xd8>
  88:	0b0b000f 	bleq	2c00cc <__resume0_start+0x2c00cc>
  8c:	00001349 	andeq	r1, r0, r9, asr #6
  90:	0b000f0b 	bleq	3cc4 <__resume0_start+0x3cc4>
  94:	0c00000b 	stceq	0, cr0, [r0], {11}
  98:	13490101 	movtne	r0, #37121	; 0x9101
  9c:	00001301 	andeq	r1, r0, r1, lsl #6
  a0:	4900210d 	stmdbmi	r0, {r0, r2, r3, r8, sp}
  a4:	000b2f13 	andeq	r2, fp, r3, lsl pc
  a8:	00240e00 	eoreq	r0, r4, r0, lsl #28
  ac:	0b3e0b0b 	bleq	f82ce0 <__resume0_start+0xf82ce0>
  b0:	2e0f0000 	cdpcs	0, 0, cr0, cr15, cr0, {0}
  b4:	030c3f00 	movweq	r3, #52992	; 0xcf00
  b8:	3b0b3a0e 	blcc	2ce8f8 <__resume0_start+0x2ce8f8>
  bc:	490c270b 	stmdbmi	ip, {r0, r1, r3, r8, r9, sl, sp}
  c0:	12011113 	andne	r1, r1, #-1073741820	; 0xc0000004
  c4:	00064001 	andeq	r4, r6, r1
  c8:	00341000 	eorseq	r1, r4, r0
  cc:	0b3a0e03 	bleq	e838e0 <__resume0_start+0xe838e0>
  d0:	13490b3b 	movtne	r0, #39739	; 0x9b3b
  d4:	15110000 	ldrne	r0, [r1]
  d8:	490c2700 	stmdbmi	ip, {r8, r9, sl, sp}
  dc:	12000013 	andne	r0, r0, #19
  e0:	0e030034 	mcreq	0, 0, r0, cr3, cr4, {1}
  e4:	0b3b0b3a 	bleq	ec2dd4 <__resume0_start+0xec2dd4>
  e8:	0a021349 	beq	84e14 <__resume0_start+0x84e14>
  ec:	34130000 	ldrcc	r0, [r3]
  f0:	3a0e0300 	bcc	380cf8 <__resume0_start+0x380cf8>
  f4:	490b3b0b 	stmdbmi	fp, {r0, r1, r3, r8, r9, fp, ip, sp}
  f8:	3c0c3f13 	stccc	15, cr3, [ip], {19}
  fc:	0000000c 	andeq	r0, r0, ip
 100:	25011101 	strcs	r1, [r1, #-257]	; 0x101
 104:	030b130e 	movweq	r1, #45838	; 0xb30e
 108:	110e1b0e 	tstne	lr, lr, lsl #22
 10c:	10011201 	andne	r1, r1, r1, lsl #4
 110:	02000006 	andeq	r0, r0, #6
 114:	0b0b0024 	bleq	2c01ac <__resume0_start+0x2c01ac>
 118:	0e030b3e 	vmoveq.16	d3[0], r0
 11c:	24030000 	strcs	r0, [r3]
 120:	3e0b0b00 	vmlacc.f64	d0, d11, d0
 124:	0008030b 	andeq	r0, r8, fp, lsl #6
 128:	000f0400 	andeq	r0, pc, r0, lsl #8
 12c:	00000b0b 	andeq	r0, r0, fp, lsl #22
 130:	0b002405 	bleq	914c <__resume0_start+0x914c>
 134:	000b3e0b 	andeq	r3, fp, fp, lsl #28
 138:	012e0600 	teqeq	lr, r0, lsl #12
 13c:	0e030c3f 	mcreq	12, 0, r0, cr3, cr15, {1}
 140:	0b3b0b3a 	bleq	ec2e30 <__resume0_start+0xec2e30>
 144:	01110c27 	tsteq	r1, r7, lsr #24
 148:	0a400112 	beq	1000598 <__resume0_start+0x1000598>
 14c:	00001301 	andeq	r1, r0, r1, lsl #6
 150:	03000507 	movweq	r0, #1287	; 0x507
 154:	3b0b3a0e 	blcc	2ce994 <__resume0_start+0x2ce994>
 158:	0213490b 	andseq	r4, r3, #180224	; 0x2c000
 15c:	0800000a 	stmdaeq	r0, {r1, r3}
 160:	08030005 	stmdaeq	r3, {r0, r2}
 164:	0b3b0b3a 	bleq	ec2e54 <__resume0_start+0xec2e54>
 168:	0a021349 	beq	84e94 <__resume0_start+0x84e94>
 16c:	34090000 	strcc	r0, [r9]
 170:	3a0e0300 	bcc	380d78 <__resume0_start+0x380d78>
 174:	490b3b0b 	stmdbmi	fp, {r0, r1, r3, r8, r9, fp, ip, sp}
 178:	0a000013 	beq	1cc <__resume0_start+0x1cc>
 17c:	0b0b000f 	bleq	2c01c0 <__resume0_start+0x2c01c0>
 180:	00001349 	andeq	r1, r0, r9, asr #6
 184:	00110100 	andseq	r0, r1, r0, lsl #2
 188:	01110610 	tsteq	r1, r0, lsl r6
 18c:	08030112 	stmdaeq	r3, {r1, r4, r8}
 190:	0825081b 	stmdaeq	r5!, {r0, r1, r3, r4, fp}
 194:	00000513 	andeq	r0, r0, r3, lsl r5
 198:	01110100 	tsteq	r1, r0, lsl #2
 19c:	0b130e25 	bleq	4c3a38 <__resume0_start+0x4c3a38>
 1a0:	0e1b0e03 	cdpeq	14, 1, cr0, cr11, cr3, {0}
 1a4:	01120111 	tsteq	r2, r1, lsl r1
 1a8:	00000610 	andeq	r0, r0, r0, lsl r6
 1ac:	0b002402 	bleq	91bc <__resume0_start+0x91bc>
 1b0:	030b3e0b 	movweq	r3, #48651	; 0xbe0b
 1b4:	0300000e 	movweq	r0, #14
 1b8:	0e030016 	mcreq	0, 0, r0, cr3, cr6, {0}
 1bc:	0b3b0b3a 	bleq	ec2eac <__resume0_start+0xec2eac>
 1c0:	00001349 	andeq	r1, r0, r9, asr #6
 1c4:	0b002404 	bleq	91dc <__resume0_start+0x91dc>
 1c8:	030b3e0b 	movweq	r3, #48651	; 0xbe0b
 1cc:	05000008 	streq	r0, [r0, #-8]
 1d0:	0b0b0024 	bleq	2c0268 <__resume0_start+0x2c0268>
 1d4:	00000b3e 	andeq	r0, r0, lr, lsr fp
 1d8:	03011306 	movweq	r1, #4870	; 0x1306
 1dc:	3a0b0b0e 	bcc	2c2e1c <__resume0_start+0x2c2e1c>
 1e0:	010b3b0b 	tsteq	fp, fp, lsl #22
 1e4:	07000013 	smladeq	r0, r3, r0, r0
 1e8:	0e03000d 	cdpeq	0, 0, cr0, cr3, cr13, {0}
 1ec:	0b3b0b3a 	bleq	ec2edc <__resume0_start+0xec2edc>
 1f0:	0b0b1349 	bleq	2c4f1c <__resume0_start+0x2c4f1c>
 1f4:	0b0c0b0d 	bleq	302e30 <__resume0_start+0x302e30>
 1f8:	00000a38 	andeq	r0, r0, r8, lsr sl
 1fc:	03000d08 	movweq	r0, #3336	; 0xd08
 200:	3b0b3a0e 	blcc	2cea40 <__resume0_start+0x2cea40>
 204:	0b134905 	bleq	4d2620 <__resume0_start+0x4d2620>
 208:	0c0b0d0b 	stceq	13, cr0, [fp], {11}
 20c:	000a380b 	andeq	r3, sl, fp, lsl #16
 210:	00160900 	andseq	r0, r6, r0, lsl #18
 214:	0b3a0e03 	bleq	e83a28 <__resume0_start+0xe83a28>
 218:	1349053b 	movtne	r0, #38203	; 0x953b
 21c:	130a0000 	movwne	r0, #40960	; 0xa000
 220:	0b0e0301 	bleq	380e2c <__resume0_start+0x380e2c>
 224:	3b0b3a0b 	blcc	2cea58 <__resume0_start+0x2cea58>
 228:	00130105 	andseq	r0, r3, r5, lsl #2
 22c:	01130b00 	tsteq	r3, r0, lsl #22
 230:	050b0e03 	streq	r0, [fp, #-3587]	; 0xe03
 234:	053b0b3a 	ldreq	r0, [fp, #-2874]!	; 0xb3a
 238:	00001301 	andeq	r1, r0, r1, lsl #6
 23c:	03000d0c 	movweq	r0, #3340	; 0xd0c
 240:	3b0b3a0e 	blcc	2cea80 <__resume0_start+0x2cea80>
 244:	38134905 	ldmdacc	r3, {r0, r2, r8, fp, lr}
 248:	0d00000a 	stceq	0, cr0, [r0, #-40]	; 0xffffffd8
 24c:	13490035 	movtne	r0, #36917	; 0x9035
 250:	010e0000 	tsteq	lr, r0
 254:	01134901 	tsteq	r3, r1, lsl #18
 258:	0f000013 	svceq	0x00000013
 25c:	13490021 	movtne	r0, #36897	; 0x9021
 260:	00000b2f 	andeq	r0, r0, pc, lsr #22
 264:	03000d10 	movweq	r0, #3344	; 0xd10
 268:	3b0b3a0e 	blcc	2ceaa8 <__resume0_start+0x2ceaa8>
 26c:	3813490b 	ldmdacc	r3, {r0, r1, r3, r8, fp, lr}
 270:	1100000a 	tstne	r0, sl
 274:	0e030104 	adfeqs	f0, f3, f4
 278:	0b3a0b0b 	bleq	e82eac <__resume0_start+0xe82eac>
 27c:	13010b3b 	movwne	r0, #6971	; 0x1b3b
 280:	28120000 	ldmdacs	r2, {}
 284:	1c0e0300 	stcne	3, cr0, [lr], {0}
 288:	1300000d 	movwne	r0, #13
 28c:	0e03002e 	cdpeq	0, 0, cr0, cr3, cr14, {1}
 290:	0b3b0b3a 	bleq	ec2f80 <__resume0_start+0xec2f80>
 294:	13490c27 	movtne	r0, #39975	; 0x9c27
 298:	00000b20 	andeq	r0, r0, r0, lsr #22
 29c:	3f012e14 	svccc	0x00012e14
 2a0:	3a0e030c 	bcc	380ed8 <__resume0_start+0x380ed8>
 2a4:	270b3b0b 	strcs	r3, [fp, -fp, lsl #22]
 2a8:	1113490c 	tstne	r3, ip, lsl #18
 2ac:	40011201 	andmi	r1, r1, r1, lsl #4
 2b0:	0013010a 	andseq	r0, r3, sl, lsl #2
 2b4:	00051500 	andeq	r1, r5, r0, lsl #10
 2b8:	0b3a0e03 	bleq	e83acc <__resume0_start+0xe83acc>
 2bc:	13490b3b 	movtne	r0, #39739	; 0x9b3b
 2c0:	00000602 	andeq	r0, r0, r2, lsl #12
 2c4:	03012e16 	movweq	r2, #7702	; 0x1e16
 2c8:	3b0b3a0e 	blcc	2ceb08 <__resume0_start+0x2ceb08>
 2cc:	490c270b 	stmdbmi	ip, {r0, r1, r3, r8, r9, sl, sp}
 2d0:	12011113 	andne	r1, r1, #-1073741820	; 0xc0000004
 2d4:	010a4001 	tsteq	sl, r1
 2d8:	17000013 	smladne	r0, r3, r0, r0
 2dc:	0e030034 	mcreq	0, 0, r0, cr3, cr4, {1}
 2e0:	0b3b0b3a 	bleq	ec2fd0 <__resume0_start+0xec2fd0>
 2e4:	06021349 	streq	r1, [r2], -r9, asr #6
 2e8:	34180000 	ldrcc	r0, [r8]
 2ec:	3a0e0300 	bcc	380ef4 <__resume0_start+0x380ef4>
 2f0:	490b3b0b 	stmdbmi	fp, {r0, r1, r3, r8, r9, fp, ip, sp}
 2f4:	000a0213 	andeq	r0, sl, r3, lsl r2
 2f8:	002e1900 	eoreq	r1, lr, r0, lsl #18
 2fc:	0e030c3f 	mcreq	12, 0, r0, cr3, cr15, {1}
 300:	0b3b0b3a 	bleq	ec2ff0 <__resume0_start+0xec2ff0>
 304:	01110c27 	tsteq	r1, r7, lsr #24
 308:	0a400112 	beq	1000758 <__resume0_start+0x1000758>
 30c:	2e1a0000 	cdpcs	0, 1, cr0, cr10, cr0, {0}
 310:	030c3f01 	movweq	r3, #52993	; 0xcf01
 314:	3b0b3a0e 	blcc	2ceb54 <__resume0_start+0x2ceb54>
 318:	490c270b 	stmdbmi	ip, {r0, r1, r3, r8, r9, sl, sp}
 31c:	12011113 	andne	r1, r1, #-1073741820	; 0xc0000004
 320:	01064001 	tsteq	r6, r1
 324:	1b000013 	blne	378 <__resume0_start+0x378>
 328:	08030005 	stmdaeq	r3, {r0, r2}
 32c:	0b3b0b3a 	bleq	ec301c <__resume0_start+0xec301c>
 330:	06021349 	streq	r1, [r2], -r9, asr #6
 334:	341c0000 	ldrcc	r0, [ip]
 338:	3a0e0300 	bcc	380f40 <__resume0_start+0x380f40>
 33c:	490b3b0b 	stmdbmi	fp, {r0, r1, r3, r8, r9, fp, ip, sp}
 340:	1d000013 	stcne	0, cr0, [r0, #-76]	; 0xffffffb4
 344:	08030034 	stmdaeq	r3, {r2, r4, r5}
 348:	0b3b0b3a 	bleq	ec3038 <__resume0_start+0xec3038>
 34c:	06021349 	streq	r1, [r2], -r9, asr #6
 350:	0a1e0000 	beq	780358 <__resume0_start+0x780358>
 354:	3a0e0300 	bcc	380f5c <__resume0_start+0x380f5c>
 358:	11053b0b 	tstne	r5, fp, lsl #22
 35c:	1f000001 	svcne	0x00000001
 360:	1331001d 	teqne	r1, #29
 364:	01120111 	tsteq	r2, r1, lsl r1
 368:	05590b58 	ldrbeq	r0, [r9, #-2904]	; 0xb58
 36c:	0f200000 	svceq	0x00200000
 370:	490b0b00 	stmdbmi	fp, {r8, r9, fp}
 374:	21000013 	tstcs	r0, r3, lsl r0
 378:	0c3f012e 	ldfeqs	f0, [pc], #-184	; 0xffffff48
 37c:	0b3a0e03 	bleq	e83b90 <__resume0_start+0xe83b90>
 380:	0c27053b 	cfstr32eq	mvfx0, [r7], #-236	; 0xffffff14
 384:	01111349 	tsteq	r1, r9, asr #6
 388:	06400112 	undefined instruction 0x06400112
 38c:	00001301 	andeq	r1, r0, r1, lsl #6
 390:	03000522 	movweq	r0, #1314	; 0x522
 394:	3b0b3a08 	blcc	2cebbc <__resume0_start+0x2cebbc>
 398:	02134905 	andseq	r4, r3, #81920	; 0x14000
 39c:	23000006 	movwcs	r0, #6
 3a0:	0e030005 	cdpeq	0, 0, cr0, cr3, cr5, {0}
 3a4:	053b0b3a 	ldreq	r0, [fp, #-2874]!	; 0xb3a
 3a8:	06021349 	streq	r1, [r2], -r9, asr #6
 3ac:	34240000 	strtcc	r0, [r4]
 3b0:	3a0e0300 	bcc	380fb8 <__resume0_start+0x380fb8>
 3b4:	49053b0b 	stmdbmi	r5, {r0, r1, r3, r8, r9, fp, ip, sp}
 3b8:	25000013 	strcs	r0, [r0, #-19]
 3bc:	0e030034 	mcreq	0, 0, r0, cr3, cr4, {1}
 3c0:	053b0b3a 	ldreq	r0, [fp, #-2874]!	; 0xb3a
 3c4:	06021349 	streq	r1, [r2], -r9, asr #6
 3c8:	34260000 	strtcc	r0, [r6]
 3cc:	3a080300 	bcc	200fd4 <__resume0_start+0x200fd4>
 3d0:	49053b0b 	stmdbmi	r5, {r0, r1, r3, r8, r9, fp, ip, sp}
 3d4:	00060213 	andeq	r0, r6, r3, lsl r2
 3d8:	002e2700 	eoreq	r2, lr, r0, lsl #14
 3dc:	0e030c3f 	mcreq	12, 0, r0, cr3, cr15, {1}
 3e0:	0b3b0b3a 	bleq	ec30d0 <__resume0_start+0xec30d0>
 3e4:	13490c27 	movtne	r0, #39975	; 0x9c27
 3e8:	01120111 	tsteq	r2, r1, lsl r1
 3ec:	00000640 	andeq	r0, r0, r0, asr #12
 3f0:	49002628 	stmdbmi	r0, {r3, r5, r9, sl, sp}
 3f4:	00000013 	andeq	r0, r0, r3, lsl r0
 3f8:	10001101 	andne	r1, r0, r1, lsl #2
 3fc:	12011106 	andne	r1, r1, #-2147483647	; 0x80000001
 400:	1b080301 	blne	20100c <__resume0_start+0x20100c>
 404:	13082508 	movwne	r2, #34056	; 0x8508
 408:	00000005 	andeq	r0, r0, r5
 40c:	25011101 	strcs	r1, [r1, #-257]	; 0x101
 410:	030b130e 	movweq	r1, #45838	; 0xb30e
 414:	110e1b0e 	tstne	lr, lr, lsl #22
 418:	10011201 	andne	r1, r1, r1, lsl #4
 41c:	02000006 	andeq	r0, r0, #6
 420:	0b0b0024 	bleq	2c04b8 <__resume0_start+0x2c04b8>
 424:	0e030b3e 	vmoveq.16	d3[0], r0
 428:	16030000 	strne	r0, [r3], -r0
 42c:	3a0e0300 	bcc	381034 <__resume0_start+0x381034>
 430:	490b3b0b 	stmdbmi	fp, {r0, r1, r3, r8, r9, fp, ip, sp}
 434:	04000013 	streq	r0, [r0], #-19
 438:	0b0b0024 	bleq	2c04d0 <__resume0_start+0x2c04d0>
 43c:	08030b3e 	stmdaeq	r3, {r1, r2, r3, r4, r5, r8, r9, fp}
 440:	13050000 	movwne	r0, #20480	; 0x5000
 444:	0b0e0301 	bleq	381050 <__resume0_start+0x381050>
 448:	3b0b3a0b 	blcc	2cec7c <__resume0_start+0x2cec7c>
 44c:	0013010b 	andseq	r0, r3, fp, lsl #2
 450:	000d0600 	andeq	r0, sp, r0, lsl #12
 454:	0b3a0e03 	bleq	e83c68 <__resume0_start+0xe83c68>
 458:	13490b3b 	movtne	r0, #39739	; 0x9b3b
 45c:	0b0d0b0b 	bleq	343090 <__resume0_start+0x343090>
 460:	0a380b0c 	beq	e03098 <__resume0_start+0xe03098>
 464:	0d070000 	stceq	0, cr0, [r7]
 468:	3a0e0300 	bcc	381070 <__resume0_start+0x381070>
 46c:	490b3b0b 	stmdbmi	fp, {r0, r1, r3, r8, r9, fp, ip, sp}
 470:	000a3813 	andeq	r3, sl, r3, lsl r8
 474:	000d0800 	andeq	r0, sp, r0, lsl #16
 478:	0b3a0803 	bleq	e8248c <__resume0_start+0xe8248c>
 47c:	13490b3b 	movtne	r0, #39739	; 0x9b3b
 480:	00000a38 	andeq	r0, r0, r8, lsr sl
 484:	0b002409 	bleq	94b0 <__resume0_start+0x94b0>
 488:	000b3e0b 	andeq	r3, fp, fp, lsl #28
 48c:	000d0a00 	andeq	r0, sp, r0, lsl #20
 490:	0b3a0e03 	bleq	e83ca4 <__resume0_start+0xe83ca4>
 494:	1349053b 	movtne	r0, #38203	; 0x953b
 498:	0b0d0b0b 	bleq	3430cc <__resume0_start+0x3430cc>
 49c:	0a380b0c 	beq	e030d4 <__resume0_start+0xe030d4>
 4a0:	160b0000 	strne	r0, [fp], -r0
 4a4:	3a0e0300 	bcc	3810ac <__resume0_start+0x3810ac>
 4a8:	49053b0b 	stmdbmi	r5, {r0, r1, r3, r8, r9, fp, ip, sp}
 4ac:	0c000013 	stceq	0, cr0, [r0], {19}
 4b0:	0e030113 	mcreq	1, 0, r0, cr3, cr3, {0}
 4b4:	0b3a0b0b 	bleq	e830e8 <__resume0_start+0xe830e8>
 4b8:	1301053b 	movwne	r0, #5435	; 0x153b
 4bc:	130d0000 	movwne	r0, #53248	; 0xd000
 4c0:	0b0e0301 	bleq	3810cc <__resume0_start+0x3810cc>
 4c4:	3b0b3a05 	blcc	2cece0 <__resume0_start+0x2cece0>
 4c8:	00130105 	andseq	r0, r3, r5, lsl #2
 4cc:	000d0e00 	andeq	r0, sp, r0, lsl #28
 4d0:	0b3a0e03 	bleq	e83ce4 <__resume0_start+0xe83ce4>
 4d4:	1349053b 	movtne	r0, #38203	; 0x953b
 4d8:	00000a38 	andeq	r0, r0, r8, lsr sl
 4dc:	4900350f 	stmdbmi	r0, {r0, r1, r2, r3, r8, sl, ip, sp}
 4e0:	10000013 	andne	r0, r0, r3, lsl r0
 4e4:	13490101 	movtne	r0, #37121	; 0x9101
 4e8:	00001301 	andeq	r1, r0, r1, lsl #6
 4ec:	49002111 	stmdbmi	r0, {r0, r4, r8, sp}
 4f0:	000b2f13 	andeq	r2, fp, r3, lsl pc
 4f4:	002e1200 	eoreq	r1, lr, r0, lsl #4
 4f8:	0e030c3f 	mcreq	12, 0, r0, cr3, cr15, {1}
 4fc:	0b3b0b3a 	bleq	ec31ec <__resume0_start+0xec31ec>
 500:	13490c27 	movtne	r0, #39975	; 0x9c27
 504:	01120111 	tsteq	r2, r1, lsl r1
 508:	00000a40 	andeq	r0, r0, r0, asr #20
 50c:	3f012e13 	svccc	0x00012e13
 510:	3a0e030c 	bcc	381148 <__resume0_start+0x381148>
 514:	270b3b0b 	strcs	r3, [fp, -fp, lsl #22]
 518:	1113490c 	tstne	r3, ip, lsl #18
 51c:	40011201 	andmi	r1, r1, r1, lsl #4
 520:	0013010a 	andseq	r0, r3, sl, lsl #2
 524:	00051400 	andeq	r1, r5, r0, lsl #8
 528:	0b3a0e03 	bleq	e83d3c <__resume0_start+0xe83d3c>
 52c:	13490b3b 	movtne	r0, #39739	; 0x9b3b
 530:	00000602 	andeq	r0, r0, r2, lsl #12
 534:	0b000f15 	bleq	4190 <__resume0_start+0x4190>
 538:	0013490b 	andseq	r4, r3, fp, lsl #18
 53c:	012e1600 	teqeq	lr, r0, lsl #12
 540:	0e030c3f 	mcreq	12, 0, r0, cr3, cr15, {1}
 544:	0b3b0b3a 	bleq	ec3234 <__resume0_start+0xec3234>
 548:	01110c27 	tsteq	r1, r7, lsr #24
 54c:	0a400112 	beq	100099c <__resume0_start+0x100099c>
 550:	00001301 	andeq	r1, r0, r1, lsl #6
 554:	03000517 	movweq	r0, #1303	; 0x517
 558:	3b0b3a0e 	blcc	2ced98 <__resume0_start+0x2ced98>
 55c:	0213490b 	andseq	r4, r3, #180224	; 0x2c000
 560:	1800000a 	stmdane	r0, {r1, r3}
 564:	0e030034 	mcreq	0, 0, r0, cr3, cr4, {1}
 568:	0b3b0b3a 	bleq	ec3258 <__resume0_start+0xec3258>
 56c:	0a021349 	beq	85298 <__resume0_start+0x85298>
 570:	34190000 	ldrcc	r0, [r9]
 574:	3a0e0300 	bcc	38117c <__resume0_start+0x38117c>
 578:	490b3b0b 	stmdbmi	fp, {r0, r1, r3, r8, r9, fp, ip, sp}
 57c:	020c3f13 	andeq	r3, ip, #76	; 0x4c
 580:	0000000a 	andeq	r0, r0, sl
 584:	25011101 	strcs	r1, [r1, #-257]	; 0x101
 588:	030b130e 	movweq	r1, #45838	; 0xb30e
 58c:	110e1b0e 	tstne	lr, lr, lsl #22
 590:	10011201 	andne	r1, r1, r1, lsl #4
 594:	02000006 	andeq	r0, r0, #6
 598:	0b0b0024 	bleq	2c0630 <__resume0_start+0x2c0630>
 59c:	0e030b3e 	vmoveq.16	d3[0], r0
 5a0:	16030000 	strne	r0, [r3], -r0
 5a4:	3a0e0300 	bcc	3811ac <__resume0_start+0x3811ac>
 5a8:	490b3b0b 	stmdbmi	fp, {r0, r1, r3, r8, r9, fp, ip, sp}
 5ac:	04000013 	streq	r0, [r0], #-19
 5b0:	0b0b0024 	bleq	2c0648 <__resume0_start+0x2c0648>
 5b4:	08030b3e 	stmdaeq	r3, {r1, r2, r3, r4, r5, r8, r9, fp}
 5b8:	24050000 	strcs	r0, [r5]
 5bc:	3e0b0b00 	vmlacc.f64	d0, d11, d0
 5c0:	0600000b 	streq	r0, [r0], -fp
 5c4:	0c3f012e 	ldfeqs	f0, [pc], #-184	; 0xffffff48
 5c8:	0b3a0e03 	bleq	e83ddc <__resume0_start+0xe83ddc>
 5cc:	0c270b3b 	stceq	11, cr0, [r7], #-236	; 0xffffff14
 5d0:	0b201349 	bleq	8052fc <__resume0_start+0x8052fc>
 5d4:	00001301 	andeq	r1, r0, r1, lsl #6
 5d8:	03003407 	movweq	r3, #1031	; 0x407
 5dc:	3b0b3a0e 	blcc	2cee1c <__resume0_start+0x2cee1c>
 5e0:	0013490b 	andseq	r4, r3, fp, lsl #18
 5e4:	012e0800 	teqeq	lr, r0, lsl #16
 5e8:	0b3a0e03 	bleq	e83dfc <__resume0_start+0xe83dfc>
 5ec:	0c270b3b 	stceq	11, cr0, [r7], #-236	; 0xffffff14
 5f0:	0b201349 	bleq	80531c <__resume0_start+0x80531c>
 5f4:	00001301 	andeq	r1, r0, r1, lsl #6
 5f8:	03000509 	movweq	r0, #1289	; 0x509
 5fc:	3b0b3a0e 	blcc	2cee3c <__resume0_start+0x2cee3c>
 600:	0013490b 	andseq	r4, r3, fp, lsl #18
 604:	012e0a00 	teqeq	lr, r0, lsl #20
 608:	0e030c3f 	mcreq	12, 0, r0, cr3, cr15, {1}
 60c:	0b3b0b3a 	bleq	ec32fc <__resume0_start+0xec32fc>
 610:	01110c27 	tsteq	r1, r7, lsr #24
 614:	06400112 	undefined instruction 0x06400112
 618:	00001301 	andeq	r1, r0, r1, lsl #6
 61c:	0300340b 	movweq	r3, #1035	; 0x40b
 620:	3b0b3a0e 	blcc	2cee60 <__resume0_start+0x2cee60>
 624:	0213490b 	andseq	r4, r3, #180224	; 0x2c000
 628:	0c000006 	stceq	0, cr0, [r0], {6}
 62c:	13490035 	movtne	r0, #36917	; 0x9035
 630:	2e0d0000 	cdpcs	0, 0, cr0, cr13, cr0, {0}
 634:	030c3f01 	movweq	r3, #52993	; 0xcf01
 638:	3b0b3a0e 	blcc	2cee78 <__resume0_start+0x2cee78>
 63c:	110c270b 	tstne	ip, fp, lsl #14
 640:	40011201 	andmi	r1, r1, r1, lsl #4
 644:	0013010a 	andseq	r0, r3, sl, lsl #2
 648:	00340e00 	eorseq	r0, r4, r0, lsl #28
 64c:	0b3a0e03 	bleq	e83e60 <__resume0_start+0xe83e60>
 650:	13490b3b 	movtne	r0, #39739	; 0x9b3b
 654:	00000a02 	andeq	r0, r0, r2, lsl #20
 658:	0300050f 	movweq	r0, #1295	; 0x50f
 65c:	3b0b3a08 	blcc	2cee84 <__resume0_start+0x2cee84>
 660:	0213490b 	andseq	r4, r3, #180224	; 0x2c000
 664:	1000000a 	andne	r0, r0, sl
 668:	0c3f002e 	ldceq	0, cr0, [pc], #-184	; 0xffffff48
 66c:	0b3a0e03 	bleq	e83e80 <__resume0_start+0xe83e80>
 670:	0c270b3b 	stceq	11, cr0, [r7], #-236	; 0xffffff14
 674:	01111349 	tsteq	r1, r9, asr #6
 678:	0a400112 	beq	1000ac8 <__resume0_start+0x1000ac8>
 67c:	2e110000 	cdpcs	0, 1, cr0, cr1, cr0, {0}
 680:	030c3f01 	movweq	r3, #52993	; 0xcf01
 684:	3b0b3a0e 	blcc	2ceec4 <__resume0_start+0x2ceec4>
 688:	490c270b 	stmdbmi	ip, {r0, r1, r3, r8, r9, sl, sp}
 68c:	12011113 	andne	r1, r1, #-1073741820	; 0xc0000004
 690:	01064001 	tsteq	r6, r1
 694:	12000013 	andne	r0, r0, #19
 698:	08030005 	stmdaeq	r3, {r0, r2}
 69c:	0b3b0b3a 	bleq	ec338c <__resume0_start+0xec338c>
 6a0:	06021349 	streq	r1, [r2], -r9, asr #6
 6a4:	34130000 	ldrcc	r0, [r3]
 6a8:	3a080300 	bcc	2012b0 <__resume0_start+0x2012b0>
 6ac:	490b3b0b 	stmdbmi	fp, {r0, r1, r3, r8, r9, fp, ip, sp}
 6b0:	00060213 	andeq	r0, r6, r3, lsl r2
 6b4:	012e1400 	teqeq	lr, r0, lsl #8
 6b8:	01111331 	tsteq	r1, r1, lsr r3
 6bc:	0a400112 	beq	1000b0c <__resume0_start+0x1000b0c>
 6c0:	00001301 	andeq	r1, r0, r1, lsl #6
 6c4:	31003415 	tstcc	r0, r5, lsl r4
 6c8:	00060213 	andeq	r0, r6, r3, lsl r2
 6cc:	002e1600 	eoreq	r1, lr, r0, lsl #12
 6d0:	0e030c3f 	mcreq	12, 0, r0, cr3, cr15, {1}
 6d4:	0b3b0b3a 	bleq	ec33c4 <__resume0_start+0xec33c4>
 6d8:	01110c27 	tsteq	r1, r7, lsr #24
 6dc:	0a400112 	beq	1000b2c <__resume0_start+0x1000b2c>
 6e0:	05170000 	ldreq	r0, [r7]
 6e4:	3a0e0300 	bcc	3812ec <__resume0_start+0x3812ec>
 6e8:	490b3b0b 	stmdbmi	fp, {r0, r1, r3, r8, r9, fp, ip, sp}
 6ec:	00060213 	andeq	r0, r6, r3, lsl r2
 6f0:	00051800 	andeq	r1, r5, r0, lsl #16
 6f4:	0b3a0e03 	bleq	e83f08 <__resume0_start+0xe83f08>
 6f8:	13490b3b 	movtne	r0, #39739	; 0x9b3b
 6fc:	00000a02 	andeq	r0, r0, r2, lsl #20
 700:	31011d19 	tstcc	r1, r9, lsl sp
 704:	12011113 	andne	r1, r1, #-1073741820	; 0xc0000004
 708:	590b5801 	stmdbpl	fp, {r0, fp, ip, lr}
 70c:	0013010b 	andseq	r0, r3, fp, lsl #2
 710:	010b1a00 	tsteq	fp, r0, lsl #20
 714:	01120111 	tsteq	r2, r1, lsl r1
 718:	341b0000 	ldrcc	r0, [fp]
 71c:	00133100 	andseq	r3, r3, r0, lsl #2
 720:	011d1c00 	tsteq	sp, r0, lsl #24
 724:	01521331 	cmpeq	r2, r1, lsr r3
 728:	0b580655 	bleq	1602084 <__resume0_start+0x1602084>
 72c:	00000b59 	andeq	r0, r0, r9, asr fp
 730:	3100051d 	tstcc	r0, sp, lsl r5
 734:	1e000013 	mcrne	0, 0, r0, cr0, cr3, {0}
 738:	13310005 	teqne	r1, #5
 73c:	00000a02 	andeq	r0, r0, r2, lsl #20
 740:	55010b1f 	strpl	r0, [r1, #-2847]	; 0xb1f
 744:	20000006 	andcs	r0, r0, r6
 748:	13310034 	teqne	r1, #52	; 0x34
 74c:	00000a02 	andeq	r0, r0, r2, lsl #20
 750:	31011d21 	tstcc	r1, r1, lsr #26
 754:	12011113 	andne	r1, r1, #-1073741820	; 0xc0000004
 758:	590b5801 	stmdbpl	fp, {r0, fp, ip, lr}
 75c:	2200000b 	andcs	r0, r0, #11
 760:	0c3f012e 	ldfeqs	f0, [pc], #-184	; 0xffffff48
 764:	0b3a0e03 	bleq	e83f78 <__resume0_start+0xe83f78>
 768:	0c27053b 	cfstr32eq	mvfx0, [r7], #-236	; 0xffffff14
 76c:	01120111 	tsteq	r2, r1, lsl r1
 770:	13010a40 	movwne	r0, #6720	; 0x1a40
 774:	05230000 	streq	r0, [r3]!
 778:	3a080300 	bcc	201380 <__resume0_start+0x201380>
 77c:	49053b0b 	stmdbmi	r5, {r0, r1, r3, r8, r9, fp, ip, sp}
 780:	00060213 	andeq	r0, r6, r3, lsl r2
 784:	002e2400 	eoreq	r2, lr, r0, lsl #8
 788:	0e030c3f 	mcreq	12, 0, r0, cr3, cr15, {1}
 78c:	053b0b3a 	ldreq	r0, [fp, #-2874]!	; 0xb3a
 790:	01110c27 	tsteq	r1, r7, lsr #24
 794:	0a400112 	beq	1000be4 <__resume0_start+0x1000be4>
 798:	34250000 	strtcc	r0, [r5]
 79c:	3a0e0300 	bcc	3813a4 <__resume0_start+0x3813a4>
 7a0:	49053b0b 	stmdbmi	r5, {r0, r1, r3, r8, r9, fp, ip, sp}
 7a4:	000a0213 	andeq	r0, sl, r3, lsl r2
 7a8:	012e2600 	teqeq	lr, r0, lsl #12
 7ac:	0e030c3f 	mcreq	12, 0, r0, cr3, cr15, {1}
 7b0:	053b0b3a 	ldreq	r0, [fp, #-2874]!	; 0xb3a
 7b4:	01110c27 	tsteq	r1, r7, lsr #24
 7b8:	06400112 	undefined instruction 0x06400112
 7bc:	00001301 	andeq	r1, r0, r1, lsl #6
 7c0:	03003427 	movweq	r3, #1063	; 0x427
 7c4:	3b0b3a0e 	blcc	2cf004 <__resume0_start+0x2cf004>
 7c8:	02134905 	andseq	r4, r3, #81920	; 0x14000
 7cc:	00000006 	andeq	r0, r0, r6
 7d0:	10001101 	andne	r1, r0, r1, lsl #2
 7d4:	12011106 	andne	r1, r1, #-2147483647	; 0x80000001
 7d8:	1b080301 	blne	2013e4 <__resume0_start+0x2013e4>
 7dc:	13082508 	movwne	r2, #34056	; 0x8508
 7e0:	00000005 	andeq	r0, r0, r5
 7e4:	25011101 	strcs	r1, [r1, #-257]	; 0x101
 7e8:	030b130e 	movweq	r1, #45838	; 0xb30e
 7ec:	110e1b0e 	tstne	lr, lr, lsl #22
 7f0:	10011201 	andne	r1, r1, r1, lsl #4
 7f4:	02000006 	andeq	r0, r0, #6
 7f8:	0b0b0024 	bleq	2c0890 <__resume0_start+0x2c0890>
 7fc:	0e030b3e 	vmoveq.16	d3[0], r0
 800:	24030000 	strcs	r0, [r3]
 804:	3e0b0b00 	vmlacc.f64	d0, d11, d0
 808:	0008030b 	andeq	r0, r8, fp, lsl #6
 80c:	00160400 	andseq	r0, r6, r0, lsl #8
 810:	0b3a0e03 	bleq	e84024 <__resume0_start+0xe84024>
 814:	13490b3b 	movtne	r0, #39739	; 0x9b3b
 818:	24050000 	strcs	r0, [r5]
 81c:	3e0b0b00 	vmlacc.f64	d0, d11, d0
 820:	0600000b 	streq	r0, [r0], -fp
 824:	0e030113 	mcreq	1, 0, r0, cr3, cr3, {0}
 828:	0b3a0b0b 	bleq	e8345c <__resume0_start+0xe8345c>
 82c:	13010b3b 	movwne	r0, #6971	; 0x1b3b
 830:	0d070000 	stceq	0, cr0, [r7]
 834:	3a0e0300 	bcc	38143c <__resume0_start+0x38143c>
 838:	490b3b0b 	stmdbmi	fp, {r0, r1, r3, r8, r9, fp, ip, sp}
 83c:	000a3813 	andeq	r3, sl, r3, lsl r8
 840:	000d0800 	andeq	r0, sp, r0, lsl #16
 844:	0b3a0803 	bleq	e82858 <__resume0_start+0xe82858>
 848:	13490b3b 	movtne	r0, #39739	; 0x9b3b
 84c:	00000a38 	andeq	r0, r0, r8, lsr sl
 850:	3f012e09 	svccc	0x00012e09
 854:	3a0e030c 	bcc	38148c <__resume0_start+0x38148c>
 858:	270b3b0b 	strcs	r3, [fp, -fp, lsl #22]
 85c:	1201110c 	andne	r1, r1, #3
 860:	010a4001 	tsteq	sl, r1
 864:	0a000013 	beq	8b8 <__resume0_start+0x8b8>
 868:	0e030005 	cdpeq	0, 0, cr0, cr3, cr5, {0}
 86c:	0b3b0b3a 	bleq	ec355c <__resume0_start+0xec355c>
 870:	0a021349 	beq	8559c <__resume0_start+0x8559c>
 874:	0f0b0000 	svceq	0x000b0000
 878:	490b0b00 	stmdbmi	fp, {r8, r9, fp}
 87c:	0c000013 	stceq	0, cr0, [r0], {19}
 880:	0c3f012e 	ldfeqs	f0, [pc], #-184	; 0xffffff48
 884:	0b3a0e03 	bleq	e84098 <__resume0_start+0xe84098>
 888:	0c27053b 	cfstr32eq	mvfx0, [r7], #-236	; 0xffffff14
 88c:	01120111 	tsteq	r2, r1, lsl r1
 890:	13010a40 	movwne	r0, #6720	; 0x1a40
 894:	050d0000 	streq	r0, [sp]
 898:	3a0e0300 	bcc	3814a0 <__resume0_start+0x3814a0>
 89c:	49053b0b 	stmdbmi	r5, {r0, r1, r3, r8, r9, fp, ip, sp}
 8a0:	000a0213 	andeq	r0, sl, r3, lsl r2
 8a4:	00340e00 	eorseq	r0, r4, r0, lsl #28
 8a8:	0b3a0803 	bleq	e828bc <__resume0_start+0xe828bc>
 8ac:	1349053b 	movtne	r0, #38203	; 0x953b
 8b0:	00000a02 	andeq	r0, r0, r2, lsl #20
 8b4:	0300340f 	movweq	r3, #1039	; 0x40f
 8b8:	3b0b3a0e 	blcc	2cf0f8 <__resume0_start+0x2cf0f8>
 8bc:	00134905 	andseq	r4, r3, r5, lsl #18
 8c0:	00341000 	eorseq	r1, r4, r0
 8c4:	0b3a0e03 	bleq	e840d8 <__resume0_start+0xe840d8>
 8c8:	13490b3b 	movtne	r0, #39739	; 0x9b3b
 8cc:	00000a1c 	andeq	r0, r0, ip, lsl sl
 8d0:	49002611 	stmdbmi	r0, {r0, r4, r9, sl, sp}
 8d4:	00000013 	andeq	r0, r0, r3, lsl r0

Disassembly of section .debug_info:

00000000 <.debug_info>:
       0:	000005df 	ldrdeq	r0, [r0], -pc
       4:	00000002 	andeq	r0, r0, r2
       8:	01040000 	tsteq	r4, r0
       c:	00000055 	andeq	r0, r0, r5, asr r0
      10:	00030b01 	andeq	r0, r3, r1, lsl #22
      14:	00024800 	andeq	r4, r2, r0, lsl #16
      18:	10000000 	andne	r0, r0, r0
      1c:	1000c840 	andne	ip, r0, r0, asr #16
      20:	00000040 	andeq	r0, r0, r0, asr #32
      24:	06010200 	streq	r0, [r1], -r0, lsl #4
      28:	00000169 	andeq	r0, r0, r9, ror #2
      2c:	00029403 	andeq	r9, r2, r3, lsl #8
      30:	370f0200 	strcc	r0, [pc, -r0, lsl #4]
      34:	02000000 	andeq	r0, r0, #0
      38:	01670801 	cmneq	r7, r1, lsl #16
      3c:	02020000 	andeq	r0, r2, #0
      40:	00006105 	andeq	r6, r0, r5, lsl #2
      44:	07020200 	streq	r0, [r2, -r0, lsl #4]
      48:	00000218 	andeq	r0, r0, r8, lsl r2
      4c:	0001bd03 	andeq	fp, r1, r3, lsl #26
      50:	57120200 	ldrpl	r0, [r2, -r0, lsl #4]
      54:	04000000 	streq	r0, [r0]
      58:	6e690504 	cdpvs	5, 6, cr0, cr9, cr4, {0}
      5c:	d2030074 	andle	r0, r3, #116	; 0x74
      60:	02000000 	andeq	r0, r0, #0
      64:	00006913 	andeq	r6, r0, r3, lsl r9
      68:	07040200 	streq	r0, [r4, -r0, lsl #4]
      6c:	000001f4 	strdeq	r0, [r0], -r4
      70:	f5050802 	undefined instruction 0xf5050802
      74:	02000000 	andeq	r0, r0, #0
      78:	01ea0708 	mvneq	r0, r8, lsl #14
      7c:	59050000 	stmdbpl	r5, {}
      80:	c4000001 	strgt	r0, [r0], #-1
      84:	03491b03 	movteq	r1, #39683	; 0x9b03
      88:	94060000 	strls	r0, [r6]
      8c:	03000000 	movweq	r0, #0
      90:	00005e20 	andeq	r5, r0, r0, lsr #28
      94:	00230200 	eoreq	r0, r3, r0, lsl #4
      98:	00726307 	rsbseq	r6, r2, r7, lsl #6
      9c:	005e2303 	subseq	r2, lr, r3, lsl #6
      a0:	23020000 	movwcs	r0, #8192	; 0x2000
      a4:	63610704 	cmnvs	r1, #1048576	; 0x100000
      a8:	24030072 	strcs	r0, [r3], #-114	; 0x72
      ac:	0000005e 	andeq	r0, r0, lr, asr r0
      b0:	06082302 	streq	r2, [r8], -r2, lsl #6
      b4:	00000332 	andeq	r0, r0, r2, lsr r3
      b8:	005e2503 	subseq	r2, lr, r3, lsl #10
      bc:	23020000 	movwcs	r0, #8192	; 0x2000
      c0:	0026060c 	eoreq	r0, r6, ip, lsl #12
      c4:	26030000 	strcs	r0, [r3], -r0
      c8:	0000005e 	andeq	r0, r0, lr, asr r0
      cc:	06102302 	ldreq	r2, [r0], -r2, lsl #6
      d0:	000000a6 	andeq	r0, r0, r6, lsr #1
      d4:	005e2703 	subseq	r2, lr, r3, lsl #14
      d8:	23020000 	movwcs	r0, #8192	; 0x2000
      dc:	02330614 	eorseq	r0, r3, #20971520	; 0x1400000
      e0:	28030000 	stmdacs	r3, {}
      e4:	0000005e 	andeq	r0, r0, lr, asr r0
      e8:	06182302 	ldreq	r2, [r8], -r2, lsl #6
      ec:	00000121 	andeq	r0, r0, r1, lsr #2
      f0:	005e3203 	subseq	r3, lr, r3, lsl #4
      f4:	23020000 	movwcs	r0, #8192	; 0x2000
      f8:	02cd061c 	sbceq	r0, sp, #29360128	; 0x1c00000
      fc:	33030000 	movwcc	r0, #12288	; 0x3000
     100:	0000005e 	andeq	r0, r0, lr, asr r0
     104:	06202302 	strteq	r2, [r0], -r2, lsl #6
     108:	000002f5 	strdeq	r0, [r0], -r5
     10c:	005e3403 	subseq	r3, lr, r3, lsl #8
     110:	23020000 	movwcs	r0, #8192	; 0x2000
     114:	00cd0624 	sbceq	r0, sp, r4, lsr #12
     118:	36030000 	strcc	r0, [r3], -r0
     11c:	0000005e 	andeq	r0, r0, lr, asr r0
     120:	06282302 	strteq	r2, [r8], -r2, lsl #6
     124:	0000004f 	andeq	r0, r0, pc, asr #32
     128:	005e3803 	subseq	r3, lr, r3, lsl #16
     12c:	23020000 	movwcs	r0, #8192	; 0x2000
     130:	02ea062c 	rsceq	r0, sl, #46137344	; 0x2c00000
     134:	39030000 	stmdbcc	r3, {}
     138:	0000005e 	andeq	r0, r0, lr, asr r0
     13c:	06302302 	ldrteq	r2, [r0], -r2, lsl #6
     140:	00000152 	andeq	r0, r0, r2, asr r1
     144:	005e3a03 	subseq	r3, lr, r3, lsl #20
     148:	23020000 	movwcs	r0, #8192	; 0x2000
     14c:	03040634 	movweq	r0, #17972	; 0x4634
     150:	3b030000 	blcc	c0158 <__resume0_start+0xc0158>
     154:	0000005e 	andeq	r0, r0, lr, asr r0
     158:	06382302 	ldrteq	r2, [r8], -r2, lsl #6
     15c:	000000d8 	ldrdeq	r0, [r0], -r8
     160:	005e3d03 	subseq	r3, lr, r3, lsl #26
     164:	23020000 	movwcs	r0, #8192	; 0x2000
     168:	0018063c 	andseq	r0, r8, ip, lsr r6
     16c:	3e030000 	cdpcc	0, 0, cr0, cr3, cr0, {0}
     170:	0000005e 	andeq	r0, r0, lr, asr r0
     174:	07402302 	strbeq	r2, [r0, -r2, lsl #6]
     178:	00726170 	rsbseq	r6, r2, r0, ror r1
     17c:	005e4003 	subseq	r4, lr, r3
     180:	23020000 	movwcs	r0, #8192	; 0x2000
     184:	029e0644 	addseq	r0, lr, #71303168	; 0x4400000
     188:	42030000 	andmi	r0, r3, #0
     18c:	0000005e 	andeq	r0, r0, lr, asr r0
     190:	06482302 	strbeq	r2, [r8], -r2, lsl #6
     194:	000002a9 	andeq	r0, r0, r9, lsr #5
     198:	005e4303 	subseq	r4, lr, r3, lsl #6
     19c:	23020000 	movwcs	r0, #8192	; 0x2000
     1a0:	01e5064c 	mvneq	r0, ip, asr #12
     1a4:	44030000 	strmi	r0, [r3]
     1a8:	0000005e 	andeq	r0, r0, lr, asr r0
     1ac:	06502302 	ldrbeq	r2, [r0], -r2, lsl #6
     1b0:	00000299 	muleq	r0, r9, r2
     1b4:	005e4503 	subseq	r4, lr, r3, lsl #10
     1b8:	23020000 	movwcs	r0, #8192	; 0x2000
     1bc:	69730754 	ldmdbvs	r3!, {r2, r4, r6, r8, r9, sl}^
     1c0:	47030072 	smlsdxmi	r3, r2, r0, r0
     1c4:	0000005e 	andeq	r0, r0, lr, asr r0
     1c8:	06582302 	ldrbeq	r2, [r8], -r2, lsl #6
     1cc:	00000128 	andeq	r0, r0, r8, lsr #2
     1d0:	005e4903 	subseq	r4, lr, r3, lsl #18
     1d4:	23020000 	movwcs	r0, #8192	; 0x2000
     1d8:	6363075c 	cmnvs	r3, #24117248	; 0x1700000
     1dc:	4a030072 	bmi	c03ac <__resume0_start+0xc03ac>
     1e0:	0000005e 	andeq	r0, r0, lr, asr r0
     1e4:	07602302 	strbeq	r2, [r0, -r2, lsl #6]!
     1e8:	00727365 	rsbseq	r7, r2, r5, ror #6
     1ec:	005e4b03 	subseq	r4, lr, r3, lsl #22
     1f0:	23020000 	movwcs	r0, #8192	; 0x2000
     1f4:	02fb0664 	rscseq	r0, fp, #104857600	; 0x6400000
     1f8:	4c030000 	stcmi	0, cr0, [r3], {0}
     1fc:	0000005e 	andeq	r0, r0, lr, asr r0
     200:	07682302 	strbeq	r2, [r8, -r2, lsl #6]!
     204:	00726575 	rsbseq	r6, r2, r5, ror r5
     208:	005e4d03 	subseq	r4, lr, r3, lsl #26
     20c:	23020000 	movwcs	r0, #8192	; 0x2000
     210:	0103066c 	tsteq	r3, ip, ror #12
     214:	4e030000 	cdpmi	0, 0, cr0, cr3, cr0, {0}
     218:	0000005e 	andeq	r0, r0, lr, asr r0
     21c:	06702302 	ldrbteq	r2, [r0], -r2, lsl #6
     220:	00000201 	andeq	r0, r0, r1, lsl #4
     224:	005e4f03 	subseq	r4, lr, r3, lsl #30
     228:	23020000 	movwcs	r0, #8192	; 0x2000
     22c:	02810674 	addeq	r0, r1, #121634816	; 0x7400000
     230:	51030000 	tstpl	r3, r0
     234:	0000005e 	andeq	r0, r0, lr, asr r0
     238:	06782302 	ldrbteq	r2, [r8], -r2, lsl #6
     23c:	000000c1 	andeq	r0, r0, r1, asr #1
     240:	005e5203 	subseq	r5, lr, r3, lsl #4
     244:	23020000 	movwcs	r0, #8192	; 0x2000
     248:	0287067c 	addeq	r0, r7, #130023424	; 0x7c00000
     24c:	56030000 	strpl	r0, [r3], -r0
     250:	0000005e 	andeq	r0, r0, lr, asr r0
     254:	01802303 	orreq	r2, r0, r3, lsl #6
     258:	00019306 	andeq	r9, r1, r6, lsl #6
     25c:	5e580300 	cdppl	3, 5, cr0, cr8, cr0, {0}
     260:	03000000 	movweq	r0, #0
     264:	06018423 	streq	r8, [r1], -r3, lsr #8
     268:	00000175 	andeq	r0, r0, r5, ror r1
     26c:	005e5a03 	subseq	r5, lr, r3, lsl #20
     270:	23030000 	movwcs	r0, #12288	; 0x3000
     274:	f0060188 	undefined instruction 0xf0060188
     278:	03000002 	movweq	r0, #2
     27c:	00005e5b 	andeq	r5, r0, fp, asr lr
     280:	8c230300 	stchi	3, cr0, [r3]
     284:	013f0601 	teqeq	pc, r1, lsl #12
     288:	5e030000 	cdppl	0, 0, cr0, cr3, cr0, {0}
     28c:	0000005e 	andeq	r0, r0, lr, asr r0
     290:	01902303 	orrseq	r2, r0, r3, lsl #6
     294:	00032406 	andeq	r2, r3, r6, lsl #8
     298:	5e5f0300 	cdppl	3, 5, cr0, cr15, cr0, {0}
     29c:	03000000 	movweq	r0, #0
     2a0:	06019423 	streq	r9, [r1], -r3, lsr #8
     2a4:	000001c3 	andeq	r0, r0, r3, asr #3
     2a8:	005e6003 	subseq	r6, lr, r3
     2ac:	23030000 	movwcs	r0, #12288	; 0x3000
     2b0:	b9060198 	stmdblt	r6, {r3, r4, r7, r8}
     2b4:	03000000 	movweq	r0, #0
     2b8:	00005e61 	andeq	r5, r0, r1, ror #28
     2bc:	9c230300 	stcls	3, cr0, [r3]
     2c0:	02e20601 	rsceq	r0, r2, #1048576	; 0x100000
     2c4:	62030000 	andvs	r0, r3, #0
     2c8:	0000005e 	andeq	r0, r0, lr, asr r0
     2cc:	01a02303 	lsleq	r2, r3, #6
     2d0:	00022b06 	andeq	r2, r2, r6, lsl #22
     2d4:	5e630300 	cdppl	3, 6, cr0, cr3, cr0, {0}
     2d8:	03000000 	movweq	r0, #0
     2dc:	0601a423 	streq	sl, [r1], -r3, lsr #8
     2e0:	00000206 	andeq	r0, r0, r6, lsl #4
     2e4:	005e6703 	subseq	r6, lr, r3, lsl #14
     2e8:	23030000 	movwcs	r0, #12288	; 0x3000
     2ec:	7b0601a8 	blvc	180994 <__resume0_start+0x180994>
     2f0:	03000000 	movweq	r0, #0
     2f4:	00005e68 	andeq	r5, r0, r8, ror #28
     2f8:	ac230300 	stcge	3, cr0, [r3]
     2fc:	028f0601 	addeq	r0, pc, #1048576	; 0x100000
     300:	70030000 	andvc	r0, r3, r0
     304:	0000005e 	andeq	r0, r0, lr, asr r0
     308:	01b02303 	lslseq	r2, r3, #6
     30c:	64696307 	strbtvs	r6, [r9], #-775	; 0x307
     310:	5e710300 	cdppl	3, 7, cr0, cr1, cr0, {0}
     314:	03000000 	movweq	r0, #0
     318:	0601b423 	streq	fp, [r1], -r3, lsr #8
     31c:	0000019b 	muleq	r0, fp, r1
     320:	005e7203 	subseq	r7, lr, r3, lsl #4
     324:	23030000 	movwcs	r0, #12288	; 0x3000
     328:	400601b8 	undefined instruction 0x400601b8
     32c:	03000002 	movweq	r0, #2
     330:	00005e73 	andeq	r5, r0, r3, ror lr
     334:	bc230300 	stclt	3, cr0, [r3]
     338:	032b0601 	teqeq	fp, #1048576	; 0x100000
     33c:	74030000 	strvc	r0, [r3]
     340:	0000005e 	andeq	r0, r0, lr, asr r0
     344:	01c02303 	biceq	r2, r0, r3, lsl #6
     348:	00850500 	addeq	r0, r5, r0, lsl #10
     34c:	04040000 	streq	r0, [r4]
     350:	0003ab11 	andeq	sl, r3, r1, lsl fp
     354:	001e0800 	andseq	r0, lr, r0, lsl #16
     358:	12040000 	andne	r0, r4, #0
     35c:	0000005e 	andeq	r0, r0, lr, asr r0
     360:	021c0404 	andseq	r0, ip, #67108864	; 0x4000000
     364:	b1080023 	tstlt	r8, r3, lsr #32
     368:	04000000 	streq	r0, [r0]
     36c:	00005e13 	andeq	r5, r0, r3, lsl lr
     370:	18040400 	stmdane	r4, {sl}
     374:	08002302 	stmdaeq	r0, {r1, r8, r9, sp}
     378:	00000108 	andeq	r0, r0, r8, lsl #2
     37c:	005e1404 	subseq	r1, lr, r4, lsl #8
     380:	04040000 	streq	r0, [r4]
     384:	00230214 	eoreq	r0, r3, r4, lsl r2
     388:	0000de08 	andeq	sp, r0, r8, lsl #28
     38c:	5e150400 	cfmulspl	mvf0, mvf5, mvf0
     390:	04000000 	streq	r0, [r0]
     394:	23021004 	movwcs	r1, #8196	; 0x2004
     398:	01180800 	tsteq	r8, r0, lsl #16
     39c:	16040000 	strne	r0, [r4], -r0
     3a0:	0000005e 	andeq	r0, r0, lr, asr r0
     3a4:	02001004 	andeq	r1, r0, #4
     3a8:	05000023 	streq	r0, [r0, #-35]	; 0x23
     3ac:	00000099 	muleq	r0, r9, r0
     3b0:	fe180408 	cdp2	4, 1, cr0, cr8, cr8, {0}
     3b4:	06000003 	streq	r0, [r0], -r3
     3b8:	00000008 	andeq	r0, r0, r8
     3bc:	002c1904 	eoreq	r1, ip, r4, lsl #18
     3c0:	23020000 	movwcs	r0, #8192	; 0x2000
     3c4:	03370600 	teqeq	r7, #0
     3c8:	1a040000 	bne	1003d0 <__resume0_start+0x1003d0>
     3cc:	0000002c 	andeq	r0, r0, ip, lsr #32
     3d0:	06012302 	streq	r2, [r1], -r2, lsl #6
     3d4:	00000000 	andeq	r0, r0, r0
     3d8:	002c1b04 	eoreq	r1, ip, r4, lsl #22
     3dc:	23020000 	movwcs	r0, #8192	; 0x2000
     3e0:	00100602 	andseq	r0, r0, r2, lsl #12
     3e4:	1c040000 	stcne	0, cr0, [r4], {0}
     3e8:	0000002c 	andeq	r0, r0, ip, lsr #32
     3ec:	07032302 	streq	r2, [r3, -r2, lsl #6]
     3f0:	006c6c50 	rsbeq	r6, ip, r0, asr ip
     3f4:	005e1d04 	subseq	r1, lr, r4, lsl #26
     3f8:	23020000 	movwcs	r0, #8192	; 0x2000
     3fc:	71050004 	tstvc	r5, r4
     400:	24000000 	strcs	r0, [r0]
     404:	04882004 	streq	r2, [r8], #4
     408:	94060000 	strls	r0, [r6]
     40c:	04000000 	streq	r0, [r0]
     410:	00005e22 	andeq	r5, r0, r2, lsr #28
     414:	00230200 	eoreq	r0, r3, r0, lsl #4
     418:	00726307 	rsbseq	r6, r2, r7, lsl #6
     41c:	005e2404 	subseq	r2, lr, r4, lsl #8
     420:	23020000 	movwcs	r0, #8192	; 0x2000
     424:	03320604 	teqeq	r2, #4194304	; 0x400000
     428:	25040000 	strcs	r0, [r4]
     42c:	0000005e 	andeq	r0, r0, lr, asr r0
     430:	06082302 	streq	r2, [r8], -r2, lsl #6
     434:	00000121 	andeq	r0, r0, r1, lsr #2
     438:	005e2704 	subseq	r2, lr, r4, lsl #14
     43c:	23020000 	movwcs	r0, #8192	; 0x2000
     440:	02cd060c 	sbceq	r0, sp, #12582912	; 0xc00000
     444:	28040000 	stmdacs	r4, {}
     448:	0000005e 	andeq	r0, r0, lr, asr r0
     44c:	06102302 	ldreq	r2, [r0], -r2, lsl #6
     450:	000002f5 	strdeq	r0, [r0], -r5
     454:	005e2904 	subseq	r2, lr, r4, lsl #18
     458:	23020000 	movwcs	r0, #8192	; 0x2000
     45c:	00cd0614 	sbceq	r0, sp, r4, lsl r6
     460:	2c040000 	stccs	0, cr0, [r4], {0}
     464:	0000005e 	andeq	r0, r0, lr, asr r0
     468:	06182302 	ldreq	r2, [r8], -r2, lsl #6
     46c:	00000175 	andeq	r0, r0, r5, ror r1
     470:	005e2f04 	subseq	r2, lr, r4, lsl #30
     474:	23020000 	movwcs	r0, #8192	; 0x2000
     478:	02f0061c 	rscseq	r0, r0, #29360128	; 0x1c00000
     47c:	30040000 	andcc	r0, r4, r0
     480:	0000005e 	andeq	r0, r0, lr, asr r0
     484:	00202302 	eoreq	r2, r0, r2, lsl #6
     488:	00014609 	andeq	r4, r1, r9, lsl #12
     48c:	04023000 	streq	r3, [r2]
     490:	00054f36 	andeq	r4, r5, r6, lsr pc
     494:	00e60600 	rsceq	r0, r6, r0, lsl #12
     498:	37040000 	strcc	r0, [r4, -r0]
     49c:	0000054f 	andeq	r0, r0, pc, asr #10
     4a0:	06002302 	streq	r2, [r0], -r2, lsl #6
     4a4:	0000145d 	andeq	r1, r0, sp, asr r4
     4a8:	005e3804 	subseq	r3, lr, r4, lsl #16
     4ac:	23020000 	movwcs	r0, #8192	; 0x2000
     4b0:	01c90604 	biceq	r0, r9, r4, lsl #12
     4b4:	3a040000 	bcc	1004bc <__resume0_start+0x1004bc>
     4b8:	0000004c 	andeq	r0, r0, ip, asr #32
     4bc:	06082302 	streq	r2, [r8], -r2, lsl #6
     4c0:	000001d7 	ldrdeq	r0, [r0], -r7
     4c4:	004c3b04 	subeq	r3, ip, r4, lsl #22
     4c8:	23020000 	movwcs	r0, #8192	; 0x2000
     4cc:	02ae060c 	adceq	r0, lr, #12582912	; 0xc00000
     4d0:	3c040000 	stccc	0, cr0, [r4], {0}
     4d4:	0000005e 	andeq	r0, r0, lr, asr r0
     4d8:	06102302 	ldreq	r2, [r0], -r2, lsl #6
     4dc:	0000020e 	andeq	r0, r0, lr, lsl #4
     4e0:	005e3d04 	subseq	r3, lr, r4, lsl #26
     4e4:	23020000 	movwcs	r0, #8192	; 0x2000
     4e8:	01a30614 	undefined instruction 0x01a30614
     4ec:	3e040000 	cdpcc	0, 0, cr0, cr4, cr0, {0}
     4f0:	0000005e 	andeq	r0, r0, lr, asr r0
     4f4:	06182302 	ldreq	r2, [r8], -r2, lsl #6
     4f8:	0000002d 	andeq	r0, r0, sp, lsr #32
     4fc:	03493f04 	movteq	r3, #40708	; 0x9f04
     500:	23020000 	movwcs	r0, #8192	; 0x2000
     504:	12dd061c 	sbcsne	r0, sp, #29360128	; 0x1c00000
     508:	40040000 	andmi	r0, r4, r0
     50c:	000003ab 	andeq	r0, r0, fp, lsr #7
     510:	06202302 	strteq	r2, [r0], -r2, lsl #6
     514:	00000035 	andeq	r0, r0, r5, lsr r0
     518:	05574104 	ldrbeq	r4, [r7, #-260]	; 0x104
     51c:	23020000 	movwcs	r0, #8192	; 0x2000
     520:	017a0628 	cmneq	sl, r8, lsr #12
     524:	42040000 	andmi	r0, r4, #0
     528:	0000056a 	andeq	r0, r0, sl, ror #10
     52c:	02882303 	addeq	r2, r8, #201326592	; 0xc000000
     530:	00006b06 	andeq	r6, r0, r6, lsl #22
     534:	fe430400 	cdp2	4, 4, cr0, cr3, cr0, {0}
     538:	03000003 	movweq	r0, #3
     53c:	0602c823 	streq	ip, [r2], -r3, lsr #16
     540:	0000012d 	andeq	r0, r0, sp, lsr #2
     544:	007e4404 	rsbseq	r4, lr, r4, lsl #8
     548:	23030000 	movwcs	r0, #12288	; 0x3000
     54c:	0a0002ec 	beq	1104 <__resume0_start+0x1104>
     550:	00055504 	andeq	r5, r5, r4, lsl #10
     554:	0c040b00 	stceq	11, cr0, [r4], {0}
     558:	0000005e 	andeq	r0, r0, lr, asr r0
     55c:	00000567 	andeq	r0, r0, r7, ror #10
     560:	0005670d 	andeq	r6, r5, sp, lsl #14
     564:	0e003700 	cdpeq	7, 0, cr3, cr0, cr0, {0}
     568:	5e0c0704 	cdppl	7, 0, cr0, cr12, cr4, {0}
     56c:	7a000000 	bvc	574 <__resume0_start+0x574>
     570:	0d000005 	stceq	0, cr0, [r0, #-20]	; 0xffffffec
     574:	00000567 	andeq	r0, r0, r7, ror #10
     578:	010f000f 	tsteq	pc, pc
     57c:	0000008f 	andeq	r0, r0, pc, lsl #1
     580:	57013501 	strpl	r3, [r1, -r1, lsl #10]
     584:	00000000 	andeq	r0, r0, r0
     588:	c8401000 	stmdagt	r0, {ip}^
     58c:	00401000 	subeq	r1, r0, r0
     590:	10000000 	andne	r0, r0, r0
     594:	000002d4 	ldrdeq	r0, [r0], -r4
     598:	04881501 	streq	r1, [r8], #1281	; 0x501
     59c:	01110000 	tsteq	r1, r0
     5a0:	00000057 	andeq	r0, r0, r7, asr r0
     5a4:	00011012 	andeq	r1, r1, r2, lsl r0
     5a8:	b5180100 	ldrlt	r0, [r8, #-256]	; 0x100
     5ac:	05000005 	streq	r0, [r0, #-5]
     5b0:	105f8403 	subsne	r8, pc, r3, lsl #8
     5b4:	9e040a40 	vmlsls.f32	s0, s8, s0
     5b8:	13000005 	movwne	r0, #5
     5bc:	000002bb 	undefined instruction 0x000002bb
     5c0:	05c81601 	strbeq	r1, [r8, #1537]	; 0x601
     5c4:	01010000 	tsteq	r1, r0
     5c8:	05ce040a 	strbeq	r0, [lr, #1034]	; 0x40a
     5cc:	01020000 	tsteq	r2, r0
     5d0:	00017008 	andeq	r7, r1, r8
     5d4:	01ad1300 	undefined instruction 0x01ad1300
     5d8:	17010000 	strne	r0, [r1, -r0]
     5dc:	000005c8 	andeq	r0, r0, r8, asr #11
     5e0:	bf000101 	svclt	0x00000101
     5e4:	02000000 	andeq	r0, r0, #0
     5e8:	00010000 	andeq	r0, r1, r0
     5ec:	55010400 	strpl	r0, [r1, #-1024]	; 0x400
     5f0:	01000000 	tsteq	r0, r0
     5f4:	0000034c 	andeq	r0, r0, ip, asr #6
     5f8:	00000248 	andeq	r0, r0, r8, asr #4
     5fc:	401000c8 	andsmi	r0, r0, r8, asr #1
     600:	401000ec 	andsmi	r0, r0, ip, ror #1
     604:	000000a6 	andeq	r0, r0, r6, lsr #1
     608:	69060102 	stmdbvs	r6, {r1, r8}
     60c:	02000001 	andeq	r0, r0, #1
     610:	01670801 	cmneq	r7, r1, lsl #16
     614:	02020000 	andeq	r0, r2, #0
     618:	00006105 	andeq	r6, r0, r5, lsl #2
     61c:	07020200 	streq	r0, [r2, -r0, lsl #4]
     620:	00000218 	andeq	r0, r0, r8, lsl r2
     624:	69050403 	stmdbvs	r5, {r0, r1, sl}
     628:	0200746e 	andeq	r7, r0, #1845493760	; 0x6e000000
     62c:	01f40704 	mvnseq	r0, r4, lsl #14
     630:	08020000 	stmdaeq	r2, {}
     634:	0000f505 	andeq	pc, r0, r5, lsl #10
     638:	07080200 	streq	r0, [r8, -r0, lsl #4]
     63c:	000001ea 	andeq	r0, r0, sl, ror #3
     640:	04050404 	streq	r0, [r5], #-1028	; 0x404
     644:	65010607 	strvs	r0, [r1, #-1543]	; 0x607
     648:	01000003 	tsteq	r0, r3
     64c:	00c80123 	sbceq	r0, r8, r3, lsr #2
     650:	00ec4010 	rsceq	r4, ip, r0, lsl r0
     654:	5d014010 	stcpl	0, cr4, [r1, #-64]	; 0xffffffc0
     658:	000000b5 	strheq	r0, [r0], -r5
     65c:	00033f07 	andeq	r3, r3, r7, lsl #30
     660:	5d230100 	stfpls	f0, [r3]
     664:	01000000 	tsteq	r0, r0
     668:	72730850 	rsbsvc	r0, r3, #5242880	; 0x500000
     66c:	23010063 	movwcs	r0, #4195	; 0x1063
     670:	0000005d 	andeq	r0, r0, sp, asr r0
     674:	6e085101 	adfvse	f5, f0, f1
     678:	41230100 	teqmi	r3, r0, lsl #2
     67c:	01000000 	tsteq	r0, r0
     680:	035d0952 	cmpeq	sp, #1343488	; 0x148000
     684:	25010000 	strcs	r0, [r1]
     688:	000000b5 	strheq	r0, [r0], -r5
     68c:	00034409 	andeq	r4, r3, r9, lsl #8
     690:	b5260100 	strlt	r0, [r6, #-256]!	; 0x100
     694:	00000000 	andeq	r0, r0, r0
     698:	00bb040a 	adcseq	r0, fp, sl, lsl #8
     69c:	01020000 	tsteq	r2, r0
     6a0:	00017008 	andeq	r7, r1, r8
     6a4:	006d0000 	rsbeq	r0, sp, r0
     6a8:	00020000 	andeq	r0, r2, r0
     6ac:	00000185 	andeq	r0, r0, r5, lsl #3
     6b0:	00ed0104 	rsceq	r0, sp, r4, lsl #2
     6b4:	01000000 	tsteq	r0, r0
     6b8:	05e44010 	strbeq	r4, [r4, #16]!
     6bc:	2f2e4010 	svccs	0x002e4010
     6c0:	65707573 	ldrbvs	r7, [r0, #-1395]!	; 0x573
     6c4:	74732f72 	ldrbtvc	r2, [r3], #-3954	; 0xf72
     6c8:	2e6b6361 	cdpcs	3, 6, cr6, cr11, cr1, {3}
     6cc:	682f0053 	stmdavs	pc!, {r0, r1, r4, r6}
     6d0:	2f656d6f 	svccs	0x00656d6f
     6d4:	656b696d 	strbvs	r6, [fp, #-2413]!	; 0x96d
     6d8:	726f772f 	rsbvc	r7, pc, #12320768	; 0xbc0000
     6dc:	696c2f6b 	stmdbvs	ip!, {r0, r1, r3, r5, r6, r8, r9, sl, fp, sp}^
     6e0:	5f78756e 	svcpl	0x0078756e
     6e4:	2f343236 	svccs	0x00343236
     6e8:	68637261 	stmdavs	r3!, {r0, r5, r6, r9, ip, sp, lr}^
     6ec:	6d72612f 	ldfvse	f6, [r2, #-188]!	; 0xffffff44
     6f0:	63616d2f 	cmnvs	r1, #3008	; 0xbc0
     6f4:	75732d68 	ldrbvc	r2, [r3, #-3432]!	; 0xd68
     6f8:	2f69356e 	svccs	0x0069356e
     6fc:	732f6d70 	teqvc	pc, #7168	; 0x1c00
     700:	646e6174 	strbtvs	r6, [lr], #-372	; 0x174
     704:	47007962 	strmi	r7, [r0, -r2, ror #18]
     708:	4120554e 	teqmi	r0, lr, asr #10
     70c:	2e322053 	mrccs	0, 1, r2, cr2, cr3, {2}
     710:	312e3032 	teqcc	lr, r2, lsr r0
     714:	b8800100 	stmlt	r0, {r8}
     718:	02000021 	andeq	r0, r0, #33	; 0x21
     71c:	00019900 	andeq	r9, r1, r0, lsl #18
     720:	55010400 	strpl	r0, [r1, #-1024]	; 0x400
     724:	01000000 	tsteq	r0, r0
     728:	00000648 	andeq	r0, r0, r8, asr #12
     72c:	00000248 	andeq	r0, r0, r8, asr #4
     730:	40100600 	andsmi	r0, r0, r0, lsl #12
     734:	40100d8c 	andsmi	r0, r0, ip, lsl #27
     738:	0000023d 	andeq	r0, r0, sp, lsr r2
     73c:	69060102 	stmdbvs	r6, {r1, r8}
     740:	03000001 	movweq	r0, #1
     744:	00000294 	muleq	r0, r4, r2
     748:	00370f02 	eorseq	r0, r7, r2, lsl #30
     74c:	01020000 	tsteq	r2, r0
     750:	00016708 	andeq	r6, r1, r8, lsl #14
     754:	05020200 	streq	r0, [r2, #-512]	; 0x200
     758:	00000061 	andeq	r0, r0, r1, rrx
     75c:	18070202 	stmdane	r7, {r1, r9}
     760:	03000002 	movweq	r0, #2
     764:	000001bd 	undefined instruction 0x000001bd
     768:	00571202 	subseq	r1, r7, r2, lsl #4
     76c:	04040000 	streq	r0, [r4]
     770:	746e6905 	strbtvc	r6, [lr], #-2309	; 0x905
     774:	00d20300 	sbcseq	r0, r2, r0, lsl #6
     778:	13020000 	movwne	r0, #8192	; 0x2000
     77c:	00000069 	andeq	r0, r0, r9, rrx
     780:	f4070402 	vst3.8	{d0-d2}, [r7], r2
     784:	02000001 	andeq	r0, r0, #1
     788:	00f50508 	rscseq	r0, r5, r8, lsl #10
     78c:	08020000 	stmdaeq	r2, {}
     790:	0001ea07 	andeq	lr, r1, r7, lsl #20
     794:	07040500 	streq	r0, [r4, -r0, lsl #10]
     798:	000bd606 	andeq	sp, fp, r6, lsl #12
     79c:	17030400 	strne	r0, [r3, -r0, lsl #8]
     7a0:	0000017c 	andeq	r0, r0, ip, ror r1
     7a4:	00000007 	andeq	r0, r0, r7
     7a8:	5e180300 	cdppl	3, 1, cr0, cr8, cr0, {0}
     7ac:	04000000 	streq	r0, [r0]
     7b0:	23021e02 	movwcs	r1, #11778	; 0x2e02
     7b4:	0a520700 	beq	14823bc <__resume0_start+0x14823bc>
     7b8:	19030000 	stmdbne	r3, {}
     7bc:	0000005e 	andeq	r0, r0, lr, asr r0
     7c0:	021d0104 	andseq	r0, sp, #1
     7c4:	c5070023 	strgt	r0, [r7, #-35]	; 0x23
     7c8:	0300000d 	movweq	r0, #13
     7cc:	00005e1a 	andeq	r5, r0, sl, lsl lr
     7d0:	1c010400 	cfstrsne	mvf0, [r1], {0}
     7d4:	07002302 	streq	r2, [r0, -r2, lsl #6]
     7d8:	00000337 	andeq	r0, r0, r7, lsr r3
     7dc:	005e1b03 	subseq	r1, lr, r3, lsl #22
     7e0:	02040000 	andeq	r0, r4, #0
     7e4:	0023021a 	eoreq	r0, r3, sl, lsl r2
     7e8:	000e9907 	andeq	r9, lr, r7, lsl #18
     7ec:	5e1c0300 	cdppl	3, 1, cr0, cr12, cr0, {0}
     7f0:	04000000 	streq	r0, [r0]
     7f4:	23021802 	movwcs	r1, #10242	; 0x2802
     7f8:	00080700 	andeq	r0, r8, r0, lsl #14
     7fc:	1d030000 	stcne	0, cr0, [r3]
     800:	0000005e 	andeq	r0, r0, lr, asr r0
     804:	02130504 	andseq	r0, r3, #16777216	; 0x1000000
     808:	65070023 	strvs	r0, [r7, #-35]	; 0x23
     80c:	03000011 	movweq	r0, #17
     810:	00005e1e 	andeq	r5, r0, lr, lsl lr
     814:	10030400 	andne	r0, r3, r0, lsl #8
     818:	07002302 	streq	r2, [r0, -r2, lsl #6]
     81c:	000007d9 	ldrdeq	r0, [r0], -r9
     820:	005e1f03 	subseq	r1, lr, r3, lsl #30
     824:	02040000 	andeq	r0, r4, #0
     828:	0023020e 	eoreq	r0, r3, lr, lsl #4
     82c:	000ea307 	andeq	sl, lr, r7, lsl #6
     830:	5e200300 	cdppl	3, 2, cr0, cr0, cr0, {0}
     834:	04000000 	streq	r0, [r0]
     838:	23020c02 	movwcs	r0, #11266	; 0x2c02
     83c:	0fb00700 	svceq	0x00b00700
     840:	21030000 	tstcs	r3, r0
     844:	0000005e 	andeq	r0, r0, lr, asr r0
     848:	02070504 	andeq	r0, r7, #16777216	; 0x1000000
     84c:	ad070023 	stcge	0, cr0, [r7, #-140]	; 0xffffff74
     850:	0300000e 	movweq	r0, #14
     854:	00005e22 	andeq	r5, r0, r2, lsr #28
     858:	06010400 	streq	r0, [r1], -r0, lsl #8
     85c:	07002302 	streq	r2, [r0, -r2, lsl #6]
     860:	00000e15 	andeq	r0, r0, r5, lsl lr
     864:	005e2303 	subseq	r2, lr, r3, lsl #6
     868:	04040000 	streq	r0, [r4]
     86c:	00230202 	eoreq	r0, r3, r2, lsl #4
     870:	000b4007 	andeq	r4, fp, r7
     874:	5e240300 	cdppl	3, 2, cr0, cr4, cr0, {0}
     878:	04000000 	streq	r0, [r0]
     87c:	23020101 	movwcs	r0, #8449	; 0x2101
     880:	0f370700 	svceq	0x00370700
     884:	25030000 	strcs	r0, [r3]
     888:	0000005e 	andeq	r0, r0, lr, asr r0
     88c:	02000104 	andeq	r0, r0, #1
     890:	03000023 	movweq	r0, #35	; 0x23
     894:	00000977 	andeq	r0, r0, r7, ror r9
     898:	00812703 	addeq	r2, r1, r3, lsl #14
     89c:	a2060000 	andge	r0, r6, #0
     8a0:	04000010 	streq	r0, [r0], #-16
     8a4:	01fa2a03 	mvnseq	r2, r3, lsl #20
     8a8:	99070000 	stmdbls	r7, {}
     8ac:	0300000e 	movweq	r0, #14
     8b0:	00005e2b 	andeq	r5, r0, fp, lsr #28
     8b4:	10100400 	andsne	r0, r0, r0, lsl #8
     8b8:	07002302 	streq	r2, [r0, -r2, lsl #6]
     8bc:	00000f9d 	muleq	r0, sp, pc
     8c0:	005e2c03 	subseq	r2, lr, r3, lsl #24
     8c4:	07040000 	streq	r0, [r4, -r0]
     8c8:	00230209 	eoreq	r0, r3, r9, lsl #4
     8cc:	00042c07 	andeq	r2, r4, r7, lsl #24
     8d0:	5e2d0300 	cdppl	3, 2, cr0, cr13, cr0, {0}
     8d4:	04000000 	streq	r0, [r0]
     8d8:	23020603 	movwcs	r0, #9731	; 0x2603
     8dc:	11df0700 	bicsne	r0, pc, r0, lsl #14
     8e0:	2e030000 	cdpcs	0, 0, cr0, cr3, cr0, {0}
     8e4:	0000005e 	andeq	r0, r0, lr, asr r0
     8e8:	02050104 	andeq	r0, r5, #1
     8ec:	8a070023 	bhi	1c0980 <__resume0_start+0x1c0980>
     8f0:	03000005 	movweq	r0, #5
     8f4:	00005e2f 	andeq	r5, r0, pc, lsr #28
     8f8:	04010400 	streq	r0, [r1], #-1024	; 0x400
     8fc:	07002302 	streq	r2, [r0, -r2, lsl #6]
     900:	00000922 	andeq	r0, r0, r2, lsr #18
     904:	005e3003 	subseq	r3, lr, r3
     908:	04040000 	streq	r0, [r4]
     90c:	00230200 	eoreq	r0, r3, r0, lsl #4
     910:	04610300 	strbteq	r0, [r1], #-768	; 0x300
     914:	31030000 	tstcc	r3, r0
     918:	00000187 	andeq	r0, r0, r7, lsl #3
     91c:	000b8306 	andeq	r8, fp, r6, lsl #6
     920:	35030400 	strcc	r0, [r3, #-1024]	; 0x400
     924:	000002ab 	andeq	r0, r0, fp, lsr #5
     928:	00119607 	andseq	r9, r1, r7, lsl #12
     92c:	5e360300 	cdppl	3, 3, cr0, cr6, cr0, {0}
     930:	04000000 	streq	r0, [r0]
     934:	23021b05 	movwcs	r1, #11013	; 0x2b05
     938:	0e990700 	cdpeq	7, 9, cr0, cr9, cr0, {0}
     93c:	37030000 	strcc	r0, [r3, -r0]
     940:	0000005e 	andeq	r0, r0, lr, asr r0
     944:	02180304 	andseq	r0, r8, #268435456	; 0x10000000
     948:	08070023 	stmdaeq	r7, {r0, r1, r5}
     94c:	03000000 	movweq	r0, #0
     950:	00005e38 	andeq	r5, r0, r8, lsr lr
     954:	11070400 	tstne	r7, r0, lsl #8
     958:	07002302 	streq	r2, [r0, -r2, lsl #6]
     95c:	00000ea3 	andeq	r0, r0, r3, lsr #29
     960:	005e3903 	subseq	r3, lr, r3, lsl #18
     964:	01040000 	tsteq	r4, r0
     968:	00230210 	eoreq	r0, r3, r0, lsl r2
     96c:	000fb007 	andeq	fp, pc, r7
     970:	5e3a0300 	cdppl	3, 3, cr0, cr10, cr0, {0}
     974:	04000000 	streq	r0, [r0]
     978:	23020b05 	movwcs	r0, #11013	; 0x2b05
     97c:	118e0700 	orrne	r0, lr, r0, lsl #14
     980:	3b030000 	blcc	c0988 <__resume0_start+0xc0988>
     984:	0000005e 	andeq	r0, r0, lr, asr r0
     988:	02060504 	andeq	r0, r6, #16777216	; 0x1000000
     98c:	c7070023 	strgt	r0, [r7, -r3, lsr #32]
     990:	03000004 	movweq	r0, #4
     994:	00005e3c 	andeq	r5, r0, ip, lsr lr
     998:	02040400 	andeq	r0, r4, #0
     99c:	07002302 	streq	r2, [r0, -r2, lsl #6]
     9a0:	00000ead 	andeq	r0, r0, sp, lsr #29
     9a4:	005e3d03 	subseq	r3, lr, r3, lsl #26
     9a8:	01040000 	tsteq	r4, r0
     9ac:	00230201 	eoreq	r0, r3, r1, lsl #4
     9b0:	000f3707 	andeq	r3, pc, r7, lsl #14
     9b4:	5e3e0300 	cdppl	3, 3, cr0, cr14, cr0, {0}
     9b8:	04000000 	streq	r0, [r0]
     9bc:	23020001 	movwcs	r0, #8193	; 0x2001
     9c0:	9d030000 	stcls	0, cr0, [r3]
     9c4:	03000007 	movweq	r0, #7
     9c8:	0002053f 	andeq	r0, r2, pc, lsr r5
     9cc:	04110600 	ldreq	r0, [r1], #-1536	; 0x600
     9d0:	03040000 	movweq	r0, #16384	; 0x4000
     9d4:	00032943 	andeq	r2, r3, r3, asr #18
     9d8:	0a730700 	beq	1cc25e0 <__resume0_start+0x1cc25e0>
     9dc:	44030000 	strmi	r0, [r3]
     9e0:	0000005e 	andeq	r0, r0, lr, asr r0
     9e4:	020f1104 	andeq	r1, pc, #1
     9e8:	08070023 	stmdaeq	r7, {r0, r1, r5}
     9ec:	03000012 	movweq	r0, #18
     9f0:	00005e45 	andeq	r5, r0, r5, asr #28
     9f4:	0d020400 	cfstrseq	mvf0, [r2]
     9f8:	07002302 	streq	r2, [r0, -r2, lsl #6]
     9fc:	00000e99 	muleq	r0, r9, lr
     a00:	005e4603 	subseq	r4, lr, r3, lsl #12
     a04:	01040000 	tsteq	r4, r0
     a08:	0023020c 	eoreq	r0, r3, ip, lsl #4
     a0c:	00037907 	andeq	r7, r3, r7, lsl #18
     a10:	5e470300 	cdppl	3, 4, cr0, cr7, cr0, {0}
     a14:	04000000 	streq	r0, [r0]
     a18:	23020309 	movwcs	r0, #8969	; 0x2309
     a1c:	07d00700 	ldrbeq	r0, [r0, r0, lsl #14]
     a20:	48030000 	stmdami	r3, {}
     a24:	0000005e 	andeq	r0, r0, lr, asr r0
     a28:	02010204 	andeq	r0, r1, #1073741824	; 0x40000000
     a2c:	52070023 	andpl	r0, r7, #35	; 0x23
     a30:	0300000a 	movweq	r0, #10
     a34:	00005e49 	andeq	r5, r0, r9, asr #28
     a38:	00010400 	andeq	r0, r1, r0, lsl #8
     a3c:	00002302 	andeq	r2, r0, r2, lsl #6
     a40:	000da803 	andeq	sl, sp, r3, lsl #16
     a44:	b64b0300 	strblt	r0, [fp], -r0, lsl #6
     a48:	06000002 	streq	r0, [r0], -r2
     a4c:	00000dd6 	ldrdeq	r0, [r0], -r6
     a50:	fc4f0304 	mcrr2	3, 0, r0, pc, cr4
     a54:	07000003 	streq	r0, [r0, -r3]
     a58:	00000000 	andeq	r0, r0, r0
     a5c:	005e5003 	subseq	r5, lr, r3
     a60:	07040000 	streq	r0, [r4, -r0]
     a64:	00230219 	eoreq	r0, r3, r9, lsl r2
     a68:	000e9907 	andeq	r9, lr, r7, lsl #18
     a6c:	5e510300 	cdppl	3, 5, cr0, cr1, cr0, {0}
     a70:	04000000 	streq	r0, [r0]
     a74:	23021801 	movwcs	r1, #10241	; 0x2801
     a78:	0fb00700 	svceq	0x00b00700
     a7c:	52030000 	andpl	r0, r3, #0
     a80:	0000005e 	andeq	r0, r0, lr, asr r0
     a84:	02130504 	andseq	r0, r3, #16777216	; 0x1000000
     a88:	a3070023 	movwge	r0, #28707	; 0x7023
     a8c:	0300000e 	movweq	r0, #14
     a90:	00005e53 	andeq	r5, r0, r3, asr lr
     a94:	12010400 	andne	r0, r1, #0
     a98:	07002302 	streq	r2, [r0, -r2, lsl #6]
     a9c:	00000b07 	andeq	r0, r0, r7, lsl #22
     aa0:	005e5403 	subseq	r5, lr, r3, lsl #8
     aa4:	01040000 	tsteq	r4, r0
     aa8:	00230211 	eoreq	r0, r3, r1, lsl r2
     aac:	000cd207 	andeq	sp, ip, r7, lsl #4
     ab0:	5e550300 	cdppl	3, 5, cr0, cr5, cr0, {0}
     ab4:	04000000 	streq	r0, [r0]
     ab8:	23021001 	movwcs	r1, #8193	; 0x2001
     abc:	0e150700 	cdpeq	7, 1, cr0, cr5, cr0, {0}
     ac0:	56030000 	strpl	r0, [r3], -r0
     ac4:	0000005e 	andeq	r0, r0, lr, asr r0
     ac8:	020b0504 	andeq	r0, fp, #16777216	; 0x1000000
     acc:	ad070023 	stcge	0, cr0, [r7, #-140]	; 0xffffff74
     ad0:	0300000e 	movweq	r0, #14
     ad4:	00005e57 	andeq	r5, r0, r7, asr lr
     ad8:	08030400 	stmdaeq	r3, {sl}
     adc:	07002302 	streq	r2, [r0, -r2, lsl #6]
     ae0:	00000922 	andeq	r0, r0, r2, lsr #18
     ae4:	005e5803 	subseq	r5, lr, r3, lsl #16
     ae8:	03040000 	movweq	r0, #16384	; 0x4000
     aec:	00230205 	eoreq	r0, r3, r5, lsl #4
     af0:	000eb707 	andeq	fp, lr, r7, lsl #14
     af4:	5e590300 	cdppl	3, 5, cr0, cr9, cr0, {0}
     af8:	04000000 	streq	r0, [r0]
     afc:	23020104 	movwcs	r0, #8452	; 0x2104
     b00:	0f370700 	svceq	0x00370700
     b04:	5a030000 	bpl	c0b0c <__resume0_start+0xc0b0c>
     b08:	0000005e 	andeq	r0, r0, lr, asr r0
     b0c:	02000104 	andeq	r0, r0, #1
     b10:	03000023 	movweq	r0, #35	; 0x23
     b14:	00000c22 	andeq	r0, r0, r2, lsr #24
     b18:	03345b03 	teqeq	r4, #3072	; 0xc00
     b1c:	5c060000 	stcpl	0, cr0, [r6], {0}
     b20:	04000006 	streq	r0, [r0], #-6
     b24:	05025f03 	streq	r5, [r2, #-3843]	; 0xf03
     b28:	00070000 	andeq	r0, r7, r0
     b2c:	03000000 	movweq	r0, #0
     b30:	00005e60 	andeq	r5, r0, r0, ror #28
     b34:	1e020400 	cfcpysne	mvf0, mvf2
     b38:	07002302 	streq	r2, [r0, -r2, lsl #6]
     b3c:	00000e99 	muleq	r0, r9, lr
     b40:	005e6103 	subseq	r6, lr, r3, lsl #2
     b44:	02040000 	andeq	r0, r4, #0
     b48:	0023021c 	eoreq	r0, r3, ip, lsl r2
     b4c:	00033707 	andeq	r3, r3, r7, lsl #14
     b50:	5e620300 	cdppl	3, 6, cr0, cr2, cr0, {0}
     b54:	04000000 	streq	r0, [r0]
     b58:	23021a02 	movwcs	r1, #10754	; 0x2a02
     b5c:	0ea30700 	cdpeq	7, 10, cr0, cr3, cr0, {0}
     b60:	63030000 	movwvs	r0, #12288	; 0x3000
     b64:	0000005e 	andeq	r0, r0, lr, asr r0
     b68:	02180204 	andseq	r0, r8, #1073741824	; 0x40000000
     b6c:	08070023 	stmdaeq	r7, {r0, r1, r5}
     b70:	03000000 	movweq	r0, #0
     b74:	00005e64 	andeq	r5, r0, r4, ror #28
     b78:	13050400 	movwne	r0, #21504	; 0x5400
     b7c:	07002302 	streq	r2, [r0, -r2, lsl #6]
     b80:	00000ead 	andeq	r0, r0, sp, lsr #29
     b84:	005e6503 	subseq	r6, lr, r3, lsl #10
     b88:	01040000 	tsteq	r4, r0
     b8c:	00230212 	eoreq	r0, r3, r2, lsl r2
     b90:	00096407 	andeq	r6, r9, r7, lsl #8
     b94:	5e660300 	cdppl	3, 6, cr0, cr6, cr0, {0}
     b98:	04000000 	streq	r0, [r0]
     b9c:	23021002 	movwcs	r1, #8194	; 0x2002
     ba0:	00100700 	andseq	r0, r0, r0, lsl #14
     ba4:	67030000 	strvs	r0, [r3, -r0]
     ba8:	0000005e 	andeq	r0, r0, lr, asr r0
     bac:	020e0204 	andeq	r0, lr, #1073741824	; 0x40000000
     bb0:	b7070023 	strlt	r0, [r7, -r3, lsr #32]
     bb4:	0300000e 	movweq	r0, #14
     bb8:	00005e68 	andeq	r5, r0, r8, ror #28
     bbc:	0d010400 	cfstrseq	mvf0, [r1]
     bc0:	07002302 	streq	r2, [r0, -r2, lsl #6]
     bc4:	000011df 	ldrdeq	r1, [r0], -pc
     bc8:	005e6903 	subseq	r6, lr, r3, lsl #18
     bcc:	01040000 	tsteq	r4, r0
     bd0:	0023020c 	eoreq	r0, r3, ip, lsl #4
     bd4:	000fb007 	andeq	fp, pc, r7
     bd8:	5e6a0300 	cdppl	3, 6, cr0, cr10, cr0, {0}
     bdc:	04000000 	streq	r0, [r0]
     be0:	23020705 	movwcs	r0, #9989	; 0x2705
     be4:	0e150700 	cdpeq	7, 1, cr0, cr5, cr0, {0}
     be8:	6b030000 	blvs	c0bf0 <__resume0_start+0xc0bf0>
     bec:	0000005e 	andeq	r0, r0, lr, asr r0
     bf0:	02020504 	andeq	r0, r2, #16777216	; 0x1000000
     bf4:	f2070023 	vhadd.s8	d0, d7, d19
     bf8:	0300000a 	movweq	r0, #10
     bfc:	00005e6c 	andeq	r5, r0, ip, ror #28
     c00:	01010400 	tsteq	r1, r0, lsl #8
     c04:	07002302 	streq	r2, [r0, -r2, lsl #6]
     c08:	00000f37 	andeq	r0, r0, r7, lsr pc
     c0c:	005e6d03 	subseq	r6, lr, r3, lsl #26
     c10:	01040000 	tsteq	r4, r0
     c14:	00230200 	eoreq	r0, r3, r0, lsl #4
     c18:	12330300 	eorsne	r0, r3, #0
     c1c:	6e030000 	cdpvs	0, 0, cr0, cr3, cr0, {0}
     c20:	00000407 	andeq	r0, r0, r7, lsl #8
     c24:	00062806 	andeq	r2, r6, r6, lsl #16
     c28:	72030400 	andvc	r0, r3, #0
     c2c:	00000619 	andeq	r0, r0, r9, lsl r6
     c30:	00000007 	andeq	r0, r0, r7
     c34:	5e730300 	cdppl	3, 7, cr0, cr3, cr0, {0}
     c38:	04000000 	streq	r0, [r0]
     c3c:	23021e02 	movwcs	r1, #11778	; 0x2e02
     c40:	10510700 	subsne	r0, r1, r0, lsl #14
     c44:	74030000 	strvc	r0, [r3]
     c48:	0000005e 	andeq	r0, r0, lr, asr r0
     c4c:	021c0204 	andseq	r0, ip, #1073741824	; 0x40000000
     c50:	37070023 	strcc	r0, [r7, -r3, lsr #32]
     c54:	03000003 	movweq	r0, #3
     c58:	00005e75 	andeq	r5, r0, r5, ror lr
     c5c:	1a020400 	bne	81c64 <__resume0_start+0x81c64>
     c60:	07002302 	streq	r2, [r0, -r2, lsl #6]
     c64:	00000e99 	muleq	r0, r9, lr
     c68:	005e7603 	subseq	r7, lr, r3, lsl #12
     c6c:	01040000 	tsteq	r4, r0
     c70:	00230219 	eoreq	r0, r3, r9, lsl r2
     c74:	00104a07 	andseq	r4, r0, r7, lsl #20
     c78:	5e770300 	cdppl	3, 7, cr0, cr7, cr0, {0}
     c7c:	04000000 	streq	r0, [r0]
     c80:	23021801 	movwcs	r1, #10241	; 0x2801
     c84:	00080700 	andeq	r0, r8, r0, lsl #14
     c88:	78030000 	stmdavc	r3, {}
     c8c:	0000005e 	andeq	r0, r0, lr, asr r0
     c90:	02130504 	andseq	r0, r3, #16777216	; 0x1000000
     c94:	df070023 	svcle	0x00070023
     c98:	03000011 	movweq	r0, #17
     c9c:	00005e79 	andeq	r5, r0, r9, ror lr
     ca0:	10030400 	andne	r0, r3, r0, lsl #8
     ca4:	07002302 	streq	r2, [r0, -r2, lsl #6]
     ca8:	00000010 	andeq	r0, r0, r0, lsl r0
     cac:	005e7a03 	subseq	r7, lr, r3, lsl #20
     cb0:	02040000 	andeq	r0, r4, #0
     cb4:	0023020e 	eoreq	r0, r3, lr, lsl #4
     cb8:	00058a07 	andeq	r8, r5, r7, lsl #20
     cbc:	5e7b0300 	cdppl	3, 7, cr0, cr11, cr0, {0}
     cc0:	04000000 	streq	r0, [r0]
     cc4:	23020d01 	movwcs	r0, #11521	; 0x2d01
     cc8:	04fb0700 	ldrbteq	r0, [fp], #1792	; 0x700
     ccc:	7c030000 	stcvc	0, cr0, [r3], {0}
     cd0:	0000005e 	andeq	r0, r0, lr, asr r0
     cd4:	020c0104 	andeq	r0, ip, #1
     cd8:	b0070023 	andlt	r0, r7, r3, lsr #32
     cdc:	0300000f 	movweq	r0, #15
     ce0:	00005e7d 	andeq	r5, r0, sp, ror lr
     ce4:	07050400 	streq	r0, [r5, -r0, lsl #8]
     ce8:	07002302 	streq	r2, [r0, -r2, lsl #6]
     cec:	00000e15 	andeq	r0, r0, r5, lsl lr
     cf0:	005e7e03 	subseq	r7, lr, r3, lsl #28
     cf4:	04040000 	streq	r0, [r4]
     cf8:	00230203 	eoreq	r0, r3, r3, lsl #4
     cfc:	000dcd07 	andeq	ip, sp, r7, lsl #26
     d00:	5e7f0300 	cdppl	3, 7, cr0, cr15, cr0, {0}
     d04:	04000000 	streq	r0, [r0]
     d08:	23020201 	movwcs	r0, #8705	; 0x2201
     d0c:	0af20700 	beq	ffc82914 <__bss_end+0xbfb7c964>
     d10:	80030000 	andhi	r0, r3, r0
     d14:	0000005e 	andeq	r0, r0, lr, asr r0
     d18:	02010104 	andeq	r0, r1, #1
     d1c:	37070023 	strcc	r0, [r7, -r3, lsr #32]
     d20:	0300000f 	movweq	r0, #15
     d24:	00005e81 	andeq	r5, r0, r1, lsl #29
     d28:	00010400 	andeq	r0, r1, r0, lsl #8
     d2c:	00002302 	andeq	r2, r0, r2, lsl #6
     d30:	00078303 	andeq	r8, r7, r3, lsl #6
     d34:	0d820300 	stceq	3, cr0, [r2]
     d38:	06000005 	streq	r0, [r0], -r5
     d3c:	000011c4 	andeq	r1, r0, r4, asr #3
     d40:	a8860304 	stmge	r6, {r2, r8, r9}
     d44:	07000006 	streq	r0, [r0, -r6]
     d48:	00000e99 	muleq	r0, r9, lr
     d4c:	005e8703 	subseq	r8, lr, r3, lsl #14
     d50:	10040000 	andne	r0, r4, r0
     d54:	00230210 	eoreq	r0, r3, r0, lsl r2
     d58:	000f9d07 	andeq	r9, pc, r7, lsl #26
     d5c:	5e880300 	cdppl	3, 8, cr0, cr8, cr0, {0}
     d60:	04000000 	streq	r0, [r0]
     d64:	23020907 	movwcs	r0, #10503	; 0x2907
     d68:	0b400700 	bleq	1002970 <__resume0_start+0x1002970>
     d6c:	89030000 	stmdbhi	r3, {}
     d70:	0000005e 	andeq	r0, r0, lr, asr r0
     d74:	02080104 	andeq	r0, r8, #1
     d78:	65070023 	strvs	r0, [r7, #-35]	; 0x23
     d7c:	03000011 	movweq	r0, #17
     d80:	00005e8a 	andeq	r5, r0, sl, lsl #29
     d84:	05030400 	streq	r0, [r3, #-1024]	; 0x400
     d88:	07002302 	streq	r2, [r0, -r2, lsl #6]
     d8c:	00000ea3 	andeq	r0, r0, r3, lsr #29
     d90:	005e8b03 	subseq	r8, lr, r3, lsl #22
     d94:	01040000 	tsteq	r4, r0
     d98:	00230204 	eoreq	r0, r3, r4, lsl #4
     d9c:	000ffb07 	andeq	pc, pc, r7, lsl #22
     da0:	5e8c0300 	cdppl	3, 8, cr0, cr12, cr0, {0}
     da4:	04000000 	streq	r0, [r0]
     da8:	23020301 	movwcs	r0, #8961	; 0x2301
     dac:	09220700 	stmdbeq	r2!, {r8, r9, sl}
     db0:	8d030000 	stchi	0, cr0, [r3]
     db4:	0000005e 	andeq	r0, r0, lr, asr r0
     db8:	02000304 	andeq	r0, r0, #268435456	; 0x10000000
     dbc:	03000023 	movweq	r0, #35	; 0x23
     dc0:	00000bb9 	undefined instruction 0x00000bb9
     dc4:	06248e03 	strteq	r8, [r4], -r3, lsl #28
     dc8:	c5060000 	strgt	r0, [r6]
     dcc:	04000006 	streq	r0, [r0], #-6
     dd0:	078c9103 	streq	r9, [ip, r3, lsl #2]
     dd4:	00070000 	andeq	r0, r7, r0
     dd8:	03000000 	movweq	r0, #0
     ddc:	00005e92 	muleq	r0, r2, lr
     de0:	1e020400 	cfcpysne	mvf0, mvf2
     de4:	07002302 	streq	r2, [r0, -r2, lsl #6]
     de8:	00000e99 	muleq	r0, r9, lr
     dec:	005e9303 	subseq	r9, lr, r3, lsl #6
     df0:	02040000 	andeq	r0, r4, #0
     df4:	0023021c 	eoreq	r0, r3, ip, lsl r2
     df8:	00033707 	andeq	r3, r3, r7, lsl #14
     dfc:	5e940300 	cdppl	3, 9, cr0, cr4, cr0, {0}
     e00:	04000000 	streq	r0, [r0]
     e04:	23021a02 	movwcs	r1, #10754	; 0x2a02
     e08:	09220700 	stmdbeq	r2!, {r8, r9, sl}
     e0c:	95030000 	strls	r0, [r3]
     e10:	0000005e 	andeq	r0, r0, lr, asr r0
     e14:	02180204 	andseq	r0, r8, #1073741824	; 0x40000000
     e18:	08070023 	stmdaeq	r7, {r0, r1, r5}
     e1c:	03000000 	movweq	r0, #0
     e20:	00005e96 	muleq	r0, r6, lr
     e24:	13050400 	movwne	r0, #21504	; 0x5400
     e28:	07002302 	streq	r2, [r0, -r2, lsl #6]
     e2c:	00000ea3 	andeq	r0, r0, r3, lsr #29
     e30:	005e9703 	subseq	r9, lr, r3, lsl #14
     e34:	02040000 	andeq	r0, r4, #0
     e38:	00230211 	eoreq	r0, r3, r1, lsl r2
     e3c:	00058a07 	andeq	r8, r5, r7, lsl #20
     e40:	5e980300 	cdppl	3, 9, cr0, cr8, cr0, {0}
     e44:	04000000 	streq	r0, [r0]
     e48:	23021001 	movwcs	r1, #8193	; 0x2001
     e4c:	0ead0700 	cdpeq	7, 10, cr0, cr13, cr0, {0}
     e50:	99030000 	stmdbls	r3, {}
     e54:	0000005e 	andeq	r0, r0, lr, asr r0
     e58:	020c0404 	andeq	r0, ip, #67108864	; 0x4000000
     e5c:	b0070023 	andlt	r0, r7, r3, lsr #32
     e60:	0300000f 	movweq	r0, #15
     e64:	00005e9a 	muleq	r0, sl, lr
     e68:	07050400 	streq	r0, [r5, -r0, lsl #8]
     e6c:	07002302 	streq	r2, [r0, -r2, lsl #6]
     e70:	00000e15 	andeq	r0, r0, r5, lsl lr
     e74:	005e9b03 	subseq	r9, lr, r3, lsl #22
     e78:	05040000 	streq	r0, [r4]
     e7c:	00230202 	eoreq	r0, r3, r2, lsl #4
     e80:	000af207 	andeq	pc, sl, r7, lsl #4
     e84:	5e9c0300 	cdppl	3, 9, cr0, cr12, cr0, {0}
     e88:	04000000 	streq	r0, [r0]
     e8c:	23020101 	movwcs	r0, #8449	; 0x2101
     e90:	0f370700 	svceq	0x00370700
     e94:	9d030000 	stcls	0, cr0, [r3]
     e98:	0000005e 	andeq	r0, r0, lr, asr r0
     e9c:	02000104 	andeq	r0, r0, #1
     ea0:	03000023 	movweq	r0, #35	; 0x23
     ea4:	0000056f 	andeq	r0, r0, pc, ror #10
     ea8:	06b39e03 	ldrteq	r9, [r3], r3, lsl #28
     eac:	da060000 	ble	180eb4 <__resume0_start+0x180eb4>
     eb0:	0400000c 	streq	r0, [r0], #-12
     eb4:	085fa203 	ldmdaeq	pc, {r0, r1, r9, sp, pc}^
     eb8:	00070000 	andeq	r0, r7, r0
     ebc:	03000000 	movweq	r0, #0
     ec0:	00005ea3 	andeq	r5, r0, r3, lsr #29
     ec4:	19070400 	stmdbne	r7, {sl}
     ec8:	07002302 	streq	r2, [r0, -r2, lsl #6]
     ecc:	00000e99 	muleq	r0, r9, lr
     ed0:	005ea403 	subseq	sl, lr, r3, lsl #8
     ed4:	01040000 	tsteq	r4, r0
     ed8:	00230218 	eoreq	r0, r3, r8, lsl r2
     edc:	000fb007 	andeq	fp, pc, r7
     ee0:	5ea50300 	cdppl	3, 10, cr0, cr5, cr0, {0}
     ee4:	04000000 	streq	r0, [r0]
     ee8:	23021305 	movwcs	r1, #8965	; 0x2305
     eec:	0ea30700 	cdpeq	7, 10, cr0, cr3, cr0, {0}
     ef0:	a6030000 	strge	r0, [r3], -r0
     ef4:	0000005e 	andeq	r0, r0, lr, asr r0
     ef8:	02120104 	andseq	r0, r2, #1
     efc:	07070023 	streq	r0, [r7, -r3, lsr #32]
     f00:	0300000b 	movweq	r0, #11
     f04:	00005ea7 	andeq	r5, r0, r7, lsr #29
     f08:	11010400 	tstne	r1, r0, lsl #8
     f0c:	07002302 	streq	r2, [r0, -r2, lsl #6]
     f10:	00000cd2 	ldrdeq	r0, [r0], -r2
     f14:	005ea803 	subseq	sl, lr, r3, lsl #16
     f18:	01040000 	tsteq	r4, r0
     f1c:	00230210 	eoreq	r0, r3, r0, lsl r2
     f20:	000e1507 	andeq	r1, lr, r7, lsl #10
     f24:	5ea90300 	cdppl	3, 10, cr0, cr9, cr0, {0}
     f28:	04000000 	streq	r0, [r0]
     f2c:	23020b05 	movwcs	r0, #11013	; 0x2b05
     f30:	0ead0700 	cdpeq	7, 10, cr0, cr13, cr0, {0}
     f34:	aa030000 	bge	c0f3c <__resume0_start+0xc0f3c>
     f38:	0000005e 	andeq	r0, r0, lr, asr r0
     f3c:	02080304 	andeq	r0, r8, #268435456	; 0x10000000
     f40:	22070023 	andcs	r0, r7, #35	; 0x23
     f44:	03000009 	movweq	r0, #9
     f48:	00005eab 	andeq	r5, r0, fp, lsr #29
     f4c:	05030400 	streq	r0, [r3, #-1024]	; 0x400
     f50:	07002302 	streq	r2, [r0, -r2, lsl #6]
     f54:	00000eb7 	undefined instruction 0x00000eb7
     f58:	005eac03 	subseq	sl, lr, r3, lsl #24
     f5c:	04040000 	streq	r0, [r4]
     f60:	00230201 	eoreq	r0, r3, r1, lsl #4
     f64:	000f3707 	andeq	r3, pc, r7, lsl #14
     f68:	5ead0300 	cdppl	3, 10, cr0, cr13, cr0, {0}
     f6c:	04000000 	streq	r0, [r0]
     f70:	23020001 	movwcs	r0, #8193	; 0x2001
     f74:	ac030000 	stcge	0, cr0, [r3], {0}
     f78:	0300000c 	movweq	r0, #12
     f7c:	000797ae 	andeq	r9, r7, lr, lsr #15
     f80:	0ecb0600 	cdpeq	6, 12, cr0, cr11, cr0, {0}
     f84:	03040000 	movweq	r0, #16384	; 0x4000
     f88:	0008ddb2 	undefined instruction 0x0008ddb2
     f8c:	0a730700 	beq	1cc2b94 <__resume0_start+0x1cc2b94>
     f90:	b3030000 	movwlt	r0, #12288	; 0x3000
     f94:	0000005e 	andeq	r0, r0, lr, asr r0
     f98:	020f1104 	andeq	r1, pc, #1
     f9c:	08070023 	stmdaeq	r7, {r0, r1, r5}
     fa0:	03000012 	movweq	r0, #18
     fa4:	00005eb4 	undefined instruction 0x00005eb4
     fa8:	0d020400 	cfstrseq	mvf0, [r2]
     fac:	07002302 	streq	r2, [r0, -r2, lsl #6]
     fb0:	00000e99 	muleq	r0, r9, lr
     fb4:	005eb503 	subseq	fp, lr, r3, lsl #10
     fb8:	01040000 	tsteq	r4, r0
     fbc:	0023020c 	eoreq	r0, r3, ip, lsl #4
     fc0:	00037907 	andeq	r7, r3, r7, lsl #18
     fc4:	5eb60300 	cdppl	3, 11, cr0, cr6, cr0, {0}
     fc8:	04000000 	streq	r0, [r0]
     fcc:	23020309 	movwcs	r0, #8969	; 0x2309
     fd0:	07d00700 	ldrbeq	r0, [r0, r0, lsl #14]
     fd4:	b7030000 	strlt	r0, [r3, -r0]
     fd8:	0000005e 	andeq	r0, r0, lr, asr r0
     fdc:	02010204 	andeq	r0, r1, #1073741824	; 0x40000000
     fe0:	52070023 	andpl	r0, r7, #35	; 0x23
     fe4:	0300000a 	movweq	r0, #10
     fe8:	00005eb8 	undefined instruction 0x00005eb8
     fec:	00010400 	andeq	r0, r1, r0, lsl #8
     ff0:	00002302 	andeq	r2, r0, r2, lsl #6
     ff4:	00053803 	andeq	r3, r5, r3, lsl #16
     ff8:	6ab90300 	bvs	fee41c00 <__bss_end+0xbed3bc50>
     ffc:	06000008 	streq	r0, [r0], -r8
    1000:	00000df0 	strdeq	r0, [r0], -r0
    1004:	5bbd0304 	blpl	fef41c1c <__bss_end+0xbee3bc6c>
    1008:	07000009 	streq	r0, [r0, -r9]
    100c:	00000a73 	andeq	r0, r0, r3, ror sl
    1010:	005ebe03 	subseq	fp, lr, r3, lsl #28
    1014:	11040000 	tstne	r4, r0
    1018:	0023020f 	eoreq	r0, r3, pc, lsl #4
    101c:	00120807 	andseq	r0, r2, r7, lsl #16
    1020:	5ebf0300 	cdppl	3, 11, cr0, cr15, cr0, {0}
    1024:	04000000 	streq	r0, [r0]
    1028:	23020d02 	movwcs	r0, #11522	; 0x2d02
    102c:	0e990700 	cdpeq	7, 9, cr0, cr9, cr0, {0}
    1030:	c0030000 	andgt	r0, r3, r0
    1034:	0000005e 	andeq	r0, r0, lr, asr r0
    1038:	020c0104 	andeq	r0, ip, #1
    103c:	79070023 	stmdbvc	r7, {r0, r1, r5}
    1040:	03000003 	movweq	r0, #3
    1044:	00005ec1 	andeq	r5, r0, r1, asr #29
    1048:	03090400 	movweq	r0, #37888	; 0x9400
    104c:	07002302 	streq	r2, [r0, -r2, lsl #6]
    1050:	000007d0 	ldrdeq	r0, [r0], -r0
    1054:	005ec203 	subseq	ip, lr, r3, lsl #4
    1058:	02040000 	andeq	r0, r4, #0
    105c:	00230201 	eoreq	r0, r3, r1, lsl #4
    1060:	000a5207 	andeq	r5, sl, r7, lsl #4
    1064:	5ec30300 	cdppl	3, 12, cr0, cr3, cr0, {0}
    1068:	04000000 	streq	r0, [r0]
    106c:	23020001 	movwcs	r0, #8193	; 0x2001
    1070:	06030000 	streq	r0, [r3], -r0
    1074:	03000010 	movweq	r0, #16
    1078:	0008e8c4 	andeq	lr, r8, r4, asr #17
    107c:	0d330600 	ldceq	6, cr0, [r3]
    1080:	03040000 	movweq	r0, #16384	; 0x4000
    1084:	000a1dc8 	andeq	r1, sl, r8, asr #27
    1088:	0f260700 	svceq	0x00260700
    108c:	c9030000 	stmdbgt	r3, {}
    1090:	0000005e 	andeq	r0, r0, lr, asr r0
    1094:	021f0104 	andseq	r0, pc, #1
    1098:	83070023 	movwhi	r0, #28707	; 0x7023
    109c:	0300000c 	movweq	r0, #12
    10a0:	00005eca 	andeq	r5, r0, sl, asr #29
    10a4:	1e010400 	cfcpysne	mvf0, mvf1
    10a8:	07002302 	streq	r2, [r0, -r2, lsl #6]
    10ac:	00000e99 	muleq	r0, r9, lr
    10b0:	005ecb03 	subseq	ip, lr, r3, lsl #22
    10b4:	02040000 	andeq	r0, r4, #0
    10b8:	0023021c 	eoreq	r0, r3, ip, lsl r2
    10bc:	0008aa07 	andeq	sl, r8, r7, lsl #20
    10c0:	5ecc0300 	cdppl	3, 12, cr0, cr12, cr0, {0}
    10c4:	04000000 	streq	r0, [r0]
    10c8:	23021b01 	movwcs	r1, #11009	; 0x2b01
    10cc:	0ea30700 	cdpeq	7, 10, cr0, cr3, cr0, {0}
    10d0:	cd030000 	stcgt	0, cr0, [r3]
    10d4:	0000005e 	andeq	r0, r0, lr, asr r0
    10d8:	02110a04 	andseq	r0, r1, #16384	; 0x4000
    10dc:	79070023 	stmdbvc	r7, {r0, r1, r5}
    10e0:	0300000b 	movweq	r0, #11
    10e4:	00005ece 	andeq	r5, r0, lr, asr #29
    10e8:	10010400 	andne	r0, r1, r0, lsl #8
    10ec:	07002302 	streq	r2, [r0, -r2, lsl #6]
    10f0:	00000569 	andeq	r0, r0, r9, ror #10
    10f4:	005ecf03 	subseq	ip, lr, r3, lsl #30
    10f8:	01040000 	tsteq	r4, r0
    10fc:	0023020f 	eoreq	r0, r3, pc, lsl #4
    1100:	00050507 	andeq	r0, r5, r7, lsl #10
    1104:	5ed00300 	cdppl	3, 13, cr0, cr0, cr0, {0}
    1108:	04000000 	streq	r0, [r0]
    110c:	23020e01 	movwcs	r0, #11777	; 0x2e01
    1110:	06920700 	ldreq	r0, [r2], r0, lsl #14
    1114:	d1030000 	tstle	r3, r0
    1118:	0000005e 	andeq	r0, r0, lr, asr r0
    111c:	020b0304 	andeq	r0, fp, #268435456	; 0x10000000
    1120:	65070023 	strvs	r0, [r7, #-35]	; 0x23
    1124:	0300000d 	movweq	r0, #13
    1128:	00005ed2 	ldrdeq	r5, [r0], -r2
    112c:	000b0400 	andeq	r0, fp, r0, lsl #8
    1130:	00002302 	andeq	r2, r0, r2, lsl #6
    1134:	00070303 	andeq	r0, r7, r3, lsl #6
    1138:	66d50300 	ldrbvs	r0, [r5], r0, lsl #6
    113c:	06000009 	streq	r0, [r0], -r9
    1140:	00000f69 	andeq	r0, r0, r9, ror #30
    1144:	bdd90304 	ldcllt	3, cr0, [r9, #16]
    1148:	0700000a 	streq	r0, [r0, -sl]
    114c:	000011ba 	undefined instruction 0x000011ba
    1150:	005eda03 	subseq	sp, lr, r3, lsl #20
    1154:	02040000 	andeq	r0, r4, #0
    1158:	0023021e 	eoreq	r0, r3, lr, lsl r2
    115c:	000e9907 	andeq	r9, lr, r7, lsl #18
    1160:	5edb0300 	cdppl	3, 13, cr0, cr11, cr0, {0}
    1164:	04000000 	streq	r0, [r0]
    1168:	23021c02 	movwcs	r1, #11266	; 0x2c02
    116c:	08520700 	ldmdaeq	r2, {r8, r9, sl}^
    1170:	dc030000 	stcle	0, cr0, [r3], {0}
    1174:	0000005e 	andeq	r0, r0, lr, asr r0
    1178:	021a0204 	andseq	r0, sl, #1073741824	; 0x40000000
    117c:	57070023 	strpl	r0, [r7, -r3, lsr #32]
    1180:	03000012 	movweq	r0, #18
    1184:	00005edd 	ldrdeq	r5, [r0], -sp
    1188:	18020400 	stmdane	r2, {sl}
    118c:	07002302 	streq	r2, [r0, -r2, lsl #6]
    1190:	0000124c 	andeq	r1, r0, ip, asr #4
    1194:	005ede03 	subseq	sp, lr, r3, lsl #28
    1198:	02040000 	andeq	r0, r4, #0
    119c:	00230216 	eoreq	r0, r3, r6, lsl r2
    11a0:	000ea307 	andeq	sl, lr, r7, lsl #6
    11a4:	5edf0300 	cdppl	3, 13, cr0, cr15, cr0, {0}
    11a8:	04000000 	streq	r0, [r0]
    11ac:	23021006 	movwcs	r1, #8198	; 0x2006
    11b0:	11ef0700 	mvnne	r0, r0, lsl #14
    11b4:	e0030000 	and	r0, r3, r0
    11b8:	0000005e 	andeq	r0, r0, lr, asr r0
    11bc:	020e0204 	andeq	r0, lr, #1073741824	; 0x40000000
    11c0:	ad070023 	stcge	0, cr0, [r7, #-140]	; 0xffffff74
    11c4:	0300000e 	movweq	r0, #14
    11c8:	00005ee1 	andeq	r5, r0, r1, ror #29
    11cc:	000e0400 	andeq	r0, lr, r0, lsl #8
    11d0:	00002302 	andeq	r2, r0, r2, lsl #6
    11d4:	00110003 	andseq	r0, r1, r3
    11d8:	28e20300 	stmiacs	r2!, {r8, r9}^
    11dc:	0600000a 	streq	r0, [r0], -sl
    11e0:	00000e69 	andeq	r0, r0, r9, ror #28
    11e4:	3be50304 	blcc	ff941dfc <__bss_end+0xbf83be4c>
    11e8:	0700000b 	streq	r0, [r0, -fp]
    11ec:	00001250 	andeq	r1, r0, r0, asr r2
    11f0:	005ee603 	subseq	lr, lr, r3, lsl #12
    11f4:	05040000 	streq	r0, [r4]
    11f8:	0023021b 	eoreq	r0, r3, fp, lsl r2
    11fc:	000e9907 	andeq	r9, lr, r7, lsl #18
    1200:	5ee70300 	cdppl	3, 14, cr0, cr7, cr0, {0}
    1204:	04000000 	streq	r0, [r0]
    1208:	2302100b 	movwcs	r1, #8203	; 0x200b
    120c:	04e50700 	strbteq	r0, [r5], #1792	; 0x700
    1210:	e8030000 	stmda	r3, {}
    1214:	0000005e 	andeq	r0, r0, lr, asr r0
    1218:	020e0204 	andeq	r0, lr, #1073741824	; 0x40000000
    121c:	a3070023 	movwge	r0, #28707	; 0x7023
    1220:	0300000e 	movweq	r0, #14
    1224:	00005ee9 	andeq	r5, r0, r9, ror #29
    1228:	08060400 	stmdaeq	r6, {sl}
    122c:	07002302 	streq	r2, [r0, -r2, lsl #6]
    1230:	000011f4 	strdeq	r1, [r0], -r4
    1234:	005eea03 	subseq	lr, lr, r3, lsl #20
    1238:	02040000 	andeq	r0, r4, #0
    123c:	00230206 	eoreq	r0, r3, r6, lsl #4
    1240:	000ead07 	andeq	sl, lr, r7, lsl #26
    1244:	5eeb0300 	cdppl	3, 14, cr0, cr11, cr0, {0}
    1248:	04000000 	streq	r0, [r0]
    124c:	23020006 	movwcs	r0, #8198	; 0x2006
    1250:	73030000 	movwvc	r0, #12288	; 0x3000
    1254:	03000006 	movweq	r0, #6
    1258:	000ac8ec 	andeq	ip, sl, ip, ror #17
    125c:	0b490600 	bleq	1242a64 <__resume0_start+0x1242a64>
    1260:	03040000 	movweq	r0, #16384	; 0x4000
    1264:	000b75f0 	strdeq	r7, [fp], -r0
    1268:	0c3e0700 	ldceq	7, cr0, [lr]
    126c:	f1030000 	undefined instruction 0xf1030000
    1270:	0000005e 	andeq	r0, r0, lr, asr r0
    1274:	021f0104 	andseq	r0, pc, #1
    1278:	99070023 	stmdbls	r7, {r0, r1, r5}
    127c:	0300000e 	movweq	r0, #14
    1280:	00005ef2 	strdeq	r5, [r0], -r2
    1284:	001f0400 	andseq	r0, pc, r0, lsl #8
    1288:	00002302 	andeq	r2, r0, r2, lsl #6
    128c:	00102d03 	andseq	r2, r0, r3, lsl #26
    1290:	46f30300 	ldrbtmi	r0, [r3], r0, lsl #6
    1294:	0600000b 	streq	r0, [r0], -fp
    1298:	000003d3 	ldrdeq	r0, [r0], -r3
    129c:	59f70304 	ldmibpl	r7!, {r2, r8, r9}^
    12a0:	0700000d 	streq	r0, [r0, -sp]
    12a4:	0000077a 	andeq	r0, r0, sl, ror r7
    12a8:	005ef803 	subseq	pc, lr, r3, lsl #16
    12ac:	01040000 	tsteq	r4, r0
    12b0:	0023021f 	eoreq	r0, r3, pc, lsl r2
    12b4:	000f9307 	andeq	r9, pc, r7, lsl #6
    12b8:	5ef90300 	cdppl	3, 15, cr0, cr9, cr0, {0}
    12bc:	04000000 	streq	r0, [r0]
    12c0:	23021e01 	movwcs	r1, #11777	; 0x2e01
    12c4:	0cf50700 	ldcleq	7, cr0, [r5]
    12c8:	fa030000 	blx	c12d0 <__resume0_start+0xc12d0>
    12cc:	0000005e 	andeq	r0, r0, lr, asr r0
    12d0:	021d0104 	andseq	r0, sp, #1
    12d4:	99070023 	stmdbls	r7, {r0, r1, r5}
    12d8:	0300000e 	movweq	r0, #14
    12dc:	00005efb 	strdeq	r5, [r0], -fp
    12e0:	1b020400 	blne	822e8 <__resume0_start+0x822e8>
    12e4:	07002302 	streq	r2, [r0, -r2, lsl #6]
    12e8:	00000fc1 	andeq	r0, r0, r1, asr #31
    12ec:	005efc03 	subseq	pc, lr, r3, lsl #24
    12f0:	01040000 	tsteq	r4, r0
    12f4:	0023021a 	eoreq	r0, r3, sl, lsl r2
    12f8:	000f2f07 	andeq	r2, pc, r7, lsl #30
    12fc:	5efd0300 	cdppl	3, 15, cr0, cr13, cr0, {0}
    1300:	04000000 	streq	r0, [r0]
    1304:	23021901 	movwcs	r1, #10497	; 0x2901
    1308:	08380700 	ldmdaeq	r8!, {r8, r9, sl}
    130c:	fe030000 	cdp2	0, 0, cr0, cr3, cr0, {0}
    1310:	0000005e 	andeq	r0, r0, lr, asr r0
    1314:	02180104 	andseq	r0, r8, #1
    1318:	5c070023 	stcpl	0, cr0, [r7], {35}	; 0x23
    131c:	03000008 	movweq	r0, #8
    1320:	00005eff 	strdeq	r5, [r0], -pc
    1324:	17010400 	strne	r0, [r1, -r0, lsl #8]
    1328:	08002302 	stmdaeq	r0, {r1, r8, r9, sp}
    132c:	00001284 	andeq	r1, r0, r4, lsl #5
    1330:	5e010003 	cdppl	0, 0, cr0, cr1, cr3, {0}
    1334:	04000000 	streq	r0, [r0]
    1338:	23021601 	movwcs	r1, #9729	; 0x2601
    133c:	0ca10800 	stceq	8, cr0, [r1]
    1340:	01030000 	tsteq	r3, r0
    1344:	00005e01 	andeq	r5, r0, r1, lsl #28
    1348:	15010400 	strne	r0, [r1, #-1024]	; 0x400
    134c:	08002302 	stmdaeq	r0, {r1, r8, r9, sp}
    1350:	00000ea3 	andeq	r0, r0, r3, lsr #29
    1354:	5e010203 	cdppl	2, 0, cr0, cr1, cr3, {0}
    1358:	04000000 	streq	r0, [r0]
    135c:	23021401 	movwcs	r1, #9217	; 0x2401
    1360:	06b50800 	ldrteq	r0, [r5], r0, lsl #16
    1364:	03030000 	movweq	r0, #12288	; 0x3000
    1368:	00005e01 	andeq	r5, r0, r1, lsl #28
    136c:	13010400 	movwne	r0, #5120	; 0x1400
    1370:	08002302 	stmdaeq	r0, {r1, r8, r9, sp}
    1374:	00000fb8 	undefined instruction 0x00000fb8
    1378:	5e010403 	cdppl	4, 0, cr0, cr1, cr3, {0}
    137c:	04000000 	streq	r0, [r0]
    1380:	23021201 	movwcs	r1, #8705	; 0x2201
    1384:	0c3e0800 	ldceq	8, cr0, [lr]
    1388:	05030000 	streq	r0, [r3]
    138c:	00005e01 	andeq	r5, r0, r1, lsl #28
    1390:	11010400 	tstne	r1, r0, lsl #8
    1394:	08002302 	stmdaeq	r0, {r1, r8, r9, sp}
    1398:	00000ead 	andeq	r0, r0, sp, lsr #29
    139c:	5e010603 	cfmadd32pl	mvax0, mvfx0, mvfx1, mvfx3
    13a0:	04000000 	streq	r0, [r0]
    13a4:	23020f02 	movwcs	r0, #12034	; 0x2f02
    13a8:	0d5c0800 	ldcleq	8, cr0, [ip]
    13ac:	07030000 	streq	r0, [r3, -r0]
    13b0:	00005e01 	andeq	r5, r0, r1, lsl #28
    13b4:	0e010400 	cfcpyseq	mvf0, mvf1
    13b8:	08002302 	stmdaeq	r0, {r1, r8, r9, sp}
    13bc:	000003f7 	strdeq	r0, [r0], -r7
    13c0:	5e010803 	cdppl	8, 0, cr0, cr1, cr3, {0}
    13c4:	04000000 	streq	r0, [r0]
    13c8:	23020d01 	movwcs	r0, #11521	; 0x2d01
    13cc:	0eb70800 	cdpeq	8, 11, cr0, cr7, cr0, {0}
    13d0:	09030000 	stmdbeq	r3, {}
    13d4:	00005e01 	andeq	r5, r0, r1, lsl #28
    13d8:	0c010400 	cfstrseq	mvf0, [r1], {0}
    13dc:	08002302 	stmdaeq	r0, {r1, r8, r9, sp}
    13e0:	000004cf 	andeq	r0, r0, pc, asr #9
    13e4:	5e010a03 	vmlapl.f32	s0, s2, s6
    13e8:	04000000 	streq	r0, [r0]
    13ec:	23020b01 	movwcs	r0, #11009	; 0x2b01
    13f0:	082f0800 	stmdaeq	pc!, {fp}
    13f4:	0b030000 	bleq	c13fc <__resume0_start+0xc13fc>
    13f8:	00005e01 	andeq	r5, r0, r1, lsl #28
    13fc:	0a010400 	beq	42404 <__resume0_start+0x42404>
    1400:	08002302 	stmdaeq	r0, {r1, r8, r9, sp}
    1404:	00000945 	andeq	r0, r0, r5, asr #18
    1408:	5e010c03 	cdppl	12, 0, cr0, cr1, cr3, {0}
    140c:	04000000 	streq	r0, [r0]
    1410:	23020901 	movwcs	r0, #10497	; 0x2901
    1414:	0ec10800 	cdpeq	8, 12, cr0, cr1, cr0, {0}
    1418:	0d030000 	stceq	0, cr0, [r3]
    141c:	00005e01 	andeq	r5, r0, r1, lsl #28
    1420:	06030400 	streq	r0, [r3], -r0, lsl #8
    1424:	08002302 	stmdaeq	r0, {r1, r8, r9, sp}
    1428:	00001143 	andeq	r1, r0, r3, asr #2
    142c:	5e010e03 	cdppl	14, 0, cr0, cr1, cr3, {0}
    1430:	04000000 	streq	r0, [r0]
    1434:	23020501 	movwcs	r0, #9473	; 0x2501
    1438:	05f20800 	ldrbeq	r0, [r2, #2048]!	; 0x800
    143c:	0f030000 	svceq	0x00030000
    1440:	00005e01 	andeq	r5, r0, r1, lsl #28
    1444:	04010400 	streq	r0, [r1], #-1024	; 0x400
    1448:	08002302 	stmdaeq	r0, {r1, r8, r9, sp}
    144c:	00000d53 	andeq	r0, r0, r3, asr sp
    1450:	5e011003 	cdppl	0, 0, cr1, cr1, cr3, {0}
    1454:	04000000 	streq	r0, [r0]
    1458:	23020301 	movwcs	r0, #8961	; 0x2301
    145c:	0ee70800 	cdpeq	8, 14, cr0, cr7, cr0, {0}
    1460:	11030000 	tstne	r3, r0
    1464:	00005e01 	andeq	r5, r0, r1, lsl #28
    1468:	00030400 	andeq	r0, r3, r0, lsl #8
    146c:	00002302 	andeq	r2, r0, r2, lsl #6
    1470:	00038209 	andeq	r8, r3, r9, lsl #4
    1474:	01120300 	tsteq	r2, r0, lsl #6
    1478:	00000b80 	andeq	r0, r0, r0, lsl #23
    147c:	0008130a 	andeq	r1, r8, sl, lsl #6
    1480:	16030400 	strne	r0, [r3], -r0, lsl #8
    1484:	000e9301 	andeq	r9, lr, r1, lsl #6
    1488:	0ae30800 	beq	ff8c3490 <__bss_end+0xbf7bd4e0>
    148c:	17030000 	strne	r0, [r3, -r0]
    1490:	00005e01 	andeq	r5, r0, r1, lsl #28
    1494:	1f010400 	svcne	0x00010400
    1498:	08002302 	stmdaeq	r0, {r1, r8, r9, sp}
    149c:	00000e99 	muleq	r0, r9, lr
    14a0:	5e011803 	cdppl	8, 0, cr1, cr1, cr3, {0}
    14a4:	04000000 	streq	r0, [r0]
    14a8:	23021e01 	movwcs	r1, #11777	; 0x2e01
    14ac:	096e0800 	stmdbeq	lr!, {fp}^
    14b0:	19030000 	stmdbne	r3, {}
    14b4:	00005e01 	andeq	r5, r0, r1, lsl #28
    14b8:	1d010400 	cfstrsne	mvf0, [r1]
    14bc:	08002302 	stmdaeq	r0, {r1, r8, r9, sp}
    14c0:	00000ea3 	andeq	r0, r0, r3, lsr #29
    14c4:	5e011a03 	vmlapl.f32	s2, s2, s6
    14c8:	04000000 	streq	r0, [r0]
    14cc:	23021c01 	movwcs	r1, #11265	; 0x2c01
    14d0:	07560800 	ldrbeq	r0, [r6, -r0, lsl #16]
    14d4:	1b030000 	blne	c14dc <__resume0_start+0xc14dc>
    14d8:	00005e01 	andeq	r5, r0, r1, lsl #28
    14dc:	1b010400 	blne	424e4 <__resume0_start+0x424e4>
    14e0:	08002302 	stmdaeq	r0, {r1, r8, r9, sp}
    14e4:	00000ead 	andeq	r0, r0, sp, lsr #29
    14e8:	5e011c03 	cdppl	12, 0, cr1, cr1, cr3, {0}
    14ec:	04000000 	streq	r0, [r0]
    14f0:	23021803 	movwcs	r1, #10243	; 0x2803
    14f4:	127b0800 	rsbsne	r0, fp, #0
    14f8:	1d030000 	stcne	0, cr0, [r3]
    14fc:	00005e01 	andeq	r5, r0, r1, lsl #28
    1500:	17010400 	strne	r0, [r1, -r0, lsl #8]
    1504:	08002302 	stmdaeq	r0, {r1, r8, r9, sp}
    1508:	00000eb7 	undefined instruction 0x00000eb7
    150c:	5e011e03 	cdppl	14, 0, cr1, cr1, cr3, {0}
    1510:	04000000 	streq	r0, [r0]
    1514:	23021502 	movwcs	r1, #9474	; 0x2502
    1518:	0ff10800 	svceq	0x00f10800
    151c:	1f030000 	svcne	0x00030000
    1520:	00005e01 	andeq	r5, r0, r1, lsl #28
    1524:	14010400 	strne	r0, [r1], #-1024	; 0x400
    1528:	08002302 	stmdaeq	r0, {r1, r8, r9, sp}
    152c:	00000e3e 	andeq	r0, r0, lr, lsr lr
    1530:	5e012003 	cdppl	0, 0, cr2, cr1, cr3, {0}
    1534:	04000000 	streq	r0, [r0]
    1538:	23021301 	movwcs	r1, #8961	; 0x2301
    153c:	0ec10800 	cdpeq	8, 12, cr0, cr1, cr0, {0}
    1540:	21030000 	tstcs	r3, r0
    1544:	00005e01 	andeq	r5, r0, r1, lsl #28
    1548:	12010400 	andne	r0, r1, #0
    154c:	08002302 	stmdaeq	r0, {r1, r8, r9, sp}
    1550:	00001129 	andeq	r1, r0, r9, lsr #2
    1554:	5e012203 	cdppl	2, 0, cr2, cr1, cr3, {0}
    1558:	04000000 	streq	r0, [r0]
    155c:	23021101 	movwcs	r1, #8449	; 0x2101
    1560:	05f20800 	ldrbeq	r0, [r2, #2048]!	; 0x800
    1564:	23030000 	movwcs	r0, #12288	; 0x3000
    1568:	00005e01 	andeq	r5, r0, r1, lsl #28
    156c:	0d040400 	cfstrseq	mvf0, [r4]
    1570:	08002302 	stmdaeq	r0, {r1, r8, r9, sp}
    1574:	00000aac 	andeq	r0, r0, ip, lsr #21
    1578:	5e012403 	cdppl	4, 0, cr2, cr1, cr3, {0}
    157c:	04000000 	streq	r0, [r0]
    1580:	23020c01 	movwcs	r0, #11265	; 0x2c01
    1584:	09bf0800 	ldmibeq	pc!, {fp}
    1588:	25030000 	strcs	r0, [r3]
    158c:	00005e01 	andeq	r5, r0, r1, lsl #28
    1590:	0b010400 	bleq	42598 <__resume0_start+0x42598>
    1594:	08002302 	stmdaeq	r0, {r1, r8, r9, sp}
    1598:	00000ee7 	andeq	r0, r0, r7, ror #29
    159c:	5e012603 	cfmadd32pl	mvax0, mvfx2, mvfx1, mvfx3
    15a0:	04000000 	streq	r0, [r0]
    15a4:	2302000b 	movwcs	r0, #8203	; 0x200b
    15a8:	67090000 	strvs	r0, [r9, -r0]
    15ac:	03000008 	movweq	r0, #8
    15b0:	0d650127 	stfeqe	f0, [r5, #-156]!	; 0xffffff64
    15b4:	8f0a0000 	svchi	0x000a0000
    15b8:	04000012 	streq	r0, [r0], #-18
    15bc:	61012b03 	tstvs	r1, r3, lsl #22
    15c0:	0800000f 	stmdaeq	r0, {r0, r1, r2, r3}
    15c4:	00000e0c 	andeq	r0, r0, ip, lsl #28
    15c8:	5e012c03 	cdppl	12, 0, cr2, cr1, cr3, {0}
    15cc:	04000000 	streq	r0, [r0]
    15d0:	23021f01 	movwcs	r1, #12033	; 0x2f01
    15d4:	0a690800 	beq	1a435dc <__resume0_start+0x1a435dc>
    15d8:	2d030000 	stccs	0, cr0, [r3]
    15dc:	00005e01 	andeq	r5, r0, r1, lsl #28
    15e0:	1e010400 	cfcpysne	mvf0, mvf1
    15e4:	08002302 	stmdaeq	r0, {r1, r8, r9, sp}
    15e8:	00000e99 	muleq	r0, r9, lr
    15ec:	5e012e03 	cdppl	14, 0, cr2, cr1, cr3, {0}
    15f0:	04000000 	streq	r0, [r0]
    15f4:	23021d01 	movwcs	r1, #11521	; 0x2d01
    15f8:	0f1e0800 	svceq	0x001e0800
    15fc:	2f030000 	svccs	0x00030000
    1600:	00005e01 	andeq	r5, r0, r1, lsl #28
    1604:	1c010400 	cfstrsne	mvf0, [r1], {0}
    1608:	08002302 	stmdaeq	r0, {r1, r8, r9, sp}
    160c:	00000ea3 	andeq	r0, r0, r3, lsr #29
    1610:	5e013003 	cdppl	0, 0, cr3, cr1, cr3, {0}
    1614:	04000000 	streq	r0, [r0]
    1618:	23021b01 	movwcs	r1, #11009	; 0x2b01
    161c:	05280800 	streq	r0, [r8, #-2048]!	; 0x800
    1620:	31030000 	tstcc	r3, r0
    1624:	00005e01 	andeq	r5, r0, r1, lsl #28
    1628:	1a010400 	bne	42630 <__resume0_start+0x42630>
    162c:	08002302 	stmdaeq	r0, {r1, r8, r9, sp}
    1630:	00000cff 	strdeq	r0, [r0], -pc
    1634:	5e013203 	cdppl	2, 0, cr3, cr1, cr3, {0}
    1638:	04000000 	streq	r0, [r0]
    163c:	23021901 	movwcs	r1, #10497	; 0x2901
    1640:	0ead0800 	cdpeq	8, 10, cr0, cr13, cr0, {0}
    1644:	33030000 	movwcc	r0, #12288	; 0x3000
    1648:	00005e01 	andeq	r5, r0, r1, lsl #28
    164c:	16030400 	strne	r0, [r3], -r0, lsl #8
    1650:	08002302 	stmdaeq	r0, {r1, r8, r9, sp}
    1654:	0000093a 	andeq	r0, r0, sl, lsr r9
    1658:	5e013403 	cdppl	4, 0, cr3, cr1, cr3, {0}
    165c:	04000000 	streq	r0, [r0]
    1660:	23021501 	movwcs	r1, #9473	; 0x2501
    1664:	0eb70800 	cdpeq	8, 11, cr0, cr7, cr0, {0}
    1668:	35030000 	strcc	r0, [r3]
    166c:	00005e01 	andeq	r5, r0, r1, lsl #28
    1670:	00150400 	andseq	r0, r5, r0, lsl #8
    1674:	00002302 	andeq	r2, r0, r2, lsl #6
    1678:	000c5d09 	andeq	r5, ip, r9, lsl #26
    167c:	01360300 	teqeq	r6, r0, lsl #6
    1680:	00000e9f 	muleq	r0, pc, lr
    1684:	00119e0a 	andseq	r9, r1, sl, lsl #28
    1688:	3a030400 	bcc	c2690 <__resume0_start+0xc2690>
    168c:	00101d01 	andseq	r1, r0, r1, lsl #26
    1690:	07e10800 	strbeq	r0, [r1, r0, lsl #16]!
    1694:	3b030000 	blcc	c169c <__resume0_start+0xc169c>
    1698:	00005e01 	andeq	r5, r0, r1, lsl #28
    169c:	1f010400 	svcne	0x00010400
    16a0:	08002302 	stmdaeq	r0, {r1, r8, r9, sp}
    16a4:	00001212 	andeq	r1, r0, r2, lsl r2
    16a8:	5e013c03 	cdppl	12, 0, cr3, cr1, cr3, {0}
    16ac:	04000000 	streq	r0, [r0]
    16b0:	23021e01 	movwcs	r1, #11777	; 0x2e01
    16b4:	0c540800 	mrrceq	8, 0, r0, r4, cr0
    16b8:	3d030000 	stccc	0, cr0, [r3]
    16bc:	00005e01 	andeq	r5, r0, r1, lsl #28
    16c0:	1d010400 	cfstrsne	mvf0, [r1]
    16c4:	08002302 	stmdaeq	r0, {r1, r8, r9, sp}
    16c8:	00000e99 	muleq	r0, r9, lr
    16cc:	5e013e03 	cdppl	14, 0, cr3, cr1, cr3, {0}
    16d0:	04000000 	streq	r0, [r0]
    16d4:	2302100d 	movwcs	r1, #8205	; 0x200d
    16d8:	11840800 	orrne	r0, r4, r0, lsl #16
    16dc:	3f030000 	svccc	0x00030000
    16e0:	00005e01 	andeq	r5, r0, r1, lsl #28
    16e4:	0f010400 	svceq	0x00010400
    16e8:	08002302 	stmdaeq	r0, {r1, r8, r9, sp}
    16ec:	00000bf0 	strdeq	r0, [r0], -r0
    16f0:	5e014003 	cdppl	0, 0, cr4, cr1, cr3, {0}
    16f4:	04000000 	streq	r0, [r0]
    16f8:	23020e01 	movwcs	r0, #11777	; 0x2e01
    16fc:	06de0800 	ldrbeq	r0, [lr], r0, lsl #16
    1700:	41030000 	tstmi	r3, r0
    1704:	00005e01 	andeq	r5, r0, r1, lsl #28
    1708:	0d010400 	cfstrseq	mvf0, [r1]
    170c:	08002302 	stmdaeq	r0, {r1, r8, r9, sp}
    1710:	0000111f 	andeq	r1, r0, pc, lsl r1
    1714:	5e014203 	cdppl	2, 0, cr4, cr1, cr3, {0}
    1718:	04000000 	streq	r0, [r0]
    171c:	23020c01 	movwcs	r0, #11265	; 0x2c01
    1720:	0ea30800 	cdpeq	8, 10, cr0, cr3, cr0, {0}
    1724:	43030000 	movwmi	r0, #12288	; 0x3000
    1728:	00005e01 	andeq	r5, r0, r1, lsl #28
    172c:	000c0400 	andeq	r0, ip, r0, lsl #8
    1730:	00002302 	andeq	r2, r0, r2, lsl #6
    1734:	000b1a09 	andeq	r1, fp, r9, lsl #20
    1738:	01440300 	cmpeq	r4, r0, lsl #6
    173c:	00000f6d 	andeq	r0, r0, sp, ror #30
    1740:	000a990a 	andeq	r9, sl, sl, lsl #18
    1744:	4a030400 	bmi	c274c <__resume0_start+0xc274c>
    1748:	0010b501 	andseq	fp, r0, r1, lsl #10
    174c:	12500800 	subsne	r0, r0, #0
    1750:	4b030000 	blmi	c1758 <__resume0_start+0xc1758>
    1754:	00005e01 	andeq	r5, r0, r1, lsl #28
    1758:	1c040400 	cfstrsne	mvf0, [r4], {0}
    175c:	08002302 	stmdaeq	r0, {r1, r8, r9, sp}
    1760:	00000e99 	muleq	r0, r9, lr
    1764:	5e014c03 	cdppl	12, 0, cr4, cr1, cr3, {0}
    1768:	04000000 	streq	r0, [r0]
    176c:	2302100c 	movwcs	r1, #8204	; 0x200c
    1770:	04e20800 	strbteq	r0, [r2], #2048	; 0x800
    1774:	4d030000 	stcmi	0, cr0, [r3]
    1778:	00005e01 	andeq	r5, r0, r1, lsl #28
    177c:	0e020400 	cfcpyseq	mvf0, mvf2
    1780:	08002302 	stmdaeq	r0, {r1, r8, r9, sp}
    1784:	00000ea3 	andeq	r0, r0, r3, lsr #29
    1788:	5e014e03 	cdppl	14, 0, cr4, cr1, cr3, {0}
    178c:	04000000 	streq	r0, [r0]
    1790:	23020806 	movwcs	r0, #10246	; 0x2806
    1794:	11f40800 	mvnsne	r0, r0, lsl #16
    1798:	4f030000 	svcmi	0x00030000
    179c:	00005e01 	andeq	r5, r0, r1, lsl #28
    17a0:	06020400 	streq	r0, [r2], -r0, lsl #8
    17a4:	08002302 	stmdaeq	r0, {r1, r8, r9, sp}
    17a8:	00000ead 	andeq	r0, r0, sp, lsr #29
    17ac:	5e015003 	cdppl	0, 0, cr5, cr1, cr3, {0}
    17b0:	04000000 	streq	r0, [r0]
    17b4:	23020105 	movwcs	r0, #8453	; 0x2105
    17b8:	10960800 	addsne	r0, r6, r0, lsl #16
    17bc:	51030000 	tstpl	r3, r0
    17c0:	00005e01 	andeq	r5, r0, r1, lsl #28
    17c4:	00010400 	andeq	r0, r1, r0, lsl #8
    17c8:	00002302 	andeq	r2, r0, r2, lsl #6
    17cc:	000d1e09 	andeq	r1, sp, r9, lsl #28
    17d0:	01520300 	cmpeq	r2, r0, lsl #6
    17d4:	00001029 	andeq	r1, r0, r9, lsr #32
    17d8:	0005560a 	andeq	r5, r5, sl, lsl #12
    17dc:	58030400 	stmdapl	r3, {sl}
    17e0:	00111701 	andseq	r1, r1, r1, lsl #14
    17e4:	0e990800 	cdpeq	8, 9, cr0, cr9, cr0, {0}
    17e8:	59030000 	stmdbpl	r3, {}
    17ec:	00005e01 	andeq	r5, r0, r1, lsl #28
    17f0:	10100400 	andsne	r0, r0, r0, lsl #8
    17f4:	08002302 	stmdaeq	r0, {r1, r8, r9, sp}
    17f8:	00001250 	andeq	r1, r0, r0, asr r2
    17fc:	5e015a03 	vmlapl.f32	s10, s2, s6
    1800:	04000000 	streq	r0, [r0]
    1804:	23020e02 	movwcs	r0, #11778	; 0x2e02
    1808:	0ea30800 	cdpeq	8, 10, cr0, cr3, cr0, {0}
    180c:	5b030000 	blpl	c1814 <__resume0_start+0xc1814>
    1810:	00005e01 	andeq	r5, r0, r1, lsl #28
    1814:	010d0400 	tsteq	sp, r0, lsl #8
    1818:	08002302 	stmdaeq	r0, {r1, r8, r9, sp}
    181c:	00001096 	muleq	r0, r6, r0
    1820:	5e015c03 	cdppl	12, 0, cr5, cr1, cr3, {0}
    1824:	04000000 	streq	r0, [r0]
    1828:	23020001 	movwcs	r0, #8193	; 0x2001
    182c:	ee090000 	cdp	0, 0, cr0, cr9, cr0, {0}
    1830:	03000006 	movweq	r0, #6
    1834:	10c1015e 	sbcne	r0, r1, lr, asr r1
    1838:	3d0a0000 	stccc	0, cr0, [sl]
    183c:	0400000f 	streq	r0, [r0], #-15
    1840:	af016203 	svcge	0x00016203
    1844:	08000011 	stmdaeq	r0, {r0, r4}
    1848:	00001250 	andeq	r1, r0, r0, asr r2
    184c:	5e016303 	cdppl	3, 0, cr6, cr1, cr3, {0}
    1850:	04000000 	streq	r0, [r0]
    1854:	23021b05 	movwcs	r1, #11013	; 0x2b05
    1858:	0e990800 	cdpeq	8, 9, cr0, cr9, cr0, {0}
    185c:	64030000 	strvs	r0, [r3]
    1860:	00005e01 	andeq	r5, r0, r1, lsl #28
    1864:	100b0400 	andne	r0, fp, r0, lsl #8
    1868:	08002302 	stmdaeq	r0, {r1, r8, r9, sp}
    186c:	000004e2 	andeq	r0, r0, r2, ror #9
    1870:	5e016503 	cfsh32pl	mvfx6, mvfx1, #3
    1874:	04000000 	streq	r0, [r0]
    1878:	23020e02 	movwcs	r0, #11778	; 0x2e02
    187c:	0ea30800 	cdpeq	8, 10, cr0, cr3, cr0, {0}
    1880:	66030000 	strvs	r0, [r3], -r0
    1884:	00005e01 	andeq	r5, r0, r1, lsl #28
    1888:	08060400 	stmdaeq	r6, {sl}
    188c:	08002302 	stmdaeq	r0, {r1, r8, r9, sp}
    1890:	000011f4 	strdeq	r1, [r0], -r4
    1894:	5e016703 	cdppl	7, 0, cr6, cr1, cr3, {0}
    1898:	04000000 	streq	r0, [r0]
    189c:	23020602 	movwcs	r0, #9730	; 0x2602
    18a0:	0ead0800 	cdpeq	8, 10, cr0, cr13, cr0, {0}
    18a4:	68030000 	stmdavs	r3, {}
    18a8:	00005e01 	andeq	r5, r0, r1, lsl #28
    18ac:	01050400 	tsteq	r5, r0, lsl #8
    18b0:	08002302 	stmdaeq	r0, {r1, r8, r9, sp}
    18b4:	00001096 	muleq	r0, r6, r0
    18b8:	5e016903 	cdppl	9, 0, cr6, cr1, cr3, {0}
    18bc:	04000000 	streq	r0, [r0]
    18c0:	23020001 	movwcs	r0, #8193	; 0x2001
    18c4:	fe090000 	cdp2	0, 0, cr0, cr9, cr0, {0}
    18c8:	03000008 	movweq	r0, #8
    18cc:	1123016a 	teqne	r3, sl, ror #2
    18d0:	040a0000 	streq	r0, [sl]
    18d4:	0400000a 	streq	r0, [r0], #-10
    18d8:	47016e03 	strmi	r6, [r1, -r3, lsl #28]
    18dc:	08000012 	stmdaeq	r0, {r1, r4}
    18e0:	00000c96 	muleq	r0, r6, ip
    18e4:	5e016f03 	cdppl	15, 0, cr6, cr1, cr3, {0}
    18e8:	04000000 	streq	r0, [r0]
    18ec:	23021f01 	movwcs	r1, #12033	; 0x2f01
    18f0:	10f50800 	rscsne	r0, r5, r0, lsl #16
    18f4:	70030000 	andvc	r0, r3, r0
    18f8:	00005e01 	andeq	r5, r0, r1, lsl #28
    18fc:	1e010400 	cfcpysne	mvf0, mvf1
    1900:	08002302 	stmdaeq	r0, {r1, r8, r9, sp}
    1904:	00000e99 	muleq	r0, r9, lr
    1908:	5e017103 	adfpls	f7, f1, f3
    190c:	04000000 	streq	r0, [r0]
    1910:	23021a04 	movwcs	r1, #10756	; 0x2a04
    1914:	10910800 	addsne	r0, r1, r0, lsl #16
    1918:	72030000 	andvc	r0, r3, #0
    191c:	00005e01 	andeq	r5, r0, r1, lsl #28
    1920:	19010400 	stmdbne	r1, {sl}
    1924:	08002302 	stmdaeq	r0, {r1, r8, r9, sp}
    1928:	00000ea3 	andeq	r0, r0, r3, lsr #29
    192c:	5e017303 	cdppl	3, 0, cr7, cr1, cr3, {0}
    1930:	04000000 	streq	r0, [r0]
    1934:	23021801 	movwcs	r1, #10241	; 0x2801
    1938:	0a5a0800 	beq	1683940 <__resume0_start+0x1683940>
    193c:	74030000 	strvc	r0, [r3]
    1940:	00005e01 	andeq	r5, r0, r1, lsl #28
    1944:	17010400 	strne	r0, [r1, -r0, lsl #8]
    1948:	08002302 	stmdaeq	r0, {r1, r8, r9, sp}
    194c:	00000ead 	andeq	r0, r0, sp, lsr #29
    1950:	5e017503 	cfsh32pl	mvfx7, mvfx1, #3
    1954:	04000000 	streq	r0, [r0]
    1958:	23020017 	movwcs	r0, #8215	; 0x2017
    195c:	9c090000 	stcls	0, cr0, [r9], {0}
    1960:	03000006 	movweq	r0, #6
    1964:	11bb0176 	undefined instruction 0x11bb0176
    1968:	070a0000 	streq	r0, [sl, -r0]
    196c:	0400000d 	streq	r0, [r0], #-13
    1970:	cd017a03 	vstrgt	s14, [r1, #-12]
    1974:	08000012 	stmdaeq	r0, {r1, r4}
    1978:	00000768 	andeq	r0, r0, r8, ror #14
    197c:	5e017b03 	vmlapl.f64	d7, d1, d3
    1980:	04000000 	streq	r0, [r0]
    1984:	23021d03 	movwcs	r1, #11523	; 0x2d03
    1988:	0e990800 	cdpeq	8, 9, cr0, cr9, cr0, {0}
    198c:	7c030000 	stcvc	0, cr0, [r3], {0}
    1990:	00005e01 	andeq	r5, r0, r1, lsl #28
    1994:	08150400 	ldmdaeq	r5, {sl}
    1998:	08002302 	stmdaeq	r0, {r1, r8, r9, sp}
    199c:	000011f4 	strdeq	r1, [r0], -r4
    19a0:	5e017d03 	cdppl	13, 0, cr7, cr1, cr3, {0}
    19a4:	04000000 	streq	r0, [r0]
    19a8:	23020602 	movwcs	r0, #9730	; 0x2602
    19ac:	0ea30800 	cdpeq	8, 10, cr0, cr3, cr0, {0}
    19b0:	7e030000 	cdpvc	0, 0, cr0, cr3, cr0, {0}
    19b4:	00005e01 	andeq	r5, r0, r1, lsl #28
    19b8:	02040400 	andeq	r0, r4, #0
    19bc:	08002302 	stmdaeq	r0, {r1, r8, r9, sp}
    19c0:	000010ef 	andeq	r1, r0, pc, ror #1
    19c4:	5e017f03 	cdppl	15, 0, cr7, cr1, cr3, {0}
    19c8:	04000000 	streq	r0, [r0]
    19cc:	23020101 	movwcs	r0, #8449	; 0x2101
    19d0:	10960800 	addsne	r0, r6, r0, lsl #16
    19d4:	80030000 	andhi	r0, r3, r0
    19d8:	00005e01 	andeq	r5, r0, r1, lsl #28
    19dc:	00010400 	andeq	r0, r1, r0, lsl #8
    19e0:	00002302 	andeq	r2, r0, r2, lsl #6
    19e4:	0008b409 	andeq	fp, r8, r9, lsl #8
    19e8:	01810300 	orreq	r0, r1, r0, lsl #6
    19ec:	00001253 	andeq	r1, r0, r3, asr r2
    19f0:	00071b0a 	andeq	r1, r7, sl, lsl #22
    19f4:	85030400 	strhi	r0, [r3, #-1024]	; 0x400
    19f8:	0013ad01 	andseq	sl, r3, r1, lsl #26
    19fc:	0ae30800 	beq	ff8c3a04 <__bss_end+0xbf7bda54>
    1a00:	86030000 	strhi	r0, [r3], -r0
    1a04:	00005e01 	andeq	r5, r0, r1, lsl #28
    1a08:	1f010400 	svcne	0x00010400
    1a0c:	08002302 	stmdaeq	r0, {r1, r8, r9, sp}
    1a10:	0000127b 	andeq	r1, r0, fp, ror r2
    1a14:	5e018703 	cdppl	7, 0, cr8, cr1, cr3, {0}
    1a18:	04000000 	streq	r0, [r0]
    1a1c:	23021e01 	movwcs	r1, #11777	; 0x2e01
    1a20:	0e990800 	cdpeq	8, 9, cr0, cr9, cr0, {0}
    1a24:	88030000 	stmdahi	r3, {}
    1a28:	00005e01 	andeq	r5, r0, r1, lsl #28
    1a2c:	1d010400 	cfstrsne	mvf0, [r1]
    1a30:	08002302 	stmdaeq	r0, {r1, r8, r9, sp}
    1a34:	000003f7 	strdeq	r0, [r0], -r7
    1a38:	5e018903 	cdppl	9, 0, cr8, cr1, cr3, {0}
    1a3c:	04000000 	streq	r0, [r0]
    1a40:	23021c01 	movwcs	r1, #11265	; 0x2c01
    1a44:	0ea30800 	cdpeq	8, 10, cr0, cr3, cr0, {0}
    1a48:	8a030000 	bhi	c1a50 <__resume0_start+0xc1a50>
    1a4c:	00005e01 	andeq	r5, r0, r1, lsl #28
    1a50:	1b010400 	blne	42a58 <__resume0_start+0x42a58>
    1a54:	08002302 	stmdaeq	r0, {r1, r8, r9, sp}
    1a58:	0000096e 	andeq	r0, r0, lr, ror #18
    1a5c:	5e018b03 	vmlapl.f64	d8, d1, d3
    1a60:	04000000 	streq	r0, [r0]
    1a64:	23021a01 	movwcs	r1, #10753	; 0x2a01
    1a68:	0ead0800 	cdpeq	8, 10, cr0, cr13, cr0, {0}
    1a6c:	8c030000 	stchi	0, cr0, [r3], {0}
    1a70:	00005e01 	andeq	r5, r0, r1, lsl #28
    1a74:	07130400 	ldreq	r0, [r3, -r0, lsl #8]
    1a78:	08002302 	stmdaeq	r0, {r1, r8, r9, sp}
    1a7c:	00001129 	andeq	r1, r0, r9, lsr #2
    1a80:	5e018d03 	cdppl	13, 0, cr8, cr1, cr3, {0}
    1a84:	04000000 	streq	r0, [r0]
    1a88:	23020601 	movwcs	r0, #9729	; 0x2601
    1a8c:	0e3e0800 	cdpeq	8, 3, cr0, cr14, cr0, {0}
    1a90:	8e030000 	cdphi	0, 0, cr0, cr3, cr0, {0}
    1a94:	00005e01 	andeq	r5, r0, r1, lsl #28
    1a98:	05010400 	streq	r0, [r1, #-1024]	; 0x400
    1a9c:	08002302 	stmdaeq	r0, {r1, r8, r9, sp}
    1aa0:	00000eb7 	undefined instruction 0x00000eb7
    1aa4:	5e018f03 	cdppl	15, 0, cr8, cr1, cr3, {0}
    1aa8:	04000000 	streq	r0, [r0]
    1aac:	23020104 	movwcs	r0, #8452	; 0x2104
    1ab0:	0aac0800 	beq	feb03ab8 <__bss_end+0xbe9fdb08>
    1ab4:	90030000 	andls	r0, r3, r0
    1ab8:	00005e01 	andeq	r5, r0, r1, lsl #28
    1abc:	00010400 	andeq	r0, r1, r0, lsl #8
    1ac0:	00002302 	andeq	r2, r0, r2, lsl #6
    1ac4:	00049809 	andeq	r9, r4, r9, lsl #16
    1ac8:	01910300 	orrseq	r0, r1, r0, lsl #6
    1acc:	000012d9 	ldrdeq	r1, [r0], -r9
    1ad0:	0004450a 	andeq	r4, r4, sl, lsl #10
    1ad4:	97030400 	strls	r0, [r3, -r0, lsl #8]
    1ad8:	00143301 	andseq	r3, r4, r1, lsl #6
    1adc:	12500800 	subsne	r0, r0, #0
    1ae0:	98030000 	stmdals	r3, {}
    1ae4:	00005e01 	andeq	r5, r0, r1, lsl #28
    1ae8:	1c040400 	cfstrsne	mvf0, [r4], {0}
    1aec:	08002302 	stmdaeq	r0, {r1, r8, r9, sp}
    1af0:	00000e99 	muleq	r0, r9, lr
    1af4:	5e019903 	cdppl	9, 0, cr9, cr1, cr3, {0}
    1af8:	04000000 	streq	r0, [r0]
    1afc:	23020814 	movwcs	r0, #10260	; 0x2814
    1b00:	11f40800 	mvnsne	r0, r0, lsl #16
    1b04:	9a030000 	bls	c1b0c <__resume0_start+0xc1b0c>
    1b08:	00005e01 	andeq	r5, r0, r1, lsl #28
    1b0c:	06020400 	streq	r0, [r2], -r0, lsl #8
    1b10:	08002302 	stmdaeq	r0, {r1, r8, r9, sp}
    1b14:	00000ea3 	andeq	r0, r0, r3, lsr #29
    1b18:	5e019b03 	vmlapl.f64	d9, d1, d3
    1b1c:	04000000 	streq	r0, [r0]
    1b20:	23020204 	movwcs	r0, #8708	; 0x2204
    1b24:	10ef0800 	rscne	r0, pc, r0, lsl #16
    1b28:	9c030000 	stcls	0, cr0, [r3], {0}
    1b2c:	00005e01 	andeq	r5, r0, r1, lsl #28
    1b30:	01010400 	tsteq	r1, r0, lsl #8
    1b34:	08002302 	stmdaeq	r0, {r1, r8, r9, sp}
    1b38:	00001096 	muleq	r0, r6, r0
    1b3c:	5e019d03 	cdppl	13, 0, cr9, cr1, cr3, {0}
    1b40:	04000000 	streq	r0, [r0]
    1b44:	23020001 	movwcs	r0, #8193	; 0x2001
    1b48:	c8090000 	stmdagt	r9, {}
    1b4c:	0300000f 	movweq	r0, #15
    1b50:	13b9019f 	undefined instruction 0x13b9019f
    1b54:	530a0000 	movwpl	r0, #40960	; 0xa000
    1b58:	04000011 	streq	r0, [r0], #-17
    1b5c:	b901a503 	stmdblt	r1, {r0, r1, r8, sl, sp, pc}
    1b60:	08000014 	stmdaeq	r0, {r2, r4}
    1b64:	00000e99 	muleq	r0, r9, lr
    1b68:	5e01a603 	cfmadd32pl	mvax0, mvfx10, mvfx1, mvfx3
    1b6c:	04000000 	streq	r0, [r0]
    1b70:	23020818 	movwcs	r0, #10264	; 0x2818
    1b74:	11f40800 	mvnsne	r0, r0, lsl #16
    1b78:	a7030000 	strge	r0, [r3, -r0]
    1b7c:	00005e01 	andeq	r5, r0, r1, lsl #28
    1b80:	06020400 	streq	r0, [r2], -r0, lsl #8
    1b84:	08002302 	stmdaeq	r0, {r1, r8, r9, sp}
    1b88:	00000ea3 	andeq	r0, r0, r3, lsr #29
    1b8c:	5e01a803 	cdppl	8, 0, cr10, cr1, cr3, {0}
    1b90:	04000000 	streq	r0, [r0]
    1b94:	23020303 	movwcs	r0, #8963	; 0x2303
    1b98:	03b00800 	movseq	r0, #0
    1b9c:	a9030000 	stmdbge	r3, {}
    1ba0:	00005e01 	andeq	r5, r0, r1, lsl #28
    1ba4:	02010400 	andeq	r0, r1, #0
    1ba8:	08002302 	stmdaeq	r0, {r1, r8, r9, sp}
    1bac:	000010ec 	andeq	r1, r0, ip, ror #1
    1bb0:	5e01aa03 	vmlapl.f32	s20, s2, s6
    1bb4:	04000000 	streq	r0, [r0]
    1bb8:	23020101 	movwcs	r0, #8449	; 0x2101
    1bbc:	10960800 	addsne	r0, r6, r0, lsl #16
    1bc0:	ab030000 	blge	c1bc8 <__resume0_start+0xc1bc8>
    1bc4:	00005e01 	andeq	r5, r0, r1, lsl #28
    1bc8:	00010400 	andeq	r0, r1, r0, lsl #8
    1bcc:	00002302 	andeq	r2, r0, r2, lsl #6
    1bd0:	0005a109 	andeq	sl, r5, r9, lsl #2
    1bd4:	01ad0300 	undefined instruction 0x01ad0300
    1bd8:	0000143f 	andeq	r1, r0, pc, lsr r4
    1bdc:	000ba70a 	andeq	sl, fp, sl, lsl #14
    1be0:	b3030400 	movwlt	r0, #13312	; 0x3400
    1be4:	00157501 	andseq	r7, r5, r1, lsl #10
    1be8:	12500800 	subsne	r0, r0, #0
    1bec:	b4030000 	strlt	r0, [r3]
    1bf0:	00005e01 	andeq	r5, r0, r1, lsl #28
    1bf4:	1c040400 	cfstrsne	mvf0, [r4], {0}
    1bf8:	08002302 	stmdaeq	r0, {r1, r8, r9, sp}
    1bfc:	00000e99 	muleq	r0, r9, lr
    1c00:	5e01b503 	cfsh32pl	mvfx11, mvfx1, #3
    1c04:	04000000 	streq	r0, [r0]
    1c08:	23021507 	movwcs	r1, #9479	; 0x2507
    1c0c:	060f0800 	streq	r0, [pc], -r0, lsl #16
    1c10:	b6030000 	strlt	r0, [r3], -r0
    1c14:	00005e01 	andeq	r5, r0, r1, lsl #28
    1c18:	14010400 	strne	r0, [r1], #-1024	; 0x400
    1c1c:	08002302 	stmdaeq	r0, {r1, r8, r9, sp}
    1c20:	00000ea3 	andeq	r0, r0, r3, lsr #29
    1c24:	5e01b703 	cdppl	7, 0, cr11, cr1, cr3, {0}
    1c28:	04000000 	streq	r0, [r0]
    1c2c:	23021103 	movwcs	r1, #8451	; 0x2103
    1c30:	0efb0800 	cdpeq	8, 15, cr0, cr11, cr0, {0}
    1c34:	b8030000 	stmdalt	r3, {}
    1c38:	00005e01 	andeq	r5, r0, r1, lsl #28
    1c3c:	10010400 	andne	r0, r1, r0, lsl #8
    1c40:	08002302 	stmdaeq	r0, {r1, r8, r9, sp}
    1c44:	00000ead 	andeq	r0, r0, sp, lsr #29
    1c48:	5e01b903 	cdppl	9, 0, cr11, cr1, cr3, {0}
    1c4c:	04000000 	streq	r0, [r0]
    1c50:	23020808 	movwcs	r0, #10248	; 0x2808
    1c54:	0f120800 	svceq	0x00120800
    1c58:	ba030000 	blt	c1c60 <__resume0_start+0xc1c60>
    1c5c:	00005e01 	andeq	r5, r0, r1, lsl #28
    1c60:	06020400 	streq	r0, [r2], -r0, lsl #8
    1c64:	08002302 	stmdaeq	r0, {r1, r8, r9, sp}
    1c68:	00000eb7 	undefined instruction 0x00000eb7
    1c6c:	5e01bb03 	vmlapl.f64	d11, d1, d3
    1c70:	04000000 	streq	r0, [r0]
    1c74:	23020105 	movwcs	r0, #8453	; 0x2105
    1c78:	09920800 	ldmibeq	r2, {fp}
    1c7c:	bc030000 	stclt	0, cr0, [r3], {0}
    1c80:	00005e01 	andeq	r5, r0, r1, lsl #28
    1c84:	00010400 	andeq	r0, r1, r0, lsl #8
    1c88:	00002302 	andeq	r2, r0, r2, lsl #6
    1c8c:	000e1d09 	andeq	r1, lr, r9, lsl #26
    1c90:	01be0300 	undefined instruction 0x01be0300
    1c94:	000014c5 	andeq	r1, r0, r5, asr #9
    1c98:	0008e60a 	andeq	lr, r8, sl, lsl #12
    1c9c:	c4030400 	strgt	r0, [r3], #-1024	; 0x400
    1ca0:	0015fb01 	andseq	pc, r5, r1, lsl #22
    1ca4:	12500800 	subsne	r0, r0, #0
    1ca8:	c5030000 	strgt	r0, [r3]
    1cac:	00005e01 	andeq	r5, r0, r1, lsl #28
    1cb0:	1b050400 	blne	142cb8 <__resume0_start+0x142cb8>
    1cb4:	08002302 	stmdaeq	r0, {r1, r8, r9, sp}
    1cb8:	00000e99 	muleq	r0, r9, lr
    1cbc:	5e01c603 	cfmadd32pl	mvax0, mvfx12, mvfx1, mvfx3
    1cc0:	04000000 	streq	r0, [r0]
    1cc4:	23020813 	movwcs	r0, #10259	; 0x2813
    1cc8:	11f40800 	mvnsne	r0, r0, lsl #16
    1ccc:	c7030000 	strgt	r0, [r3, -r0]
    1cd0:	00005e01 	andeq	r5, r0, r1, lsl #28
    1cd4:	05030400 	streq	r0, [r3, #-1024]	; 0x400
    1cd8:	08002302 	stmdaeq	r0, {r1, r8, r9, sp}
    1cdc:	00000ea3 	andeq	r0, r0, r3, lsr #29
    1ce0:	5e01c803 	cdppl	8, 0, cr12, cr1, cr3, {0}
    1ce4:	04000000 	streq	r0, [r0]
    1ce8:	23020203 	movwcs	r0, #8707	; 0x2203
    1cec:	10ef0800 	rscne	r0, pc, r0, lsl #16
    1cf0:	c9030000 	stmdbgt	r3, {}
    1cf4:	00005e01 	andeq	r5, r0, r1, lsl #28
    1cf8:	01010400 	tsteq	r1, r0, lsl #8
    1cfc:	08002302 	stmdaeq	r0, {r1, r8, r9, sp}
    1d00:	00001096 	muleq	r0, r6, r0
    1d04:	5e01ca03 	vmlapl.f32	s24, s2, s6
    1d08:	04000000 	streq	r0, [r0]
    1d0c:	23020001 	movwcs	r0, #8193	; 0x2001
    1d10:	41090000 	tstmi	r9, r0
    1d14:	03000008 	movweq	r0, #8
    1d18:	158101cb 	strne	r0, [r1, #459]	; 0x1cb
    1d1c:	6e0a0000 	cdpvs	0, 0, cr0, cr10, cr0, {0}
    1d20:	04000011 	streq	r0, [r0], #-17
    1d24:	6f01cf03 	svcvs	0x0001cf03
    1d28:	08000016 	stmdaeq	r0, {r1, r2, r4}
    1d2c:	000010ef 	andeq	r1, r0, pc, ror #1
    1d30:	5e01d003 	cdppl	0, 0, cr13, cr1, cr3, {0}
    1d34:	04000000 	streq	r0, [r0]
    1d38:	23021f01 	movwcs	r1, #12033	; 0x2f01
    1d3c:	0e990800 	cdpeq	8, 9, cr0, cr9, cr0, {0}
    1d40:	d1030000 	tstle	r3, r0
    1d44:	00005e01 	andeq	r5, r0, r1, lsl #28
    1d48:	100f0400 	andne	r0, pc, r0, lsl #8
    1d4c:	08002302 	stmdaeq	r0, {r1, r8, r9, sp}
    1d50:	00001250 	andeq	r1, r0, r0, asr r2
    1d54:	5e01d203 	cdppl	2, 0, cr13, cr1, cr3, {0}
    1d58:	04000000 	streq	r0, [r0]
    1d5c:	23020d03 	movwcs	r0, #11523	; 0x2d03
    1d60:	0ea30800 	cdpeq	8, 10, cr0, cr3, cr0, {0}
    1d64:	d3030000 	movwle	r0, #12288	; 0x3000
    1d68:	00005e01 	andeq	r5, r0, r1, lsl #28
    1d6c:	010c0400 	tsteq	ip, r0, lsl #8
    1d70:	08002302 	stmdaeq	r0, {r1, r8, r9, sp}
    1d74:	00001096 	muleq	r0, r6, r0
    1d78:	5e01d403 	cdppl	4, 0, cr13, cr1, cr3, {0}
    1d7c:	04000000 	streq	r0, [r0]
    1d80:	23020001 	movwcs	r0, #8193	; 0x2001
    1d84:	90090000 	andls	r0, r9, r0
    1d88:	0300000d 	movweq	r0, #13
    1d8c:	160701d5 	undefined instruction 0x160701d5
    1d90:	010a0000 	tsteq	sl, r0
    1d94:	0400000c 	streq	r0, [r0], #-12
    1d98:	ad01d803 	stcge	8, cr13, [r1, #-12]
    1d9c:	08000016 	stmdaeq	r0, {r1, r2, r4}
    1da0:	00000e99 	muleq	r0, r9, lr
    1da4:	5e01d903 	cdppl	9, 0, cr13, cr1, cr3, {0}
    1da8:	04000000 	streq	r0, [r0]
    1dac:	2302011f 	movwcs	r0, #8479	; 0x211f
    1db0:	10960800 	addsne	r0, r6, r0, lsl #16
    1db4:	da030000 	ble	c1dbc <__resume0_start+0xc1dbc>
    1db8:	00005e01 	andeq	r5, r0, r1, lsl #28
    1dbc:	00010400 	andeq	r0, r1, r0, lsl #8
    1dc0:	00002302 	andeq	r2, r0, r2, lsl #6
    1dc4:	00047e09 	andeq	r7, r4, r9, lsl #28
    1dc8:	01db0300 	bicseq	r0, fp, r0, lsl #6
    1dcc:	0000167b 	andeq	r1, r0, fp, ror r6
    1dd0:	0007b90a 	andeq	fp, r7, sl, lsl #18
    1dd4:	de030400 	cfcpysle	mvf0, mvf3
    1dd8:	0016eb01 	andseq	lr, r6, r1, lsl #22
    1ddc:	0e990800 	cdpeq	8, 9, cr0, cr9, cr0, {0}
    1de0:	df030000 	svcle	0x00030000
    1de4:	00005e01 	andeq	r5, r0, r1, lsl #28
    1de8:	011f0400 	tsteq	pc, r0, lsl #8
    1dec:	08002302 	stmdaeq	r0, {r1, r8, r9, sp}
    1df0:	00001096 	muleq	r0, r6, r0
    1df4:	5e01e003 	cdppl	0, 0, cr14, cr1, cr3, {0}
    1df8:	04000000 	streq	r0, [r0]
    1dfc:	23020001 	movwcs	r0, #8193	; 0x2001
    1e00:	c4090000 	strgt	r0, [r9]
    1e04:	03000010 	movweq	r0, #16
    1e08:	16b901e1 	ldrtne	r0, [r9], r1, ror #3
    1e0c:	100a0000 	andne	r0, sl, r0
    1e10:	04000005 	streq	r0, [r0], #-5
    1e14:	2901e503 	stmdbcs	r1, {r0, r1, r8, sl, sp, lr, pc}
    1e18:	08000017 	stmdaeq	r0, {r0, r1, r2, r4}
    1e1c:	000010ef 	andeq	r1, r0, pc, ror #1
    1e20:	5e01e603 	cfmadd32pl	mvax0, mvfx14, mvfx1, mvfx3
    1e24:	04000000 	streq	r0, [r0]
    1e28:	23021f01 	movwcs	r1, #12033	; 0x2f01
    1e2c:	01180800 	tsteq	r8, r0, lsl #16
    1e30:	e7030000 	str	r0, [r3, -r0]
    1e34:	00005e01 	andeq	r5, r0, r1, lsl #28
    1e38:	001f0400 	andseq	r0, pc, r0, lsl #8
    1e3c:	00002302 	andeq	r2, r0, r2, lsl #6
    1e40:	000d6e09 	andeq	r6, sp, r9, lsl #28
    1e44:	01e80300 	mvneq	r0, r0, lsl #6
    1e48:	000016f7 	strdeq	r1, [r0], -r7
    1e4c:	0005da0a 	andeq	sp, r5, sl, lsl #20
    1e50:	ec030400 	cfstrs	mvf0, [r3], {0}
    1e54:	00179d01 	andseq	r9, r7, r1, lsl #26
    1e58:	12500800 	subsne	r0, r0, #0
    1e5c:	ed030000 	stc	0, cr0, [r3]
    1e60:	00005e01 	andeq	r5, r0, r1, lsl #28
    1e64:	1c040400 	cfstrsne	mvf0, [r4], {0}
    1e68:	08002302 	stmdaeq	r0, {r1, r8, r9, sp}
    1e6c:	00000e99 	muleq	r0, r9, lr
    1e70:	5e01ee03 	cdppl	14, 0, cr14, cr1, cr3, {0}
    1e74:	04000000 	streq	r0, [r0]
    1e78:	23020814 	movwcs	r0, #10260	; 0x2814
    1e7c:	11f40800 	mvnsne	r0, r0, lsl #16
    1e80:	ef030000 	svc	0x00030000
    1e84:	00005e01 	andeq	r5, r0, r1, lsl #28
    1e88:	06020400 	streq	r0, [r2], -r0, lsl #8
    1e8c:	08002302 	stmdaeq	r0, {r1, r8, r9, sp}
    1e90:	00000ea3 	andeq	r0, r0, r3, lsr #29
    1e94:	5e01f003 	cdppl	0, 0, cr15, cr1, cr3, {0}
    1e98:	04000000 	streq	r0, [r0]
    1e9c:	23020105 	movwcs	r0, #8453	; 0x2105
    1ea0:	10960800 	addsne	r0, r6, r0, lsl #16
    1ea4:	f1030000 	undefined instruction 0xf1030000
    1ea8:	00005e01 	andeq	r5, r0, r1, lsl #28
    1eac:	00010400 	andeq	r0, r1, r0, lsl #8
    1eb0:	00002302 	andeq	r2, r0, r2, lsl #6
    1eb4:	0003b909 	andeq	fp, r3, r9, lsl #18
    1eb8:	01f20300 	mvnseq	r0, r0, lsl #6
    1ebc:	00001735 	andeq	r1, r0, r5, lsr r7
    1ec0:	0009c80a 	andeq	ip, r9, sl, lsl #16
    1ec4:	f6030400 	undefined instruction 0xf6030400
    1ec8:	00182301 	andseq	r2, r8, r1, lsl #6
    1ecc:	12500800 	subsne	r0, r0, #0
    1ed0:	f7030000 	undefined instruction 0xf7030000
    1ed4:	00005e01 	andeq	r5, r0, r1, lsl #28
    1ed8:	1c040400 	cfstrsne	mvf0, [r4], {0}
    1edc:	08002302 	stmdaeq	r0, {r1, r8, r9, sp}
    1ee0:	00000e99 	muleq	r0, r9, lr
    1ee4:	5e01f803 	cdppl	8, 0, cr15, cr1, cr3, {0}
    1ee8:	04000000 	streq	r0, [r0]
    1eec:	23020814 	movwcs	r0, #10260	; 0x2814
    1ef0:	11f40800 	mvnsne	r0, r0, lsl #16
    1ef4:	f9030000 	undefined instruction 0xf9030000
    1ef8:	00005e01 	andeq	r5, r0, r1, lsl #28
    1efc:	05030400 	streq	r0, [r3, #-1024]	; 0x400
    1f00:	08002302 	stmdaeq	r0, {r1, r8, r9, sp}
    1f04:	00000ea3 	andeq	r0, r0, r3, lsr #29
    1f08:	5e01fa03 	vmlapl.f32	s30, s2, s6
    1f0c:	04000000 	streq	r0, [r0]
    1f10:	23020203 	movwcs	r0, #8707	; 0x2203
    1f14:	10ef0800 	rscne	r0, pc, r0, lsl #16
    1f18:	fb030000 	blx	c1f22 <__resume0_start+0xc1f22>
    1f1c:	00005e01 	andeq	r5, r0, r1, lsl #28
    1f20:	01010400 	tsteq	r1, r0, lsl #8
    1f24:	08002302 	stmdaeq	r0, {r1, r8, r9, sp}
    1f28:	00001096 	muleq	r0, r6, r0
    1f2c:	5e01fc03 	cdppl	12, 0, cr15, cr1, cr3, {0}
    1f30:	04000000 	streq	r0, [r0]
    1f34:	23020001 	movwcs	r0, #8193	; 0x2001
    1f38:	85090000 	strhi	r0, [r9]
    1f3c:	03000008 	movweq	r0, #8
    1f40:	17a901fd 	undefined instruction 0x17a901fd
    1f44:	340a0000 	strcc	r0, [sl]
    1f48:	04000007 	streq	r0, [r0], #-7
    1f4c:	bb020103 	bllt	82360 <__resume0_start+0x82360>
    1f50:	08000018 	stmdaeq	r0, {r3, r4}
    1f54:	00001250 	andeq	r1, r0, r0, asr r2
    1f58:	5e020203 	cdppl	2, 0, cr0, cr2, cr3, {0}
    1f5c:	04000000 	streq	r0, [r0]
    1f60:	23021c04 	movwcs	r1, #11268	; 0x2c04
    1f64:	0e990800 	cdpeq	8, 9, cr0, cr9, cr0, {0}
    1f68:	03030000 	movweq	r0, #12288	; 0x3000
    1f6c:	00005e02 	andeq	r5, r0, r2, lsl #28
    1f70:	100c0400 	andne	r0, ip, r0, lsl #8
    1f74:	08002302 	stmdaeq	r0, {r1, r8, r9, sp}
    1f78:	000004e5 	andeq	r0, r0, r5, ror #9
    1f7c:	5e020403 	cdppl	4, 0, cr0, cr2, cr3, {0}
    1f80:	04000000 	streq	r0, [r0]
    1f84:	23020e02 	movwcs	r0, #11778	; 0x2e02
    1f88:	0ea30800 	cdpeq	8, 10, cr0, cr3, cr0, {0}
    1f8c:	05030000 	streq	r0, [r3]
    1f90:	00005e02 	andeq	r5, r0, r2, lsl #28
    1f94:	08060400 	stmdaeq	r6, {sl}
    1f98:	08002302 	stmdaeq	r0, {r1, r8, r9, sp}
    1f9c:	000011f4 	strdeq	r1, [r0], -r4
    1fa0:	5e020603 	cfmadd32pl	mvax0, mvfx0, mvfx2, mvfx3
    1fa4:	04000000 	streq	r0, [r0]
    1fa8:	23020602 	movwcs	r0, #9730	; 0x2602
    1fac:	0ead0800 	cdpeq	8, 10, cr0, cr13, cr0, {0}
    1fb0:	07030000 	streq	r0, [r3, -r0]
    1fb4:	00005e02 	andeq	r5, r0, r2, lsl #28
    1fb8:	01050400 	tsteq	r5, r0, lsl #8
    1fbc:	08002302 	stmdaeq	r0, {r1, r8, r9, sp}
    1fc0:	0000109a 	muleq	r0, sl, r0
    1fc4:	5e020803 	cdppl	8, 0, cr0, cr2, cr3, {0}
    1fc8:	04000000 	streq	r0, [r0]
    1fcc:	23020001 	movwcs	r0, #8193	; 0x2001
    1fd0:	c0090000 	andgt	r0, r9, r0
    1fd4:	03000005 	movweq	r0, #5
    1fd8:	182f020a 	stmdane	pc!, {r1, r3, r9}
    1fdc:	520a0000 	andpl	r0, sl, #0
    1fe0:	0400000e 	streq	r0, [r0], #-14
    1fe4:	0b020e03 	bleq	857f8 <__resume0_start+0x857f8>
    1fe8:	08000019 	stmdaeq	r0, {r0, r3, r4}
    1fec:	00000118 	andeq	r0, r0, r8, lsl r1
    1ff0:	5e020f03 	cdppl	15, 0, cr0, cr2, cr3, {0}
    1ff4:	04000000 	streq	r0, [r0]
    1ff8:	2302021e 	movwcs	r0, #8734	; 0x221e
    1ffc:	10ef0800 	rscne	r0, pc, r0, lsl #16
    2000:	10030000 	andne	r0, r3, r0
    2004:	00005e02 	andeq	r5, r0, r2, lsl #28
    2008:	01010400 	tsteq	r1, r0, lsl #8
    200c:	08002302 	stmdaeq	r0, {r1, r8, r9, sp}
    2010:	0000109a 	muleq	r0, sl, r0
    2014:	5e021103 	adfpls	f1, f2, f3
    2018:	04000000 	streq	r0, [r0]
    201c:	23020001 	movwcs	r0, #8193	; 0x2001
    2020:	b4090000 	strlt	r0, [r9]
    2024:	0300000a 	movweq	r0, #10
    2028:	18c70213 	stmiane	r7, {r0, r1, r4, r9}^
    202c:	230b0000 	movwcs	r0, #45056	; 0xb000
    2030:	64000012 	strvs	r0, [r0], #-18
    2034:	02160301 	andseq	r0, r6, #67108864	; 0x4000000
    2038:	00001d7c 	andeq	r1, r0, ip, ror sp
    203c:	00091a0c 	andeq	r1, r9, ip, lsl #20
    2040:	02170300 	andseq	r0, r7, #0
    2044:	00001d7c 	andeq	r1, r0, ip, ror sp
    2048:	0c002302 	stceq	3, cr2, [r0], {2}
    204c:	000007f8 	strdeq	r0, [r0], -r8
    2050:	81021803 	tsthi	r2, r3, lsl #16
    2054:	0200001d 	andeq	r0, r0, #29
    2058:	1b0c0423 	blne	3030ec <__resume0_start+0x3030ec>
    205c:	03000012 	movweq	r0, #18
    2060:	1d860219 	sfmne	f0, 4, [r6, #100]	; (stcne 2, cr0, [r6, #100])	; 0x64
    2064:	23020000 	movwcs	r0, #8192	; 0x2000
    2068:	10240c08 	eorne	r0, r4, r8, lsl #24
    206c:	1a030000 	bne	c2074 <__resume0_start+0xc2074>
    2070:	001d8b02 	andseq	r8, sp, r2, lsl #22
    2074:	0c230200 	sfmeq	f0, 4, [r3]	; (stceq 2, cr0, [r3])
    2078:	0011330c 	andseq	r3, r1, ip, lsl #6
    207c:	021b0300 	andseq	r0, fp, #0
    2080:	00001d90 	muleq	r0, r0, sp
    2084:	0c102302 	ldceq	3, cr2, [r0], {2}
    2088:	00000e99 	muleq	r0, r9, lr
    208c:	95021c03 	strls	r1, [r2, #-3075]	; 0xc03
    2090:	0200001d 	andeq	r0, r0, #29
    2094:	300c1423 	andcc	r1, ip, r3, lsr #8
    2098:	03000005 	movweq	r0, #5
    209c:	1d9a021d 	lfmne	f0, 4, [sl, #116]	; (ldcne 2, cr0, [sl, #116])	; 0x74
    20a0:	23020000 	movwcs	r0, #8192	; 0x2000
    20a4:	0ea30c18 	mcreq	12, 5, r0, cr3, cr8, {0}
    20a8:	1e030000 	cdpne	0, 0, cr0, cr3, cr0, {0}
    20ac:	001d9502 	andseq	r9, sp, r2, lsl #10
    20b0:	1c230200 	sfmne	f0, 4, [r3]	; (stcne 2, cr0, [r3])
    20b4:	000d880c 	andeq	r8, sp, ip, lsl #16
    20b8:	021f0300 	andseq	r0, pc, #0
    20bc:	00001d9f 	muleq	r0, pc, sp
    20c0:	0c202302 	stceq	3, cr2, [r0], #-8
    20c4:	00000370 	andeq	r0, r0, r0, ror r3
    20c8:	a4022003 	strge	r2, [r2], #-3
    20cc:	0200001d 	andeq	r0, r0, #29
    20d0:	4b0c2423 	blmi	30b164 <__resume0_start+0x30b164>
    20d4:	03000011 	movweq	r0, #17
    20d8:	1da90221 	sfmne	f0, 4, [r9, #132]!	; (stcne 2, cr0, [r9, #132]!)	; 0x84
    20dc:	23020000 	movwcs	r0, #8192	; 0x2000
    20e0:	0ead0c28 	cdpeq	12, 10, cr0, cr13, cr8, {1}
    20e4:	22030000 	andcs	r0, r3, #0
    20e8:	001d9502 	andseq	r9, sp, r2, lsl #10
    20ec:	2c230200 	sfmcs	f0, 4, [r3]	; (stccs 2, cr0, [r3])
    20f0:	0010670c 	andseq	r6, r0, ip, lsl #14
    20f4:	02230300 	eoreq	r0, r3, #0
    20f8:	00001dae 	andeq	r1, r0, lr, lsr #27
    20fc:	0c302302 	ldceq	3, cr2, [r0], #-8
    2100:	00000eb7 	undefined instruction 0x00000eb7
    2104:	95022403 	strls	r2, [r2, #-1027]	; 0x403
    2108:	0200001d 	andeq	r0, r0, #29
    210c:	490c3423 	stmdbmi	ip, {r0, r1, r5, sl, ip, sp}
    2110:	0300000d 	movweq	r0, #13
    2114:	1db30225 	lfmne	f0, 4, [r3, #148]!	; (ldcne 2, cr0, [r3, #148]!)	; 0x94
    2118:	23020000 	movwcs	r0, #8192	; 0x2000
    211c:	03a00c38 	moveq	r0, #14336	; 0x3800
    2120:	26030000 	strcs	r0, [r3], -r0
    2124:	001db802 	andseq	fp, sp, r2, lsl #16
    2128:	3c230200 	sfmcc	f0, 4, [r3]	; (stccc 2, cr0, [r3])
    212c:	000ec10c 	andeq	ip, lr, ip, lsl #2
    2130:	02270300 	eoreq	r0, r7, #0
    2134:	00001dcd 	andeq	r1, r0, sp, asr #27
    2138:	0c402302 	mcrreq	3, 0, r2, r0, cr2
    213c:	00000640 	andeq	r0, r0, r0, asr #12
    2140:	d2022803 	andle	r2, r2, #196608	; 0x30000
    2144:	0200001d 	andeq	r0, r0, #29
    2148:	640c5023 	strvs	r5, [ip], #-35	; 0x23
    214c:	0300000b 	movweq	r0, #11
    2150:	1dd70229 	lfmne	f0, 2, [r7, #164]	; (ldclne 2, cr0, [r7, #164])	; 0xa4
    2154:	23020000 	movwcs	r0, #8192	; 0x2000
    2158:	09a60c54 	stmibeq	r6!, {r2, r4, r6, sl, fp}
    215c:	2a030000 	bcs	c2164 <__resume0_start+0xc2164>
    2160:	001ddc02 	andseq	sp, sp, r2, lsl #24
    2164:	58230200 	stmdapl	r3!, {r9}
    2168:	00113b0c 	andseq	r3, r1, ip, lsl #22
    216c:	022b0300 	eoreq	r0, fp, #0
    2170:	00001de1 	andeq	r1, r0, r1, ror #27
    2174:	0c5c2302 	mrrceq	3, 0, r2, ip, cr2
    2178:	000008cd 	andeq	r0, r0, sp, asr #17
    217c:	e6022c03 	str	r2, [r2], -r3, lsl #24
    2180:	0200001d 	andeq	r0, r0, #29
    2184:	d60c6023 	strle	r6, [ip], -r3, lsr #32
    2188:	03000008 	movweq	r0, #8
    218c:	1deb022d 	sfmne	f0, 2, [fp, #180]!	; (stclne 2, cr0, [fp, #180]!)	; 0xb4
    2190:	23020000 	movwcs	r0, #8192	; 0x2000
    2194:	05fc0c64 	ldrbeq	r0, [ip, #3172]!	; 0xc64
    2198:	2e030000 	cdpcs	0, 0, cr0, cr3, cr0, {0}
    219c:	001df002 	andseq	pc, sp, r2
    21a0:	68230200 	stmdavs	r3!, {r9}
    21a4:	0006bc0c 	andeq	fp, r6, ip, lsl #24
    21a8:	022f0300 	eoreq	r0, pc, #0
    21ac:	00001df5 	strdeq	r1, [r0], -r5
    21b0:	0c6c2302 	stcleq	3, cr2, [ip], #-8
    21b4:	000005f2 	strdeq	r0, [r0], -r2
    21b8:	fa023003 	blx	8e1cc <__resume0_start+0x8e1cc>
    21bc:	0200001d 	andeq	r0, r0, #29
    21c0:	890c7023 	stmdbhi	ip, {r0, r1, r5, ip, sp, lr}
    21c4:	03000010 	movweq	r0, #16
    21c8:	1dff0231 	lfmne	f0, 2, [pc, #196]!	; (ldclne 2, cr0, [pc, #196]!)	; 0xc4
    21cc:	23030000 	movwcs	r0, #12288	; 0x3000
    21d0:	e80c0180 	stmda	ip, {r7, r8}
    21d4:	03000006 	movweq	r0, #6
    21d8:	1dff0232 	lfmne	f0, 2, [pc, #200]!	; (ldclne 2, cr0, [pc, #200]!)	; 0xc8
    21dc:	23030000 	movwcs	r0, #12288	; 0x3000
    21e0:	d80c0184 	stmdale	ip, {r2, r7, r8}
    21e4:	03000004 	movweq	r0, #4
    21e8:	1dff0233 	lfmne	f0, 2, [pc, #204]!	; (ldclne 2, cr0, [pc, #204]!)	; 0xcc
    21ec:	23030000 	movwcs	r0, #12288	; 0x3000
    21f0:	480c0188 	stmdami	ip, {r3, r7, r8}
    21f4:	0300000e 	movweq	r0, #14
    21f8:	1dff0234 	lfmne	f0, 2, [pc, #208]!	; (ldclne 2, cr0, [pc, #208]!)	; 0xd0
    21fc:	23030000 	movwcs	r0, #12288	; 0x3000
    2200:	7e0c018c 	adfvc<illegal precision>	f0, f4, #4.0
    2204:	0300000a 	movweq	r0, #10
    2208:	1dff0235 	lfmne	f0, 2, [pc, #212]!	; (ldclne 2, cr0, [pc, #212]!)	; 0xd4
    220c:	23030000 	movwcs	r0, #12288	; 0x3000
    2210:	e70c0190 	undefined instruction 0xe70c0190
    2214:	0300000e 	movweq	r0, #14
    2218:	1d950236 	lfmne	f0, 4, [r5, #216]	; (ldcne 2, cr0, [r5, #216])	; 0xd8
    221c:	23030000 	movwcs	r0, #12288	; 0x3000
    2220:	8d0c0194 	stfhis	f0, [ip, #-592]	; 0xfffffdb0
    2224:	0300000f 	movweq	r0, #15
    2228:	1dff0237 	lfmne	f0, 2, [pc, #220]!	; (ldclne 2, cr0, [pc, #220]!)	; 0xdc
    222c:	23030000 	movwcs	r0, #12288	; 0x3000
    2230:	940c0198 	strls	r0, [ip], #-408	; 0x198
    2234:	03000005 	movweq	r0, #5
    2238:	1dff0238 	lfmne	f0, 2, [pc, #224]!	; (ldclne 2, cr0, [pc, #224]!)	; 0xe0
    223c:	23030000 	movwcs	r0, #12288	; 0x3000
    2240:	880c019c 	stmdahi	ip, {r2, r3, r4, r7, r8}
    2244:	0300000a 	movweq	r0, #10
    2248:	1dff0239 	lfmne	f0, 2, [pc, #228]!	; (ldclne 2, cr0, [pc, #228]!)	; 0xe4
    224c:	23030000 	movwcs	r0, #12288	; 0x3000
    2250:	fe0c01a0 	cdp2	1, 0, cr0, cr12, cr0, {5}
    2254:	03000003 	movweq	r0, #3
    2258:	1dff023a 	lfmne	f0, 2, [pc, #232]!	; (ldclne 2, cr0, [pc, #232]!)	; 0xe8
    225c:	23030000 	movwcs	r0, #12288	; 0x3000
    2260:	7b0c01a4 	blvc	3028f8 <__resume0_start+0x3028f8>
    2264:	0300000c 	movweq	r0, #12
    2268:	1dff023b 	lfmne	f0, 2, [pc, #236]!	; (ldclne 2, cr0, [pc, #236]!)	; 0xec
    226c:	23030000 	movwcs	r0, #12288	; 0x3000
    2270:	f10c01a8 	undefined instruction 0xf10c01a8
    2274:	0300000e 	movweq	r0, #14
    2278:	1d95023c 	lfmne	f0, 4, [r5, #240]	; (ldcne 2, cr0, [r5, #240])	; 0xf0
    227c:	23030000 	movwcs	r0, #12288	; 0x3000
    2280:	9f0c01ac 	svcls	0x000c01ac
    2284:	03000009 	movweq	r0, #9
    2288:	1dff023d 	lfmne	f0, 2, [pc, #244]!	; (ldclne 2, cr0, [pc, #244]!)	; 0xf4
    228c:	23030000 	movwcs	r0, #12288	; 0x3000
    2290:	050c01b0 	streq	r0, [ip, #-432]	; 0x1b0
    2294:	03000006 	movweq	r0, #6
    2298:	1d95023e 	lfmne	f0, 4, [r5, #248]	; (ldcne 2, cr0, [r5, #248])	; 0xf8
    229c:	23030000 	movwcs	r0, #12288	; 0x3000
    22a0:	df0c01b4 	svcle	0x000c01b4
    22a4:	03000008 	movweq	r0, #8
    22a8:	1e04023f 	mcrne	2, 0, r0, cr4, cr15, {1}
    22ac:	23030000 	movwcs	r0, #12288	; 0x3000
    22b0:	080c01b8 	stmdaeq	ip, {r3, r4, r5, r7, r8}
    22b4:	0300000f 	movweq	r0, #15
    22b8:	1d950240 	lfmne	f0, 4, [r5, #256]	; (ldcne 2, cr0, [r5, #256])	; 0x100
    22bc:	23030000 	movwcs	r0, #12288	; 0x3000
    22c0:	190c01bc 	stmdbne	ip, {r2, r3, r4, r5, r7, r8}
    22c4:	0300000c 	movweq	r0, #12
    22c8:	1e040241 	cdpne	2, 0, cr0, cr4, cr1, {2}
    22cc:	23030000 	movwcs	r0, #12288	; 0x3000
    22d0:	a60c01c0 	strge	r0, [ip], -r0, asr #3
    22d4:	0300000f 	movweq	r0, #15
    22d8:	1e090242 	cdpne	2, 0, cr0, cr9, cr2, {2}
    22dc:	23030000 	movwcs	r0, #12288	; 0x3000
    22e0:	e30c01c4 	movw	r0, #49604	; 0xc1c4
    22e4:	03000009 	movweq	r0, #9
    22e8:	1d950243 	lfmne	f0, 4, [r5, #268]	; (ldcne 2, cr0, [r5, #268])	; 0x10c
    22ec:	23030000 	movwcs	r0, #12288	; 0x3000
    22f0:	9a0c01c8 	bls	302a18 <__resume0_start+0x302a18>
    22f4:	03000005 	movweq	r0, #5
    22f8:	1e0e0244 	cdpne	2, 0, cr0, cr14, cr4, {2}
    22fc:	23030000 	movwcs	r0, #12288	; 0x3000
    2300:	fa0c01cc 	blx	302a38 <__resume0_start+0x302a38>
    2304:	0300000b 	movweq	r0, #11
    2308:	1e130245 	cdpne	2, 1, cr0, cr3, cr5, {2}
    230c:	23030000 	movwcs	r0, #12288	; 0x3000
    2310:	ee0c01d0 	flt<illegal precision>m	f4, r0
    2314:	03000009 	movweq	r0, #9
    2318:	1d950246 	lfmne	f0, 4, [r5, #280]	; (ldcne 2, cr0, [r5, #280])	; 0x118
    231c:	23030000 	movwcs	r0, #12288	; 0x3000
    2320:	f90c01d4 	undefined instruction 0xf90c01d4
    2324:	03000009 	movweq	r0, #9
    2328:	1e280247 	cdpne	2, 2, cr0, cr8, cr7, {2}
    232c:	23030000 	movwcs	r0, #12288	; 0x3000
    2330:	8d0c01d8 	stfhis	f0, [ip, #-864]	; 0xfffffca0
    2334:	0300000c 	movweq	r0, #12
    2338:	1e2d0248 	cdpne	2, 2, cr0, cr13, cr8, {2}
    233c:	23030000 	movwcs	r0, #12288	; 0x3000
    2340:	c90c0280 	stmdbgt	ip, {r7, r9}
    2344:	0300000c 	movweq	r0, #12
    2348:	1e320249 	cdpne	2, 3, cr0, cr2, cr9, {2}
    234c:	23030000 	movwcs	r0, #12288	; 0x3000
    2350:	fc0c0284 	stc2	2, cr0, [ip], {132}	; 0x84
    2354:	0300000a 	movweq	r0, #10
    2358:	1d95024a 	lfmne	f0, 4, [r5, #296]	; (ldcne 2, cr0, [r5, #296])	; 0x128
    235c:	23030000 	movwcs	r0, #12288	; 0x3000
    2360:	5b0c0288 	blpl	302d88 <__resume0_start+0x302d88>
    2364:	03000009 	movweq	r0, #9
    2368:	1e32024b 	cdpne	2, 3, cr0, cr2, cr11, {2}
    236c:	23030000 	movwcs	r0, #12288	; 0x3000
    2370:	1b0c028c 	blne	302da8 <__resume0_start+0x302da8>
    2374:	0300000a 	movweq	r0, #10
    2378:	1d95024c 	lfmne	f0, 4, [r5, #304]	; (ldcne 2, cr0, [r5, #304])	; 0x130
    237c:	23030000 	movwcs	r0, #12288	; 0x3000
    2380:	260c0290 	undefined instruction 0x260c0290
    2384:	0300000a 	movweq	r0, #10
    2388:	1d95024d 	lfmne	f0, 4, [r5, #308]	; (ldcne 2, cr0, [r5, #308])	; 0x134
    238c:	23030000 	movwcs	r0, #12288	; 0x3000
    2390:	060c0294 	undefined instruction 0x060c0294
    2394:	03000004 	movweq	r0, #4
    2398:	1e37024e 	cdpne	2, 3, cr0, cr7, cr14, {2}
    239c:	23030000 	movwcs	r0, #12288	; 0x3000
    23a0:	310c0298 	undefined instruction 0x310c0298
    23a4:	0300000a 	movweq	r0, #10
    23a8:	1e3c024f 	cdpne	2, 3, cr0, cr12, cr15, {2}
    23ac:	23030000 	movwcs	r0, #12288	; 0x3000
    23b0:	b50c029c 	strlt	r0, [ip, #-668]	; 0x29c
    23b4:	03000005 	movweq	r0, #5
    23b8:	1e410250 	mcrne	2, 2, r0, cr1, cr0, {2}
    23bc:	23030000 	movwcs	r0, #12288	; 0x3000
    23c0:	3c0c02ac 	sfmcc	f0, 4, [ip], {172}	; (stccc 2, cr0, [ip], {172})	; 0xac
    23c4:	0300000a 	movweq	r0, #10
    23c8:	1d950251 	lfmne	f0, 4, [r5, #324]	; (ldcne 2, cr0, [r5, #324])	; 0x144
    23cc:	23030000 	movwcs	r0, #12288	; 0x3000
    23d0:	a20c02b0 	andge	r0, ip, #11
    23d4:	03000008 	movweq	r0, #8
    23d8:	1e460252 	mcrne	2, 2, r0, cr6, cr2, {2}
    23dc:	23030000 	movwcs	r0, #12288	; 0x3000
    23e0:	470c02b4 	undefined instruction 0x470c02b4
    23e4:	0300000a 	movweq	r0, #10
    23e8:	1d950253 	lfmne	f0, 4, [r5, #332]	; (ldcne 2, cr0, [r5, #332])	; 0x14c
    23ec:	23030000 	movwcs	r0, #12288	; 0x3000
    23f0:	aa0c02b8 	bge	302ed8 <__resume0_start+0x302ed8>
    23f4:	03000003 	movweq	r0, #3
    23f8:	1e4b0254 	mcrne	2, 2, r0, cr11, cr4, {2}
    23fc:	23030000 	movwcs	r0, #12288	; 0x3000
    2400:	850c02bc 	strhi	r0, [ip, #-700]	; 0x2bc
    2404:	0300000f 	movweq	r0, #15
    2408:	1e500255 	mrcne	2, 2, r0, cr0, cr5, {2}
    240c:	23030000 	movwcs	r0, #12288	; 0x3000
    2410:	e50c02c0 	str	r0, [ip, #-704]	; 0x2c0
    2414:	03000010 	movweq	r0, #16
    2418:	1e550256 	mrcne	2, 2, r0, cr5, cr6, {2}
    241c:	23030000 	movwcs	r0, #12288	; 0x3000
    2420:	cd0c02c4 	sfmgt	f0, 4, [ip, #-784]	; (stcgt 2, cr0, [ip, #-784])	; 0xfffffcf0
    2424:	0300000a 	movweq	r0, #10
    2428:	1d950257 	lfmne	f0, 4, [r5, #348]	; (ldcne 2, cr0, [r5, #348])	; 0x15c
    242c:	23030000 	movwcs	r0, #12288	; 0x3000
    2430:	380c02c8 	stmdacc	ip, {r3, r6, r7, r9}
    2434:	0300000b 	movweq	r0, #11
    2438:	1e5a0258 	mrcne	2, 2, r0, cr10, cr8, {2}
    243c:	23030000 	movwcs	r0, #12288	; 0x3000
    2440:	ea0c02cc 	b	302f78 <__resume0_start+0x302f78>
    2444:	0300000a 	movweq	r0, #10
    2448:	1e5f0259 	mrcne	2, 2, r0, cr15, cr9, {2}
    244c:	23030000 	movwcs	r0, #12288	; 0x3000
    2450:	dd0c02d0 	sfmle	f0, 4, [ip, #-832]	; (stcle 2, cr0, [ip, #-832])	; 0xfffffcc0
    2454:	03000010 	movweq	r0, #16
    2458:	1e64025a 	mcrne	2, 3, r0, cr4, cr10, {2}
    245c:	23030000 	movwcs	r0, #12288	; 0x3000
    2460:	d80c02d4 	stmdale	ip, {r2, r4, r6, r7, r9}
    2464:	0300000a 	movweq	r0, #10
    2468:	1d95025b 	lfmne	f0, 4, [r5, #364]	; (ldcne 2, cr0, [r5, #364])	; 0x16c
    246c:	23030000 	movwcs	r0, #12288	; 0x3000
    2470:	ef0c02d8 	svc	0x000c02d8
    2474:	03000003 	movweq	r0, #3
    2478:	1e69025c 	mcrne	2, 3, r0, cr9, cr12, {2}
    247c:	23030000 	movwcs	r0, #12288	; 0x3000
    2480:	bd0c02dc 	sfmlt	f0, 4, [ip, #-880]	; (stclt 2, cr0, [ip, #-880])	; 0xfffffc90
    2484:	03000010 	movweq	r0, #16
    2488:	1e6e025d 	mcrne	2, 3, r0, cr14, cr13, {2}
    248c:	23030000 	movwcs	r0, #12288	; 0x3000
    2490:	0d0002e0 	sfmeq	f0, 4, [r0, #-896]	; (stceq 2, cr0, [r0, #-896])	; 0xfffffc80
    2494:	0000017c 	andeq	r0, r0, ip, ror r1
    2498:	0001fa0d 	andeq	pc, r1, sp, lsl #20
    249c:	02ab0d00 	adceq	r0, fp, #0
    24a0:	290d0000 	stmdbcs	sp, {}
    24a4:	0d000003 	stceq	0, cr0, [r0, #-12]
    24a8:	000003fc 	strdeq	r0, [r0], -ip
    24ac:	00005e0d 	andeq	r5, r0, sp, lsl #28
    24b0:	05020d00 	streq	r0, [r2, #-3328]	; 0xd00
    24b4:	190d0000 	stmdbne	sp, {}
    24b8:	0d000006 	stceq	0, cr0, [r0, #-24]	; 0xffffffe8
    24bc:	000006a8 	andeq	r0, r0, r8, lsr #13
    24c0:	00078c0d 	andeq	r8, r7, sp, lsl #24
    24c4:	085f0d00 	ldmdaeq	pc, {r8, sl, fp}^
    24c8:	dd0d0000 	stcle	0, cr0, [sp]
    24cc:	0d000008 	stceq	0, cr0, [r0, #-32]	; 0xffffffe0
    24d0:	0000095b 	andeq	r0, r0, fp, asr r9
    24d4:	00005e0e 	andeq	r5, r0, lr, lsl #28
    24d8:	001dcd00 	andseq	ip, sp, r0, lsl #26
    24dc:	007e0f00 	rsbseq	r0, lr, r0, lsl #30
    24e0:	00030000 	andeq	r0, r3, r0
    24e4:	001dbd0d 	andseq	fp, sp, sp, lsl #26
    24e8:	0a1d0d00 	beq	7458f0 <__resume0_start+0x7458f0>
    24ec:	bd0d0000 	stclt	0, cr0, [sp]
    24f0:	0d00000a 	stceq	0, cr0, [r0, #-40]	; 0xffffffd8
    24f4:	00000b3b 	andeq	r0, r0, fp, lsr fp
    24f8:	000b750d 	andeq	r7, fp, sp, lsl #10
    24fc:	0d590d00 	ldcleq	13, cr0, [r9]
    2500:	930d0000 	movwls	r0, #53248	; 0xd000
    2504:	0d00000e 	stceq	0, cr0, [r0, #-56]	; 0xffffffc8
    2508:	00000f61 	andeq	r0, r0, r1, ror #30
    250c:	00101d0d 	andseq	r1, r0, sp, lsl #26
    2510:	1dbd0d00 	ldcne	13, cr0, [sp]
    2514:	b50d0000 	strlt	r0, [sp]
    2518:	0d000010 	stceq	0, cr0, [r0, #-64]	; 0xffffffc0
    251c:	00001117 	andeq	r1, r0, r7, lsl r1
    2520:	0011af0d 	andseq	sl, r1, sp, lsl #30
    2524:	12470d00 	subne	r0, r7, #0
    2528:	cd0d0000 	stcgt	0, cr0, [sp]
    252c:	0e000012 	mcreq	0, 0, r0, cr0, cr2, {0}
    2530:	0000005e 	andeq	r0, r0, lr, asr r0
    2534:	00001e28 	andeq	r1, r0, r8, lsr #28
    2538:	00007e0f 	andeq	r7, r0, pc, lsl #28
    253c:	0d000900 	stceq	9, cr0, [r0]
    2540:	00001e18 	andeq	r1, r0, r8, lsl lr
    2544:	0013ad0d 	andseq	sl, r3, sp, lsl #26
    2548:	14330d00 	ldrtne	r0, [r3], #-3328	; 0xd00
    254c:	b90d0000 	stmdblt	sp, {}
    2550:	0d000014 	stceq	0, cr0, [r0, #-80]	; 0xffffffb0
    2554:	00001dbd 	undefined instruction 0x00001dbd
    2558:	0015750d 	andseq	r7, r5, sp, lsl #10
    255c:	15fb0d00 	ldrbne	r0, [fp, #3328]!	; 0xd00
    2560:	6f0d0000 	svcvs	0x000d0000
    2564:	0d000016 	stceq	0, cr0, [r0, #-88]	; 0xffffffa8
    2568:	000016ad 	andeq	r1, r0, sp, lsr #13
    256c:	0016eb0d 	andseq	lr, r6, sp, lsl #22
    2570:	17290d00 	strne	r0, [r9, -r0, lsl #26]!
    2574:	9d0d0000 	stcls	0, cr0, [sp]
    2578:	0d000017 	stceq	0, cr0, [r0, #-92]	; 0xffffffa4
    257c:	00001823 	andeq	r1, r0, r3, lsr #16
    2580:	0018bb0d 	andseq	fp, r8, sp, lsl #22
    2584:	190b0d00 	stmdbne	fp, {r8, sl, fp}
    2588:	77090000 	strvc	r0, [r9, -r0]
    258c:	03000010 	movweq	r0, #16
    2590:	1917025f 	ldmdbne	r7, {r0, r1, r2, r3, r4, r6, r9}
    2594:	2d060000 	stccs	0, cr0, [r6]
    2598:	24000009 	strcs	r0, [r0], #-9
    259c:	1f0a1a04 	svcne	0x000a1a04
    25a0:	9d100000 	ldcls	0, cr0, [r0]
    25a4:	0400000b 	streq	r0, [r0], #-11
    25a8:	001f0a1b 	andseq	r0, pc, fp, lsl sl
    25ac:	00230200 	eoreq	r0, r3, r0, lsl #4
    25b0:	000b0f10 	andeq	r0, fp, r0, lsl pc
    25b4:	0a1c0400 	beq	7035bc <__resume0_start+0x7035bc>
    25b8:	0200001f 	andeq	r0, r0, #31
    25bc:	5f100423 	svcpl	0x00100423
    25c0:	04000007 	streq	r0, [r0], #-7
    25c4:	001f0a1d 	andseq	r0, pc, sp, lsl sl
    25c8:	08230200 	stmdaeq	r3!, {r9}
    25cc:	00043d10 	andeq	r3, r4, r0, lsl sp
    25d0:	0a1e0400 	beq	7835d8 <__resume0_start+0x7835d8>
    25d4:	0200001f 	andeq	r0, r0, #31
    25d8:	6e100c23 	cdpvs	12, 1, cr0, cr0, cr3, {1}
    25dc:	0400000b 	streq	r0, [r0], #-11
    25e0:	001f0a1f 	andseq	r0, pc, pc, lsl sl
    25e4:	10230200 	eorne	r0, r3, r0, lsl #4
    25e8:	000a9010 	andeq	r9, sl, r0, lsl r0
    25ec:	0a200400 	beq	8035f4 <__resume0_start+0x8035f4>
    25f0:	0200001f 	andeq	r0, r0, #31
    25f4:	4c101423 	cfldrsmi	mvf1, [r0], {35}	; 0x23
    25f8:	04000007 	streq	r0, [r0], #-7
    25fc:	001f0a21 	andseq	r0, pc, r1, lsr #20
    2600:	18230200 	stmdane	r3!, {r9}
    2604:	0011e710 	andseq	lr, r1, r0, lsl r7
    2608:	0a220400 	beq	883610 <__resume0_start+0x883610>
    260c:	0200001f 	andeq	r0, r0, #31
    2610:	90101c23 	andsls	r1, r0, r3, lsr #24
    2614:	0400000e 	streq	r0, [r0], #-14
    2618:	001f0a23 	andseq	r0, pc, r3, lsr #20
    261c:	20230200 	eorcs	r0, r3, r0, lsl #4
    2620:	00690d00 	rsbeq	r0, r9, r0, lsl #26
    2624:	6d030000 	stcvs	0, cr0, [r3]
    2628:	04000007 	streq	r0, [r0], #-7
    262c:	001e7f25 	andseq	r7, lr, r5, lsr #30
    2630:	07ea1100 	strbeq	r1, [sl, r0, lsl #2]!
    2634:	04040000 	streq	r0, [r4]
    2638:	001f3329 	andseq	r3, pc, r9, lsr #6
    263c:	0e861200 	cdpeq	2, 8, cr1, cr6, cr0, {0}
    2640:	12000000 	andne	r0, r0, #0
    2644:	00000457 	andeq	r0, r0, r7, asr r4
    2648:	b3130001 	tstlt	r3, #1
    264c:	01000004 	tsteq	r0, r4
    2650:	004c0130 	subeq	r0, ip, r0, lsr r1
    2654:	13010000 	movwne	r0, #4096	; 0x1000
    2658:	00001261 	andeq	r1, r0, r1, ror #4
    265c:	4c014c01 	stcmi	12, cr4, [r1], {1}
    2660:	01000000 	tsteq	r0, r0
    2664:	061b0114 	undefined instruction 0x061b0114
    2668:	69010000 	stmdbvs	r1, {}
    266c:	00004c01 	andeq	r4, r0, r1, lsl #24
    2670:	10060000 	andne	r0, r6, r0
    2674:	10065040 	andne	r5, r6, r0, asr #32
    2678:	785d0140 	ldmdavc	sp, {r6, r8}^
    267c:	1500001f 	strne	r0, [r0, #-31]
    2680:	00000437 	andeq	r0, r0, r7, lsr r4
    2684:	00576901 	subseq	r6, r7, r1, lsl #18
    2688:	001f0000 	andseq	r0, pc, r0
    268c:	16000000 	strne	r0, [r0], -r0
    2690:	00000fdc 	ldrdeq	r0, [r0], -ip
    2694:	5701a201 	strpl	sl, [r1, -r1, lsl #4]
    2698:	50000000 	andpl	r0, r0, r0
    269c:	e8401006 	stmda	r0, {r1, r2, ip}^
    26a0:	01401006 	cmpeq	r0, r6
    26a4:	001faf5d 	andseq	sl, pc, sp, asr pc
    26a8:	08f51700 	ldmeq	r5!, {r8, r9, sl, ip}^
    26ac:	a4010000 	strge	r0, [r1]
    26b0:	00000069 	andeq	r0, r0, r9, rrx
    26b4:	00000032 	andeq	r0, r0, r2, lsr r0
    26b8:	00106f18 	andseq	r6, r0, r8, lsl pc
    26bc:	69a50100 	stmibvs	r5!, {r8}
    26c0:	01000000 	tsteq	r0, r0
    26c4:	01190052 	tsteq	r9, r2, asr r0
    26c8:	000009b1 	undefined instruction 0x000009b1
    26cc:	e801ce01 	stmda	r1, {r0, r9, sl, fp, lr, pc}
    26d0:	44401006 	strbmi	r1, [r0], #-6
    26d4:	01401007 	cmpeq	r0, r7
    26d8:	48011a5d 	stmdami	r1, {r0, r2, r3, r4, r6, r9, fp, ip}
    26dc:	0100000c 	tsteq	r0, ip
    26e0:	004c01f2 	strdeq	r0, [ip], #-18	; 0xffffffee
    26e4:	07440000 	strbeq	r0, [r4, -r0]
    26e8:	0a1c4010 	beq	712730 <__resume0_start+0x712730>
    26ec:	00454010 	subeq	r4, r5, r0, lsl r0
    26f0:	20700000 	rsbscs	r0, r0, r0
    26f4:	6f1b0000 	svcvs	0x001b0000
    26f8:	f2010070 	vqadd.s8	q0, <illegal reg q0.5>, q8
    26fc:	00001f1a 	andeq	r1, r0, sl, lsl pc
    2700:	00000064 	andeq	r0, r0, r4, rrx
    2704:	000ba115 	andeq	sl, fp, r5, lsl r1
    2708:	2cf20100 	ldfcse	f0, [r2]
    270c:	8d000000 	stchi	0, cr0, [r0]
    2710:	15000000 	strne	r0, [r0]
    2714:	000004f5 	strdeq	r0, [r0], -r5
    2718:	002cf201 	eoreq	pc, ip, r1, lsl #4
    271c:	00ab0000 	adceq	r0, fp, r0
    2720:	63150000 	tstvs	r5, #0
    2724:	01000007 	tsteq	r0, r7
    2728:	002070f2 	strdeq	r7, [r0], -r2
    272c:	0000c900 	andeq	ip, r0, r0, lsl #18
    2730:	08011c00 	stmdaeq	r1, {sl, fp, ip}
    2734:	f4010000 	vst4.8	{d0-d3}, [r1], r0
    2738:	00000037 	andeq	r0, r0, r7, lsr r0
    273c:	00106f17 	andseq	r6, r0, r7, lsl pc
    2740:	69f50100 	ldmibvs	r5!, {r8}^
    2744:	f2000000 	vhadd.s8	d0, d0, d0
    2748:	1d000000 	stcne	0, cr0, [r0]
    274c:	00746572 	rsbseq	r6, r4, r2, ror r5
    2750:	0057f601 	subseq	pc, r7, r1, lsl #12
    2754:	01680000 	cmneq	r8, r0
    2758:	ec1e0000 	ldc	0, cr0, [lr], {0}
    275c:	01000004 	tsteq	r0, r4
    2760:	09580174 	ldmdbeq	r8, {r2, r4, r5, r6, r8}^
    2764:	331f4010 	tstcc	pc, #16
    2768:	5800001f 	stmdapl	r0, {r0, r1, r2, r3, r4}
    276c:	a8401009 	stmdage	r0, {r0, r3, ip}^
    2770:	01401009 	cmpeq	r0, r9
    2774:	331f0178 	tstcc	pc, #30
    2778:	a800001f 	stmdage	r0, {r0, r1, r2, r3, r4}
    277c:	f4401009 	vst4.8	{d17-d20}, [r0], r9
    2780:	01401009 	cmpeq	r0, r9
    2784:	2000017b 	andcs	r0, r0, fp, ror r1
    2788:	00002c04 	andeq	r2, r0, r4, lsl #24
    278c:	57012100 	strpl	r2, [r1, -r0, lsl #2]
    2790:	0100000f 	tsteq	r0, pc
    2794:	4c010194 	stfmis	f0, [r1], {148}	; 0x94
    2798:	1c000000 	stcne	0, cr0, [r0], {0}
    279c:	3c40100a 	mcrrcc	0, 0, r1, r0, cr10
    27a0:	8640100d 	strbhi	r1, [r0], -sp
    27a4:	2c000001 	stccs	0, cr0, [r0], {1}
    27a8:	22000021 	andcs	r0, r0, #33	; 0x21
    27ac:	0100706f 	tsteq	r0, pc, rrx
    27b0:	1f1a0194 	svcne	0x001a0194
    27b4:	01a50000 	undefined instruction 0x01a50000
    27b8:	a1230000 	teqge	r3, r0
    27bc:	0100000b 	tsteq	r0, fp
    27c0:	002c0194 	mlaeq	ip, r4, r1, r0
    27c4:	01ce0000 	biceq	r0, lr, r0
    27c8:	f5230000 	undefined instruction 0xf5230000
    27cc:	01000004 	tsteq	r0, r4
    27d0:	002c0194 	mlaeq	ip, r4, r1, r0
    27d4:	01ec0000 	mvneq	r0, r0
    27d8:	63230000 	teqvs	r3, #0
    27dc:	01000007 	tsteq	r0, r7
    27e0:	20700194 	ldrbtcs	r0, [r0], #-20	; 0xffffffec
    27e4:	020a0000 	andeq	r0, sl, #0
    27e8:	01240000 	teqeq	r4, r0
    27ec:	01000008 	tsteq	r0, r8
    27f0:	00370196 	mlaseq	r7, r6, r1, r0
    27f4:	6f250000 	svcvs	0x00250000
    27f8:	01000010 	tsteq	r0, r0, lsl r0
    27fc:	00690197 	mlseq	r9, r7, r1, r0
    2800:	02330000 	eorseq	r0, r3, #0
    2804:	72260000 	eorvc	r0, r6, #0
    2808:	01007465 	tsteq	r0, r5, ror #8
    280c:	00570198 	ldrbeq	r0, [r7], #-24	; 0xffffffe8
    2810:	02a90000 	adceq	r0, r9, #0
    2814:	ec1e0000 	ldc	0, cr0, [lr], {0}
    2818:	01000004 	tsteq	r0, r4
    281c:	0c6c0217 	sfmeq	f0, 2, [ip], #-92	; (stcleq 2, cr0, [ip], #-92)	; 0xffffffa4
    2820:	401f4010 	andsmi	r4, pc, r0, lsl r0
    2824:	6c00001f 	stcvs	0, cr0, [r0], {31}
    2828:	c440100c 	strbgt	r1, [r0], #-12
    282c:	0140100c 	cmpeq	r0, ip
    2830:	401f021b 	andsmi	r0, pc, fp, lsl r2
    2834:	c400001f 	strgt	r0, [r0], #-31
    2838:	1840100c 	stmdane	r0, {r2, r3, ip}^
    283c:	0140100d 	cmpeq	r0, sp
    2840:	2700021e 	smladcs	r0, lr, r2, r0
    2844:	00105a01 	andseq	r5, r0, r1, lsl #20
    2848:	01850100 	orreq	r0, r5, r0, lsl #2
    284c:	0000004c 	andeq	r0, r0, ip, asr #32
    2850:	40100d3c 	andsmi	r0, r0, ip, lsr sp
    2854:	40100d8c 	andsmi	r0, r0, ip, lsl #27
    2858:	000002c7 	andeq	r0, r0, r7, asr #5
    285c:	0021550e 	eoreq	r5, r1, lr, lsl #10
    2860:	00215500 	eoreq	r5, r1, r0, lsl #10
    2864:	007e0f00 	rsbseq	r0, lr, r0, lsl #30
    2868:	00020000 	andeq	r0, r2, r0
    286c:	1f0f0420 	svcne	0x000f0420
    2870:	31180000 	tstcc	r8, r0
    2874:	0100000e 	tsteq	r0, lr
    2878:	00216c16 	eoreq	r6, r1, r6, lsl ip
    287c:	78030500 	stmdavc	r3, {r8, sl}
    2880:	2840105f 	stmdacs	r0, {r0, r1, r2, r3, r4, r6, ip}^
    2884:	00002145 	andeq	r2, r0, r5, asr #2
    2888:	00094e18 	andeq	r4, r9, r8, lsl lr
    288c:	5e1c0100 	mufple	f0, f4, f0
    2890:	05000000 	streq	r0, [r0]
    2894:	105f8c03 	subsne	r8, pc, r3, lsl #24
    2898:	11fb1840 	mvnsne	r1, r0, asr #16
    289c:	1d010000 	stcne	0, cr0, [r1]
    28a0:	0000005e 	andeq	r0, r0, lr, asr r0
    28a4:	5f900305 	svcpl	0x00900305
    28a8:	0b184010 	bleq	6128f0 <__resume0_start+0x6128f0>
    28ac:	01000008 	tsteq	r0, r8
    28b0:	0021551e 	eoreq	r5, r1, lr, lsl r5
    28b4:	88030500 	stmdahi	r3, {r8, sl}
    28b8:	1840105f 	stmdane	r0, {r0, r1, r2, r3, r4, r6, ip}^
    28bc:	00000fea 	andeq	r0, r0, sl, ror #31
    28c0:	21b51f01 	undefined instruction 0x21b51f01
    28c4:	03050000 	movweq	r0, #20480	; 0x5000
    28c8:	40105f94 	mulsmi	r0, r4, pc
    28cc:	1e730420 	cdpne	4, 7, cr0, cr3, cr0, {1}
    28d0:	73000000 	movwvc	r0, #0
    28d4:	02000000 	andeq	r0, r0, #0
    28d8:	0003f800 	andeq	pc, r3, r0, lsl #16
    28dc:	fc010400 	stc2	4, cr0, [r1], {0}
    28e0:	8c000003 	stchi	0, cr0, [r0], {3}
    28e4:	b440100d 	strblt	r1, [r0], #-13
    28e8:	2e40100d 	cdpcs	0, 4, cr1, cr0, cr13, {0}
    28ec:	7075732f 	rsbsvc	r7, r5, pc, lsr #6
    28f0:	732f7265 	teqvc	pc, #1342177286	; 0x50000006
    28f4:	72657075 	rsbvc	r7, r5, #117	; 0x75
    28f8:	6c65645f 	cfstrdvs	mvd6, [r5], #-380	; 0xfffffe84
    28fc:	532e7961 	teqpl	lr, #1589248	; 0x184000
    2900:	6f682f00 	svcvs	0x00682f00
    2904:	6d2f656d 	cfstr32vs	mvfx6, [pc, #-436]!	; 0xfffffe4c
    2908:	2f656b69 	svccs	0x00656b69
    290c:	6b726f77 	blvs	1c9e6f0 <__resume0_start+0x1c9e6f0>
    2910:	6e696c2f 	cdpvs	12, 6, cr6, cr9, cr15, {1}
    2914:	365f7875 	undefined instruction 0x365f7875
    2918:	612f3432 	teqvs	pc, r2, lsr r4
    291c:	2f686372 	svccs	0x00686372
    2920:	2f6d7261 	svccs	0x006d7261
    2924:	6863616d 	stmdavs	r3!, {r0, r2, r3, r5, r6, r8, sp, lr}^
    2928:	6e75732d 	cdpvs	3, 7, cr7, cr5, cr13, {1}
    292c:	702f6935 	eorvc	r6, pc, r5, lsr r9
    2930:	74732f6d 	ldrbtvc	r2, [r3], #-3949	; 0xf6d
    2934:	62646e61 	rsbvs	r6, r4, #1552	; 0x610
    2938:	4e470079 	mcrmi	0, 2, r0, cr7, cr9, {3}
    293c:	53412055 	movtpl	r2, #4181	; 0x1055
    2940:	322e3220 	eorcc	r3, lr, #2
    2944:	00312e30 	eorseq	r2, r1, r0, lsr lr
    2948:	207c8001 	rsbscs	r8, ip, r1
    294c:	00020000 	andeq	r0, r2, r0
    2950:	0000040c 	andeq	r0, r0, ip, lsl #8
    2954:	00550104 	subseq	r0, r5, r4, lsl #2
    2958:	fd010000 	stc2	0, cr0, [r1]
    295c:	48000012 	stmdami	r0, {r1, r4}
    2960:	b4000002 	strlt	r0, [r0], #-2
    2964:	2840100d 	stmdacs	r0, {r0, r2, r3, ip}^
    2968:	4a401010 	bmi	10069b0 <__resume0_start+0x10069b0>
    296c:	02000004 	andeq	r0, r0, #4
    2970:	01690601 	cmneq	r9, r1, lsl #12
    2974:	94030000 	strls	r0, [r3]
    2978:	02000002 	andeq	r0, r0, #2
    297c:	0000370f 	andeq	r3, r0, pc, lsl #14
    2980:	08010200 	stmdaeq	r1, {r9}
    2984:	00000167 	andeq	r0, r0, r7, ror #2
    2988:	61050202 	tstvs	r5, r2, lsl #4
    298c:	02000000 	andeq	r0, r0, #0
    2990:	02180702 	andseq	r0, r8, #524288	; 0x80000
    2994:	bd030000 	stclt	0, cr0, [r3]
    2998:	02000001 	andeq	r0, r0, #1
    299c:	00005712 	andeq	r5, r0, r2, lsl r7
    29a0:	05040400 	streq	r0, [r4, #-1024]	; 0x400
    29a4:	00746e69 	rsbseq	r6, r4, r9, ror #28
    29a8:	0000d203 	andeq	sp, r0, r3, lsl #4
    29ac:	69130200 	ldmdbvs	r3, {r9}
    29b0:	02000000 	andeq	r0, r0, #0
    29b4:	01f40704 	mvnseq	r0, r4, lsl #14
    29b8:	08020000 	stmdaeq	r2, {}
    29bc:	0000f505 	andeq	pc, r0, r5, lsl #10
    29c0:	07080200 	streq	r0, [r8, -r0, lsl #4]
    29c4:	000001ea 	andeq	r0, r0, sl, ror #3
    29c8:	00008505 	andeq	r8, r0, r5, lsl #10
    29cc:	11030400 	tstne	r3, r0, lsl #8
    29d0:	000000e0 	andeq	r0, r0, r0, ror #1
    29d4:	00001e06 	andeq	r1, r0, r6, lsl #28
    29d8:	5e120300 	cdppl	3, 1, cr0, cr2, cr0, {0}
    29dc:	04000000 	streq	r0, [r0]
    29e0:	23021c04 	movwcs	r1, #11268	; 0x2c04
    29e4:	00b10600 	adcseq	r0, r1, r0, lsl #12
    29e8:	13030000 	movwne	r0, #12288	; 0x3000
    29ec:	0000005e 	andeq	r0, r0, lr, asr r0
    29f0:	02180404 	andseq	r0, r8, #67108864	; 0x4000000
    29f4:	08060023 	stmdaeq	r6, {r0, r1, r5}
    29f8:	03000001 	movweq	r0, #1
    29fc:	00005e14 	andeq	r5, r0, r4, lsl lr
    2a00:	14040400 	strne	r0, [r4], #-1024	; 0x400
    2a04:	06002302 	streq	r2, [r0], -r2, lsl #6
    2a08:	000000de 	ldrdeq	r0, [r0], -lr
    2a0c:	005e1503 	subseq	r1, lr, r3, lsl #10
    2a10:	04040000 	streq	r0, [r4]
    2a14:	00230210 	eoreq	r0, r3, r0, lsl r2
    2a18:	00011806 	andeq	r1, r1, r6, lsl #16
    2a1c:	5e160300 	cdppl	3, 1, cr0, cr6, cr0, {0}
    2a20:	04000000 	streq	r0, [r0]
    2a24:	23020010 	movwcs	r0, #8208	; 0x2010
    2a28:	99050000 	stmdbls	r5, {}
    2a2c:	08000000 	stmdaeq	r0, {}
    2a30:	01331803 	teqeq	r3, r3, lsl #16
    2a34:	08070000 	stmdaeq	r7, {}
    2a38:	03000000 	movweq	r0, #0
    2a3c:	00002c19 	andeq	r2, r0, r9, lsl ip
    2a40:	00230200 	eoreq	r0, r3, r0, lsl #4
    2a44:	00033707 	andeq	r3, r3, r7, lsl #14
    2a48:	2c1a0300 	ldccs	3, cr0, [sl], {0}
    2a4c:	02000000 	andeq	r0, r0, #0
    2a50:	00070123 	andeq	r0, r7, r3, lsr #2
    2a54:	03000000 	movweq	r0, #0
    2a58:	00002c1b 	andeq	r2, r0, fp, lsl ip
    2a5c:	02230200 	eoreq	r0, r3, #0
    2a60:	00001007 	andeq	r1, r0, r7
    2a64:	2c1c0300 	ldccs	3, cr0, [ip], {0}
    2a68:	02000000 	andeq	r0, r0, #0
    2a6c:	50080323 	andpl	r0, r8, r3, lsr #6
    2a70:	03006c6c 	movweq	r6, #3180	; 0xc6c
    2a74:	00005e1d 	andeq	r5, r0, sp, lsl lr
    2a78:	04230200 	strteq	r0, [r3], #-512	; 0x200
    2a7c:	07040900 	streq	r0, [r4, -r0, lsl #18]
    2a80:	000bd605 	andeq	sp, fp, r5, lsl #12
    2a84:	17040400 	strne	r0, [r4, -r0, lsl #8]
    2a88:	00000231 	andeq	r0, r0, r1, lsr r2
    2a8c:	00000006 	andeq	r0, r0, r6
    2a90:	5e180400 	cfmulspl	mvf0, mvf8, mvf0
    2a94:	04000000 	streq	r0, [r0]
    2a98:	23021e02 	movwcs	r1, #11778	; 0x2e02
    2a9c:	0a520600 	beq	14842a4 <__resume0_start+0x14842a4>
    2aa0:	19040000 	stmdbne	r4, {}
    2aa4:	0000005e 	andeq	r0, r0, lr, asr r0
    2aa8:	021d0104 	andseq	r0, sp, #1
    2aac:	c5060023 	strgt	r0, [r6, #-35]	; 0x23
    2ab0:	0400000d 	streq	r0, [r0], #-13
    2ab4:	00005e1a 	andeq	r5, r0, sl, lsl lr
    2ab8:	1c010400 	cfstrsne	mvf0, [r1], {0}
    2abc:	06002302 	streq	r2, [r0], -r2, lsl #6
    2ac0:	00000337 	andeq	r0, r0, r7, lsr r3
    2ac4:	005e1b04 	subseq	r1, lr, r4, lsl #22
    2ac8:	02040000 	andeq	r0, r4, #0
    2acc:	0023021a 	eoreq	r0, r3, sl, lsl r2
    2ad0:	000e9906 	andeq	r9, lr, r6, lsl #18
    2ad4:	5e1c0400 	cfmulspl	mvf0, mvf12, mvf0
    2ad8:	04000000 	streq	r0, [r0]
    2adc:	23021802 	movwcs	r1, #10242	; 0x2802
    2ae0:	00080600 	andeq	r0, r8, r0, lsl #12
    2ae4:	1d040000 	stcne	0, cr0, [r4]
    2ae8:	0000005e 	andeq	r0, r0, lr, asr r0
    2aec:	02130504 	andseq	r0, r3, #16777216	; 0x1000000
    2af0:	65060023 	strvs	r0, [r6, #-35]	; 0x23
    2af4:	04000011 	streq	r0, [r0], #-17
    2af8:	00005e1e 	andeq	r5, r0, lr, lsl lr
    2afc:	10030400 	andne	r0, r3, r0, lsl #8
    2b00:	06002302 	streq	r2, [r0], -r2, lsl #6
    2b04:	000007d9 	ldrdeq	r0, [r0], -r9
    2b08:	005e1f04 	subseq	r1, lr, r4, lsl #30
    2b0c:	02040000 	andeq	r0, r4, #0
    2b10:	0023020e 	eoreq	r0, r3, lr, lsl #4
    2b14:	000ea306 	andeq	sl, lr, r6, lsl #6
    2b18:	5e200400 	cdppl	4, 2, cr0, cr0, cr0, {0}
    2b1c:	04000000 	streq	r0, [r0]
    2b20:	23020c02 	movwcs	r0, #11266	; 0x2c02
    2b24:	0fb00600 	svceq	0x00b00600
    2b28:	21040000 	tstcs	r4, r0
    2b2c:	0000005e 	andeq	r0, r0, lr, asr r0
    2b30:	02070504 	andeq	r0, r7, #16777216	; 0x1000000
    2b34:	ad060023 	stcge	0, cr0, [r6, #-140]	; 0xffffff74
    2b38:	0400000e 	streq	r0, [r0], #-14
    2b3c:	00005e22 	andeq	r5, r0, r2, lsr #28
    2b40:	06010400 	streq	r0, [r1], -r0, lsl #8
    2b44:	06002302 	streq	r2, [r0], -r2, lsl #6
    2b48:	00000e15 	andeq	r0, r0, r5, lsl lr
    2b4c:	005e2304 	subseq	r2, lr, r4, lsl #6
    2b50:	04040000 	streq	r0, [r4]
    2b54:	00230202 	eoreq	r0, r3, r2, lsl #4
    2b58:	000b4006 	andeq	r4, fp, r6
    2b5c:	5e240400 	cdppl	4, 2, cr0, cr4, cr0, {0}
    2b60:	04000000 	streq	r0, [r0]
    2b64:	23020101 	movwcs	r0, #8449	; 0x2101
    2b68:	0f370600 	svceq	0x00370600
    2b6c:	25040000 	strcs	r0, [r4]
    2b70:	0000005e 	andeq	r0, r0, lr, asr r0
    2b74:	02000104 	andeq	r0, r0, #1
    2b78:	03000023 	movweq	r0, #35	; 0x23
    2b7c:	00000977 	andeq	r0, r0, r7, ror r9
    2b80:	01362704 	teqeq	r6, r4, lsl #14
    2b84:	a2050000 	andge	r0, r5, #0
    2b88:	04000010 	streq	r0, [r0], #-16
    2b8c:	02af2a04 	adceq	r2, pc, #16384	; 0x4000
    2b90:	99060000 	stmdbls	r6, {}
    2b94:	0400000e 	streq	r0, [r0], #-14
    2b98:	00005e2b 	andeq	r5, r0, fp, lsr #28
    2b9c:	10100400 	andsne	r0, r0, r0, lsl #8
    2ba0:	06002302 	streq	r2, [r0], -r2, lsl #6
    2ba4:	00000f9d 	muleq	r0, sp, pc
    2ba8:	005e2c04 	subseq	r2, lr, r4, lsl #24
    2bac:	07040000 	streq	r0, [r4, -r0]
    2bb0:	00230209 	eoreq	r0, r3, r9, lsl #4
    2bb4:	00042c06 	andeq	r2, r4, r6, lsl #24
    2bb8:	5e2d0400 	cdppl	4, 2, cr0, cr13, cr0, {0}
    2bbc:	04000000 	streq	r0, [r0]
    2bc0:	23020603 	movwcs	r0, #9731	; 0x2603
    2bc4:	11df0600 	bicsne	r0, pc, r0, lsl #12
    2bc8:	2e040000 	cdpcs	0, 0, cr0, cr4, cr0, {0}
    2bcc:	0000005e 	andeq	r0, r0, lr, asr r0
    2bd0:	02050104 	andeq	r0, r5, #1
    2bd4:	8a060023 	bhi	182c68 <__resume0_start+0x182c68>
    2bd8:	04000005 	streq	r0, [r0], #-5
    2bdc:	00005e2f 	andeq	r5, r0, pc, lsr #28
    2be0:	04010400 	streq	r0, [r1], #-1024	; 0x400
    2be4:	06002302 	streq	r2, [r0], -r2, lsl #6
    2be8:	00000922 	andeq	r0, r0, r2, lsr #18
    2bec:	005e3004 	subseq	r3, lr, r4
    2bf0:	04040000 	streq	r0, [r4]
    2bf4:	00230200 	eoreq	r0, r3, r0, lsl #4
    2bf8:	04610300 	strbteq	r0, [r1], #-768	; 0x300
    2bfc:	31040000 	tstcc	r4, r0
    2c00:	0000023c 	andeq	r0, r0, ip, lsr r2
    2c04:	000b8305 	andeq	r8, fp, r5, lsl #6
    2c08:	35040400 	strcc	r0, [r4, #-1024]	; 0x400
    2c0c:	00000360 	andeq	r0, r0, r0, ror #6
    2c10:	00119606 	andseq	r9, r1, r6, lsl #12
    2c14:	5e360400 	cfabsspl	mvf0, mvf6
    2c18:	04000000 	streq	r0, [r0]
    2c1c:	23021b05 	movwcs	r1, #11013	; 0x2b05
    2c20:	0e990600 	cdpeq	6, 9, cr0, cr9, cr0, {0}
    2c24:	37040000 	strcc	r0, [r4, -r0]
    2c28:	0000005e 	andeq	r0, r0, lr, asr r0
    2c2c:	02180304 	andseq	r0, r8, #268435456	; 0x10000000
    2c30:	08060023 	stmdaeq	r6, {r0, r1, r5}
    2c34:	04000000 	streq	r0, [r0]
    2c38:	00005e38 	andeq	r5, r0, r8, lsr lr
    2c3c:	11070400 	tstne	r7, r0, lsl #8
    2c40:	06002302 	streq	r2, [r0], -r2, lsl #6
    2c44:	00000ea3 	andeq	r0, r0, r3, lsr #29
    2c48:	005e3904 	subseq	r3, lr, r4, lsl #18
    2c4c:	01040000 	tsteq	r4, r0
    2c50:	00230210 	eoreq	r0, r3, r0, lsl r2
    2c54:	000fb006 	andeq	fp, pc, r6
    2c58:	5e3a0400 	cfabsspl	mvf0, mvf10
    2c5c:	04000000 	streq	r0, [r0]
    2c60:	23020b05 	movwcs	r0, #11013	; 0x2b05
    2c64:	118e0600 	orrne	r0, lr, r0, lsl #12
    2c68:	3b040000 	blcc	102c70 <__resume0_start+0x102c70>
    2c6c:	0000005e 	andeq	r0, r0, lr, asr r0
    2c70:	02060504 	andeq	r0, r6, #16777216	; 0x1000000
    2c74:	c7060023 	strgt	r0, [r6, -r3, lsr #32]
    2c78:	04000004 	streq	r0, [r0], #-4
    2c7c:	00005e3c 	andeq	r5, r0, ip, lsr lr
    2c80:	02040400 	andeq	r0, r4, #0
    2c84:	06002302 	streq	r2, [r0], -r2, lsl #6
    2c88:	00000ead 	andeq	r0, r0, sp, lsr #29
    2c8c:	005e3d04 	subseq	r3, lr, r4, lsl #26
    2c90:	01040000 	tsteq	r4, r0
    2c94:	00230201 	eoreq	r0, r3, r1, lsl #4
    2c98:	000f3706 	andeq	r3, pc, r6, lsl #14
    2c9c:	5e3e0400 	cfabsspl	mvf0, mvf14
    2ca0:	04000000 	streq	r0, [r0]
    2ca4:	23020001 	movwcs	r0, #8193	; 0x2001
    2ca8:	9d030000 	stcls	0, cr0, [r3]
    2cac:	04000007 	streq	r0, [r0], #-7
    2cb0:	0002ba3f 	andeq	fp, r2, pc, lsr sl
    2cb4:	04110500 	ldreq	r0, [r1], #-1280	; 0x500
    2cb8:	04040000 	streq	r0, [r4]
    2cbc:	0003de43 	andeq	sp, r3, r3, asr #28
    2cc0:	0a730600 	beq	1cc44c8 <__resume0_start+0x1cc44c8>
    2cc4:	44040000 	strmi	r0, [r4]
    2cc8:	0000005e 	andeq	r0, r0, lr, asr r0
    2ccc:	020f1104 	andeq	r1, pc, #1
    2cd0:	08060023 	stmdaeq	r6, {r0, r1, r5}
    2cd4:	04000012 	streq	r0, [r0], #-18
    2cd8:	00005e45 	andeq	r5, r0, r5, asr #28
    2cdc:	0d020400 	cfstrseq	mvf0, [r2]
    2ce0:	06002302 	streq	r2, [r0], -r2, lsl #6
    2ce4:	00000e99 	muleq	r0, r9, lr
    2ce8:	005e4604 	subseq	r4, lr, r4, lsl #12
    2cec:	01040000 	tsteq	r4, r0
    2cf0:	0023020c 	eoreq	r0, r3, ip, lsl #4
    2cf4:	00037906 	andeq	r7, r3, r6, lsl #18
    2cf8:	5e470400 	cdppl	4, 4, cr0, cr7, cr0, {0}
    2cfc:	04000000 	streq	r0, [r0]
    2d00:	23020309 	movwcs	r0, #8969	; 0x2309
    2d04:	07d00600 	ldrbeq	r0, [r0, r0, lsl #12]
    2d08:	48040000 	stmdami	r4, {}
    2d0c:	0000005e 	andeq	r0, r0, lr, asr r0
    2d10:	02010204 	andeq	r0, r1, #1073741824	; 0x40000000
    2d14:	52060023 	andpl	r0, r6, #35	; 0x23
    2d18:	0400000a 	streq	r0, [r0], #-10
    2d1c:	00005e49 	andeq	r5, r0, r9, asr #28
    2d20:	00010400 	andeq	r0, r1, r0, lsl #8
    2d24:	00002302 	andeq	r2, r0, r2, lsl #6
    2d28:	000da803 	andeq	sl, sp, r3, lsl #16
    2d2c:	6b4b0400 	blvs	12c3d34 <__resume0_start+0x12c3d34>
    2d30:	05000003 	streq	r0, [r0, #-3]
    2d34:	00000dd6 	ldrdeq	r0, [r0], -r6
    2d38:	b14f0404 	cmplt	pc, r4, lsl #8
    2d3c:	06000004 	streq	r0, [r0], -r4
    2d40:	00000000 	andeq	r0, r0, r0
    2d44:	005e5004 	subseq	r5, lr, r4
    2d48:	07040000 	streq	r0, [r4, -r0]
    2d4c:	00230219 	eoreq	r0, r3, r9, lsl r2
    2d50:	000e9906 	andeq	r9, lr, r6, lsl #18
    2d54:	5e510400 	cdppl	4, 5, cr0, cr1, cr0, {0}
    2d58:	04000000 	streq	r0, [r0]
    2d5c:	23021801 	movwcs	r1, #10241	; 0x2801
    2d60:	0fb00600 	svceq	0x00b00600
    2d64:	52040000 	andpl	r0, r4, #0
    2d68:	0000005e 	andeq	r0, r0, lr, asr r0
    2d6c:	02130504 	andseq	r0, r3, #16777216	; 0x1000000
    2d70:	a3060023 	movwge	r0, #24611	; 0x6023
    2d74:	0400000e 	streq	r0, [r0], #-14
    2d78:	00005e53 	andeq	r5, r0, r3, asr lr
    2d7c:	12010400 	andne	r0, r1, #0
    2d80:	06002302 	streq	r2, [r0], -r2, lsl #6
    2d84:	00000b07 	andeq	r0, r0, r7, lsl #22
    2d88:	005e5404 	subseq	r5, lr, r4, lsl #8
    2d8c:	01040000 	tsteq	r4, r0
    2d90:	00230211 	eoreq	r0, r3, r1, lsl r2
    2d94:	000cd206 	andeq	sp, ip, r6, lsl #4
    2d98:	5e550400 	cdppl	4, 5, cr0, cr5, cr0, {0}
    2d9c:	04000000 	streq	r0, [r0]
    2da0:	23021001 	movwcs	r1, #8193	; 0x2001
    2da4:	0e150600 	cfmsub32eq	mvax0, mvfx0, mvfx5, mvfx0
    2da8:	56040000 	strpl	r0, [r4], -r0
    2dac:	0000005e 	andeq	r0, r0, lr, asr r0
    2db0:	020b0504 	andeq	r0, fp, #16777216	; 0x1000000
    2db4:	ad060023 	stcge	0, cr0, [r6, #-140]	; 0xffffff74
    2db8:	0400000e 	streq	r0, [r0], #-14
    2dbc:	00005e57 	andeq	r5, r0, r7, asr lr
    2dc0:	08030400 	stmdaeq	r3, {sl}
    2dc4:	06002302 	streq	r2, [r0], -r2, lsl #6
    2dc8:	00000922 	andeq	r0, r0, r2, lsr #18
    2dcc:	005e5804 	subseq	r5, lr, r4, lsl #16
    2dd0:	03040000 	movweq	r0, #16384	; 0x4000
    2dd4:	00230205 	eoreq	r0, r3, r5, lsl #4
    2dd8:	000eb706 	andeq	fp, lr, r6, lsl #14
    2ddc:	5e590400 	cdppl	4, 5, cr0, cr9, cr0, {0}
    2de0:	04000000 	streq	r0, [r0]
    2de4:	23020104 	movwcs	r0, #8452	; 0x2104
    2de8:	0f370600 	svceq	0x00370600
    2dec:	5a040000 	bpl	102df4 <__resume0_start+0x102df4>
    2df0:	0000005e 	andeq	r0, r0, lr, asr r0
    2df4:	02000104 	andeq	r0, r0, #1
    2df8:	03000023 	movweq	r0, #35	; 0x23
    2dfc:	00000c22 	andeq	r0, r0, r2, lsr #24
    2e00:	03e95b04 	mvneq	r5, #4096	; 0x1000
    2e04:	5c050000 	stcpl	0, cr0, [r5], {0}
    2e08:	04000006 	streq	r0, [r0], #-6
    2e0c:	05b75f04 	ldreq	r5, [r7, #3844]!	; 0xf04
    2e10:	00060000 	andeq	r0, r6, r0
    2e14:	04000000 	streq	r0, [r0]
    2e18:	00005e60 	andeq	r5, r0, r0, ror #28
    2e1c:	1e020400 	cfcpysne	mvf0, mvf2
    2e20:	06002302 	streq	r2, [r0], -r2, lsl #6
    2e24:	00000e99 	muleq	r0, r9, lr
    2e28:	005e6104 	subseq	r6, lr, r4, lsl #2
    2e2c:	02040000 	andeq	r0, r4, #0
    2e30:	0023021c 	eoreq	r0, r3, ip, lsl r2
    2e34:	00033706 	andeq	r3, r3, r6, lsl #14
    2e38:	5e620400 	cdppl	4, 6, cr0, cr2, cr0, {0}
    2e3c:	04000000 	streq	r0, [r0]
    2e40:	23021a02 	movwcs	r1, #10754	; 0x2a02
    2e44:	0ea30600 	cdpeq	6, 10, cr0, cr3, cr0, {0}
    2e48:	63040000 	movwvs	r0, #16384	; 0x4000
    2e4c:	0000005e 	andeq	r0, r0, lr, asr r0
    2e50:	02180204 	andseq	r0, r8, #1073741824	; 0x40000000
    2e54:	08060023 	stmdaeq	r6, {r0, r1, r5}
    2e58:	04000000 	streq	r0, [r0]
    2e5c:	00005e64 	andeq	r5, r0, r4, ror #28
    2e60:	13050400 	movwne	r0, #21504	; 0x5400
    2e64:	06002302 	streq	r2, [r0], -r2, lsl #6
    2e68:	00000ead 	andeq	r0, r0, sp, lsr #29
    2e6c:	005e6504 	subseq	r6, lr, r4, lsl #10
    2e70:	01040000 	tsteq	r4, r0
    2e74:	00230212 	eoreq	r0, r3, r2, lsl r2
    2e78:	00096406 	andeq	r6, r9, r6, lsl #8
    2e7c:	5e660400 	cdppl	4, 6, cr0, cr6, cr0, {0}
    2e80:	04000000 	streq	r0, [r0]
    2e84:	23021002 	movwcs	r1, #8194	; 0x2002
    2e88:	00100600 	andseq	r0, r0, r0, lsl #12
    2e8c:	67040000 	strvs	r0, [r4, -r0]
    2e90:	0000005e 	andeq	r0, r0, lr, asr r0
    2e94:	020e0204 	andeq	r0, lr, #1073741824	; 0x40000000
    2e98:	b7060023 	strlt	r0, [r6, -r3, lsr #32]
    2e9c:	0400000e 	streq	r0, [r0], #-14
    2ea0:	00005e68 	andeq	r5, r0, r8, ror #28
    2ea4:	0d010400 	cfstrseq	mvf0, [r1]
    2ea8:	06002302 	streq	r2, [r0], -r2, lsl #6
    2eac:	000011df 	ldrdeq	r1, [r0], -pc
    2eb0:	005e6904 	subseq	r6, lr, r4, lsl #18
    2eb4:	01040000 	tsteq	r4, r0
    2eb8:	0023020c 	eoreq	r0, r3, ip, lsl #4
    2ebc:	000fb006 	andeq	fp, pc, r6
    2ec0:	5e6a0400 	cdppl	4, 6, cr0, cr10, cr0, {0}
    2ec4:	04000000 	streq	r0, [r0]
    2ec8:	23020705 	movwcs	r0, #9989	; 0x2705
    2ecc:	0e150600 	cfmsub32eq	mvax0, mvfx0, mvfx5, mvfx0
    2ed0:	6b040000 	blvs	102ed8 <__resume0_start+0x102ed8>
    2ed4:	0000005e 	andeq	r0, r0, lr, asr r0
    2ed8:	02020504 	andeq	r0, r2, #16777216	; 0x1000000
    2edc:	f2060023 	vhadd.s8	d0, d6, d19
    2ee0:	0400000a 	streq	r0, [r0], #-10
    2ee4:	00005e6c 	andeq	r5, r0, ip, ror #28
    2ee8:	01010400 	tsteq	r1, r0, lsl #8
    2eec:	06002302 	streq	r2, [r0], -r2, lsl #6
    2ef0:	00000f37 	andeq	r0, r0, r7, lsr pc
    2ef4:	005e6d04 	subseq	r6, lr, r4, lsl #26
    2ef8:	01040000 	tsteq	r4, r0
    2efc:	00230200 	eoreq	r0, r3, r0, lsl #4
    2f00:	12330300 	eorsne	r0, r3, #0
    2f04:	6e040000 	cdpvs	0, 0, cr0, cr4, cr0, {0}
    2f08:	000004bc 	undefined instruction 0x000004bc
    2f0c:	00062805 	andeq	r2, r6, r5, lsl #16
    2f10:	72040400 	andvc	r0, r4, #0
    2f14:	000006ce 	andeq	r0, r0, lr, asr #13
    2f18:	00000006 	andeq	r0, r0, r6
    2f1c:	5e730400 	cdppl	4, 7, cr0, cr3, cr0, {0}
    2f20:	04000000 	streq	r0, [r0]
    2f24:	23021e02 	movwcs	r1, #11778	; 0x2e02
    2f28:	10510600 	subsne	r0, r1, r0, lsl #12
    2f2c:	74040000 	strvc	r0, [r4]
    2f30:	0000005e 	andeq	r0, r0, lr, asr r0
    2f34:	021c0204 	andseq	r0, ip, #1073741824	; 0x40000000
    2f38:	37060023 	strcc	r0, [r6, -r3, lsr #32]
    2f3c:	04000003 	streq	r0, [r0], #-3
    2f40:	00005e75 	andeq	r5, r0, r5, ror lr
    2f44:	1a020400 	bne	83f4c <__resume0_start+0x83f4c>
    2f48:	06002302 	streq	r2, [r0], -r2, lsl #6
    2f4c:	00000e99 	muleq	r0, r9, lr
    2f50:	005e7604 	subseq	r7, lr, r4, lsl #12
    2f54:	01040000 	tsteq	r4, r0
    2f58:	00230219 	eoreq	r0, r3, r9, lsl r2
    2f5c:	00104a06 	andseq	r4, r0, r6, lsl #20
    2f60:	5e770400 	cdppl	4, 7, cr0, cr7, cr0, {0}
    2f64:	04000000 	streq	r0, [r0]
    2f68:	23021801 	movwcs	r1, #10241	; 0x2801
    2f6c:	00080600 	andeq	r0, r8, r0, lsl #12
    2f70:	78040000 	stmdavc	r4, {}
    2f74:	0000005e 	andeq	r0, r0, lr, asr r0
    2f78:	02130504 	andseq	r0, r3, #16777216	; 0x1000000
    2f7c:	df060023 	svcle	0x00060023
    2f80:	04000011 	streq	r0, [r0], #-17
    2f84:	00005e79 	andeq	r5, r0, r9, ror lr
    2f88:	10030400 	andne	r0, r3, r0, lsl #8
    2f8c:	06002302 	streq	r2, [r0], -r2, lsl #6
    2f90:	00000010 	andeq	r0, r0, r0, lsl r0
    2f94:	005e7a04 	subseq	r7, lr, r4, lsl #20
    2f98:	02040000 	andeq	r0, r4, #0
    2f9c:	0023020e 	eoreq	r0, r3, lr, lsl #4
    2fa0:	00058a06 	andeq	r8, r5, r6, lsl #20
    2fa4:	5e7b0400 	cdppl	4, 7, cr0, cr11, cr0, {0}
    2fa8:	04000000 	streq	r0, [r0]
    2fac:	23020d01 	movwcs	r0, #11521	; 0x2d01
    2fb0:	04fb0600 	ldrbteq	r0, [fp], #1536	; 0x600
    2fb4:	7c040000 	stcvc	0, cr0, [r4], {0}
    2fb8:	0000005e 	andeq	r0, r0, lr, asr r0
    2fbc:	020c0104 	andeq	r0, ip, #1
    2fc0:	b0060023 	andlt	r0, r6, r3, lsr #32
    2fc4:	0400000f 	streq	r0, [r0], #-15
    2fc8:	00005e7d 	andeq	r5, r0, sp, ror lr
    2fcc:	07050400 	streq	r0, [r5, -r0, lsl #8]
    2fd0:	06002302 	streq	r2, [r0], -r2, lsl #6
    2fd4:	00000e15 	andeq	r0, r0, r5, lsl lr
    2fd8:	005e7e04 	subseq	r7, lr, r4, lsl #28
    2fdc:	04040000 	streq	r0, [r4]
    2fe0:	00230203 	eoreq	r0, r3, r3, lsl #4
    2fe4:	000dcd06 	andeq	ip, sp, r6, lsl #26
    2fe8:	5e7f0400 	cdppl	4, 7, cr0, cr15, cr0, {0}
    2fec:	04000000 	streq	r0, [r0]
    2ff0:	23020201 	movwcs	r0, #8705	; 0x2201
    2ff4:	0af20600 	beq	ffc847fc <__bss_end+0xbfb7e84c>
    2ff8:	80040000 	andhi	r0, r4, r0
    2ffc:	0000005e 	andeq	r0, r0, lr, asr r0
    3000:	02010104 	andeq	r0, r1, #1
    3004:	37060023 	strcc	r0, [r6, -r3, lsr #32]
    3008:	0400000f 	streq	r0, [r0], #-15
    300c:	00005e81 	andeq	r5, r0, r1, lsl #29
    3010:	00010400 	andeq	r0, r1, r0, lsl #8
    3014:	00002302 	andeq	r2, r0, r2, lsl #6
    3018:	00078303 	andeq	r8, r7, r3, lsl #6
    301c:	c2820400 	addgt	r0, r2, #0
    3020:	05000005 	streq	r0, [r0, #-5]
    3024:	000011c4 	andeq	r1, r0, r4, asr #3
    3028:	5d860404 	cfstrspl	mvf0, [r6, #16]
    302c:	06000007 	streq	r0, [r0], -r7
    3030:	00000e99 	muleq	r0, r9, lr
    3034:	005e8704 	subseq	r8, lr, r4, lsl #14
    3038:	10040000 	andne	r0, r4, r0
    303c:	00230210 	eoreq	r0, r3, r0, lsl r2
    3040:	000f9d06 	andeq	r9, pc, r6, lsl #26
    3044:	5e880400 	cdppl	4, 8, cr0, cr8, cr0, {0}
    3048:	04000000 	streq	r0, [r0]
    304c:	23020907 	movwcs	r0, #10503	; 0x2907
    3050:	0b400600 	bleq	1004858 <__resume0_start+0x1004858>
    3054:	89040000 	stmdbhi	r4, {}
    3058:	0000005e 	andeq	r0, r0, lr, asr r0
    305c:	02080104 	andeq	r0, r8, #1
    3060:	65060023 	strvs	r0, [r6, #-35]	; 0x23
    3064:	04000011 	streq	r0, [r0], #-17
    3068:	00005e8a 	andeq	r5, r0, sl, lsl #29
    306c:	05030400 	streq	r0, [r3, #-1024]	; 0x400
    3070:	06002302 	streq	r2, [r0], -r2, lsl #6
    3074:	00000ea3 	andeq	r0, r0, r3, lsr #29
    3078:	005e8b04 	subseq	r8, lr, r4, lsl #22
    307c:	01040000 	tsteq	r4, r0
    3080:	00230204 	eoreq	r0, r3, r4, lsl #4
    3084:	000ffb06 	andeq	pc, pc, r6, lsl #22
    3088:	5e8c0400 	cdppl	4, 8, cr0, cr12, cr0, {0}
    308c:	04000000 	streq	r0, [r0]
    3090:	23020301 	movwcs	r0, #8961	; 0x2301
    3094:	09220600 	stmdbeq	r2!, {r9, sl}
    3098:	8d040000 	stchi	0, cr0, [r4]
    309c:	0000005e 	andeq	r0, r0, lr, asr r0
    30a0:	02000304 	andeq	r0, r0, #268435456	; 0x10000000
    30a4:	03000023 	movweq	r0, #35	; 0x23
    30a8:	00000bb9 	undefined instruction 0x00000bb9
    30ac:	06d98e04 	ldrbeq	r8, [r9], r4, lsl #28
    30b0:	c5050000 	strgt	r0, [r5]
    30b4:	04000006 	streq	r0, [r0], #-6
    30b8:	08419104 	stmdaeq	r1, {r2, r8, ip, pc}^
    30bc:	00060000 	andeq	r0, r6, r0
    30c0:	04000000 	streq	r0, [r0]
    30c4:	00005e92 	muleq	r0, r2, lr
    30c8:	1e020400 	cfcpysne	mvf0, mvf2
    30cc:	06002302 	streq	r2, [r0], -r2, lsl #6
    30d0:	00000e99 	muleq	r0, r9, lr
    30d4:	005e9304 	subseq	r9, lr, r4, lsl #6
    30d8:	02040000 	andeq	r0, r4, #0
    30dc:	0023021c 	eoreq	r0, r3, ip, lsl r2
    30e0:	00033706 	andeq	r3, r3, r6, lsl #14
    30e4:	5e940400 	cdppl	4, 9, cr0, cr4, cr0, {0}
    30e8:	04000000 	streq	r0, [r0]
    30ec:	23021a02 	movwcs	r1, #10754	; 0x2a02
    30f0:	09220600 	stmdbeq	r2!, {r9, sl}
    30f4:	95040000 	strls	r0, [r4]
    30f8:	0000005e 	andeq	r0, r0, lr, asr r0
    30fc:	02180204 	andseq	r0, r8, #1073741824	; 0x40000000
    3100:	08060023 	stmdaeq	r6, {r0, r1, r5}
    3104:	04000000 	streq	r0, [r0]
    3108:	00005e96 	muleq	r0, r6, lr
    310c:	13050400 	movwne	r0, #21504	; 0x5400
    3110:	06002302 	streq	r2, [r0], -r2, lsl #6
    3114:	00000ea3 	andeq	r0, r0, r3, lsr #29
    3118:	005e9704 	subseq	r9, lr, r4, lsl #14
    311c:	02040000 	andeq	r0, r4, #0
    3120:	00230211 	eoreq	r0, r3, r1, lsl r2
    3124:	00058a06 	andeq	r8, r5, r6, lsl #20
    3128:	5e980400 	cdppl	4, 9, cr0, cr8, cr0, {0}
    312c:	04000000 	streq	r0, [r0]
    3130:	23021001 	movwcs	r1, #8193	; 0x2001
    3134:	0ead0600 	cdpeq	6, 10, cr0, cr13, cr0, {0}
    3138:	99040000 	stmdbls	r4, {}
    313c:	0000005e 	andeq	r0, r0, lr, asr r0
    3140:	020c0404 	andeq	r0, ip, #67108864	; 0x4000000
    3144:	b0060023 	andlt	r0, r6, r3, lsr #32
    3148:	0400000f 	streq	r0, [r0], #-15
    314c:	00005e9a 	muleq	r0, sl, lr
    3150:	07050400 	streq	r0, [r5, -r0, lsl #8]
    3154:	06002302 	streq	r2, [r0], -r2, lsl #6
    3158:	00000e15 	andeq	r0, r0, r5, lsl lr
    315c:	005e9b04 	subseq	r9, lr, r4, lsl #22
    3160:	05040000 	streq	r0, [r4]
    3164:	00230202 	eoreq	r0, r3, r2, lsl #4
    3168:	000af206 	andeq	pc, sl, r6, lsl #4
    316c:	5e9c0400 	cdppl	4, 9, cr0, cr12, cr0, {0}
    3170:	04000000 	streq	r0, [r0]
    3174:	23020101 	movwcs	r0, #8449	; 0x2101
    3178:	0f370600 	svceq	0x00370600
    317c:	9d040000 	stcls	0, cr0, [r4]
    3180:	0000005e 	andeq	r0, r0, lr, asr r0
    3184:	02000104 	andeq	r0, r0, #1
    3188:	03000023 	movweq	r0, #35	; 0x23
    318c:	0000056f 	andeq	r0, r0, pc, ror #10
    3190:	07689e04 	strbeq	r9, [r8, -r4, lsl #28]!
    3194:	da050000 	ble	14319c <__resume0_start+0x14319c>
    3198:	0400000c 	streq	r0, [r0], #-12
    319c:	0914a204 	ldmdbeq	r4, {r2, r9, sp, pc}
    31a0:	00060000 	andeq	r0, r6, r0
    31a4:	04000000 	streq	r0, [r0]
    31a8:	00005ea3 	andeq	r5, r0, r3, lsr #29
    31ac:	19070400 	stmdbne	r7, {sl}
    31b0:	06002302 	streq	r2, [r0], -r2, lsl #6
    31b4:	00000e99 	muleq	r0, r9, lr
    31b8:	005ea404 	subseq	sl, lr, r4, lsl #8
    31bc:	01040000 	tsteq	r4, r0
    31c0:	00230218 	eoreq	r0, r3, r8, lsl r2
    31c4:	000fb006 	andeq	fp, pc, r6
    31c8:	5ea50400 	cdppl	4, 10, cr0, cr5, cr0, {0}
    31cc:	04000000 	streq	r0, [r0]
    31d0:	23021305 	movwcs	r1, #8965	; 0x2305
    31d4:	0ea30600 	cdpeq	6, 10, cr0, cr3, cr0, {0}
    31d8:	a6040000 	strge	r0, [r4], -r0
    31dc:	0000005e 	andeq	r0, r0, lr, asr r0
    31e0:	02120104 	andseq	r0, r2, #1
    31e4:	07060023 	streq	r0, [r6, -r3, lsr #32]
    31e8:	0400000b 	streq	r0, [r0], #-11
    31ec:	00005ea7 	andeq	r5, r0, r7, lsr #29
    31f0:	11010400 	tstne	r1, r0, lsl #8
    31f4:	06002302 	streq	r2, [r0], -r2, lsl #6
    31f8:	00000cd2 	ldrdeq	r0, [r0], -r2
    31fc:	005ea804 	subseq	sl, lr, r4, lsl #16
    3200:	01040000 	tsteq	r4, r0
    3204:	00230210 	eoreq	r0, r3, r0, lsl r2
    3208:	000e1506 	andeq	r1, lr, r6, lsl #10
    320c:	5ea90400 	cdppl	4, 10, cr0, cr9, cr0, {0}
    3210:	04000000 	streq	r0, [r0]
    3214:	23020b05 	movwcs	r0, #11013	; 0x2b05
    3218:	0ead0600 	cdpeq	6, 10, cr0, cr13, cr0, {0}
    321c:	aa040000 	bge	103224 <__resume0_start+0x103224>
    3220:	0000005e 	andeq	r0, r0, lr, asr r0
    3224:	02080304 	andeq	r0, r8, #268435456	; 0x10000000
    3228:	22060023 	andcs	r0, r6, #35	; 0x23
    322c:	04000009 	streq	r0, [r0], #-9
    3230:	00005eab 	andeq	r5, r0, fp, lsr #29
    3234:	05030400 	streq	r0, [r3, #-1024]	; 0x400
    3238:	06002302 	streq	r2, [r0], -r2, lsl #6
    323c:	00000eb7 	undefined instruction 0x00000eb7
    3240:	005eac04 	subseq	sl, lr, r4, lsl #24
    3244:	04040000 	streq	r0, [r4]
    3248:	00230201 	eoreq	r0, r3, r1, lsl #4
    324c:	000f3706 	andeq	r3, pc, r6, lsl #14
    3250:	5ead0400 	cdppl	4, 10, cr0, cr13, cr0, {0}
    3254:	04000000 	streq	r0, [r0]
    3258:	23020001 	movwcs	r0, #8193	; 0x2001
    325c:	ac030000 	stcge	0, cr0, [r3], {0}
    3260:	0400000c 	streq	r0, [r0], #-12
    3264:	00084cae 	andeq	r4, r8, lr, lsr #25
    3268:	0ecb0500 	cdpeq	5, 12, cr0, cr11, cr0, {0}
    326c:	04040000 	streq	r0, [r4]
    3270:	000992b2 	undefined instruction 0x000992b2
    3274:	0a730600 	beq	1cc4a7c <__resume0_start+0x1cc4a7c>
    3278:	b3040000 	movwlt	r0, #16384	; 0x4000
    327c:	0000005e 	andeq	r0, r0, lr, asr r0
    3280:	020f1104 	andeq	r1, pc, #1
    3284:	08060023 	stmdaeq	r6, {r0, r1, r5}
    3288:	04000012 	streq	r0, [r0], #-18
    328c:	00005eb4 	undefined instruction 0x00005eb4
    3290:	0d020400 	cfstrseq	mvf0, [r2]
    3294:	06002302 	streq	r2, [r0], -r2, lsl #6
    3298:	00000e99 	muleq	r0, r9, lr
    329c:	005eb504 	subseq	fp, lr, r4, lsl #10
    32a0:	01040000 	tsteq	r4, r0
    32a4:	0023020c 	eoreq	r0, r3, ip, lsl #4
    32a8:	00037906 	andeq	r7, r3, r6, lsl #18
    32ac:	5eb60400 	cdppl	4, 11, cr0, cr6, cr0, {0}
    32b0:	04000000 	streq	r0, [r0]
    32b4:	23020309 	movwcs	r0, #8969	; 0x2309
    32b8:	07d00600 	ldrbeq	r0, [r0, r0, lsl #12]
    32bc:	b7040000 	strlt	r0, [r4, -r0]
    32c0:	0000005e 	andeq	r0, r0, lr, asr r0
    32c4:	02010204 	andeq	r0, r1, #1073741824	; 0x40000000
    32c8:	52060023 	andpl	r0, r6, #35	; 0x23
    32cc:	0400000a 	streq	r0, [r0], #-10
    32d0:	00005eb8 	undefined instruction 0x00005eb8
    32d4:	00010400 	andeq	r0, r1, r0, lsl #8
    32d8:	00002302 	andeq	r2, r0, r2, lsl #6
    32dc:	00053803 	andeq	r3, r5, r3, lsl #16
    32e0:	1fb90400 	svcne	0x00b90400
    32e4:	05000009 	streq	r0, [r0, #-9]
    32e8:	00000df0 	strdeq	r0, [r0], -r0
    32ec:	10bd0404 	adcsne	r0, sp, r4, lsl #8
    32f0:	0600000a 	streq	r0, [r0], -sl
    32f4:	00000a73 	andeq	r0, r0, r3, ror sl
    32f8:	005ebe04 	subseq	fp, lr, r4, lsl #28
    32fc:	11040000 	tstne	r4, r0
    3300:	0023020f 	eoreq	r0, r3, pc, lsl #4
    3304:	00120806 	andseq	r0, r2, r6, lsl #16
    3308:	5ebf0400 	cdppl	4, 11, cr0, cr15, cr0, {0}
    330c:	04000000 	streq	r0, [r0]
    3310:	23020d02 	movwcs	r0, #11522	; 0x2d02
    3314:	0e990600 	cdpeq	6, 9, cr0, cr9, cr0, {0}
    3318:	c0040000 	andgt	r0, r4, r0
    331c:	0000005e 	andeq	r0, r0, lr, asr r0
    3320:	020c0104 	andeq	r0, ip, #1
    3324:	79060023 	stmdbvc	r6, {r0, r1, r5}
    3328:	04000003 	streq	r0, [r0], #-3
    332c:	00005ec1 	andeq	r5, r0, r1, asr #29
    3330:	03090400 	movweq	r0, #37888	; 0x9400
    3334:	06002302 	streq	r2, [r0], -r2, lsl #6
    3338:	000007d0 	ldrdeq	r0, [r0], -r0
    333c:	005ec204 	subseq	ip, lr, r4, lsl #4
    3340:	02040000 	andeq	r0, r4, #0
    3344:	00230201 	eoreq	r0, r3, r1, lsl #4
    3348:	000a5206 	andeq	r5, sl, r6, lsl #4
    334c:	5ec30400 	cdppl	4, 12, cr0, cr3, cr0, {0}
    3350:	04000000 	streq	r0, [r0]
    3354:	23020001 	movwcs	r0, #8193	; 0x2001
    3358:	06030000 	streq	r0, [r3], -r0
    335c:	04000010 	streq	r0, [r0], #-16
    3360:	00099dc4 	andeq	r9, r9, r4, asr #27
    3364:	0d330500 	cfldr32eq	mvfx0, [r3]
    3368:	04040000 	streq	r0, [r4]
    336c:	000ad2c8 	andeq	sp, sl, r8, asr #5
    3370:	0f260600 	svceq	0x00260600
    3374:	c9040000 	stmdbgt	r4, {}
    3378:	0000005e 	andeq	r0, r0, lr, asr r0
    337c:	021f0104 	andseq	r0, pc, #1
    3380:	83060023 	movwhi	r0, #24611	; 0x6023
    3384:	0400000c 	streq	r0, [r0], #-12
    3388:	00005eca 	andeq	r5, r0, sl, asr #29
    338c:	1e010400 	cfcpysne	mvf0, mvf1
    3390:	06002302 	streq	r2, [r0], -r2, lsl #6
    3394:	00000e99 	muleq	r0, r9, lr
    3398:	005ecb04 	subseq	ip, lr, r4, lsl #22
    339c:	02040000 	andeq	r0, r4, #0
    33a0:	0023021c 	eoreq	r0, r3, ip, lsl r2
    33a4:	0008aa06 	andeq	sl, r8, r6, lsl #20
    33a8:	5ecc0400 	cdppl	4, 12, cr0, cr12, cr0, {0}
    33ac:	04000000 	streq	r0, [r0]
    33b0:	23021b01 	movwcs	r1, #11009	; 0x2b01
    33b4:	0ea30600 	cdpeq	6, 10, cr0, cr3, cr0, {0}
    33b8:	cd040000 	stcgt	0, cr0, [r4]
    33bc:	0000005e 	andeq	r0, r0, lr, asr r0
    33c0:	02110a04 	andseq	r0, r1, #16384	; 0x4000
    33c4:	79060023 	stmdbvc	r6, {r0, r1, r5}
    33c8:	0400000b 	streq	r0, [r0], #-11
    33cc:	00005ece 	andeq	r5, r0, lr, asr #29
    33d0:	10010400 	andne	r0, r1, r0, lsl #8
    33d4:	06002302 	streq	r2, [r0], -r2, lsl #6
    33d8:	00000569 	andeq	r0, r0, r9, ror #10
    33dc:	005ecf04 	subseq	ip, lr, r4, lsl #30
    33e0:	01040000 	tsteq	r4, r0
    33e4:	0023020f 	eoreq	r0, r3, pc, lsl #4
    33e8:	00050506 	andeq	r0, r5, r6, lsl #10
    33ec:	5ed00400 	cdppl	4, 13, cr0, cr0, cr0, {0}
    33f0:	04000000 	streq	r0, [r0]
    33f4:	23020e01 	movwcs	r0, #11777	; 0x2e01
    33f8:	06920600 	ldreq	r0, [r2], r0, lsl #12
    33fc:	d1040000 	tstle	r4, r0
    3400:	0000005e 	andeq	r0, r0, lr, asr r0
    3404:	020b0304 	andeq	r0, fp, #268435456	; 0x10000000
    3408:	65060023 	strvs	r0, [r6, #-35]	; 0x23
    340c:	0400000d 	streq	r0, [r0], #-13
    3410:	00005ed2 	ldrdeq	r5, [r0], -r2
    3414:	000b0400 	andeq	r0, fp, r0, lsl #8
    3418:	00002302 	andeq	r2, r0, r2, lsl #6
    341c:	00070303 	andeq	r0, r7, r3, lsl #6
    3420:	1bd50400 	blne	ff544428 <__bss_end+0xbf43e478>
    3424:	0500000a 	streq	r0, [r0, #-10]
    3428:	00000f69 	andeq	r0, r0, r9, ror #30
    342c:	72d90404 	sbcsvc	r0, r9, #67108864	; 0x4000000
    3430:	0600000b 	streq	r0, [r0], -fp
    3434:	000011ba 	undefined instruction 0x000011ba
    3438:	005eda04 	subseq	sp, lr, r4, lsl #20
    343c:	02040000 	andeq	r0, r4, #0
    3440:	0023021e 	eoreq	r0, r3, lr, lsl r2
    3444:	000e9906 	andeq	r9, lr, r6, lsl #18
    3448:	5edb0400 	cdppl	4, 13, cr0, cr11, cr0, {0}
    344c:	04000000 	streq	r0, [r0]
    3450:	23021c02 	movwcs	r1, #11266	; 0x2c02
    3454:	08520600 	ldmdaeq	r2, {r9, sl}^
    3458:	dc040000 	stcle	0, cr0, [r4], {0}
    345c:	0000005e 	andeq	r0, r0, lr, asr r0
    3460:	021a0204 	andseq	r0, sl, #1073741824	; 0x40000000
    3464:	57060023 	strpl	r0, [r6, -r3, lsr #32]
    3468:	04000012 	streq	r0, [r0], #-18
    346c:	00005edd 	ldrdeq	r5, [r0], -sp
    3470:	18020400 	stmdane	r2, {sl}
    3474:	06002302 	streq	r2, [r0], -r2, lsl #6
    3478:	0000124c 	andeq	r1, r0, ip, asr #4
    347c:	005ede04 	subseq	sp, lr, r4, lsl #28
    3480:	02040000 	andeq	r0, r4, #0
    3484:	00230216 	eoreq	r0, r3, r6, lsl r2
    3488:	000ea306 	andeq	sl, lr, r6, lsl #6
    348c:	5edf0400 	cdppl	4, 13, cr0, cr15, cr0, {0}
    3490:	04000000 	streq	r0, [r0]
    3494:	23021006 	movwcs	r1, #8198	; 0x2006
    3498:	11ef0600 	mvnne	r0, r0, lsl #12
    349c:	e0040000 	and	r0, r4, r0
    34a0:	0000005e 	andeq	r0, r0, lr, asr r0
    34a4:	020e0204 	andeq	r0, lr, #1073741824	; 0x40000000
    34a8:	ad060023 	stcge	0, cr0, [r6, #-140]	; 0xffffff74
    34ac:	0400000e 	streq	r0, [r0], #-14
    34b0:	00005ee1 	andeq	r5, r0, r1, ror #29
    34b4:	000e0400 	andeq	r0, lr, r0, lsl #8
    34b8:	00002302 	andeq	r2, r0, r2, lsl #6
    34bc:	00110003 	andseq	r0, r1, r3
    34c0:	dde20400 	cfstrdle	mvd0, [r2]
    34c4:	0500000a 	streq	r0, [r0, #-10]
    34c8:	00000e69 	andeq	r0, r0, r9, ror #28
    34cc:	f0e50404 	undefined instruction 0xf0e50404
    34d0:	0600000b 	streq	r0, [r0], -fp
    34d4:	00001250 	andeq	r1, r0, r0, asr r2
    34d8:	005ee604 	subseq	lr, lr, r4, lsl #12
    34dc:	05040000 	streq	r0, [r4]
    34e0:	0023021b 	eoreq	r0, r3, fp, lsl r2
    34e4:	000e9906 	andeq	r9, lr, r6, lsl #18
    34e8:	5ee70400 	cdppl	4, 14, cr0, cr7, cr0, {0}
    34ec:	04000000 	streq	r0, [r0]
    34f0:	2302100b 	movwcs	r1, #8203	; 0x200b
    34f4:	04e50600 	strbteq	r0, [r5], #1536	; 0x600
    34f8:	e8040000 	stmda	r4, {}
    34fc:	0000005e 	andeq	r0, r0, lr, asr r0
    3500:	020e0204 	andeq	r0, lr, #1073741824	; 0x40000000
    3504:	a3060023 	movwge	r0, #24611	; 0x6023
    3508:	0400000e 	streq	r0, [r0], #-14
    350c:	00005ee9 	andeq	r5, r0, r9, ror #29
    3510:	08060400 	stmdaeq	r6, {sl}
    3514:	06002302 	streq	r2, [r0], -r2, lsl #6
    3518:	000011f4 	strdeq	r1, [r0], -r4
    351c:	005eea04 	subseq	lr, lr, r4, lsl #20
    3520:	02040000 	andeq	r0, r4, #0
    3524:	00230206 	eoreq	r0, r3, r6, lsl #4
    3528:	000ead06 	andeq	sl, lr, r6, lsl #26
    352c:	5eeb0400 	cdppl	4, 14, cr0, cr11, cr0, {0}
    3530:	04000000 	streq	r0, [r0]
    3534:	23020006 	movwcs	r0, #8198	; 0x2006
    3538:	73030000 	movwvc	r0, #12288	; 0x3000
    353c:	04000006 	streq	r0, [r0], #-6
    3540:	000b7dec 	andeq	r7, fp, ip, ror #27
    3544:	0b490500 	bleq	124494c <__resume0_start+0x124494c>
    3548:	04040000 	streq	r0, [r4]
    354c:	000c2af0 	strdeq	r2, [ip], -r0
    3550:	0c3e0600 	ldceq	6, cr0, [lr]
    3554:	f1040000 	cps	#0
    3558:	0000005e 	andeq	r0, r0, lr, asr r0
    355c:	021f0104 	andseq	r0, pc, #1
    3560:	99060023 	stmdbls	r6, {r0, r1, r5}
    3564:	0400000e 	streq	r0, [r0], #-14
    3568:	00005ef2 	strdeq	r5, [r0], -r2
    356c:	001f0400 	andseq	r0, pc, r0, lsl #8
    3570:	00002302 	andeq	r2, r0, r2, lsl #6
    3574:	00102d03 	andseq	r2, r0, r3, lsl #26
    3578:	fbf30400 	blx	ffcc4582 <__bss_end+0xbfbbe5d2>
    357c:	0500000b 	streq	r0, [r0, #-11]
    3580:	000003d3 	ldrdeq	r0, [r0], -r3
    3584:	0ef70404 	cdpeq	4, 15, cr0, cr7, cr4, {0}
    3588:	0600000e 	streq	r0, [r0], -lr
    358c:	0000077a 	andeq	r0, r0, sl, ror r7
    3590:	005ef804 	subseq	pc, lr, r4, lsl #16
    3594:	01040000 	tsteq	r4, r0
    3598:	0023021f 	eoreq	r0, r3, pc, lsl r2
    359c:	000f9306 	andeq	r9, pc, r6, lsl #6
    35a0:	5ef90400 	cdppl	4, 15, cr0, cr9, cr0, {0}
    35a4:	04000000 	streq	r0, [r0]
    35a8:	23021e01 	movwcs	r1, #11777	; 0x2e01
    35ac:	0cf50600 	ldcleq	6, cr0, [r5]
    35b0:	fa040000 	blx	1035b8 <__resume0_start+0x1035b8>
    35b4:	0000005e 	andeq	r0, r0, lr, asr r0
    35b8:	021d0104 	andseq	r0, sp, #1
    35bc:	99060023 	stmdbls	r6, {r0, r1, r5}
    35c0:	0400000e 	streq	r0, [r0], #-14
    35c4:	00005efb 	strdeq	r5, [r0], -fp
    35c8:	1b020400 	blne	845d0 <__resume0_start+0x845d0>
    35cc:	06002302 	streq	r2, [r0], -r2, lsl #6
    35d0:	00000fc1 	andeq	r0, r0, r1, asr #31
    35d4:	005efc04 	subseq	pc, lr, r4, lsl #24
    35d8:	01040000 	tsteq	r4, r0
    35dc:	0023021a 	eoreq	r0, r3, sl, lsl r2
    35e0:	000f2f06 	andeq	r2, pc, r6, lsl #30
    35e4:	5efd0400 	cdppl	4, 15, cr0, cr13, cr0, {0}
    35e8:	04000000 	streq	r0, [r0]
    35ec:	23021901 	movwcs	r1, #10497	; 0x2901
    35f0:	08380600 	ldmdaeq	r8!, {r9, sl}
    35f4:	fe040000 	cdp2	0, 0, cr0, cr4, cr0, {0}
    35f8:	0000005e 	andeq	r0, r0, lr, asr r0
    35fc:	02180104 	andseq	r0, r8, #1
    3600:	5c060023 	stcpl	0, cr0, [r6], {35}	; 0x23
    3604:	04000008 	streq	r0, [r0], #-8
    3608:	00005eff 	strdeq	r5, [r0], -pc
    360c:	17010400 	strne	r0, [r1, -r0, lsl #8]
    3610:	0a002302 	beq	c220 <__resume0_start+0xc220>
    3614:	00001284 	andeq	r1, r0, r4, lsl #5
    3618:	5e010004 	cdppl	0, 0, cr0, cr1, cr4, {0}
    361c:	04000000 	streq	r0, [r0]
    3620:	23021601 	movwcs	r1, #9729	; 0x2601
    3624:	0ca10a00 	vstmiaeq	r1!, {s0-s-1}
    3628:	01040000 	tsteq	r4, r0
    362c:	00005e01 	andeq	r5, r0, r1, lsl #28
    3630:	15010400 	strne	r0, [r1, #-1024]	; 0x400
    3634:	0a002302 	beq	c244 <__resume0_start+0xc244>
    3638:	00000ea3 	andeq	r0, r0, r3, lsr #29
    363c:	5e010204 	cdppl	2, 0, cr0, cr1, cr4, {0}
    3640:	04000000 	streq	r0, [r0]
    3644:	23021401 	movwcs	r1, #9217	; 0x2401
    3648:	06b50a00 	ldrteq	r0, [r5], r0, lsl #20
    364c:	03040000 	movweq	r0, #16384	; 0x4000
    3650:	00005e01 	andeq	r5, r0, r1, lsl #28
    3654:	13010400 	movwne	r0, #5120	; 0x1400
    3658:	0a002302 	beq	c268 <__resume0_start+0xc268>
    365c:	00000fb8 	undefined instruction 0x00000fb8
    3660:	5e010404 	cdppl	4, 0, cr0, cr1, cr4, {0}
    3664:	04000000 	streq	r0, [r0]
    3668:	23021201 	movwcs	r1, #8705	; 0x2201
    366c:	0c3e0a00 	ldceq	10, cr0, [lr]
    3670:	05040000 	streq	r0, [r4]
    3674:	00005e01 	andeq	r5, r0, r1, lsl #28
    3678:	11010400 	tstne	r1, r0, lsl #8
    367c:	0a002302 	beq	c28c <__resume0_start+0xc28c>
    3680:	00000ead 	andeq	r0, r0, sp, lsr #29
    3684:	5e010604 	cfmadd32pl	mvax0, mvfx0, mvfx1, mvfx4
    3688:	04000000 	streq	r0, [r0]
    368c:	23020f02 	movwcs	r0, #12034	; 0x2f02
    3690:	0d5c0a00 	vldreq	s1, [ip]
    3694:	07040000 	streq	r0, [r4, -r0]
    3698:	00005e01 	andeq	r5, r0, r1, lsl #28
    369c:	0e010400 	cfcpyseq	mvf0, mvf1
    36a0:	0a002302 	beq	c2b0 <__resume0_start+0xc2b0>
    36a4:	000003f7 	strdeq	r0, [r0], -r7
    36a8:	5e010804 	cdppl	8, 0, cr0, cr1, cr4, {0}
    36ac:	04000000 	streq	r0, [r0]
    36b0:	23020d01 	movwcs	r0, #11521	; 0x2d01
    36b4:	0eb70a00 	vmoveq.f32	s0, #112	; 0x70
    36b8:	09040000 	stmdbeq	r4, {}
    36bc:	00005e01 	andeq	r5, r0, r1, lsl #28
    36c0:	0c010400 	cfstrseq	mvf0, [r1], {0}
    36c4:	0a002302 	beq	c2d4 <__resume0_start+0xc2d4>
    36c8:	000004cf 	andeq	r0, r0, pc, asr #9
    36cc:	5e010a04 	vmlapl.f32	s0, s2, s8
    36d0:	04000000 	streq	r0, [r0]
    36d4:	23020b01 	movwcs	r0, #11009	; 0x2b01
    36d8:	082f0a00 	stmdaeq	pc!, {r9, fp}
    36dc:	0b040000 	bleq	1036e4 <__resume0_start+0x1036e4>
    36e0:	00005e01 	andeq	r5, r0, r1, lsl #28
    36e4:	0a010400 	beq	446ec <__resume0_start+0x446ec>
    36e8:	0a002302 	beq	c2f8 <__resume0_start+0xc2f8>
    36ec:	00000945 	andeq	r0, r0, r5, asr #18
    36f0:	5e010c04 	cdppl	12, 0, cr0, cr1, cr4, {0}
    36f4:	04000000 	streq	r0, [r0]
    36f8:	23020901 	movwcs	r0, #10497	; 0x2901
    36fc:	0ec10a00 	vdiveq.f32	s1, s2, s0
    3700:	0d040000 	stceq	0, cr0, [r4]
    3704:	00005e01 	andeq	r5, r0, r1, lsl #28
    3708:	06030400 	streq	r0, [r3], -r0, lsl #8
    370c:	0a002302 	beq	c31c <__resume0_start+0xc31c>
    3710:	00001143 	andeq	r1, r0, r3, asr #2
    3714:	5e010e04 	cdppl	14, 0, cr0, cr1, cr4, {0}
    3718:	04000000 	streq	r0, [r0]
    371c:	23020501 	movwcs	r0, #9473	; 0x2501
    3720:	05f20a00 	ldrbeq	r0, [r2, #2560]!	; 0xa00
    3724:	0f040000 	svceq	0x00040000
    3728:	00005e01 	andeq	r5, r0, r1, lsl #28
    372c:	04010400 	streq	r0, [r1], #-1024	; 0x400
    3730:	0a002302 	beq	c340 <__resume0_start+0xc340>
    3734:	00000d53 	andeq	r0, r0, r3, asr sp
    3738:	5e011004 	cdppl	0, 0, cr1, cr1, cr4, {0}
    373c:	04000000 	streq	r0, [r0]
    3740:	23020301 	movwcs	r0, #8961	; 0x2301
    3744:	0ee70a00 	cdpeq	10, 14, cr0, cr7, cr0, {0}
    3748:	11040000 	tstne	r4, r0
    374c:	00005e01 	andeq	r5, r0, r1, lsl #28
    3750:	00030400 	andeq	r0, r3, r0, lsl #8
    3754:	00002302 	andeq	r2, r0, r2, lsl #6
    3758:	0003820b 	andeq	r8, r3, fp, lsl #4
    375c:	01120400 	tsteq	r2, r0, lsl #8
    3760:	00000c35 	andeq	r0, r0, r5, lsr ip
    3764:	0008130c 	andeq	r1, r8, ip, lsl #6
    3768:	16040400 	strne	r0, [r4], -r0, lsl #8
    376c:	000f4801 	andeq	r4, pc, r1, lsl #16
    3770:	0ae30a00 	beq	ff8c5f78 <__bss_end+0xbf7bffc8>
    3774:	17040000 	strne	r0, [r4, -r0]
    3778:	00005e01 	andeq	r5, r0, r1, lsl #28
    377c:	1f010400 	svcne	0x00010400
    3780:	0a002302 	beq	c390 <__resume0_start+0xc390>
    3784:	00000e99 	muleq	r0, r9, lr
    3788:	5e011804 	cdppl	8, 0, cr1, cr1, cr4, {0}
    378c:	04000000 	streq	r0, [r0]
    3790:	23021e01 	movwcs	r1, #11777	; 0x2e01
    3794:	096e0a00 	stmdbeq	lr!, {r9, fp}^
    3798:	19040000 	stmdbne	r4, {}
    379c:	00005e01 	andeq	r5, r0, r1, lsl #28
    37a0:	1d010400 	cfstrsne	mvf0, [r1]
    37a4:	0a002302 	beq	c3b4 <__resume0_start+0xc3b4>
    37a8:	00000ea3 	andeq	r0, r0, r3, lsr #29
    37ac:	5e011a04 	vmlapl.f32	s2, s2, s8
    37b0:	04000000 	streq	r0, [r0]
    37b4:	23021c01 	movwcs	r1, #11265	; 0x2c01
    37b8:	07560a00 	ldrbeq	r0, [r6, -r0, lsl #20]
    37bc:	1b040000 	blne	1037c4 <__resume0_start+0x1037c4>
    37c0:	00005e01 	andeq	r5, r0, r1, lsl #28
    37c4:	1b010400 	blne	447cc <__resume0_start+0x447cc>
    37c8:	0a002302 	beq	c3d8 <__resume0_start+0xc3d8>
    37cc:	00000ead 	andeq	r0, r0, sp, lsr #29
    37d0:	5e011c04 	cdppl	12, 0, cr1, cr1, cr4, {0}
    37d4:	04000000 	streq	r0, [r0]
    37d8:	23021803 	movwcs	r1, #10243	; 0x2803
    37dc:	127b0a00 	rsbsne	r0, fp, #0
    37e0:	1d040000 	stcne	0, cr0, [r4]
    37e4:	00005e01 	andeq	r5, r0, r1, lsl #28
    37e8:	17010400 	strne	r0, [r1, -r0, lsl #8]
    37ec:	0a002302 	beq	c3fc <__resume0_start+0xc3fc>
    37f0:	00000eb7 	undefined instruction 0x00000eb7
    37f4:	5e011e04 	cdppl	14, 0, cr1, cr1, cr4, {0}
    37f8:	04000000 	streq	r0, [r0]
    37fc:	23021502 	movwcs	r1, #9474	; 0x2502
    3800:	0ff10a00 	svceq	0x00f10a00
    3804:	1f040000 	svcne	0x00040000
    3808:	00005e01 	andeq	r5, r0, r1, lsl #28
    380c:	14010400 	strne	r0, [r1], #-1024	; 0x400
    3810:	0a002302 	beq	c420 <__resume0_start+0xc420>
    3814:	00000e3e 	andeq	r0, r0, lr, lsr lr
    3818:	5e012004 	cdppl	0, 0, cr2, cr1, cr4, {0}
    381c:	04000000 	streq	r0, [r0]
    3820:	23021301 	movwcs	r1, #8961	; 0x2301
    3824:	0ec10a00 	vdiveq.f32	s1, s2, s0
    3828:	21040000 	tstcs	r4, r0
    382c:	00005e01 	andeq	r5, r0, r1, lsl #28
    3830:	12010400 	andne	r0, r1, #0
    3834:	0a002302 	beq	c444 <__resume0_start+0xc444>
    3838:	00001129 	andeq	r1, r0, r9, lsr #2
    383c:	5e012204 	cdppl	2, 0, cr2, cr1, cr4, {0}
    3840:	04000000 	streq	r0, [r0]
    3844:	23021101 	movwcs	r1, #8449	; 0x2101
    3848:	05f20a00 	ldrbeq	r0, [r2, #2560]!	; 0xa00
    384c:	23040000 	movwcs	r0, #16384	; 0x4000
    3850:	00005e01 	andeq	r5, r0, r1, lsl #28
    3854:	0d040400 	cfstrseq	mvf0, [r4]
    3858:	0a002302 	beq	c468 <__resume0_start+0xc468>
    385c:	00000aac 	andeq	r0, r0, ip, lsr #21
    3860:	5e012404 	cdppl	4, 0, cr2, cr1, cr4, {0}
    3864:	04000000 	streq	r0, [r0]
    3868:	23020c01 	movwcs	r0, #11265	; 0x2c01
    386c:	09bf0a00 	ldmibeq	pc!, {r9, fp}
    3870:	25040000 	strcs	r0, [r4]
    3874:	00005e01 	andeq	r5, r0, r1, lsl #28
    3878:	0b010400 	bleq	44880 <__resume0_start+0x44880>
    387c:	0a002302 	beq	c48c <__resume0_start+0xc48c>
    3880:	00000ee7 	andeq	r0, r0, r7, ror #29
    3884:	5e012604 	cfmadd32pl	mvax0, mvfx2, mvfx1, mvfx4
    3888:	04000000 	streq	r0, [r0]
    388c:	2302000b 	movwcs	r0, #8203	; 0x200b
    3890:	670b0000 	strvs	r0, [fp, -r0]
    3894:	04000008 	streq	r0, [r0], #-8
    3898:	0e1a0127 	mufeqep	f0, f2, f7
    389c:	8f0c0000 	svchi	0x000c0000
    38a0:	04000012 	streq	r0, [r0], #-18
    38a4:	16012b04 	strne	r2, [r1], -r4, lsl #22
    38a8:	0a000010 	beq	38f0 <__resume0_start+0x38f0>
    38ac:	00000e0c 	andeq	r0, r0, ip, lsl #28
    38b0:	5e012c04 	cdppl	12, 0, cr2, cr1, cr4, {0}
    38b4:	04000000 	streq	r0, [r0]
    38b8:	23021f01 	movwcs	r1, #12033	; 0x2f01
    38bc:	0a690a00 	beq	1a460c4 <__resume0_start+0x1a460c4>
    38c0:	2d040000 	stccs	0, cr0, [r4]
    38c4:	00005e01 	andeq	r5, r0, r1, lsl #28
    38c8:	1e010400 	cfcpysne	mvf0, mvf1
    38cc:	0a002302 	beq	c4dc <__resume0_start+0xc4dc>
    38d0:	00000e99 	muleq	r0, r9, lr
    38d4:	5e012e04 	cdppl	14, 0, cr2, cr1, cr4, {0}
    38d8:	04000000 	streq	r0, [r0]
    38dc:	23021d01 	movwcs	r1, #11521	; 0x2d01
    38e0:	0f1e0a00 	svceq	0x001e0a00
    38e4:	2f040000 	svccs	0x00040000
    38e8:	00005e01 	andeq	r5, r0, r1, lsl #28
    38ec:	1c010400 	cfstrsne	mvf0, [r1], {0}
    38f0:	0a002302 	beq	c500 <__resume0_start+0xc500>
    38f4:	00000ea3 	andeq	r0, r0, r3, lsr #29
    38f8:	5e013004 	cdppl	0, 0, cr3, cr1, cr4, {0}
    38fc:	04000000 	streq	r0, [r0]
    3900:	23021b01 	movwcs	r1, #11009	; 0x2b01
    3904:	05280a00 	streq	r0, [r8, #-2560]!	; 0xa00
    3908:	31040000 	tstcc	r4, r0
    390c:	00005e01 	andeq	r5, r0, r1, lsl #28
    3910:	1a010400 	bne	44918 <__resume0_start+0x44918>
    3914:	0a002302 	beq	c524 <__resume0_start+0xc524>
    3918:	00000cff 	strdeq	r0, [r0], -pc
    391c:	5e013204 	cdppl	2, 0, cr3, cr1, cr4, {0}
    3920:	04000000 	streq	r0, [r0]
    3924:	23021901 	movwcs	r1, #10497	; 0x2901
    3928:	0ead0a00 	cdpeq	10, 10, cr0, cr13, cr0, {0}
    392c:	33040000 	movwcc	r0, #16384	; 0x4000
    3930:	00005e01 	andeq	r5, r0, r1, lsl #28
    3934:	16030400 	strne	r0, [r3], -r0, lsl #8
    3938:	0a002302 	beq	c548 <__resume0_start+0xc548>
    393c:	0000093a 	andeq	r0, r0, sl, lsr r9
    3940:	5e013404 	cdppl	4, 0, cr3, cr1, cr4, {0}
    3944:	04000000 	streq	r0, [r0]
    3948:	23021501 	movwcs	r1, #9473	; 0x2501
    394c:	0eb70a00 	vmoveq.f32	s0, #112	; 0x70
    3950:	35040000 	strcc	r0, [r4]
    3954:	00005e01 	andeq	r5, r0, r1, lsl #28
    3958:	00150400 	andseq	r0, r5, r0, lsl #8
    395c:	00002302 	andeq	r2, r0, r2, lsl #6
    3960:	000c5d0b 	andeq	r5, ip, fp, lsl #26
    3964:	01360400 	teqeq	r6, r0, lsl #8
    3968:	00000f54 	andeq	r0, r0, r4, asr pc
    396c:	00119e0c 	andseq	r9, r1, ip, lsl #28
    3970:	3a040400 	bcc	104978 <__resume0_start+0x104978>
    3974:	0010d201 	andseq	sp, r0, r1, lsl #4
    3978:	07e10a00 	strbeq	r0, [r1, r0, lsl #20]!
    397c:	3b040000 	blcc	103984 <__resume0_start+0x103984>
    3980:	00005e01 	andeq	r5, r0, r1, lsl #28
    3984:	1f010400 	svcne	0x00010400
    3988:	0a002302 	beq	c598 <__resume0_start+0xc598>
    398c:	00001212 	andeq	r1, r0, r2, lsl r2
    3990:	5e013c04 	cdppl	12, 0, cr3, cr1, cr4, {0}
    3994:	04000000 	streq	r0, [r0]
    3998:	23021e01 	movwcs	r1, #11777	; 0x2e01
    399c:	0c540a00 	mrrceq	10, 0, r0, r4, cr0
    39a0:	3d040000 	stccc	0, cr0, [r4]
    39a4:	00005e01 	andeq	r5, r0, r1, lsl #28
    39a8:	1d010400 	cfstrsne	mvf0, [r1]
    39ac:	0a002302 	beq	c5bc <__resume0_start+0xc5bc>
    39b0:	00000e99 	muleq	r0, r9, lr
    39b4:	5e013e04 	cdppl	14, 0, cr3, cr1, cr4, {0}
    39b8:	04000000 	streq	r0, [r0]
    39bc:	2302100d 	movwcs	r1, #8205	; 0x200d
    39c0:	11840a00 	orrne	r0, r4, r0, lsl #20
    39c4:	3f040000 	svccc	0x00040000
    39c8:	00005e01 	andeq	r5, r0, r1, lsl #28
    39cc:	0f010400 	svceq	0x00010400
    39d0:	0a002302 	beq	c5e0 <__resume0_start+0xc5e0>
    39d4:	00000bf0 	strdeq	r0, [r0], -r0
    39d8:	5e014004 	cdppl	0, 0, cr4, cr1, cr4, {0}
    39dc:	04000000 	streq	r0, [r0]
    39e0:	23020e01 	movwcs	r0, #11777	; 0x2e01
    39e4:	06de0a00 	ldrbeq	r0, [lr], r0, lsl #20
    39e8:	41040000 	tstmi	r4, r0
    39ec:	00005e01 	andeq	r5, r0, r1, lsl #28
    39f0:	0d010400 	cfstrseq	mvf0, [r1]
    39f4:	0a002302 	beq	c604 <__resume0_start+0xc604>
    39f8:	0000111f 	andeq	r1, r0, pc, lsl r1
    39fc:	5e014204 	cdppl	2, 0, cr4, cr1, cr4, {0}
    3a00:	04000000 	streq	r0, [r0]
    3a04:	23020c01 	movwcs	r0, #11265	; 0x2c01
    3a08:	0ea30a00 	cdpeq	10, 10, cr0, cr3, cr0, {0}
    3a0c:	43040000 	movwmi	r0, #16384	; 0x4000
    3a10:	00005e01 	andeq	r5, r0, r1, lsl #28
    3a14:	000c0400 	andeq	r0, ip, r0, lsl #8
    3a18:	00002302 	andeq	r2, r0, r2, lsl #6
    3a1c:	000b1a0b 	andeq	r1, fp, fp, lsl #20
    3a20:	01440400 	cmpeq	r4, r0, lsl #8
    3a24:	00001022 	andeq	r1, r0, r2, lsr #32
    3a28:	000a990c 	andeq	r9, sl, ip, lsl #18
    3a2c:	4a040400 	bmi	104a34 <__resume0_start+0x104a34>
    3a30:	00116a01 	andseq	r6, r1, r1, lsl #20
    3a34:	12500a00 	subsne	r0, r0, #0
    3a38:	4b040000 	blmi	103a40 <__resume0_start+0x103a40>
    3a3c:	00005e01 	andeq	r5, r0, r1, lsl #28
    3a40:	1c040400 	cfstrsne	mvf0, [r4], {0}
    3a44:	0a002302 	beq	c654 <__resume0_start+0xc654>
    3a48:	00000e99 	muleq	r0, r9, lr
    3a4c:	5e014c04 	cdppl	12, 0, cr4, cr1, cr4, {0}
    3a50:	04000000 	streq	r0, [r0]
    3a54:	2302100c 	movwcs	r1, #8204	; 0x200c
    3a58:	04e20a00 	strbteq	r0, [r2], #2560	; 0xa00
    3a5c:	4d040000 	stcmi	0, cr0, [r4]
    3a60:	00005e01 	andeq	r5, r0, r1, lsl #28
    3a64:	0e020400 	cfcpyseq	mvf0, mvf2
    3a68:	0a002302 	beq	c678 <__resume0_start+0xc678>
    3a6c:	00000ea3 	andeq	r0, r0, r3, lsr #29
    3a70:	5e014e04 	cdppl	14, 0, cr4, cr1, cr4, {0}
    3a74:	04000000 	streq	r0, [r0]
    3a78:	23020806 	movwcs	r0, #10246	; 0x2806
    3a7c:	11f40a00 	mvnsne	r0, r0, lsl #20
    3a80:	4f040000 	svcmi	0x00040000
    3a84:	00005e01 	andeq	r5, r0, r1, lsl #28
    3a88:	06020400 	streq	r0, [r2], -r0, lsl #8
    3a8c:	0a002302 	beq	c69c <__resume0_start+0xc69c>
    3a90:	00000ead 	andeq	r0, r0, sp, lsr #29
    3a94:	5e015004 	cdppl	0, 0, cr5, cr1, cr4, {0}
    3a98:	04000000 	streq	r0, [r0]
    3a9c:	23020105 	movwcs	r0, #8453	; 0x2105
    3aa0:	10960a00 	addsne	r0, r6, r0, lsl #20
    3aa4:	51040000 	tstpl	r4, r0
    3aa8:	00005e01 	andeq	r5, r0, r1, lsl #28
    3aac:	00010400 	andeq	r0, r1, r0, lsl #8
    3ab0:	00002302 	andeq	r2, r0, r2, lsl #6
    3ab4:	000d1e0b 	andeq	r1, sp, fp, lsl #28
    3ab8:	01520400 	cmpeq	r2, r0, lsl #8
    3abc:	000010de 	ldrdeq	r1, [r0], -lr
    3ac0:	0005560c 	andeq	r5, r5, ip, lsl #12
    3ac4:	58040400 	stmdapl	r4, {sl}
    3ac8:	0011cc01 	andseq	ip, r1, r1, lsl #24
    3acc:	0e990a00 	cdpeq	10, 9, cr0, cr9, cr0, {0}
    3ad0:	59040000 	stmdbpl	r4, {}
    3ad4:	00005e01 	andeq	r5, r0, r1, lsl #28
    3ad8:	10100400 	andsne	r0, r0, r0, lsl #8
    3adc:	0a002302 	beq	c6ec <__resume0_start+0xc6ec>
    3ae0:	00001250 	andeq	r1, r0, r0, asr r2
    3ae4:	5e015a04 	vmlapl.f32	s10, s2, s8
    3ae8:	04000000 	streq	r0, [r0]
    3aec:	23020e02 	movwcs	r0, #11778	; 0x2e02
    3af0:	0ea30a00 	cdpeq	10, 10, cr0, cr3, cr0, {0}
    3af4:	5b040000 	blpl	103afc <__resume0_start+0x103afc>
    3af8:	00005e01 	andeq	r5, r0, r1, lsl #28
    3afc:	010d0400 	tsteq	sp, r0, lsl #8
    3b00:	0a002302 	beq	c710 <__resume0_start+0xc710>
    3b04:	00001096 	muleq	r0, r6, r0
    3b08:	5e015c04 	cdppl	12, 0, cr5, cr1, cr4, {0}
    3b0c:	04000000 	streq	r0, [r0]
    3b10:	23020001 	movwcs	r0, #8193	; 0x2001
    3b14:	ee0b0000 	cdp	0, 0, cr0, cr11, cr0, {0}
    3b18:	04000006 	streq	r0, [r0], #-6
    3b1c:	1176015e 	cmnne	r6, lr, asr r1
    3b20:	3d0c0000 	stccc	0, cr0, [ip]
    3b24:	0400000f 	streq	r0, [r0], #-15
    3b28:	64016204 	strvs	r6, [r1], #-516	; 0x204
    3b2c:	0a000012 	beq	3b7c <__resume0_start+0x3b7c>
    3b30:	00001250 	andeq	r1, r0, r0, asr r2
    3b34:	5e016304 	cdppl	3, 0, cr6, cr1, cr4, {0}
    3b38:	04000000 	streq	r0, [r0]
    3b3c:	23021b05 	movwcs	r1, #11013	; 0x2b05
    3b40:	0e990a00 	cdpeq	10, 9, cr0, cr9, cr0, {0}
    3b44:	64040000 	strvs	r0, [r4]
    3b48:	00005e01 	andeq	r5, r0, r1, lsl #28
    3b4c:	100b0400 	andne	r0, fp, r0, lsl #8
    3b50:	0a002302 	beq	c760 <__resume0_start+0xc760>
    3b54:	000004e2 	andeq	r0, r0, r2, ror #9
    3b58:	5e016504 	cfsh32pl	mvfx6, mvfx1, #4
    3b5c:	04000000 	streq	r0, [r0]
    3b60:	23020e02 	movwcs	r0, #11778	; 0x2e02
    3b64:	0ea30a00 	cdpeq	10, 10, cr0, cr3, cr0, {0}
    3b68:	66040000 	strvs	r0, [r4], -r0
    3b6c:	00005e01 	andeq	r5, r0, r1, lsl #28
    3b70:	08060400 	stmdaeq	r6, {sl}
    3b74:	0a002302 	beq	c784 <__resume0_start+0xc784>
    3b78:	000011f4 	strdeq	r1, [r0], -r4
    3b7c:	5e016704 	cdppl	7, 0, cr6, cr1, cr4, {0}
    3b80:	04000000 	streq	r0, [r0]
    3b84:	23020602 	movwcs	r0, #9730	; 0x2602
    3b88:	0ead0a00 	cdpeq	10, 10, cr0, cr13, cr0, {0}
    3b8c:	68040000 	stmdavs	r4, {}
    3b90:	00005e01 	andeq	r5, r0, r1, lsl #28
    3b94:	01050400 	tsteq	r5, r0, lsl #8
    3b98:	0a002302 	beq	c7a8 <__resume0_start+0xc7a8>
    3b9c:	00001096 	muleq	r0, r6, r0
    3ba0:	5e016904 	cdppl	9, 0, cr6, cr1, cr4, {0}
    3ba4:	04000000 	streq	r0, [r0]
    3ba8:	23020001 	movwcs	r0, #8193	; 0x2001
    3bac:	fe0b0000 	cdp2	0, 0, cr0, cr11, cr0, {0}
    3bb0:	04000008 	streq	r0, [r0], #-8
    3bb4:	11d8016a 	bicsne	r0, r8, sl, ror #2
    3bb8:	040c0000 	streq	r0, [ip]
    3bbc:	0400000a 	streq	r0, [r0], #-10
    3bc0:	fc016e04 	stc2	14, cr6, [r1], {4}
    3bc4:	0a000012 	beq	3c14 <__resume0_start+0x3c14>
    3bc8:	00000c96 	muleq	r0, r6, ip
    3bcc:	5e016f04 	cdppl	15, 0, cr6, cr1, cr4, {0}
    3bd0:	04000000 	streq	r0, [r0]
    3bd4:	23021f01 	movwcs	r1, #12033	; 0x2f01
    3bd8:	10f50a00 	rscsne	r0, r5, r0, lsl #20
    3bdc:	70040000 	andvc	r0, r4, r0
    3be0:	00005e01 	andeq	r5, r0, r1, lsl #28
    3be4:	1e010400 	cfcpysne	mvf0, mvf1
    3be8:	0a002302 	beq	c7f8 <__resume0_start+0xc7f8>
    3bec:	00000e99 	muleq	r0, r9, lr
    3bf0:	5e017104 	adfpls	f7, f1, f4
    3bf4:	04000000 	streq	r0, [r0]
    3bf8:	23021a04 	movwcs	r1, #10756	; 0x2a04
    3bfc:	10910a00 	addsne	r0, r1, r0, lsl #20
    3c00:	72040000 	andvc	r0, r4, #0
    3c04:	00005e01 	andeq	r5, r0, r1, lsl #28
    3c08:	19010400 	stmdbne	r1, {sl}
    3c0c:	0a002302 	beq	c81c <__resume0_start+0xc81c>
    3c10:	00000ea3 	andeq	r0, r0, r3, lsr #29
    3c14:	5e017304 	cdppl	3, 0, cr7, cr1, cr4, {0}
    3c18:	04000000 	streq	r0, [r0]
    3c1c:	23021801 	movwcs	r1, #10241	; 0x2801
    3c20:	0a5a0a00 	beq	1686428 <__resume0_start+0x1686428>
    3c24:	74040000 	strvc	r0, [r4]
    3c28:	00005e01 	andeq	r5, r0, r1, lsl #28
    3c2c:	17010400 	strne	r0, [r1, -r0, lsl #8]
    3c30:	0a002302 	beq	c840 <__resume0_start+0xc840>
    3c34:	00000ead 	andeq	r0, r0, sp, lsr #29
    3c38:	5e017504 	cfsh32pl	mvfx7, mvfx1, #4
    3c3c:	04000000 	streq	r0, [r0]
    3c40:	23020017 	movwcs	r0, #8215	; 0x2017
    3c44:	9c0b0000 	stcls	0, cr0, [fp], {0}
    3c48:	04000006 	streq	r0, [r0], #-6
    3c4c:	12700176 	rsbsne	r0, r0, #-2147483619	; 0x8000001d
    3c50:	070c0000 	streq	r0, [ip, -r0]
    3c54:	0400000d 	streq	r0, [r0], #-13
    3c58:	82017a04 	andhi	r7, r1, #16384	; 0x4000
    3c5c:	0a000013 	beq	3cb0 <__resume0_start+0x3cb0>
    3c60:	00000768 	andeq	r0, r0, r8, ror #14
    3c64:	5e017b04 	vmlapl.f64	d7, d1, d4
    3c68:	04000000 	streq	r0, [r0]
    3c6c:	23021d03 	movwcs	r1, #11523	; 0x2d03
    3c70:	0e990a00 	cdpeq	10, 9, cr0, cr9, cr0, {0}
    3c74:	7c040000 	stcvc	0, cr0, [r4], {0}
    3c78:	00005e01 	andeq	r5, r0, r1, lsl #28
    3c7c:	08150400 	ldmdaeq	r5, {sl}
    3c80:	0a002302 	beq	c890 <__resume0_start+0xc890>
    3c84:	000011f4 	strdeq	r1, [r0], -r4
    3c88:	5e017d04 	cdppl	13, 0, cr7, cr1, cr4, {0}
    3c8c:	04000000 	streq	r0, [r0]
    3c90:	23020602 	movwcs	r0, #9730	; 0x2602
    3c94:	0ea30a00 	cdpeq	10, 10, cr0, cr3, cr0, {0}
    3c98:	7e040000 	cdpvc	0, 0, cr0, cr4, cr0, {0}
    3c9c:	00005e01 	andeq	r5, r0, r1, lsl #28
    3ca0:	02040400 	andeq	r0, r4, #0
    3ca4:	0a002302 	beq	c8b4 <__resume0_start+0xc8b4>
    3ca8:	000010ef 	andeq	r1, r0, pc, ror #1
    3cac:	5e017f04 	cdppl	15, 0, cr7, cr1, cr4, {0}
    3cb0:	04000000 	streq	r0, [r0]
    3cb4:	23020101 	movwcs	r0, #8449	; 0x2101
    3cb8:	10960a00 	addsne	r0, r6, r0, lsl #20
    3cbc:	80040000 	andhi	r0, r4, r0
    3cc0:	00005e01 	andeq	r5, r0, r1, lsl #28
    3cc4:	00010400 	andeq	r0, r1, r0, lsl #8
    3cc8:	00002302 	andeq	r2, r0, r2, lsl #6
    3ccc:	0008b40b 	andeq	fp, r8, fp, lsl #8
    3cd0:	01810400 	orreq	r0, r1, r0, lsl #8
    3cd4:	00001308 	andeq	r1, r0, r8, lsl #6
    3cd8:	00071b0c 	andeq	r1, r7, ip, lsl #22
    3cdc:	85040400 	strhi	r0, [r4, #-1024]	; 0x400
    3ce0:	00146201 	andseq	r6, r4, r1, lsl #4
    3ce4:	0ae30a00 	beq	ff8c64ec <__bss_end+0xbf7c053c>
    3ce8:	86040000 	strhi	r0, [r4], -r0
    3cec:	00005e01 	andeq	r5, r0, r1, lsl #28
    3cf0:	1f010400 	svcne	0x00010400
    3cf4:	0a002302 	beq	c904 <__resume0_start+0xc904>
    3cf8:	0000127b 	andeq	r1, r0, fp, ror r2
    3cfc:	5e018704 	cdppl	7, 0, cr8, cr1, cr4, {0}
    3d00:	04000000 	streq	r0, [r0]
    3d04:	23021e01 	movwcs	r1, #11777	; 0x2e01
    3d08:	0e990a00 	cdpeq	10, 9, cr0, cr9, cr0, {0}
    3d0c:	88040000 	stmdahi	r4, {}
    3d10:	00005e01 	andeq	r5, r0, r1, lsl #28
    3d14:	1d010400 	cfstrsne	mvf0, [r1]
    3d18:	0a002302 	beq	c928 <__resume0_start+0xc928>
    3d1c:	000003f7 	strdeq	r0, [r0], -r7
    3d20:	5e018904 	cdppl	9, 0, cr8, cr1, cr4, {0}
    3d24:	04000000 	streq	r0, [r0]
    3d28:	23021c01 	movwcs	r1, #11265	; 0x2c01
    3d2c:	0ea30a00 	cdpeq	10, 10, cr0, cr3, cr0, {0}
    3d30:	8a040000 	bhi	103d38 <__resume0_start+0x103d38>
    3d34:	00005e01 	andeq	r5, r0, r1, lsl #28
    3d38:	1b010400 	blne	44d40 <__resume0_start+0x44d40>
    3d3c:	0a002302 	beq	c94c <__resume0_start+0xc94c>
    3d40:	0000096e 	andeq	r0, r0, lr, ror #18
    3d44:	5e018b04 	vmlapl.f64	d8, d1, d4
    3d48:	04000000 	streq	r0, [r0]
    3d4c:	23021a01 	movwcs	r1, #10753	; 0x2a01
    3d50:	0ead0a00 	cdpeq	10, 10, cr0, cr13, cr0, {0}
    3d54:	8c040000 	stchi	0, cr0, [r4], {0}
    3d58:	00005e01 	andeq	r5, r0, r1, lsl #28
    3d5c:	07130400 	ldreq	r0, [r3, -r0, lsl #8]
    3d60:	0a002302 	beq	c970 <__resume0_start+0xc970>
    3d64:	00001129 	andeq	r1, r0, r9, lsr #2
    3d68:	5e018d04 	cdppl	13, 0, cr8, cr1, cr4, {0}
    3d6c:	04000000 	streq	r0, [r0]
    3d70:	23020601 	movwcs	r0, #9729	; 0x2601
    3d74:	0e3e0a00 	vaddeq.f32	s0, s28, s0
    3d78:	8e040000 	cdphi	0, 0, cr0, cr4, cr0, {0}
    3d7c:	00005e01 	andeq	r5, r0, r1, lsl #28
    3d80:	05010400 	streq	r0, [r1, #-1024]	; 0x400
    3d84:	0a002302 	beq	c994 <__resume0_start+0xc994>
    3d88:	00000eb7 	undefined instruction 0x00000eb7
    3d8c:	5e018f04 	cdppl	15, 0, cr8, cr1, cr4, {0}
    3d90:	04000000 	streq	r0, [r0]
    3d94:	23020104 	movwcs	r0, #8452	; 0x2104
    3d98:	0aac0a00 	beq	feb065a0 <__bss_end+0xbea005f0>
    3d9c:	90040000 	andls	r0, r4, r0
    3da0:	00005e01 	andeq	r5, r0, r1, lsl #28
    3da4:	00010400 	andeq	r0, r1, r0, lsl #8
    3da8:	00002302 	andeq	r2, r0, r2, lsl #6
    3dac:	0004980b 	andeq	r9, r4, fp, lsl #16
    3db0:	01910400 	orrseq	r0, r1, r0, lsl #8
    3db4:	0000138e 	andeq	r1, r0, lr, lsl #7
    3db8:	0004450c 	andeq	r4, r4, ip, lsl #10
    3dbc:	97040400 	strls	r0, [r4, -r0, lsl #8]
    3dc0:	0014e801 	andseq	lr, r4, r1, lsl #16
    3dc4:	12500a00 	subsne	r0, r0, #0
    3dc8:	98040000 	stmdals	r4, {}
    3dcc:	00005e01 	andeq	r5, r0, r1, lsl #28
    3dd0:	1c040400 	cfstrsne	mvf0, [r4], {0}
    3dd4:	0a002302 	beq	c9e4 <__resume0_start+0xc9e4>
    3dd8:	00000e99 	muleq	r0, r9, lr
    3ddc:	5e019904 	cdppl	9, 0, cr9, cr1, cr4, {0}
    3de0:	04000000 	streq	r0, [r0]
    3de4:	23020814 	movwcs	r0, #10260	; 0x2814
    3de8:	11f40a00 	mvnsne	r0, r0, lsl #20
    3dec:	9a040000 	bls	103df4 <__resume0_start+0x103df4>
    3df0:	00005e01 	andeq	r5, r0, r1, lsl #28
    3df4:	06020400 	streq	r0, [r2], -r0, lsl #8
    3df8:	0a002302 	beq	ca08 <__resume0_start+0xca08>
    3dfc:	00000ea3 	andeq	r0, r0, r3, lsr #29
    3e00:	5e019b04 	vmlapl.f64	d9, d1, d4
    3e04:	04000000 	streq	r0, [r0]
    3e08:	23020204 	movwcs	r0, #8708	; 0x2204
    3e0c:	10ef0a00 	rscne	r0, pc, r0, lsl #20
    3e10:	9c040000 	stcls	0, cr0, [r4], {0}
    3e14:	00005e01 	andeq	r5, r0, r1, lsl #28
    3e18:	01010400 	tsteq	r1, r0, lsl #8
    3e1c:	0a002302 	beq	ca2c <__resume0_start+0xca2c>
    3e20:	00001096 	muleq	r0, r6, r0
    3e24:	5e019d04 	cdppl	13, 0, cr9, cr1, cr4, {0}
    3e28:	04000000 	streq	r0, [r0]
    3e2c:	23020001 	movwcs	r0, #8193	; 0x2001
    3e30:	c80b0000 	stmdagt	fp, {}
    3e34:	0400000f 	streq	r0, [r0], #-15
    3e38:	146e019f 	strbtne	r0, [lr], #-415	; 0x19f
    3e3c:	530c0000 	movwpl	r0, #49152	; 0xc000
    3e40:	04000011 	streq	r0, [r0], #-17
    3e44:	6e01a504 	cfsh32vs	mvfx10, mvfx1, #4
    3e48:	0a000015 	beq	3ea4 <__resume0_start+0x3ea4>
    3e4c:	00000e99 	muleq	r0, r9, lr
    3e50:	5e01a604 	cfmadd32pl	mvax0, mvfx10, mvfx1, mvfx4
    3e54:	04000000 	streq	r0, [r0]
    3e58:	23020818 	movwcs	r0, #10264	; 0x2818
    3e5c:	11f40a00 	mvnsne	r0, r0, lsl #20
    3e60:	a7040000 	strge	r0, [r4, -r0]
    3e64:	00005e01 	andeq	r5, r0, r1, lsl #28
    3e68:	06020400 	streq	r0, [r2], -r0, lsl #8
    3e6c:	0a002302 	beq	ca7c <__resume0_start+0xca7c>
    3e70:	00000ea3 	andeq	r0, r0, r3, lsr #29
    3e74:	5e01a804 	cdppl	8, 0, cr10, cr1, cr4, {0}
    3e78:	04000000 	streq	r0, [r0]
    3e7c:	23020303 	movwcs	r0, #8963	; 0x2303
    3e80:	03b00a00 	movseq	r0, #0
    3e84:	a9040000 	stmdbge	r4, {}
    3e88:	00005e01 	andeq	r5, r0, r1, lsl #28
    3e8c:	02010400 	andeq	r0, r1, #0
    3e90:	0a002302 	beq	caa0 <__resume0_start+0xcaa0>
    3e94:	000010ec 	andeq	r1, r0, ip, ror #1
    3e98:	5e01aa04 	vmlapl.f32	s20, s2, s8
    3e9c:	04000000 	streq	r0, [r0]
    3ea0:	23020101 	movwcs	r0, #8449	; 0x2101
    3ea4:	10960a00 	addsne	r0, r6, r0, lsl #20
    3ea8:	ab040000 	blge	103eb0 <__resume0_start+0x103eb0>
    3eac:	00005e01 	andeq	r5, r0, r1, lsl #28
    3eb0:	00010400 	andeq	r0, r1, r0, lsl #8
    3eb4:	00002302 	andeq	r2, r0, r2, lsl #6
    3eb8:	0005a10b 	andeq	sl, r5, fp, lsl #2
    3ebc:	01ad0400 	undefined instruction 0x01ad0400
    3ec0:	000014f4 	strdeq	r1, [r0], -r4
    3ec4:	000ba70c 	andeq	sl, fp, ip, lsl #14
    3ec8:	b3040400 	movwlt	r0, #17408	; 0x4400
    3ecc:	00162a01 	andseq	r2, r6, r1, lsl #20
    3ed0:	12500a00 	subsne	r0, r0, #0
    3ed4:	b4040000 	strlt	r0, [r4]
    3ed8:	00005e01 	andeq	r5, r0, r1, lsl #28
    3edc:	1c040400 	cfstrsne	mvf0, [r4], {0}
    3ee0:	0a002302 	beq	caf0 <__resume0_start+0xcaf0>
    3ee4:	00000e99 	muleq	r0, r9, lr
    3ee8:	5e01b504 	cfsh32pl	mvfx11, mvfx1, #4
    3eec:	04000000 	streq	r0, [r0]
    3ef0:	23021507 	movwcs	r1, #9479	; 0x2507
    3ef4:	060f0a00 	streq	r0, [pc], -r0, lsl #20
    3ef8:	b6040000 	strlt	r0, [r4], -r0
    3efc:	00005e01 	andeq	r5, r0, r1, lsl #28
    3f00:	14010400 	strne	r0, [r1], #-1024	; 0x400
    3f04:	0a002302 	beq	cb14 <__resume0_start+0xcb14>
    3f08:	00000ea3 	andeq	r0, r0, r3, lsr #29
    3f0c:	5e01b704 	cdppl	7, 0, cr11, cr1, cr4, {0}
    3f10:	04000000 	streq	r0, [r0]
    3f14:	23021103 	movwcs	r1, #8451	; 0x2103
    3f18:	0efb0a00 	vmoveq.f32	s1, #176	; 0xb0
    3f1c:	b8040000 	stmdalt	r4, {}
    3f20:	00005e01 	andeq	r5, r0, r1, lsl #28
    3f24:	10010400 	andne	r0, r1, r0, lsl #8
    3f28:	0a002302 	beq	cb38 <__resume0_start+0xcb38>
    3f2c:	00000ead 	andeq	r0, r0, sp, lsr #29
    3f30:	5e01b904 	cdppl	9, 0, cr11, cr1, cr4, {0}
    3f34:	04000000 	streq	r0, [r0]
    3f38:	23020808 	movwcs	r0, #10248	; 0x2808
    3f3c:	0f120a00 	svceq	0x00120a00
    3f40:	ba040000 	blt	103f48 <__resume0_start+0x103f48>
    3f44:	00005e01 	andeq	r5, r0, r1, lsl #28
    3f48:	06020400 	streq	r0, [r2], -r0, lsl #8
    3f4c:	0a002302 	beq	cb5c <__resume0_start+0xcb5c>
    3f50:	00000eb7 	undefined instruction 0x00000eb7
    3f54:	5e01bb04 	vmlapl.f64	d11, d1, d4
    3f58:	04000000 	streq	r0, [r0]
    3f5c:	23020105 	movwcs	r0, #8453	; 0x2105
    3f60:	09920a00 	ldmibeq	r2, {r9, fp}
    3f64:	bc040000 	stclt	0, cr0, [r4], {0}
    3f68:	00005e01 	andeq	r5, r0, r1, lsl #28
    3f6c:	00010400 	andeq	r0, r1, r0, lsl #8
    3f70:	00002302 	andeq	r2, r0, r2, lsl #6
    3f74:	000e1d0b 	andeq	r1, lr, fp, lsl #26
    3f78:	01be0400 	undefined instruction 0x01be0400
    3f7c:	0000157a 	andeq	r1, r0, sl, ror r5
    3f80:	0008e60c 	andeq	lr, r8, ip, lsl #12
    3f84:	c4040400 	strgt	r0, [r4], #-1024	; 0x400
    3f88:	0016b001 	andseq	fp, r6, r1
    3f8c:	12500a00 	subsne	r0, r0, #0
    3f90:	c5040000 	strgt	r0, [r4]
    3f94:	00005e01 	andeq	r5, r0, r1, lsl #28
    3f98:	1b050400 	blne	144fa0 <__resume0_start+0x144fa0>
    3f9c:	0a002302 	beq	cbac <__resume0_start+0xcbac>
    3fa0:	00000e99 	muleq	r0, r9, lr
    3fa4:	5e01c604 	cfmadd32pl	mvax0, mvfx12, mvfx1, mvfx4
    3fa8:	04000000 	streq	r0, [r0]
    3fac:	23020813 	movwcs	r0, #10259	; 0x2813
    3fb0:	11f40a00 	mvnsne	r0, r0, lsl #20
    3fb4:	c7040000 	strgt	r0, [r4, -r0]
    3fb8:	00005e01 	andeq	r5, r0, r1, lsl #28
    3fbc:	05030400 	streq	r0, [r3, #-1024]	; 0x400
    3fc0:	0a002302 	beq	cbd0 <__resume0_start+0xcbd0>
    3fc4:	00000ea3 	andeq	r0, r0, r3, lsr #29
    3fc8:	5e01c804 	cdppl	8, 0, cr12, cr1, cr4, {0}
    3fcc:	04000000 	streq	r0, [r0]
    3fd0:	23020203 	movwcs	r0, #8707	; 0x2203
    3fd4:	10ef0a00 	rscne	r0, pc, r0, lsl #20
    3fd8:	c9040000 	stmdbgt	r4, {}
    3fdc:	00005e01 	andeq	r5, r0, r1, lsl #28
    3fe0:	01010400 	tsteq	r1, r0, lsl #8
    3fe4:	0a002302 	beq	cbf4 <__resume0_start+0xcbf4>
    3fe8:	00001096 	muleq	r0, r6, r0
    3fec:	5e01ca04 	vmlapl.f32	s24, s2, s8
    3ff0:	04000000 	streq	r0, [r0]
    3ff4:	23020001 	movwcs	r0, #8193	; 0x2001
    3ff8:	410b0000 	tstmi	fp, r0
    3ffc:	04000008 	streq	r0, [r0], #-8
    4000:	163601cb 	ldrtne	r0, [r6], -fp, asr #3
    4004:	6e0c0000 	cdpvs	0, 0, cr0, cr12, cr0, {0}
    4008:	04000011 	streq	r0, [r0], #-17
    400c:	2401cf04 	strcs	ip, [r1], #-3844	; 0xf04
    4010:	0a000017 	beq	4074 <__resume0_start+0x4074>
    4014:	000010ef 	andeq	r1, r0, pc, ror #1
    4018:	5e01d004 	cdppl	0, 0, cr13, cr1, cr4, {0}
    401c:	04000000 	streq	r0, [r0]
    4020:	23021f01 	movwcs	r1, #12033	; 0x2f01
    4024:	0e990a00 	cdpeq	10, 9, cr0, cr9, cr0, {0}
    4028:	d1040000 	tstle	r4, r0
    402c:	00005e01 	andeq	r5, r0, r1, lsl #28
    4030:	100f0400 	andne	r0, pc, r0, lsl #8
    4034:	0a002302 	beq	cc44 <__resume0_start+0xcc44>
    4038:	00001250 	andeq	r1, r0, r0, asr r2
    403c:	5e01d204 	cdppl	2, 0, cr13, cr1, cr4, {0}
    4040:	04000000 	streq	r0, [r0]
    4044:	23020d03 	movwcs	r0, #11523	; 0x2d03
    4048:	0ea30a00 	cdpeq	10, 10, cr0, cr3, cr0, {0}
    404c:	d3040000 	movwle	r0, #16384	; 0x4000
    4050:	00005e01 	andeq	r5, r0, r1, lsl #28
    4054:	010c0400 	tsteq	ip, r0, lsl #8
    4058:	0a002302 	beq	cc68 <__resume0_start+0xcc68>
    405c:	00001096 	muleq	r0, r6, r0
    4060:	5e01d404 	cdppl	4, 0, cr13, cr1, cr4, {0}
    4064:	04000000 	streq	r0, [r0]
    4068:	23020001 	movwcs	r0, #8193	; 0x2001
    406c:	900b0000 	andls	r0, fp, r0
    4070:	0400000d 	streq	r0, [r0], #-13
    4074:	16bc01d5 	ssatne	r0, #29, r5, asr #3
    4078:	010c0000 	tsteq	ip, r0
    407c:	0400000c 	streq	r0, [r0], #-12
    4080:	6201d804 	andvs	sp, r1, #262144	; 0x40000
    4084:	0a000017 	beq	40e8 <__resume0_start+0x40e8>
    4088:	00000e99 	muleq	r0, r9, lr
    408c:	5e01d904 	cdppl	9, 0, cr13, cr1, cr4, {0}
    4090:	04000000 	streq	r0, [r0]
    4094:	2302011f 	movwcs	r0, #8479	; 0x211f
    4098:	10960a00 	addsne	r0, r6, r0, lsl #20
    409c:	da040000 	ble	1040a4 <__resume0_start+0x1040a4>
    40a0:	00005e01 	andeq	r5, r0, r1, lsl #28
    40a4:	00010400 	andeq	r0, r1, r0, lsl #8
    40a8:	00002302 	andeq	r2, r0, r2, lsl #6
    40ac:	00047e0b 	andeq	r7, r4, fp, lsl #28
    40b0:	01db0400 	bicseq	r0, fp, r0, lsl #8
    40b4:	00001730 	andeq	r1, r0, r0, lsr r7
    40b8:	0007b90c 	andeq	fp, r7, ip, lsl #18
    40bc:	de040400 	cfcpysle	mvf0, mvf4
    40c0:	0017a001 	andseq	sl, r7, r1
    40c4:	0e990a00 	cdpeq	10, 9, cr0, cr9, cr0, {0}
    40c8:	df040000 	svcle	0x00040000
    40cc:	00005e01 	andeq	r5, r0, r1, lsl #28
    40d0:	011f0400 	tsteq	pc, r0, lsl #8
    40d4:	0a002302 	beq	cce4 <__resume0_start+0xcce4>
    40d8:	00001096 	muleq	r0, r6, r0
    40dc:	5e01e004 	cdppl	0, 0, cr14, cr1, cr4, {0}
    40e0:	04000000 	streq	r0, [r0]
    40e4:	23020001 	movwcs	r0, #8193	; 0x2001
    40e8:	c40b0000 	strgt	r0, [fp]
    40ec:	04000010 	streq	r0, [r0], #-16
    40f0:	176e01e1 	strbne	r0, [lr, -r1, ror #3]!
    40f4:	100c0000 	andne	r0, ip, r0
    40f8:	04000005 	streq	r0, [r0], #-5
    40fc:	de01e504 	cfsh32le	mvfx14, mvfx1, #4
    4100:	0a000017 	beq	4164 <__resume0_start+0x4164>
    4104:	000010ef 	andeq	r1, r0, pc, ror #1
    4108:	5e01e604 	cfmadd32pl	mvax0, mvfx14, mvfx1, mvfx4
    410c:	04000000 	streq	r0, [r0]
    4110:	23021f01 	movwcs	r1, #12033	; 0x2f01
    4114:	01180a00 	tsteq	r8, r0, lsl #20
    4118:	e7040000 	str	r0, [r4, -r0]
    411c:	00005e01 	andeq	r5, r0, r1, lsl #28
    4120:	001f0400 	andseq	r0, pc, r0, lsl #8
    4124:	00002302 	andeq	r2, r0, r2, lsl #6
    4128:	000d6e0b 	andeq	r6, sp, fp, lsl #28
    412c:	01e80400 	mvneq	r0, r0, lsl #8
    4130:	000017ac 	andeq	r1, r0, ip, lsr #15
    4134:	0005da0c 	andeq	sp, r5, ip, lsl #20
    4138:	ec040400 	cfstrs	mvf0, [r4], {0}
    413c:	00185201 	andseq	r5, r8, r1, lsl #4
    4140:	12500a00 	subsne	r0, r0, #0
    4144:	ed040000 	stc	0, cr0, [r4]
    4148:	00005e01 	andeq	r5, r0, r1, lsl #28
    414c:	1c040400 	cfstrsne	mvf0, [r4], {0}
    4150:	0a002302 	beq	cd60 <__resume0_start+0xcd60>
    4154:	00000e99 	muleq	r0, r9, lr
    4158:	5e01ee04 	cdppl	14, 0, cr14, cr1, cr4, {0}
    415c:	04000000 	streq	r0, [r0]
    4160:	23020814 	movwcs	r0, #10260	; 0x2814
    4164:	11f40a00 	mvnsne	r0, r0, lsl #20
    4168:	ef040000 	svc	0x00040000
    416c:	00005e01 	andeq	r5, r0, r1, lsl #28
    4170:	06020400 	streq	r0, [r2], -r0, lsl #8
    4174:	0a002302 	beq	cd84 <__resume0_start+0xcd84>
    4178:	00000ea3 	andeq	r0, r0, r3, lsr #29
    417c:	5e01f004 	cdppl	0, 0, cr15, cr1, cr4, {0}
    4180:	04000000 	streq	r0, [r0]
    4184:	23020105 	movwcs	r0, #8453	; 0x2105
    4188:	10960a00 	addsne	r0, r6, r0, lsl #20
    418c:	f1040000 	cps	#0
    4190:	00005e01 	andeq	r5, r0, r1, lsl #28
    4194:	00010400 	andeq	r0, r1, r0, lsl #8
    4198:	00002302 	andeq	r2, r0, r2, lsl #6
    419c:	0003b90b 	andeq	fp, r3, fp, lsl #18
    41a0:	01f20400 	mvnseq	r0, r0, lsl #8
    41a4:	000017ea 	andeq	r1, r0, sl, ror #15
    41a8:	0009c80c 	andeq	ip, r9, ip, lsl #16
    41ac:	f6040400 	undefined instruction 0xf6040400
    41b0:	0018d801 	andseq	sp, r8, r1, lsl #16
    41b4:	12500a00 	subsne	r0, r0, #0
    41b8:	f7040000 	undefined instruction 0xf7040000
    41bc:	00005e01 	andeq	r5, r0, r1, lsl #28
    41c0:	1c040400 	cfstrsne	mvf0, [r4], {0}
    41c4:	0a002302 	beq	cdd4 <__resume0_start+0xcdd4>
    41c8:	00000e99 	muleq	r0, r9, lr
    41cc:	5e01f804 	cdppl	8, 0, cr15, cr1, cr4, {0}
    41d0:	04000000 	streq	r0, [r0]
    41d4:	23020814 	movwcs	r0, #10260	; 0x2814
    41d8:	11f40a00 	mvnsne	r0, r0, lsl #20
    41dc:	f9040000 	undefined instruction 0xf9040000
    41e0:	00005e01 	andeq	r5, r0, r1, lsl #28
    41e4:	05030400 	streq	r0, [r3, #-1024]	; 0x400
    41e8:	0a002302 	beq	cdf8 <__resume0_start+0xcdf8>
    41ec:	00000ea3 	andeq	r0, r0, r3, lsr #29
    41f0:	5e01fa04 	vmlapl.f32	s30, s2, s8
    41f4:	04000000 	streq	r0, [r0]
    41f8:	23020203 	movwcs	r0, #8707	; 0x2203
    41fc:	10ef0a00 	rscne	r0, pc, r0, lsl #20
    4200:	fb040000 	blx	10420a <__resume0_start+0x10420a>
    4204:	00005e01 	andeq	r5, r0, r1, lsl #28
    4208:	01010400 	tsteq	r1, r0, lsl #8
    420c:	0a002302 	beq	ce1c <__resume0_start+0xce1c>
    4210:	00001096 	muleq	r0, r6, r0
    4214:	5e01fc04 	cdppl	12, 0, cr15, cr1, cr4, {0}
    4218:	04000000 	streq	r0, [r0]
    421c:	23020001 	movwcs	r0, #8193	; 0x2001
    4220:	850b0000 	strhi	r0, [fp]
    4224:	04000008 	streq	r0, [r0], #-8
    4228:	185e01fd 	ldmdane	lr, {r0, r2, r3, r4, r5, r6, r7, r8}^
    422c:	340c0000 	strcc	r0, [ip]
    4230:	04000007 	streq	r0, [r0], #-7
    4234:	70020104 	andvc	r0, r2, r4, lsl #2
    4238:	0a000019 	beq	42a4 <__resume0_start+0x42a4>
    423c:	00001250 	andeq	r1, r0, r0, asr r2
    4240:	5e020204 	cdppl	2, 0, cr0, cr2, cr4, {0}
    4244:	04000000 	streq	r0, [r0]
    4248:	23021c04 	movwcs	r1, #11268	; 0x2c04
    424c:	0e990a00 	cdpeq	10, 9, cr0, cr9, cr0, {0}
    4250:	03040000 	movweq	r0, #16384	; 0x4000
    4254:	00005e02 	andeq	r5, r0, r2, lsl #28
    4258:	100c0400 	andne	r0, ip, r0, lsl #8
    425c:	0a002302 	beq	ce6c <__resume0_start+0xce6c>
    4260:	000004e5 	andeq	r0, r0, r5, ror #9
    4264:	5e020404 	cdppl	4, 0, cr0, cr2, cr4, {0}
    4268:	04000000 	streq	r0, [r0]
    426c:	23020e02 	movwcs	r0, #11778	; 0x2e02
    4270:	0ea30a00 	cdpeq	10, 10, cr0, cr3, cr0, {0}
    4274:	05040000 	streq	r0, [r4]
    4278:	00005e02 	andeq	r5, r0, r2, lsl #28
    427c:	08060400 	stmdaeq	r6, {sl}
    4280:	0a002302 	beq	ce90 <__resume0_start+0xce90>
    4284:	000011f4 	strdeq	r1, [r0], -r4
    4288:	5e020604 	cfmadd32pl	mvax0, mvfx0, mvfx2, mvfx4
    428c:	04000000 	streq	r0, [r0]
    4290:	23020602 	movwcs	r0, #9730	; 0x2602
    4294:	0ead0a00 	cdpeq	10, 10, cr0, cr13, cr0, {0}
    4298:	07040000 	streq	r0, [r4, -r0]
    429c:	00005e02 	andeq	r5, r0, r2, lsl #28
    42a0:	01050400 	tsteq	r5, r0, lsl #8
    42a4:	0a002302 	beq	ceb4 <__resume0_start+0xceb4>
    42a8:	0000109a 	muleq	r0, sl, r0
    42ac:	5e020804 	cdppl	8, 0, cr0, cr2, cr4, {0}
    42b0:	04000000 	streq	r0, [r0]
    42b4:	23020001 	movwcs	r0, #8193	; 0x2001
    42b8:	c00b0000 	andgt	r0, fp, r0
    42bc:	04000005 	streq	r0, [r0], #-5
    42c0:	18e4020a 	stmiane	r4!, {r1, r3, r9}^
    42c4:	520c0000 	andpl	r0, ip, #0
    42c8:	0400000e 	streq	r0, [r0], #-14
    42cc:	c0020e04 	andgt	r0, r2, r4, lsl #28
    42d0:	0a000019 	beq	433c <__resume0_start+0x433c>
    42d4:	00000118 	andeq	r0, r0, r8, lsl r1
    42d8:	5e020f04 	cdppl	15, 0, cr0, cr2, cr4, {0}
    42dc:	04000000 	streq	r0, [r0]
    42e0:	2302021e 	movwcs	r0, #8734	; 0x221e
    42e4:	10ef0a00 	rscne	r0, pc, r0, lsl #20
    42e8:	10040000 	andne	r0, r4, r0
    42ec:	00005e02 	andeq	r5, r0, r2, lsl #28
    42f0:	01010400 	tsteq	r1, r0, lsl #8
    42f4:	0a002302 	beq	cf04 <__resume0_start+0xcf04>
    42f8:	0000109a 	muleq	r0, sl, r0
    42fc:	5e021104 	adfpls	f1, f2, f4
    4300:	04000000 	streq	r0, [r0]
    4304:	23020001 	movwcs	r0, #8193	; 0x2001
    4308:	b40b0000 	strlt	r0, [fp]
    430c:	0400000a 	streq	r0, [r0], #-10
    4310:	197c0213 	ldmdbne	ip!, {r0, r1, r4, r9}^
    4314:	230d0000 	movwcs	r0, #53248	; 0xd000
    4318:	64000012 	strvs	r0, [r0], #-18
    431c:	02160401 	andseq	r0, r6, #16777216	; 0x1000000
    4320:	00001e31 	andeq	r1, r0, r1, lsr lr
    4324:	00091a0e 	andeq	r1, r9, lr, lsl #20
    4328:	02170400 	andseq	r0, r7, #0
    432c:	00001e31 	andeq	r1, r0, r1, lsr lr
    4330:	0e002302 	cdpeq	3, 0, cr2, cr0, cr2, {0}
    4334:	000007f8 	strdeq	r0, [r0], -r8
    4338:	36021804 	strcc	r1, [r2], -r4, lsl #16
    433c:	0200001e 	andeq	r0, r0, #30
    4340:	1b0e0423 	blne	3853d4 <__resume0_start+0x3853d4>
    4344:	04000012 	streq	r0, [r0], #-18
    4348:	1e3b0219 	mrcne	2, 1, r0, cr11, cr9, {0}
    434c:	23020000 	movwcs	r0, #8192	; 0x2000
    4350:	10240e08 	eorne	r0, r4, r8, lsl #28
    4354:	1a040000 	bne	10435c <__resume0_start+0x10435c>
    4358:	001e4002 	andseq	r4, lr, r2
    435c:	0c230200 	sfmeq	f0, 4, [r3]	; (stceq 2, cr0, [r3])
    4360:	0011330e 	andseq	r3, r1, lr, lsl #6
    4364:	021b0400 	andseq	r0, fp, #0
    4368:	00001e45 	andeq	r1, r0, r5, asr #28
    436c:	0e102302 	cdpeq	3, 1, cr2, cr0, cr2, {0}
    4370:	00000e99 	muleq	r0, r9, lr
    4374:	4a021c04 	bmi	8b38c <__resume0_start+0x8b38c>
    4378:	0200001e 	andeq	r0, r0, #30
    437c:	300e1423 	andcc	r1, lr, r3, lsr #8
    4380:	04000005 	streq	r0, [r0], #-5
    4384:	1e4f021d 	mcrne	2, 2, r0, cr15, cr13, {0}
    4388:	23020000 	movwcs	r0, #8192	; 0x2000
    438c:	0ea30e18 	mcreq	14, 5, r0, cr3, cr8, {0}
    4390:	1e040000 	cdpne	0, 0, cr0, cr4, cr0, {0}
    4394:	001e4a02 	andseq	r4, lr, r2, lsl #20
    4398:	1c230200 	sfmne	f0, 4, [r3]	; (stcne 2, cr0, [r3])
    439c:	000d880e 	andeq	r8, sp, lr, lsl #16
    43a0:	021f0400 	andseq	r0, pc, #0
    43a4:	00001e54 	andeq	r1, r0, r4, asr lr
    43a8:	0e202302 	cdpeq	3, 2, cr2, cr0, cr2, {0}
    43ac:	00000370 	andeq	r0, r0, r0, ror r3
    43b0:	59022004 	stmdbpl	r2, {r2, sp}
    43b4:	0200001e 	andeq	r0, r0, #30
    43b8:	4b0e2423 	blmi	38d44c <__resume0_start+0x38d44c>
    43bc:	04000011 	streq	r0, [r0], #-17
    43c0:	1e5e0221 	cdpne	2, 5, cr0, cr14, cr1, {1}
    43c4:	23020000 	movwcs	r0, #8192	; 0x2000
    43c8:	0ead0e28 	cdpeq	14, 10, cr0, cr13, cr8, {1}
    43cc:	22040000 	andcs	r0, r4, #0
    43d0:	001e4a02 	andseq	r4, lr, r2, lsl #20
    43d4:	2c230200 	sfmcs	f0, 4, [r3]	; (stccs 2, cr0, [r3])
    43d8:	0010670e 	andseq	r6, r0, lr, lsl #14
    43dc:	02230400 	eoreq	r0, r3, #0
    43e0:	00001e63 	andeq	r1, r0, r3, ror #28
    43e4:	0e302302 	cdpeq	3, 3, cr2, cr0, cr2, {0}
    43e8:	00000eb7 	undefined instruction 0x00000eb7
    43ec:	4a022404 	bmi	8d404 <__resume0_start+0x8d404>
    43f0:	0200001e 	andeq	r0, r0, #30
    43f4:	490e3423 	stmdbmi	lr, {r0, r1, r5, sl, ip, sp}
    43f8:	0400000d 	streq	r0, [r0], #-13
    43fc:	1e680225 	cdpne	2, 6, cr0, cr8, cr5, {1}
    4400:	23020000 	movwcs	r0, #8192	; 0x2000
    4404:	03a00e38 	moveq	r0, #896	; 0x380
    4408:	26040000 	strcs	r0, [r4], -r0
    440c:	001e6d02 	andseq	r6, lr, r2, lsl #26
    4410:	3c230200 	sfmcc	f0, 4, [r3]	; (stccc 2, cr0, [r3])
    4414:	000ec10e 	andeq	ip, lr, lr, lsl #2
    4418:	02270400 	eoreq	r0, r7, #0
    441c:	00001e82 	andeq	r1, r0, r2, lsl #29
    4420:	0e402302 	cdpeq	3, 4, cr2, cr0, cr2, {0}
    4424:	00000640 	andeq	r0, r0, r0, asr #12
    4428:	87022804 	strhi	r2, [r2, -r4, lsl #16]
    442c:	0200001e 	andeq	r0, r0, #30
    4430:	640e5023 	strvs	r5, [lr], #-35	; 0x23
    4434:	0400000b 	streq	r0, [r0], #-11
    4438:	1e8c0229 	cdpne	2, 8, cr0, cr12, cr9, {1}
    443c:	23020000 	movwcs	r0, #8192	; 0x2000
    4440:	09a60e54 	stmibeq	r6!, {r2, r4, r6, r9, sl, fp}
    4444:	2a040000 	bcs	10444c <__resume0_start+0x10444c>
    4448:	001e9102 	andseq	r9, lr, r2, lsl #2
    444c:	58230200 	stmdapl	r3!, {r9}
    4450:	00113b0e 	andseq	r3, r1, lr, lsl #22
    4454:	022b0400 	eoreq	r0, fp, #0
    4458:	00001e96 	muleq	r0, r6, lr
    445c:	0e5c2302 	cdpeq	3, 5, cr2, cr12, cr2, {0}
    4460:	000008cd 	andeq	r0, r0, sp, asr #17
    4464:	9b022c04 	blls	8f47c <__resume0_start+0x8f47c>
    4468:	0200001e 	andeq	r0, r0, #30
    446c:	d60e6023 	strle	r6, [lr], -r3, lsr #32
    4470:	04000008 	streq	r0, [r0], #-8
    4474:	1ea0022d 	cdpne	2, 10, cr0, cr0, cr13, {1}
    4478:	23020000 	movwcs	r0, #8192	; 0x2000
    447c:	05fc0e64 	ldrbeq	r0, [ip, #3684]!	; 0xe64
    4480:	2e040000 	cdpcs	0, 0, cr0, cr4, cr0, {0}
    4484:	001ea502 	andseq	sl, lr, r2, lsl #10
    4488:	68230200 	stmdavs	r3!, {r9}
    448c:	0006bc0e 	andeq	fp, r6, lr, lsl #24
    4490:	022f0400 	eoreq	r0, pc, #0
    4494:	00001eaa 	andeq	r1, r0, sl, lsr #29
    4498:	0e6c2302 	cdpeq	3, 6, cr2, cr12, cr2, {0}
    449c:	000005f2 	strdeq	r0, [r0], -r2
    44a0:	af023004 	svcge	0x00023004
    44a4:	0200001e 	andeq	r0, r0, #30
    44a8:	890e7023 	stmdbhi	lr, {r0, r1, r5, ip, sp, lr}
    44ac:	04000010 	streq	r0, [r0], #-16
    44b0:	1eb40231 	mrcne	2, 5, r0, cr4, cr1, {1}
    44b4:	23030000 	movwcs	r0, #12288	; 0x3000
    44b8:	e80e0180 	stmda	lr, {r7, r8}
    44bc:	04000006 	streq	r0, [r0], #-6
    44c0:	1eb40232 	mrcne	2, 5, r0, cr4, cr2, {1}
    44c4:	23030000 	movwcs	r0, #12288	; 0x3000
    44c8:	d80e0184 	stmdale	lr, {r2, r7, r8}
    44cc:	04000004 	streq	r0, [r0], #-4
    44d0:	1eb40233 	mrcne	2, 5, r0, cr4, cr3, {1}
    44d4:	23030000 	movwcs	r0, #12288	; 0x3000
    44d8:	480e0188 	stmdami	lr, {r3, r7, r8}
    44dc:	0400000e 	streq	r0, [r0], #-14
    44e0:	1eb40234 	mrcne	2, 5, r0, cr4, cr4, {1}
    44e4:	23030000 	movwcs	r0, #12288	; 0x3000
    44e8:	7e0e018c 	adfvc<illegal precision>	f0, f6, #4.0
    44ec:	0400000a 	streq	r0, [r0], #-10
    44f0:	1eb40235 	mrcne	2, 5, r0, cr4, cr5, {1}
    44f4:	23030000 	movwcs	r0, #12288	; 0x3000
    44f8:	e70e0190 	undefined instruction 0xe70e0190
    44fc:	0400000e 	streq	r0, [r0], #-14
    4500:	1e4a0236 	mcrne	2, 2, r0, cr10, cr6, {1}
    4504:	23030000 	movwcs	r0, #12288	; 0x3000
    4508:	8d0e0194 	stfhis	f0, [lr, #-592]	; 0xfffffdb0
    450c:	0400000f 	streq	r0, [r0], #-15
    4510:	1eb40237 	mrcne	2, 5, r0, cr4, cr7, {1}
    4514:	23030000 	movwcs	r0, #12288	; 0x3000
    4518:	940e0198 	strls	r0, [lr], #-408	; 0x198
    451c:	04000005 	streq	r0, [r0], #-5
    4520:	1eb40238 	mrcne	2, 5, r0, cr4, cr8, {1}
    4524:	23030000 	movwcs	r0, #12288	; 0x3000
    4528:	880e019c 	stmdahi	lr, {r2, r3, r4, r7, r8}
    452c:	0400000a 	streq	r0, [r0], #-10
    4530:	1eb40239 	mrcne	2, 5, r0, cr4, cr9, {1}
    4534:	23030000 	movwcs	r0, #12288	; 0x3000
    4538:	fe0e01a0 	cdp2	1, 0, cr0, cr14, cr0, {5}
    453c:	04000003 	streq	r0, [r0], #-3
    4540:	1eb4023a 	mrcne	2, 5, r0, cr4, cr10, {1}
    4544:	23030000 	movwcs	r0, #12288	; 0x3000
    4548:	7b0e01a4 	blvc	384be0 <__resume0_start+0x384be0>
    454c:	0400000c 	streq	r0, [r0], #-12
    4550:	1eb4023b 	mrcne	2, 5, r0, cr4, cr11, {1}
    4554:	23030000 	movwcs	r0, #12288	; 0x3000
    4558:	f10e01a8 	undefined instruction 0xf10e01a8
    455c:	0400000e 	streq	r0, [r0], #-14
    4560:	1e4a023c 	mcrne	2, 2, r0, cr10, cr12, {1}
    4564:	23030000 	movwcs	r0, #12288	; 0x3000
    4568:	9f0e01ac 	svcls	0x000e01ac
    456c:	04000009 	streq	r0, [r0], #-9
    4570:	1eb4023d 	mrcne	2, 5, r0, cr4, cr13, {1}
    4574:	23030000 	movwcs	r0, #12288	; 0x3000
    4578:	050e01b0 	streq	r0, [lr, #-432]	; 0x1b0
    457c:	04000006 	streq	r0, [r0], #-6
    4580:	1e4a023e 	mcrne	2, 2, r0, cr10, cr14, {1}
    4584:	23030000 	movwcs	r0, #12288	; 0x3000
    4588:	df0e01b4 	svcle	0x000e01b4
    458c:	04000008 	streq	r0, [r0], #-8
    4590:	1eb9023f 	mrcne	2, 5, r0, cr9, cr15, {1}
    4594:	23030000 	movwcs	r0, #12288	; 0x3000
    4598:	080e01b8 	stmdaeq	lr, {r3, r4, r5, r7, r8}
    459c:	0400000f 	streq	r0, [r0], #-15
    45a0:	1e4a0240 	cdpne	2, 4, cr0, cr10, cr0, {2}
    45a4:	23030000 	movwcs	r0, #12288	; 0x3000
    45a8:	190e01bc 	stmdbne	lr, {r2, r3, r4, r5, r7, r8}
    45ac:	0400000c 	streq	r0, [r0], #-12
    45b0:	1eb90241 	cdpne	2, 11, cr0, cr9, cr1, {2}
    45b4:	23030000 	movwcs	r0, #12288	; 0x3000
    45b8:	a60e01c0 	strge	r0, [lr], -r0, asr #3
    45bc:	0400000f 	streq	r0, [r0], #-15
    45c0:	1ebe0242 	cdpne	2, 11, cr0, cr14, cr2, {2}
    45c4:	23030000 	movwcs	r0, #12288	; 0x3000
    45c8:	e30e01c4 	movw	r0, #57796	; 0xe1c4
    45cc:	04000009 	streq	r0, [r0], #-9
    45d0:	1e4a0243 	cdpne	2, 4, cr0, cr10, cr3, {2}
    45d4:	23030000 	movwcs	r0, #12288	; 0x3000
    45d8:	9a0e01c8 	bls	384d00 <__resume0_start+0x384d00>
    45dc:	04000005 	streq	r0, [r0], #-5
    45e0:	1ec30244 	cdpne	2, 12, cr0, cr3, cr4, {2}
    45e4:	23030000 	movwcs	r0, #12288	; 0x3000
    45e8:	fa0e01cc 	blx	384d20 <__resume0_start+0x384d20>
    45ec:	0400000b 	streq	r0, [r0], #-11
    45f0:	1ec80245 	cdpne	2, 12, cr0, cr8, cr5, {2}
    45f4:	23030000 	movwcs	r0, #12288	; 0x3000
    45f8:	ee0e01d0 	flt<illegal precision>m	f6, r0
    45fc:	04000009 	streq	r0, [r0], #-9
    4600:	1e4a0246 	cdpne	2, 4, cr0, cr10, cr6, {2}
    4604:	23030000 	movwcs	r0, #12288	; 0x3000
    4608:	f90e01d4 	undefined instruction 0xf90e01d4
    460c:	04000009 	streq	r0, [r0], #-9
    4610:	1edd0247 	cdpne	2, 13, cr0, cr13, cr7, {2}
    4614:	23030000 	movwcs	r0, #12288	; 0x3000
    4618:	8d0e01d8 	stfhis	f0, [lr, #-864]	; 0xfffffca0
    461c:	0400000c 	streq	r0, [r0], #-12
    4620:	1ee20248 	cdpne	2, 14, cr0, cr2, cr8, {2}
    4624:	23030000 	movwcs	r0, #12288	; 0x3000
    4628:	c90e0280 	stmdbgt	lr, {r7, r9}
    462c:	0400000c 	streq	r0, [r0], #-12
    4630:	1ee70249 	cdpne	2, 14, cr0, cr7, cr9, {2}
    4634:	23030000 	movwcs	r0, #12288	; 0x3000
    4638:	fc0e0284 	stc2	2, cr0, [lr], {132}	; 0x84
    463c:	0400000a 	streq	r0, [r0], #-10
    4640:	1e4a024a 	cdpne	2, 4, cr0, cr10, cr10, {2}
    4644:	23030000 	movwcs	r0, #12288	; 0x3000
    4648:	5b0e0288 	blpl	385070 <__resume0_start+0x385070>
    464c:	04000009 	streq	r0, [r0], #-9
    4650:	1ee7024b 	cdpne	2, 14, cr0, cr7, cr11, {2}
    4654:	23030000 	movwcs	r0, #12288	; 0x3000
    4658:	1b0e028c 	blne	385090 <__resume0_start+0x385090>
    465c:	0400000a 	streq	r0, [r0], #-10
    4660:	1e4a024c 	cdpne	2, 4, cr0, cr10, cr12, {2}
    4664:	23030000 	movwcs	r0, #12288	; 0x3000
    4668:	260e0290 	undefined instruction 0x260e0290
    466c:	0400000a 	streq	r0, [r0], #-10
    4670:	1e4a024d 	cdpne	2, 4, cr0, cr10, cr13, {2}
    4674:	23030000 	movwcs	r0, #12288	; 0x3000
    4678:	060e0294 	undefined instruction 0x060e0294
    467c:	04000004 	streq	r0, [r0], #-4
    4680:	1eec024e 	cdpne	2, 14, cr0, cr12, cr14, {2}
    4684:	23030000 	movwcs	r0, #12288	; 0x3000
    4688:	310e0298 	undefined instruction 0x310e0298
    468c:	0400000a 	streq	r0, [r0], #-10
    4690:	1ef1024f 	cdpne	2, 15, cr0, cr1, cr15, {2}
    4694:	23030000 	movwcs	r0, #12288	; 0x3000
    4698:	b50e029c 	strlt	r0, [lr, #-668]	; 0x29c
    469c:	04000005 	streq	r0, [r0], #-5
    46a0:	1ef60250 	mrcne	2, 7, r0, cr6, cr0, {2}
    46a4:	23030000 	movwcs	r0, #12288	; 0x3000
    46a8:	3c0e02ac 	sfmcc	f0, 4, [lr], {172}	; (stccc 2, cr0, [lr], {172})	; 0xac
    46ac:	0400000a 	streq	r0, [r0], #-10
    46b0:	1e4a0251 	mcrne	2, 2, r0, cr10, cr1, {2}
    46b4:	23030000 	movwcs	r0, #12288	; 0x3000
    46b8:	a20e02b0 	andge	r0, lr, #11
    46bc:	04000008 	streq	r0, [r0], #-8
    46c0:	1efb0252 	mrcne	2, 7, r0, cr11, cr2, {2}
    46c4:	23030000 	movwcs	r0, #12288	; 0x3000
    46c8:	470e02b4 	undefined instruction 0x470e02b4
    46cc:	0400000a 	streq	r0, [r0], #-10
    46d0:	1e4a0253 	mcrne	2, 2, r0, cr10, cr3, {2}
    46d4:	23030000 	movwcs	r0, #12288	; 0x3000
    46d8:	aa0e02b8 	bge	3851c0 <__resume0_start+0x3851c0>
    46dc:	04000003 	streq	r0, [r0], #-3
    46e0:	1f000254 	svcne	0x00000254
    46e4:	23030000 	movwcs	r0, #12288	; 0x3000
    46e8:	850e02bc 	strhi	r0, [lr, #-700]	; 0x2bc
    46ec:	0400000f 	streq	r0, [r0], #-15
    46f0:	1f050255 	svcne	0x00050255
    46f4:	23030000 	movwcs	r0, #12288	; 0x3000
    46f8:	e50e02c0 	str	r0, [lr, #-704]	; 0x2c0
    46fc:	04000010 	streq	r0, [r0], #-16
    4700:	1f0a0256 	svcne	0x000a0256
    4704:	23030000 	movwcs	r0, #12288	; 0x3000
    4708:	cd0e02c4 	sfmgt	f0, 4, [lr, #-784]	; (stcgt 2, cr0, [lr, #-784])	; 0xfffffcf0
    470c:	0400000a 	streq	r0, [r0], #-10
    4710:	1e4a0257 	mcrne	2, 2, r0, cr10, cr7, {2}
    4714:	23030000 	movwcs	r0, #12288	; 0x3000
    4718:	380e02c8 	stmdacc	lr, {r3, r6, r7, r9}
    471c:	0400000b 	streq	r0, [r0], #-11
    4720:	1f0f0258 	svcne	0x000f0258
    4724:	23030000 	movwcs	r0, #12288	; 0x3000
    4728:	ea0e02cc 	b	385260 <__resume0_start+0x385260>
    472c:	0400000a 	streq	r0, [r0], #-10
    4730:	1f140259 	svcne	0x00140259
    4734:	23030000 	movwcs	r0, #12288	; 0x3000
    4738:	dd0e02d0 	sfmle	f0, 4, [lr, #-832]	; (stcle 2, cr0, [lr, #-832])	; 0xfffffcc0
    473c:	04000010 	streq	r0, [r0], #-16
    4740:	1f19025a 	svcne	0x0019025a
    4744:	23030000 	movwcs	r0, #12288	; 0x3000
    4748:	d80e02d4 	stmdale	lr, {r2, r4, r6, r7, r9}
    474c:	0400000a 	streq	r0, [r0], #-10
    4750:	1e4a025b 	mcrne	2, 2, r0, cr10, cr11, {2}
    4754:	23030000 	movwcs	r0, #12288	; 0x3000
    4758:	ef0e02d8 	svc	0x000e02d8
    475c:	04000003 	streq	r0, [r0], #-3
    4760:	1f1e025c 	svcne	0x001e025c
    4764:	23030000 	movwcs	r0, #12288	; 0x3000
    4768:	bd0e02dc 	sfmlt	f0, 4, [lr, #-880]	; (stclt 2, cr0, [lr, #-880])	; 0xfffffc90
    476c:	04000010 	streq	r0, [r0], #-16
    4770:	1f23025d 	svcne	0x0023025d
    4774:	23030000 	movwcs	r0, #12288	; 0x3000
    4778:	0f0002e0 	svceq	0x000002e0
    477c:	00000231 	andeq	r0, r0, r1, lsr r2
    4780:	0002af0f 	andeq	sl, r2, pc, lsl #30
    4784:	03600f00 	cmneq	r0, #0
    4788:	de0f0000 	cdple	0, 0, cr0, cr15, cr0, {0}
    478c:	0f000003 	svceq	0x00000003
    4790:	000004b1 	undefined instruction 0x000004b1
    4794:	00005e0f 	andeq	r5, r0, pc, lsl #28
    4798:	05b70f00 	ldreq	r0, [r7, #3840]!	; 0xf00
    479c:	ce0f0000 	cdpgt	0, 0, cr0, cr15, cr0, {0}
    47a0:	0f000006 	svceq	0x00000006
    47a4:	0000075d 	andeq	r0, r0, sp, asr r7
    47a8:	0008410f 	andeq	r4, r8, pc, lsl #2
    47ac:	09140f00 	ldmdbeq	r4, {r8, r9, sl, fp}
    47b0:	920f0000 	andls	r0, pc, #0
    47b4:	0f000009 	svceq	0x00000009
    47b8:	00000a10 	andeq	r0, r0, r0, lsl sl
    47bc:	00005e10 	andeq	r5, r0, r0, lsl lr
    47c0:	001e8200 	andseq	r8, lr, r0, lsl #4
    47c4:	01331100 	teqeq	r3, r0, lsl #2
    47c8:	00030000 	andeq	r0, r3, r0
    47cc:	001e720f 	andseq	r7, lr, pc, lsl #4
    47d0:	0ad20f00 	beq	ff4883d8 <__bss_end+0xbf382428>
    47d4:	720f0000 	andvc	r0, pc, #0
    47d8:	0f00000b 	svceq	0x0000000b
    47dc:	00000bf0 	strdeq	r0, [r0], -r0
    47e0:	000c2a0f 	andeq	r2, ip, pc, lsl #20
    47e4:	0e0e0f00 	cdpeq	15, 0, cr0, cr14, cr0, {0}
    47e8:	480f0000 	stmdami	pc, {}
    47ec:	0f00000f 	svceq	0x0000000f
    47f0:	00001016 	andeq	r1, r0, r6, lsl r0
    47f4:	0010d20f 	andseq	sp, r0, pc, lsl #4
    47f8:	1e720f00 	cdpne	15, 7, cr0, cr2, cr0, {0}
    47fc:	6a0f0000 	bvs	3c4804 <__resume0_start+0x3c4804>
    4800:	0f000011 	svceq	0x00000011
    4804:	000011cc 	andeq	r1, r0, ip, asr #3
    4808:	0012640f 	andseq	r6, r2, pc, lsl #8
    480c:	12fc0f00 	rscsne	r0, ip, #0
    4810:	820f0000 	andhi	r0, pc, #0
    4814:	10000013 	andne	r0, r0, r3, lsl r0
    4818:	0000005e 	andeq	r0, r0, lr, asr r0
    481c:	00001edd 	ldrdeq	r1, [r0], -sp
    4820:	00013311 	andeq	r3, r1, r1, lsl r3
    4824:	0f000900 	svceq	0x00000900
    4828:	00001ecd 	andeq	r1, r0, sp, asr #29
    482c:	0014620f 	andseq	r6, r4, pc, lsl #4
    4830:	14e80f00 	strbtne	r0, [r8], #3840	; 0xf00
    4834:	6e0f0000 	cdpvs	0, 0, cr0, cr15, cr0, {0}
    4838:	0f000015 	svceq	0x00000015
    483c:	00001e72 	andeq	r1, r0, r2, ror lr
    4840:	00162a0f 	andseq	r2, r6, pc, lsl #20
    4844:	16b00f00 	ldrtne	r0, [r0], r0, lsl #30
    4848:	240f0000 	strcs	r0, [pc], #0	; 4850 <__resume0_start+0x4850>
    484c:	0f000017 	svceq	0x00000017
    4850:	00001762 	andeq	r1, r0, r2, ror #14
    4854:	0017a00f 	andseq	sl, r7, pc
    4858:	17de0f00 	ldrbne	r0, [lr, r0, lsl #30]
    485c:	520f0000 	andpl	r0, pc, #0
    4860:	0f000018 	svceq	0x00000018
    4864:	000018d8 	ldrdeq	r1, [r0], -r8
    4868:	0019700f 	andseq	r7, r9, pc
    486c:	19c00f00 	stmibne	r0, {r8, r9, sl, fp}^
    4870:	770b0000 	strvc	r0, [fp, -r0]
    4874:	04000010 	streq	r0, [r0], #-16
    4878:	19cc025f 	stmibne	ip, {r0, r1, r2, r3, r4, r6, r9}^
    487c:	01120000 	tsteq	r2, r0
    4880:	00001347 	andeq	r1, r0, r7, asr #6
    4884:	4c012c01 	stcmi	12, cr2, [r1], {1}
    4888:	b4000000 	strlt	r0, [r0]
    488c:	d040100d 	suble	r1, r0, sp
    4890:	0140100d 	cmpeq	r0, sp
    4894:	5401125d 	strpl	r1, [r1], #-605	; 0x25d
    4898:	01000013 	tsteq	r0, r3, lsl r0
    489c:	004c013e 	subeq	r0, ip, lr, lsr r1
    48a0:	0dd00000 	ldcleq	0, cr0, [r0]
    48a4:	0e2c4010 	miaBBeq	acc0, r0, r4
    48a8:	5d014010 	stcpl	0, cr4, [r1, #-64]	; 0xffffffc0
    48ac:	13130112 	tstne	r3, #-2147483644	; 0x80000004
    48b0:	57010000 	strpl	r0, [r1, -r0]
    48b4:	00004c01 	andeq	r4, r0, r1, lsl #24
    48b8:	100e2c00 	andne	r2, lr, r0, lsl #24
    48bc:	100e8840 	andne	r8, lr, r0, asr #16
    48c0:	135d0140 	cmpne	sp, #16
    48c4:	0012e801 	andseq	lr, r2, r1, lsl #16
    48c8:	01700100 	cmneq	r0, r0, lsl #2
    48cc:	0000004c 	andeq	r0, r0, ip, asr #32
    48d0:	40100e88 	andsmi	r0, r0, r8, lsl #29
    48d4:	40100eec 	andsmi	r0, r0, ip, ror #29
    48d8:	1fa45d01 	svcne	0x00a45d01
    48dc:	2d140000 	ldccs	0, cr0, [r4]
    48e0:	01000000 	tsteq	r0, r0
    48e4:	001fa470 	andseq	sl, pc, r0, ror r4
    48e8:	0002e600 	andeq	lr, r2, r0, lsl #12
    48ec:	04150000 	ldreq	r0, [r5]
    48f0:	0000007e 	andeq	r0, r0, lr, ror r0
    48f4:	12c20113 	sbcne	r0, r2, #-1073741820	; 0xc0000004
    48f8:	8a010000 	bhi	44900 <__resume0_start+0x44900>
    48fc:	00004c01 	andeq	r4, r0, r1, lsl #24
    4900:	100eec00 	andne	lr, lr, r0, lsl #24
    4904:	100f4840 	andne	r4, pc, r0, asr #16
    4908:	d55d0140 	ldrble	r0, [sp, #-320]	; 0x140
    490c:	1400001f 	strne	r0, [r0], #-31
    4910:	0000002d 	andeq	r0, r0, sp, lsr #32
    4914:	1fa48a01 	svcne	0x00a48a01
    4918:	03040000 	movweq	r0, #16384	; 0x4000
    491c:	13000000 	movwne	r0, #0
    4920:	0012ab01 	andseq	sl, r2, r1, lsl #22
    4924:	01a60100 	undefined instruction 0x01a60100
    4928:	0000004c 	andeq	r0, r0, ip, asr #32
    492c:	40100f48 	andsmi	r0, r0, r8, asr #30
    4930:	40100fa8 	andsmi	r0, r0, r8, lsr #31
    4934:	20005d01 	andcs	r5, r0, r1, lsl #26
    4938:	dd140000 	ldcle	0, cr0, [r4]
    493c:	01000012 	tsteq	r0, r2, lsl r0
    4940:	002000a6 	eoreq	r0, r0, r6, lsr #1
    4944:	00032200 	andeq	r2, r3, r0, lsl #4
    4948:	04150000 	ldreq	r0, [r5]
    494c:	000000e0 	andeq	r0, r0, r0, ror #1
    4950:	12d10113 	sbcsne	r0, r1, #-1073741820	; 0xc0000004
    4954:	c0010000 	andgt	r0, r1, r0
    4958:	00004c01 	andeq	r4, r0, r1, lsl #24
    495c:	100fa800 	andne	sl, pc, r0, lsl #16
    4960:	100ff840 	andne	pc, pc, r0, asr #16
    4964:	315d0140 	cmpcc	sp, r0, asr #2
    4968:	14000020 	strne	r0, [r0], #-32
    496c:	000012dd 	ldrdeq	r1, [r0], -sp
    4970:	2000c001 	andcs	ip, r0, r1
    4974:	03400000 	movteq	r0, #0
    4978:	16000000 	strne	r0, [r0], -r0
    497c:	00132501 	andseq	r2, r3, r1, lsl #10
    4980:	01da0100 	bicseq	r0, sl, r0, lsl #2
    4984:	40100ff8 	undefined instruction 0x40100ff8
    4988:	40101028 	andsmi	r1, r0, r8, lsr #32
    498c:	20565d01 	subscs	r5, r6, r1, lsl #26
    4990:	f7170000 	undefined instruction 0xf7170000
    4994:	01000012 	tsteq	r0, r2, lsl r0
    4998:	000057da 	ldrdeq	r5, [r0], -sl
    499c:	00500100 	subseq	r0, r0, r0, lsl #2
    49a0:	000fea18 	andeq	lr, pc, r8, lsl sl
    49a4:	67160100 	ldrvs	r0, [r6, -r0, lsl #2]
    49a8:	05000020 	streq	r0, [r0, #-32]
    49ac:	105f9803 	subsne	r9, pc, r3, lsl #16
    49b0:	28041540 	stmdacs	r4, {r6, r8, sl, ip}
    49b4:	1900001f 	stmdbne	r0, {r0, r1, r2, r3, r4}
    49b8:	00001338 	andeq	r1, r0, r8, lsr r3
    49bc:	005e1701 	subseq	r1, lr, r1, lsl #14
    49c0:	05010000 	streq	r0, [r1]
    49c4:	105fac03 	subsne	sl, pc, r3, lsl #24
    49c8:	05c00040 	strbeq	r0, [r0, #64]	; 0x40
    49cc:	00020000 	andeq	r0, r2, r0
    49d0:	00000584 	andeq	r0, r0, r4, lsl #11
    49d4:	00550104 	subseq	r0, r5, r4, lsl #2
    49d8:	78010000 	stmdavc	r1, {}
    49dc:	48000013 	stmdami	r0, {r0, r1, r4}
    49e0:	80000002 	andhi	r0, r0, r2
    49e4:	04401050 	strbeq	r1, [r0], #-80	; 0x50
    49e8:	6b401054 	blvs	1008b40 <__resume0_start+0x1008b40>
    49ec:	02000005 	andeq	r0, r0, #5
    49f0:	01690601 	cmneq	r9, r1, lsl #12
    49f4:	01020000 	tsteq	r2, r0
    49f8:	00016708 	andeq	r6, r1, r8, lsl #14
    49fc:	05020200 	streq	r0, [r2, #-512]	; 0x200
    4a00:	00000061 	andeq	r0, r0, r1, rrx
    4a04:	18070202 	stmdane	r7, {r1, r9}
    4a08:	03000002 	movweq	r0, #2
    4a0c:	000001bd 	undefined instruction 0x000001bd
    4a10:	004c1203 	subeq	r1, ip, r3, lsl #4
    4a14:	04040000 	streq	r0, [r4]
    4a18:	746e6905 	strbtvc	r6, [lr], #-2309	; 0x905
    4a1c:	00d20300 	sbcseq	r0, r2, r0, lsl #6
    4a20:	13030000 	movwne	r0, #12288	; 0x3000
    4a24:	0000005e 	andeq	r0, r0, lr, asr r0
    4a28:	f4070402 	vst3.8	{d0-d2}, [r7], r2
    4a2c:	02000001 	andeq	r0, r0, #1
    4a30:	00f50508 	rscseq	r0, r5, r8, lsl #10
    4a34:	08020000 	stmdaeq	r2, {}
    4a38:	0001ea07 	andeq	lr, r1, r7, lsl #20
    4a3c:	07040500 	streq	r0, [r4, -r0, lsl #10]
    4a40:	151f0106 	ldrne	r0, [pc, #-262]	; 4942 <__resume0_start+0x4942>
    4a44:	54010000 	strpl	r0, [r1]
    4a48:	00005301 	andeq	r5, r0, r1, lsl #6
    4a4c:	00940100 	addseq	r0, r4, r0, lsl #2
    4a50:	36070000 	strcc	r0, [r7], -r0
    4a54:	01000016 	tsteq	r0, r6, lsl r0
    4a58:	00005356 	andeq	r5, r0, r6, asr r3
    4a5c:	8f080000 	svchi	0x00080000
    4a60:	02000015 	andeq	r0, r0, #21
    4a64:	00530148 	subseq	r0, r3, r8, asr #2
    4a68:	dd030000 	stcle	0, cr0, [r3]
    4a6c:	09000000 	stmdbeq	r0, {}
    4a70:	000014e3 	andeq	r1, r0, r3, ror #9
    4a74:	00534802 	subseq	r4, r3, r2, lsl #16
    4a78:	30090000 	andcc	r0, r9, r0
    4a7c:	02000014 	andeq	r0, r0, #20
    4a80:	00005348 	andeq	r5, r0, r8, asr #6
    4a84:	15780700 	ldrbne	r0, [r8, #-1792]!	; 0x700
    4a88:	4a020000 	bmi	84a90 <__resume0_start+0x84a90>
    4a8c:	00000053 	andeq	r0, r0, r3, asr r0
    4a90:	00136707 	andseq	r6, r3, r7, lsl #14
    4a94:	534b0200 	movtpl	r0, #45568	; 0xb200
    4a98:	07000000 	streq	r0, [r0, -r0]
    4a9c:	00001488 	andeq	r1, r0, r8, lsl #9
    4aa0:	00414c02 	subeq	r4, r1, r2, lsl #24
    4aa4:	0a000000 	beq	4aac <__resume0_start+0x4aac>
    4aa8:	00149c01 	andseq	r9, r4, r1, lsl #24
    4aac:	01120100 	tsteq	r2, r0, lsl #2
    4ab0:	40105080 	andsmi	r5, r0, r0, lsl #1
    4ab4:	401050a0 	andsmi	r5, r0, r0, lsr #1
    4ab8:	0000035e 	andeq	r0, r0, lr, asr r3
    4abc:	00000106 	andeq	r0, r0, r6, lsl #2
    4ac0:	0013d90b 	andseq	sp, r3, fp, lsl #18
    4ac4:	06150100 	ldreq	r0, [r5], -r0, lsl #2
    4ac8:	7d000001 	stcvc	0, cr0, [r0, #-4]
    4acc:	00000003 	andeq	r0, r0, r3
    4ad0:	0000530c 	andeq	r5, r0, ip, lsl #6
    4ad4:	97010a00 	strls	r0, [r1, -r0, lsl #20]
    4ad8:	01000014 	tsteq	r0, r4, lsl r0
    4adc:	50a0011c 	adcpl	r0, r0, ip, lsl r1
    4ae0:	50c04010 	sbcpl	r4, r0, r0, lsl r0
    4ae4:	039d4010 	orrseq	r4, sp, #16
    4ae8:	01340000 	teqeq	r4, r0
    4aec:	d90b0000 	stmdble	fp, {}
    4af0:	01000013 	tsteq	r0, r3, lsl r0
    4af4:	0001061f 	andeq	r0, r1, pc, lsl r6
    4af8:	0003bc00 	andeq	fp, r3, r0, lsl #24
    4afc:	010d0000 	tsteq	sp, r0
    4b00:	00001458 	andeq	r1, r0, r8, asr r4
    4b04:	c0012a01 	andgt	r2, r1, r1, lsl #20
    4b08:	d8401050 	stmdale	r0, {r4, r6, ip}^
    4b0c:	01401050 	qdaddeq	r1, r0, r0
    4b10:	0001595d 	andeq	r5, r1, sp, asr r9
    4b14:	156d0e00 	strbne	r0, [sp, #-3584]!	; 0xe00
    4b18:	2c010000 	stccs	0, cr0, [r1], {0}
    4b1c:	00000053 	andeq	r0, r0, r3, asr r0
    4b20:	0a005201 	beq	1932c <__resume0_start+0x1932c>
    4b24:	00157f01 	andseq	r7, r5, r1, lsl #30
    4b28:	01330100 	teqeq	r3, r0, lsl #2
    4b2c:	401050d8 	ldrsbmi	r5, [r0], -r8
    4b30:	401050e8 	andsmi	r5, r0, r8, ror #1
    4b34:	000003dc 	ldrdeq	r0, [r0], -ip
    4b38:	00000180 	andeq	r0, r0, r0, lsl #3
    4b3c:	6c61760f 	stclvs	6, cr7, [r1], #-60	; 0xffffffc4
    4b40:	06330100 	ldrteq	r0, [r3], -r0, lsl #2
    4b44:	01000001 	tsteq	r0, r1
    4b48:	01100050 	tsteq	r0, r0, asr r0
    4b4c:	000014ec 	andeq	r1, r0, ip, ror #9
    4b50:	53013901 	movwpl	r3, #6401	; 0x1901
    4b54:	e8000000 	stmda	r0, {}
    4b58:	f8401050 	undefined instruction 0xf8401050
    4b5c:	01401050 	qdaddeq	r1, r0, r0
    4b60:	12010a5d 	andne	r0, r1, #380928	; 0x5d000
    4b64:	01000014 	tsteq	r0, r4, lsl r0
    4b68:	50f8013e 	rscspl	r0, r8, lr, lsr r1
    4b6c:	51084010 	tstpl	r8, r0, lsl r0
    4b70:	03fb4010 	mvnseq	r4, #16
    4b74:	01be0000 	undefined instruction 0x01be0000
    4b78:	760f0000 	strvc	r0, [pc], -r0
    4b7c:	01006c61 	tsteq	r0, r1, ror #24
    4b80:	0001063e 	andeq	r0, r1, lr, lsr r6
    4b84:	00500100 	subseq	r0, r0, r0, lsl #2
    4b88:	13880111 	orrne	r0, r8, #1073741828	; 0x40000004
    4b8c:	44010000 	strmi	r0, [r1]
    4b90:	00005301 	andeq	r5, r0, r1, lsl #6
    4b94:	10510800 	subsne	r0, r1, r0, lsl #16
    4b98:	10512c40 	subsne	r2, r1, r0, asr #24
    4b9c:	00041a40 	andeq	r1, r4, r0, asr #20
    4ba0:	0001fa00 	andeq	pc, r1, r0, lsl #20
    4ba4:	61761200 	cmnvs	r6, r0, lsl #4
    4ba8:	4401006c 	strmi	r0, [r1], #-108	; 0x6c
    4bac:	00000106 	andeq	r0, r0, r6, lsl #2
    4bb0:	00000439 	andeq	r0, r0, r9, lsr r4
    4bb4:	706d7413 	rsbvc	r7, sp, r3, lsl r4
    4bb8:	53460100 	movtpl	r0, #24832	; 0x6100
    4bbc:	58000000 	stmdapl	r0, {}
    4bc0:	00000004 	andeq	r0, r0, r4
    4bc4:	15030111 	strne	r0, [r3, #-273]	; 0x111
    4bc8:	4c010000 	stcmi	0, cr0, [r1], {0}
    4bcc:	00005301 	andeq	r5, r0, r1, lsl #6
    4bd0:	10512c00 	subsne	r2, r1, r0, lsl #24
    4bd4:	10515040 	subsne	r5, r1, r0, asr #32
    4bd8:	00046b40 	andeq	r6, r4, r0, asr #22
    4bdc:	00023600 	andeq	r3, r2, r0, lsl #12
    4be0:	61761200 	cmnvs	r6, r0, lsl #4
    4be4:	4c01006c 	stcmi	0, cr0, [r1], {108}	; 0x6c
    4be8:	00000106 	andeq	r0, r0, r6, lsl #2
    4bec:	0000048a 	andeq	r0, r0, sl, lsl #9
    4bf0:	706d7413 	rsbvc	r7, sp, r3, lsl r4
    4bf4:	534e0100 	movtpl	r0, #57600	; 0xe100
    4bf8:	a9000000 	stmdbge	r0, {}
    4bfc:	00000004 	andeq	r0, r0, r4
    4c00:	00007614 	andeq	r7, r0, r4, lsl r6
    4c04:	10515000 	subsne	r5, r1, r0
    4c08:	10515840 	subsne	r5, r1, r0, asr #16
    4c0c:	535d0140 	cmppl	sp, #16
    4c10:	15000002 	strne	r0, [r0, #-2]
    4c14:	00000088 	andeq	r0, r0, r8, lsl #1
    4c18:	000004bc 	undefined instruction 0x000004bc
    4c1c:	6e011600 	cfmadd32vs	mvax0, mvfx1, mvfx1, mvfx0
    4c20:	01000014 	tsteq	r0, r4, lsl r0
    4c24:	5158015c 	cmppl	r8, ip, asr r1
    4c28:	51744010 	cmnpl	r4, r0, lsl r0
    4c2c:	5d014010 	stcpl	0, cr4, [r1, #-64]	; 0xffffffc0
    4c30:	1537010d 	ldrne	r0, [r7, #-269]!	; 0x10d
    4c34:	66010000 	strvs	r0, [r1], -r0
    4c38:	10517401 	subsne	r7, r1, r1, lsl #8
    4c3c:	1051a040 	subsne	sl, r1, r0, asr #32
    4c40:	a95d0140 	ldmdbge	sp, {r6, r8}^
    4c44:	17000002 	strne	r0, [r0, -r2]
    4c48:	0000148e 	andeq	r1, r0, lr, lsl #9
    4c4c:	00536601 	subseq	r6, r3, r1, lsl #12
    4c50:	04cf0000 	strbeq	r0, [pc], #0	; 4c58 <__resume0_start+0x4c58>
    4c54:	f5180000 	undefined instruction 0xf5180000
    4c58:	01000013 	tsteq	r0, r3, lsl r0
    4c5c:	00005366 	andeq	r5, r0, r6, ror #6
    4c60:	0b510100 	bleq	1445068 <__resume0_start+0x1445068>
    4c64:	00001636 	andeq	r1, r0, r6, lsr r6
    4c68:	00536901 	subseq	r6, r3, r1, lsl #18
    4c6c:	04e20000 	strbteq	r0, [r2]
    4c70:	16000000 	strne	r0, [r0], -r0
    4c74:	0013c501 	andseq	ip, r3, r1, lsl #10
    4c78:	01840100 	orreq	r0, r4, r0, lsl #2
    4c7c:	401051a0 	andsmi	r5, r0, r0, lsr #3
    4c80:	401051c0 	andsmi	r5, r0, r0, asr #3
    4c84:	010d5d01 	tsteq	sp, r1, lsl #26
    4c88:	00001404 	andeq	r1, r0, r4, lsl #8
    4c8c:	c0018f01 	andgt	r8, r1, r1, lsl #30
    4c90:	d4401051 	strble	r1, [r0], #-81	; 0x51
    4c94:	01401051 	qdaddeq	r1, r1, r0
    4c98:	0002df5d 	andeq	sp, r2, sp, asr pc
    4c9c:	16360700 	ldrtne	r0, [r6], -r0, lsl #14
    4ca0:	91010000 	tstls	r1, r0
    4ca4:	00000053 	andeq	r0, r0, r3, asr r0
    4ca8:	b2010a00 	andlt	r0, r1, #0
    4cac:	01000013 	tsteq	r0, r3, lsl r0
    4cb0:	51d4019a 	ldrbpl	r0, [r4, #26]
    4cb4:	52f84010 	rscspl	r4, r8, #16
    4cb8:	04f54010 	ldrbteq	r4, [r5], #16
    4cbc:	03e60000 	mvneq	r0, #0
    4cc0:	d2170000 	andsle	r0, r7, #0
    4cc4:	01000014 	tsteq	r0, r4, lsl r0
    4cc8:	0000539a 	muleq	r0, sl, r3
    4ccc:	00051400 	andeq	r1, r5, r0, lsl #8
    4cd0:	155b0700 	ldrbne	r0, [fp, #-1792]	; 0x700
    4cd4:	9c010000 	stcls	0, cr0, [r1], {0}
    4cd8:	00000053 	andeq	r0, r0, r3, asr r0
    4cdc:	00154907 	andseq	r4, r5, r7, lsl #18
    4ce0:	539d0100 	orrspl	r0, sp, #0
    4ce4:	07000000 	streq	r0, [r0, -r0]
    4ce8:	00001552 	andeq	r1, r0, r2, asr r5
    4cec:	00539e01 	subseq	r9, r3, r1, lsl #28
    4cf0:	64070000 	strvs	r0, [r7]
    4cf4:	01000015 	tsteq	r0, r5, lsl r0
    4cf8:	0000539f 	muleq	r0, pc, r3
    4cfc:	02c70b00 	sbceq	r0, r7, #0
    4d00:	a0010000 	andge	r0, r1, r0
    4d04:	00000053 	andeq	r0, r0, r3, asr r0
    4d08:	00000532 	andeq	r0, r0, r2, lsr r5
    4d0c:	0014660b 	andseq	r6, r4, fp, lsl #12
    4d10:	53a10100 	undefined instruction 0x53a10100
    4d14:	45000000 	strmi	r0, [r0]
    4d18:	0b000005 	bleq	4d34 <__resume0_start+0x4d34>
    4d1c:	000014fb 	strdeq	r1, [r0], -fp
    4d20:	0106a201 	tsteq	r6, r1, lsl #4
    4d24:	05630000 	strbeq	r0, [r3]!
    4d28:	76190000 	ldrvc	r0, [r9], -r0
    4d2c:	f0000000 	undefined instruction 0xf0000000
    4d30:	f4401051 	vst4.16	{d17-d20}, [r0, :64], r1
    4d34:	01401051 	qdaddeq	r1, r1, r0
    4d38:	000383ac 	andeq	r8, r3, ip, lsr #7
    4d3c:	51f01a00 	mvnspl	r1, r0, lsl #20
    4d40:	51f44010 	mvnspl	r4, r0, lsl r0
    4d44:	881b4010 	ldmdahi	fp, {r4, lr}
    4d48:	00000000 	andeq	r0, r0, r0
    4d4c:	00761900 	rsbseq	r1, r6, r0, lsl #18
    4d50:	51f40000 	mvnspl	r0, r0
    4d54:	51f84010 	mvnspl	r4, r0, lsl r0
    4d58:	ad014010 	stcge	0, cr4, [r1, #-64]	; 0xffffffc0
    4d5c:	000003aa 	andeq	r0, r0, sl, lsr #7
    4d60:	1051f41a 	subsne	pc, r1, sl, lsl r4
    4d64:	1051f840 	subsne	pc, r1, r0, asr #16
    4d68:	00881540 	addeq	r1, r8, r0, asr #10
    4d6c:	05bd0000 	ldreq	r0, [sp]!
    4d70:	00000000 	andeq	r0, r0, r0
    4d74:	0000941c 	andeq	r9, r0, ip, lsl r4
    4d78:	10528400 	subsne	r8, r2, r0, lsl #8
    4d7c:	00000040 	andeq	r0, r0, r0, asr #32
    4d80:	1dc50100 	stfnee	f0, [r5]
    4d84:	000000b0 	strheq	r0, [r0], -r0
    4d88:	0000a51e 	andeq	sl, r0, lr, lsl r5
    4d8c:	1f500100 	svcne	0x00500100
    4d90:	00000018 	andeq	r0, r0, r8, lsl r0
    4d94:	0000bb20 	andeq	fp, r0, r0, lsr #22
    4d98:	15520100 	ldrbne	r0, [r2, #-256]	; 0x100
    4d9c:	000000c6 	andeq	r0, r0, r6, asr #1
    4da0:	000005db 	ldrdeq	r0, [r0], -fp
    4da4:	0000d115 	andeq	sp, r0, r5, lsl r1
    4da8:	00060400 	andeq	r0, r6, r0, lsl #8
    4dac:	00000000 	andeq	r0, r0, r0
    4db0:	13e3010a 	mvnne	r0, #-2147483646	; 0x80000002
    4db4:	cf010000 	svcgt	0x00010000
    4db8:	1052f801 	subsne	pc, r2, r1, lsl #16
    4dbc:	10537c40 	subsne	r7, r3, r0, asr #24
    4dc0:	00061740 	andeq	r1, r6, r0, asr #14
    4dc4:	0004ba00 	andeq	fp, r4, r0, lsl #20
    4dc8:	73750f00 	cmnvc	r5, #0
    4dcc:	53cf0100 	bicpl	r0, pc, #0
    4dd0:	01000000 	tsteq	r0, r0
    4dd4:	14810750 	strne	r0, [r1], #1872	; 0x750
    4dd8:	d1010000 	tstle	r1, r0
    4ddc:	00000053 	andeq	r0, r0, r3, asr r0
    4de0:	72756313 	rsbsvc	r6, r5, #1275068416	; 0x4c000000
    4de4:	53d20100 	bicspl	r0, r2, #0
    4de8:	36000000 	strcc	r0, [r0], -r0
    4dec:	0e000006 	cdpeq	0, 0, cr0, cr0, cr6, {0}
    4df0:	0000139e 	muleq	r0, lr, r3
    4df4:	0053d301 	subseq	sp, r3, r1, lsl #6
    4df8:	51010000 	tstpl	r1, r0
    4dfc:	00009419 	andeq	r9, r0, r9, lsl r4
    4e00:	10531400 	subsne	r1, r3, r0, lsl #8
    4e04:	10534840 	subsne	r4, r3, r0, asr #16
    4e08:	77d80140 	ldrbvc	r0, [r8, r0, asr #2]
    4e0c:	1d000004 	stcne	0, cr0, [r0, #-16]
    4e10:	000000b0 	strheq	r0, [r0], -r0
    4e14:	0000a51e 	andeq	sl, r0, lr, lsl r5
    4e18:	1a5c0100 	bne	1705220 <__resume0_start+0x1705220>
    4e1c:	40105314 	andsmi	r5, r0, r4, lsl r3
    4e20:	40105348 	andsmi	r5, r0, r8, asr #6
    4e24:	0000bb15 	andeq	fp, r0, r5, lsl fp
    4e28:	00065400 	andeq	r5, r6, r0, lsl #8
    4e2c:	00c61500 	sbceq	r1, r6, r0, lsl #10
    4e30:	06670000 	strbteq	r0, [r7], -r0
    4e34:	d1150000 	tstle	r5, r0
    4e38:	9b000000 	blls	4e40 <__resume0_start+0x4e40>
    4e3c:	00000006 	andeq	r0, r0, r6
    4e40:	00761900 	rsbseq	r1, r6, r0, lsl #18
    4e44:	53480000 	movtpl	r0, #32768	; 0x8000
    4e48:	534c4010 	movtpl	r4, #49168	; 0xc010
    4e4c:	de014010 	mcrle	0, 0, r4, cr1, cr0, {0}
    4e50:	0000049a 	muleq	r0, sl, r4
    4e54:	1053481a 	subsne	r4, r3, sl, lsl r8
    4e58:	10534c40 	subsne	r4, r3, r0, asr #24
    4e5c:	00881b40 	addeq	r1, r8, r0, asr #22
    4e60:	00000000 	andeq	r0, r0, r0
    4e64:	00007621 	andeq	r7, r0, r1, lsr #12
    4e68:	10536400 	subsne	r6, r3, r0, lsl #8
    4e6c:	10536840 	subsne	r6, r3, r0, asr #16
    4e70:	1ae30140 	bne	ff8c5378 <__bss_end+0xbf7bf3c8>
    4e74:	40105364 	andsmi	r5, r0, r4, ror #6
    4e78:	40105368 	andsmi	r5, r0, r8, ror #6
    4e7c:	0000881b 	andeq	r8, r0, fp, lsl r8
    4e80:	00000000 	andeq	r0, r0, r0
    4e84:	136f0122 	cmnne	pc, #-2147483640	; 0x80000008
    4e88:	06010000 	streq	r0, [r1], -r0
    4e8c:	537c0101 	cmnpl	ip, #1073741824	; 0x40000000
    4e90:	53884010 	orrpl	r4, r8, #16
    4e94:	5d014010 	stcpl	0, cr4, [r1, #-64]	; 0xffffffc0
    4e98:	000004e2 	andeq	r0, r0, r2, ror #9
    4e9c:	00736d23 	rsbseq	r6, r3, r3, lsr #26
    4ea0:	53010601 	movwpl	r0, #5633	; 0x1601
    4ea4:	ae000000 	cdpge	0, 0, cr0, cr0, cr0, {0}
    4ea8:	00000006 	andeq	r0, r0, r6
    4eac:	14db0124 	ldrbne	r0, [fp], #292	; 0x124
    4eb0:	10010000 	andne	r0, r1, r0
    4eb4:	53880101 	orrpl	r0, r8, #1073741824	; 0x40000000
    4eb8:	53a04010 	movpl	r4, #16
    4ebc:	5d014010 	stcpl	0, cr4, [r1, #-64]	; 0xffffffc0
    4ec0:	13a50122 	undefined instruction 0x13a50122
    4ec4:	18010000 	stmdane	r1, {}
    4ec8:	53a00101 	movpl	r0, #1073741824	; 0x40000000
    4ecc:	53b84010 	undefined instruction 0x53b84010
    4ed0:	5d014010 	stcpl	0, cr4, [r1, #-64]	; 0xffffffc0
    4ed4:	0000051d 	andeq	r0, r0, sp, lsl r5
    4ed8:	00076325 	andeq	r6, r7, r5, lsr #6
    4edc:	011a0100 	tsteq	sl, r0, lsl #2
    4ee0:	00000053 	andeq	r0, r0, r3, asr r0
    4ee4:	22005201 	andcs	r5, r0, #268435456	; 0x10000000
    4ee8:	0014c601 	andseq	ip, r4, r1, lsl #12
    4eec:	01240100 	teqeq	r4, r0, lsl #2
    4ef0:	1053b801 	subsne	fp, r3, r1, lsl #16
    4ef4:	1053d040 	subsne	sp, r3, r0, asr #32
    4ef8:	445d0140 	ldrbmi	r0, [sp], #-320	; 0x140
    4efc:	25000005 	strcs	r0, [r0, #-5]
    4f00:	00000763 	andeq	r0, r0, r3, ror #14
    4f04:	53012601 	movwpl	r2, #5633	; 0x1601
    4f08:	01000000 	tsteq	r0, r0
    4f0c:	01260052 	qsubeq	r0, r2, r6
    4f10:	00001428 	andeq	r1, r0, r8, lsr #8
    4f14:	01013301 	tsteq	r1, r1, lsl #6
    4f18:	401053d0 	undefined instruction 0x401053d0
    4f1c:	40105404 	andsmi	r5, r0, r4, lsl #8
    4f20:	000006c1 	andeq	r0, r0, r1, asr #13
    4f24:	0000057f 	andeq	r0, r0, pc, ror r5
    4f28:	6d756e23 	ldclvs	14, cr6, [r5, #-140]!	; 0xffffff74
    4f2c:	01330100 	teqeq	r3, r0, lsl #2
    4f30:	0000004c 	andeq	r0, r0, ip, asr #32
    4f34:	000006e0 	andeq	r0, r0, r0, ror #13
    4f38:	00076327 	andeq	r6, r7, r7, lsr #6
    4f3c:	01350100 	teqeq	r5, r0, lsl #2
    4f40:	00000053 	andeq	r0, r0, r3, asr r0
    4f44:	000006f3 	strdeq	r0, [r0], -r3
    4f48:	152e0e00 	strne	r0, [lr, #-3584]!	; 0xe00
    4f4c:	04010000 	streq	r0, [r1]
    4f50:	00000053 	andeq	r0, r0, r3, asr r0
    4f54:	5fa80305 	svcpl	0x00a80305
    4f58:	ec0e4010 	stc	0, cr4, [lr], {16}
    4f5c:	01000013 	tsteq	r0, r3, lsl r0
    4f60:	00005305 	andeq	r5, r0, r5, lsl #6
    4f64:	a4030500 	strge	r0, [r3], #-1280	; 0x500
    4f68:	0e40105f 	mcreq	0, 2, r1, cr0, cr15, {2}
    4f6c:	000014a9 	andeq	r1, r0, r9, lsr #9
    4f70:	00530601 	subseq	r0, r3, r1, lsl #12
    4f74:	03050000 	movweq	r0, #20480	; 0x5000
    4f78:	40105f9c 	mulsmi	r0, ip, pc
    4f7c:	0014390e 	andseq	r3, r4, lr, lsl #18
    4f80:	53070100 	movwpl	r0, #28928	; 0x7100
    4f84:	05000000 	streq	r0, [r0]
    4f88:	105fa003 	subsne	sl, pc, r3
    4f8c:	00730040 	rsbseq	r0, r3, r0, asr #32
    4f90:	00020000 	andeq	r0, r2, r0
    4f94:	000007d0 	ldrdeq	r0, [r0], -r0
    4f98:	06880104 	streq	r0, [r8], r4, lsl #2
    4f9c:	54100000 	ldrpl	r0, [r0]
    4fa0:	55604010 	strbpl	r4, [r0, #-16]!
    4fa4:	2f2e4010 	svccs	0x002e4010
    4fa8:	6d2f2e2e 	stcvs	14, cr2, [pc, #-184]!	; 0xffffff48
    4fac:	6d5f6d65 	ldclvs	13, cr6, [pc, #-404]	; 0xfffffe6c
    4fb0:	705f756d 	subsvc	r7, pc, sp, ror #10
    4fb4:	73615f63 	cmnvc	r1, #396	; 0x18c
    4fb8:	00532e6d 	subseq	r2, r3, sp, ror #28
    4fbc:	6d6f682f 	stclvs	8, cr6, [pc, #-188]!	; 0xffffff44
    4fc0:	696d2f65 	stmdbvs	sp!, {r0, r2, r5, r6, r8, r9, sl, fp, sp}^
    4fc4:	772f656b 	strvc	r6, [pc, -fp, ror #10]!
    4fc8:	2f6b726f 	svccs	0x006b726f
    4fcc:	756e696c 	strbvc	r6, [lr, #-2412]!	; 0x96c
    4fd0:	32365f78 	eorscc	r5, r6, #480	; 0x1e0
    4fd4:	72612f34 	rsbvc	r2, r1, #208	; 0xd0
    4fd8:	612f6863 	teqvs	pc, r3, ror #16
    4fdc:	6d2f6d72 	stcvs	13, cr6, [pc, #-456]!	; 0xfffffe38
    4fe0:	2d686361 	stclcs	3, cr6, [r8, #-388]!	; 0xfffffe7c
    4fe4:	356e7573 	strbcc	r7, [lr, #-1395]!	; 0x573
    4fe8:	6d702f69 	ldclvs	15, cr2, [r0, #-420]!	; 0xfffffe5c
    4fec:	6174732f 	cmnvs	r4, pc, lsr #6
    4ff0:	7962646e 	stmdbvc	r2!, {r1, r2, r3, r5, r6, sl, sp, lr}^
    4ff4:	554e4700 	strbpl	r4, [lr, #-1792]	; 0x700
    4ff8:	20534120 	subscs	r4, r3, r0, lsr #2
    4ffc:	30322e32 	eorscc	r2, r2, r2, lsr lr
    5000:	0100312e 	tsteq	r0, lr, lsr #2
    5004:	0004cb80 	andeq	ip, r4, r0, lsl #23
    5008:	e4000200 	str	r0, [r0], #-512	; 0x200
    500c:	04000007 	streq	r0, [r0], #-7
    5010:	00005501 	andeq	r5, r0, r1, lsl #10
    5014:	15e60100 	strbne	r0, [r6, #256]!	; 0x100
    5018:	02480000 	subeq	r0, r8, #0
    501c:	55600000 	strbpl	r0, [r0]!
    5020:	5f784010 	svcpl	0x00784010
    5024:	07124010 	undefined instruction 0x07124010
    5028:	01020000 	tsteq	r2, r0
    502c:	00016906 	andeq	r6, r1, r6, lsl #18
    5030:	08010200 	stmdaeq	r1, {r9}
    5034:	00000167 	andeq	r0, r0, r7, ror #2
    5038:	61050202 	tstvs	r5, r2, lsl #4
    503c:	02000000 	andeq	r0, r0, #0
    5040:	02180702 	andseq	r0, r8, #524288	; 0x80000
    5044:	04030000 	streq	r0, [r3]
    5048:	746e6905 	strbtvc	r6, [lr], #-2309	; 0x905
    504c:	00d20400 	sbcseq	r0, r2, r0, lsl #8
    5050:	13030000 	movwne	r0, #12288	; 0x3000
    5054:	00000053 	andeq	r0, r0, r3, asr r0
    5058:	f4070402 	vst3.8	{d0-d2}, [r7], r2
    505c:	02000001 	andeq	r0, r0, #1
    5060:	00f50508 	rscseq	r0, r5, r8, lsl #10
    5064:	08020000 	stmdaeq	r2, {}
    5068:	0001ea07 	andeq	lr, r1, r7, lsl #20
    506c:	07040500 	streq	r0, [r4, -r0, lsl #10]
    5070:	00015906 	andeq	r5, r1, r6, lsl #18
    5074:	1b02c400 	blne	b607c <__resume0_start+0xb607c>
    5078:	00000336 	andeq	r0, r0, r6, lsr r3
    507c:	00009407 	andeq	r9, r0, r7, lsl #8
    5080:	48200200 	stmdami	r0!, {r9}
    5084:	02000000 	andeq	r0, r0, #0
    5088:	63080023 	movwvs	r0, #32803	; 0x8023
    508c:	23020072 	movwcs	r0, #8306	; 0x2072
    5090:	00000048 	andeq	r0, r0, r8, asr #32
    5094:	08042302 	stmdaeq	r4, {r1, r8, r9, sp}
    5098:	00726361 	rsbseq	r6, r2, r1, ror #6
    509c:	00482402 	subeq	r2, r8, r2, lsl #8
    50a0:	23020000 	movwcs	r0, #8192	; 0x2000
    50a4:	03320708 	teqeq	r2, #2097152	; 0x200000
    50a8:	25020000 	strcs	r0, [r2]
    50ac:	00000048 	andeq	r0, r0, r8, asr #32
    50b0:	070c2302 	streq	r2, [ip, -r2, lsl #6]
    50b4:	00000026 	andeq	r0, r0, r6, lsr #32
    50b8:	00482602 	subeq	r2, r8, r2, lsl #12
    50bc:	23020000 	movwcs	r0, #8192	; 0x2000
    50c0:	00a60710 	adceq	r0, r6, r0, lsl r7
    50c4:	27020000 	strcs	r0, [r2, -r0]
    50c8:	00000048 	andeq	r0, r0, r8, asr #32
    50cc:	07142302 	ldreq	r2, [r4, -r2, lsl #6]
    50d0:	00000233 	andeq	r0, r0, r3, lsr r2
    50d4:	00482802 	subeq	r2, r8, r2, lsl #16
    50d8:	23020000 	movwcs	r0, #8192	; 0x2000
    50dc:	01210718 	teqeq	r1, r8, lsl r7
    50e0:	32020000 	andcc	r0, r2, #0
    50e4:	00000048 	andeq	r0, r0, r8, asr #32
    50e8:	071c2302 	ldreq	r2, [ip, -r2, lsl #6]
    50ec:	000002cd 	andeq	r0, r0, sp, asr #5
    50f0:	00483302 	subeq	r3, r8, r2, lsl #6
    50f4:	23020000 	movwcs	r0, #8192	; 0x2000
    50f8:	02f50720 	rscseq	r0, r5, #8388608	; 0x800000
    50fc:	34020000 	strcc	r0, [r2]
    5100:	00000048 	andeq	r0, r0, r8, asr #32
    5104:	07242302 	streq	r2, [r4, -r2, lsl #6]!
    5108:	000000cd 	andeq	r0, r0, sp, asr #1
    510c:	00483602 	subeq	r3, r8, r2, lsl #12
    5110:	23020000 	movwcs	r0, #8192	; 0x2000
    5114:	004f0728 	subeq	r0, pc, r8, lsr #14
    5118:	38020000 	stmdacc	r2, {}
    511c:	00000048 	andeq	r0, r0, r8, asr #32
    5120:	072c2302 	streq	r2, [ip, -r2, lsl #6]!
    5124:	000002ea 	andeq	r0, r0, sl, ror #5
    5128:	00483902 	subeq	r3, r8, r2, lsl #18
    512c:	23020000 	movwcs	r0, #8192	; 0x2000
    5130:	01520730 	cmpeq	r2, r0, lsr r7
    5134:	3a020000 	bcc	8513c <__resume0_start+0x8513c>
    5138:	00000048 	andeq	r0, r0, r8, asr #32
    513c:	07342302 	ldreq	r2, [r4, -r2, lsl #6]!
    5140:	00000304 	andeq	r0, r0, r4, lsl #6
    5144:	00483b02 	subeq	r3, r8, r2, lsl #22
    5148:	23020000 	movwcs	r0, #8192	; 0x2000
    514c:	00d80738 	sbcseq	r0, r8, r8, lsr r7
    5150:	3d020000 	stccc	0, cr0, [r2]
    5154:	00000048 	andeq	r0, r0, r8, asr #32
    5158:	073c2302 	ldreq	r2, [ip, -r2, lsl #6]!
    515c:	00000018 	andeq	r0, r0, r8, lsl r0
    5160:	00483e02 	subeq	r3, r8, r2, lsl #28
    5164:	23020000 	movwcs	r0, #8192	; 0x2000
    5168:	61700840 	cmnvs	r0, r0, asr #16
    516c:	40020072 	andmi	r0, r2, r2, ror r0
    5170:	00000048 	andeq	r0, r0, r8, asr #32
    5174:	07442302 	strbeq	r2, [r4, -r2, lsl #6]
    5178:	0000029e 	muleq	r0, lr, r2
    517c:	00484202 	subeq	r4, r8, r2, lsl #4
    5180:	23020000 	movwcs	r0, #8192	; 0x2000
    5184:	02a90748 	adceq	r0, r9, #18874368	; 0x1200000
    5188:	43020000 	movwmi	r0, #8192	; 0x2000
    518c:	00000048 	andeq	r0, r0, r8, asr #32
    5190:	074c2302 	strbeq	r2, [ip, -r2, lsl #6]
    5194:	000001e5 	andeq	r0, r0, r5, ror #3
    5198:	00484402 	subeq	r4, r8, r2, lsl #8
    519c:	23020000 	movwcs	r0, #8192	; 0x2000
    51a0:	02990750 	addseq	r0, r9, #20971520	; 0x1400000
    51a4:	45020000 	strmi	r0, [r2]
    51a8:	00000048 	andeq	r0, r0, r8, asr #32
    51ac:	08542302 	ldmdaeq	r4, {r1, r8, r9, sp}^
    51b0:	00726973 	rsbseq	r6, r2, r3, ror r9
    51b4:	00484702 	subeq	r4, r8, r2, lsl #14
    51b8:	23020000 	movwcs	r0, #8192	; 0x2000
    51bc:	01280758 	teqeq	r8, r8, asr r7
    51c0:	49020000 	stmdbmi	r2, {}
    51c4:	00000048 	andeq	r0, r0, r8, asr #32
    51c8:	085c2302 	ldmdaeq	ip, {r1, r8, r9, sp}^
    51cc:	00726363 	rsbseq	r6, r2, r3, ror #6
    51d0:	00484a02 	subeq	r4, r8, r2, lsl #20
    51d4:	23020000 	movwcs	r0, #8192	; 0x2000
    51d8:	73650860 	cmnvc	r5, #6291456	; 0x600000
    51dc:	4b020072 	blmi	853ac <__resume0_start+0x853ac>
    51e0:	00000048 	andeq	r0, r0, r8, asr #32
    51e4:	07642302 	strbeq	r2, [r4, -r2, lsl #6]!
    51e8:	000002fb 	strdeq	r0, [r0], -fp
    51ec:	00484c02 	subeq	r4, r8, r2, lsl #24
    51f0:	23020000 	movwcs	r0, #8192	; 0x2000
    51f4:	65750868 	ldrbvs	r0, [r5, #-2152]!	; 0x868
    51f8:	4d020072 	stcmi	0, cr0, [r2, #-456]	; 0xfffffe38
    51fc:	00000048 	andeq	r0, r0, r8, asr #32
    5200:	076c2302 	strbeq	r2, [ip, -r2, lsl #6]!
    5204:	00000103 	andeq	r0, r0, r3, lsl #2
    5208:	00484e02 	subeq	r4, r8, r2, lsl #28
    520c:	23020000 	movwcs	r0, #8192	; 0x2000
    5210:	02010770 	andeq	r0, r1, #29360128	; 0x1c00000
    5214:	4f020000 	svcmi	0x00020000
    5218:	00000048 	andeq	r0, r0, r8, asr #32
    521c:	07742302 	ldrbeq	r2, [r4, -r2, lsl #6]!
    5220:	00000281 	andeq	r0, r0, r1, lsl #5
    5224:	00485102 	subeq	r5, r8, r2, lsl #2
    5228:	23020000 	movwcs	r0, #8192	; 0x2000
    522c:	00c10778 	sbceq	r0, r1, r8, ror r7
    5230:	52020000 	andpl	r0, r2, #0
    5234:	00000048 	andeq	r0, r0, r8, asr #32
    5238:	077c2302 	ldrbeq	r2, [ip, -r2, lsl #6]!
    523c:	00000287 	andeq	r0, r0, r7, lsl #5
    5240:	00485602 	subeq	r5, r8, r2, lsl #12
    5244:	23030000 	movwcs	r0, #12288	; 0x3000
    5248:	93070180 	movwls	r0, #29056	; 0x7180
    524c:	02000001 	andeq	r0, r0, #1
    5250:	00004858 	andeq	r4, r0, r8, asr r8
    5254:	84230300 	strthi	r0, [r3], #-768	; 0x300
    5258:	01750701 	cmneq	r5, r1, lsl #14
    525c:	5a020000 	bpl	85264 <__resume0_start+0x85264>
    5260:	00000048 	andeq	r0, r0, r8, asr #32
    5264:	01882303 	orreq	r2, r8, r3, lsl #6
    5268:	0002f007 	andeq	pc, r2, r7
    526c:	485b0200 	ldmdami	fp, {r9}^
    5270:	03000000 	movweq	r0, #0
    5274:	07018c23 	streq	r8, [r1, -r3, lsr #24]
    5278:	0000013f 	andeq	r0, r0, pc, lsr r1
    527c:	00485e02 	subeq	r5, r8, r2, lsl #28
    5280:	23030000 	movwcs	r0, #12288	; 0x3000
    5284:	24070190 	strcs	r0, [r7], #-400	; 0x190
    5288:	02000003 	andeq	r0, r0, #3
    528c:	0000485f 	andeq	r4, r0, pc, asr r8
    5290:	94230300 	strtls	r0, [r3], #-768	; 0x300
    5294:	01c30701 	biceq	r0, r3, r1, lsl #14
    5298:	60020000 	andvs	r0, r2, r0
    529c:	00000048 	andeq	r0, r0, r8, asr #32
    52a0:	01982303 	orrseq	r2, r8, r3, lsl #6
    52a4:	0000b907 	andeq	fp, r0, r7, lsl #18
    52a8:	48610200 	stmdami	r1!, {r9}^
    52ac:	03000000 	movweq	r0, #0
    52b0:	07019c23 	streq	r9, [r1, -r3, lsr #24]
    52b4:	000002e2 	andeq	r0, r0, r2, ror #5
    52b8:	00486202 	subeq	r6, r8, r2, lsl #4
    52bc:	23030000 	movwcs	r0, #12288	; 0x3000
    52c0:	2b0701a0 	blcs	1c5948 <__resume0_start+0x1c5948>
    52c4:	02000002 	andeq	r0, r0, #2
    52c8:	00004863 	andeq	r4, r0, r3, ror #16
    52cc:	a4230300 	strtge	r0, [r3], #-768	; 0x300
    52d0:	02060701 	andeq	r0, r6, #262144	; 0x40000
    52d4:	67020000 	strvs	r0, [r2, -r0]
    52d8:	00000048 	andeq	r0, r0, r8, asr #32
    52dc:	01a82303 	undefined instruction 0x01a82303
    52e0:	00007b07 	andeq	r7, r0, r7, lsl #22
    52e4:	48680200 	stmdami	r8!, {r9}^
    52e8:	03000000 	movweq	r0, #0
    52ec:	0701ac23 	streq	sl, [r1, -r3, lsr #24]
    52f0:	0000028f 	andeq	r0, r0, pc, lsl #5
    52f4:	00487002 	subeq	r7, r8, r2
    52f8:	23030000 	movwcs	r0, #12288	; 0x3000
    52fc:	630801b0 	movwvs	r0, #33200	; 0x81b0
    5300:	02006469 	andeq	r6, r0, #1761607680	; 0x69000000
    5304:	00004871 	andeq	r4, r0, r1, ror r8
    5308:	b4230300 	strtlt	r0, [r3], #-768	; 0x300
    530c:	019b0701 	orrseq	r0, fp, r1, lsl #14
    5310:	72020000 	andvc	r0, r2, #0
    5314:	00000048 	andeq	r0, r0, r8, asr #32
    5318:	01b82303 	undefined instruction 0x01b82303
    531c:	00024007 	andeq	r4, r2, r7
    5320:	48730200 	ldmdami	r3!, {r9}^
    5324:	03000000 	movweq	r0, #0
    5328:	0701bc23 	streq	fp, [r1, -r3, lsr #24]
    532c:	0000032b 	andeq	r0, r0, fp, lsr #6
    5330:	00487402 	subeq	r7, r8, r2, lsl #8
    5334:	23030000 	movwcs	r0, #12288	; 0x3000
    5338:	090001c0 	stmdbeq	r0, {r6, r7, r8}
    533c:	00161101 	andseq	r1, r6, r1, lsl #2
    5340:	014f0100 	cmpeq	pc, r0, lsl #2
    5344:	40105560 	andsmi	r5, r0, r0, ror #10
    5348:	40105b04 	andsmi	r5, r0, r4, lsl #22
    534c:	035b5d01 	cmpeq	fp, #64	; 0x40
    5350:	e10a0000 	tst	sl, r0
    5354:	01000015 	tsteq	r0, r5, lsl r0
    5358:	00035b4f 	andeq	r5, r3, pc, asr #22
    535c:	00500100 	subseq	r0, r0, r0, lsl #2
    5360:	006b040b 	rsbeq	r0, fp, fp, lsl #8
    5364:	01090000 	tsteq	r9, r0
    5368:	000015c7 	andeq	r1, r0, r7, asr #11
    536c:	0401c501 	streq	ip, [r1], #-1281	; 0x501
    5370:	8840105b 	stmdahi	r0, {r0, r1, r3, r4, r6, ip}^
    5374:	0140105e 	qdaddeq	r1, lr, r0
    5378:	0003865d 	andeq	r8, r3, sp, asr r6
    537c:	15e10a00 	strbne	r0, [r1, #2560]!	; 0xa00
    5380:	c5010000 	strgt	r0, [r1]
    5384:	0000035b 	andeq	r0, r0, fp, asr r3
    5388:	0c005001 	stceq	0, cr5, [r0], {1}
    538c:	0015f501 	andseq	pc, r5, r1, lsl #10
    5390:	012b0100 	teqeq	fp, r0, lsl #2
    5394:	105e8801 	subsne	r8, lr, r1, lsl #16
    5398:	105e8c40 	subsne	r8, lr, r0, asr #24
    539c:	ad5d0140 	ldfgee	f0, [sp, #-256]	; 0xffffff00
    53a0:	0d000003 	stceq	0, cr0, [r0, #-12]
    53a4:	000015e1 	andeq	r1, r0, r1, ror #11
    53a8:	5b012b01 	blpl	4ffb4 <__resume0_start+0x4ffb4>
    53ac:	01000003 	tsteq	r0, r3
    53b0:	010c0050 	qaddeq	r0, r0, ip
    53b4:	000015ae 	andeq	r1, r0, lr, lsr #11
    53b8:	01013001 	tsteq	r1, r1
    53bc:	40105e8c 	andsmi	r5, r0, ip, lsl #29
    53c0:	40105ea4 	andsmi	r5, r0, r4, lsr #29
    53c4:	03d45d01 	bicseq	r5, r4, #64	; 0x40
    53c8:	760e0000 	strvc	r0, [lr], -r0
    53cc:	01006c61 	tsteq	r0, r1, ror #24
    53d0:	00480133 	subeq	r0, r8, r3, lsr r1
    53d4:	52010000 	andpl	r0, r1, #0
    53d8:	9c010c00 	stcls	12, cr0, [r1], {0}
    53dc:	01000015 	tsteq	r0, r5, lsl r0
    53e0:	a401013b 	strge	r0, [r1], #-315	; 0x13b
    53e4:	7840105e 	stmdavc	r0, {r1, r2, r3, r4, r6, ip}^
    53e8:	0140105f 	qdaddeq	r1, pc, r0
    53ec:	0003f95d 	andeq	pc, r3, sp, asr r9
    53f0:	15e10f00 	strbne	r0, [r1, #3840]!	; 0xf00
    53f4:	3d010000 	stccc	0, cr0, [r1]
    53f8:	00035b01 	andeq	r5, r3, r1, lsl #22
    53fc:	28100000 	ldmdacs	r0, {}
    5400:	01000016 	tsteq	r0, r6, lsl r0
    5404:	0004c90f 	andeq	ip, r4, pc, lsl #18
    5408:	0002c400 	andeq	ip, r2, r0, lsl #8
    540c:	20780000 	rsbscs	r0, r8, r0
    5410:	000200c5 	andeq	r0, r2, r5, asr #1
	...
    5484:	00420000 	subeq	r0, r2, r0
	...
    5490:	8aa40000 	bhi	fe905498 <__bss_end+0xbe7ff4e8>
    5494:	48e00009 	stmiami	r0!, {r0, r3}^
    5498:	000044e0 	andeq	r4, r0, r0, ror #9
	...
    54cc:	6b110000 	blvs	4454d4 <__resume0_start+0x4454d4>
    54d0:	00000000 	andeq	r0, r0, r0

Disassembly of section .debug_line:

00000000 <.debug_line>:
   0:	000000a2 	andeq	r0, r0, r2, lsr #1
   4:	006c0002 	rsbeq	r0, ip, r2
   8:	01020000 	tsteq	r2, r0
   c:	000d0efb 	strdeq	r0, [sp], -fp
  10:	01010101 	tsteq	r1, r1, lsl #2
  14:	01000000 	tsteq	r0, r0
  18:	2e010000 	cdpcs	0, 0, cr0, cr1, cr0, {0}
  1c:	7075732f 	rsbsvc	r7, r5, pc, lsr #6
  20:	722f7265 	eorvc	r7, pc, #1342177286	; 0x50000006
  24:	6d757365 	ldclvs	3, cr7, [r5, #-404]!	; 0xfffffe6c
  28:	2f2e0065 	svccs	0x002e0065
  2c:	65707573 	ldrbvs	r7, [r0, #-1395]!	; 0x573
  30:	65722f72 	ldrbvs	r2, [r2, #-3954]!	; 0xf72
  34:	656d7573 	strbvs	r7, [sp, #-1395]!	; 0x573
  38:	2e2f2e2f 	cdpcs	14, 2, cr2, cr15, cr15, {1}
  3c:	2e2e2f2e 	cdpcs	15, 2, cr2, cr14, cr14, {1}
  40:	002e2e2f 	eoreq	r2, lr, pc, lsr #28
  44:	73657200 	cmnvc	r5, #0
  48:	30656d75 	rsbcc	r6, r5, r5, ror sp
  4c:	0100632e 	tsteq	r0, lr, lsr #6
  50:	6d700000 	ldclvs	0, cr0, [r0]
  54:	7079745f 	rsbsvc	r7, r9, pc, asr r4
  58:	682e7365 	stmdavs	lr!, {r0, r2, r5, r6, r8, r9, ip, sp, lr}
  5c:	00000200 	andeq	r0, r0, r0, lsl #4
  60:	5f6d656d 	svcpl	0x006d656d
  64:	2e757063 	cdpcs	0, 7, cr7, cr5, cr3, {3}
  68:	00020068 	andeq	r0, r2, r8, rrx
  6c:	2e6d7000 	cdpcs	0, 6, cr7, cr13, cr0, {0}
  70:	00020068 	andeq	r0, r2, r8, rrx
  74:	05000000 	streq	r0, [r0]
  78:	10000002 	andne	r0, r0, r2
  7c:	01350340 	teqeq	r5, r0, asr #6
  80:	3d033334 	stccc	3, cr3, [r3, #-208]	; 0xffffff30
  84:	2e43034a 	cdpcs	3, 4, cr0, cr3, cr10, {2}
  88:	4c4b2f33 	mcrrmi	15, 3, r2, fp, cr3
  8c:	2f4f2f35 	svccs	0x004f2f35
  90:	4a1d032f 	bmi	740d54 <__resume0_start+0x740d54>
  94:	88304b4b 	ldmdahi	r0!, {r0, r1, r3, r6, r8, r9, fp, lr}
  98:	302c3048 	eorcc	r3, ip, r8, asr #32
  9c:	4c4d4b4c 	mcrrmi	11, 4, r4, sp, cr12
  a0:	000e024b 	andeq	r0, lr, fp, asr #4
  a4:	00430101 	subeq	r0, r3, r1, lsl #2
  a8:	00020000 	andeq	r0, r2, r0
  ac:	00000027 	andeq	r0, r0, r7, lsr #32
  b0:	0efb0102 	cdpeq	1, 15, cr0, cr11, cr2, {0}
  b4:	0101000d 	tsteq	r1, sp
  b8:	00000101 	andeq	r0, r0, r1, lsl #2
  bc:	00000100 	andeq	r0, r0, r0, lsl #2
  c0:	732f2e01 	teqvc	pc, #16
  c4:	72657075 	rsbvc	r7, r5, #117	; 0x75
  c8:	6f630000 	svcvs	0x00630000
  cc:	6e6f6d6d 	cdpvs	13, 6, cr6, cr15, cr13, {3}
  d0:	0100632e 	tsteq	r0, lr, lsr #6
  d4:	00000000 	andeq	r0, r0, r0
  d8:	00c80205 	sbceq	r0, r8, r5, lsl #4
  dc:	23034010 	movwcs	r4, #12304	; 0x3010
  e0:	09030101 	stmdbeq	r3, {r0, r8}
  e4:	87492f2e 	strbhi	r2, [r9, -lr, lsr #30]
  e8:	01000202 	tsteq	r0, r2, lsl #4
  ec:	00014c01 	andeq	r4, r1, r1, lsl #24
  f0:	26000200 	strcs	r0, [r0], -r0, lsl #4
  f4:	02000000 	andeq	r0, r0, #0
  f8:	0d0efb01 	vstreq	d15, [lr, #-4]
  fc:	01010100 	tsteq	r1, r0, lsl #2
 100:	00000001 	andeq	r0, r0, r1
 104:	01000001 	tsteq	r0, r1
 108:	75732f2e 	ldrbvc	r2, [r3, #-3886]!	; 0xf2e
 10c:	00726570 	rsbseq	r6, r2, r0, ror r5
 110:	61747300 	cmnvs	r4, r0, lsl #6
 114:	532e6b63 	teqpl	lr, #101376	; 0x18c00
 118:	00000100 	andeq	r0, r0, r0, lsl #2
 11c:	02050000 	andeq	r0, r5, #0
 120:	40100100 	andsmi	r0, r0, r0, lsl #2
 124:	2f010903 	svccs	0x00010903
 128:	2f2f332f 	svccs	0x002f332f
 12c:	2f342f33 	svccs	0x00342f33
 130:	2f30302f 	svccs	0x0030302f
 134:	2f302f2f 	svccs	0x00302f2f
 138:	302f2f30 	eorcc	r2, pc, r0, lsr pc
 13c:	2f2f332f 	svccs	0x002f332f
 140:	2f2f2f2f 	svccs	0x002f2f2f
 144:	2f2f2f30 	svccs	0x002f2f30
 148:	2f2f2f2f 	svccs	0x002f2f2f
 14c:	2f2f2f2f 	svccs	0x002f2f2f
 150:	302f2f2f 	eorcc	r2, pc, pc, lsr #30
 154:	2f2f2f30 	svccs	0x002f2f30
 158:	302f2f2f 	eorcc	r2, pc, pc, lsr #30
 15c:	30302f2f 	eorscc	r2, r0, pc, lsr #30
 160:	2f2f2f2f 	svccs	0x002f2f2f
 164:	2f2f2f34 	svccs	0x002f2f34
 168:	2f332f2f 	svccs	0x00332f2f
 16c:	2f2f2f2f 	svccs	0x002f2f2f
 170:	2f2f2f33 	svccs	0x002f2f33
 174:	2f2f2f2f 	svccs	0x002f2f2f
 178:	2f2f2f33 	svccs	0x002f2f33
 17c:	332f2f2f 	teqcc	pc, #188	; 0xbc
 180:	2f2f2f2f 	svccs	0x002f2f2f
 184:	2f332f2f 	svccs	0x00332f2f
 188:	2f2f2f2f 	svccs	0x002f2f2f
 18c:	2f2f332f 	svccs	0x002f332f
 190:	2f2f2f2f 	svccs	0x002f2f2f
 194:	2f2f2f33 	svccs	0x002f2f33
 198:	332f2f2f 	teqcc	pc, #188	; 0xbc
 19c:	2f2f2f2f 	svccs	0x002f2f2f
 1a0:	332f2f2f 	teqcc	pc, #188	; 0xbc
 1a4:	2f2f2f2f 	svccs	0x002f2f2f
 1a8:	2f332f2f 	svccs	0x00332f2f
 1ac:	2f312f30 	svccs	0x00312f30
 1b0:	2f2f2f2f 	svccs	0x002f2f2f
 1b4:	2f2f2f2f 	svccs	0x002f2f2f
 1b8:	2f2f2f2f 	svccs	0x002f2f2f
 1bc:	2f312f2f 	svccs	0x00312f2f
 1c0:	2f2f2f2f 	svccs	0x002f2f2f
 1c4:	2f2f2f2f 	svccs	0x002f2f2f
 1c8:	2f2f2f2f 	svccs	0x002f2f2f
 1cc:	2f2f2f2f 	svccs	0x002f2f2f
 1d0:	312f3030 	teqcc	pc, r0, lsr r0
 1d4:	2f2f2f2f 	svccs	0x002f2f2f
 1d8:	2f2f2f2f 	svccs	0x002f2f2f
 1dc:	2f2f2f2f 	svccs	0x002f2f2f
 1e0:	2f2f2f2f 	svccs	0x002f2f2f
 1e4:	332f302f 	teqcc	pc, #47	; 0x2f
 1e8:	312f302f 	teqcc	pc, pc, lsr #32
 1ec:	2f2f2f2f 	svccs	0x002f2f2f
 1f0:	2f2f2f2f 	svccs	0x002f2f2f
 1f4:	2f2f2f2f 	svccs	0x002f2f2f
 1f8:	312f2f2f 	teqcc	pc, pc, lsr #30
 1fc:	2f2f2f2f 	svccs	0x002f2f2f
 200:	2f2f2f2f 	svccs	0x002f2f2f
 204:	2f2f2f2f 	svccs	0x002f2f2f
 208:	2f2f2f2f 	svccs	0x002f2f2f
 20c:	2f30302f 	svccs	0x0030302f
 210:	2f2f2f31 	svccs	0x002f2f31
 214:	2f2f2f2f 	svccs	0x002f2f2f
 218:	2f2f2f2f 	svccs	0x002f2f2f
 21c:	2f2f2f2f 	svccs	0x002f2f2f
 220:	2f302f2f 	svccs	0x00302f2f
 224:	2f2f2f34 	svccs	0x002f2f34
 228:	2f30c02f 	svccs	0x0030c02f
 22c:	2f34302f 	svccs	0x0034302f
 230:	dc2f2f2f 	stcle	15, cr2, [pc], #-188	; 0xffffff44
 234:	302f2f30 	eorcc	r2, pc, r0, lsr pc
 238:	01003a02 	tsteq	r0, r2, lsl #20
 23c:	0001bb01 	andeq	fp, r1, r1, lsl #22
 240:	9f000200 	svcls	0x00000200
 244:	02000000 	andeq	r0, r0, #0
 248:	0d0efb01 	vstreq	d15, [lr, #-4]
 24c:	01010100 	tsteq	r1, r0, lsl #2
 250:	00000001 	andeq	r0, r0, r1
 254:	01000001 	tsteq	r0, r1
 258:	75732f2e 	ldrbvc	r2, [r3, #-3886]!	; 0xf2e
 25c:	00726570 	rsbseq	r6, r2, r0, ror r5
 260:	75732f2e 	ldrbvc	r2, [r3, #-3886]!	; 0xf2e
 264:	2f726570 	svccs	0x00726570
 268:	2e2f2e2e 	cdpcs	14, 2, cr2, cr15, cr14, {1}
 26c:	682f002e 	stmdavs	pc!, {r1, r2, r3, r5}
 270:	2f656d6f 	svccs	0x00656d6f
 274:	656b696d 	strbvs	r6, [fp, #-2413]!	; 0x96d
 278:	726f772f 	rsbvc	r7, pc, #12320768	; 0xbc0000
 27c:	696c2f6b 	stmdbvs	ip!, {r0, r1, r3, r5, r6, r8, r9, sl, fp, sp}^
 280:	5f78756e 	svcpl	0x0078756e
 284:	2f343236 	svccs	0x00343236
 288:	68637261 	stmdavs	r3!, {r0, r5, r6, r9, ip, sp, lr}^
 28c:	6d72612f 	ldfvse	f6, [r2, #-188]!	; 0xffffff44
 290:	63616d2f 	cmnvs	r1, #3008	; 0xbc0
 294:	75732d68 	ldrbvc	r2, [r3, #-3432]!	; 0xd68
 298:	2f69356e 	svccs	0x0069356e
 29c:	6c636e69 	stclvs	14, cr6, [r3], #-420	; 0xfffffe5c
 2a0:	2f656475 	svccs	0x00656475
 2a4:	6863616d 	stmdavs	r3!, {r0, r2, r3, r5, r6, r8, sp, lr}^
 2a8:	75730000 	ldrbvc	r0, [r3]!
 2ac:	5f726570 	svcpl	0x00726570
 2b0:	2e697774 	mcrcs	7, 3, r7, cr9, cr4, {3}
 2b4:	00010063 	andeq	r0, r1, r3, rrx
 2b8:	5f6d7000 	svcpl	0x006d7000
 2bc:	65707974 	ldrbvs	r7, [r0, #-2420]!	; 0x974
 2c0:	00682e73 	rsbeq	r2, r8, r3, ror lr
 2c4:	63000002 	movwvs	r0, #2
 2c8:	5f756d63 	svcpl	0x00756d63
 2cc:	73676572 	cmnvc	r7, #478150656	; 0x1c800000
 2d0:	0300682e 	movweq	r6, #2094	; 0x82e
 2d4:	75730000 	ldrbvc	r0, [r3]!
 2d8:	5f726570 	svcpl	0x00726570
 2dc:	2e697774 	mcrcs	7, 3, r7, cr9, cr4, {3}
 2e0:	00010068 	andeq	r0, r1, r8, rrx
 2e4:	05000000 	streq	r0, [r0]
 2e8:	10060002 	andne	r0, r6, r2
 2ec:	00e90340 	rsceq	r0, r9, r0, asr #6
 2f0:	2f671301 	svccs	0x00671301
 2f4:	4c2f2f2c 	stcmi	15, cr2, [pc], #-176	; 0xffffff50
 2f8:	0369674c 	cmneq	r9, #19922944	; 0x1300000
 2fc:	3016662e 	andscc	r6, r6, lr, lsr #12
 300:	bb31a02c 	bllt	c683b8 <__resume0_start+0xc683b8>
 304:	bb6cbb6c 	bllt	1b2f0bc <__resume0_start+0x1b2f0bc>
 308:	4a0e0388 	bmi	381130 <__resume0_start+0x381130>
 30c:	03472d18 	movteq	r2, #32024	; 0x7d18
 310:	78032e0b 	stmdavc	r3, {r0, r1, r3, r9, sl, fp, sp}
 314:	36622f2e 	strbtcc	r2, [r2], -lr, lsr #30
 318:	362e7803 	strtcc	r7, [lr], -r3, lsl #16
 31c:	13036a4d 	movwne	r6, #14925	; 0x3a4d
 320:	332917ba 	teqcc	r9, #48758784	; 0x2e80000
 324:	0b032f68 	bleq	cc0cc <__resume0_start+0xcc0cc>
 328:	4fbb8466 	svcmi	0x00bb8466
 32c:	2d2f6c2f 	stccs	12, cr6, [pc, #-188]!	; 0xffffff44
 330:	4ebb682f 	cdpmi	8, 11, cr6, cr11, cr15, {1}
 334:	842f6c2f 	strthi	r6, [pc], #3119	; 33c <__resume0_start+0x33c>
 338:	6b2f4ebb 	blvs	bd3e2c <__resume0_start+0xbd3e2c>
 33c:	2f2d2f4d 	svccs	0x002d2f4d
 340:	2f4ebb68 	svccs	0x004ebb68
 344:	4ebba06e 	cdpmi	0, 11, cr10, cr11, cr14, {3}
 348:	2d2f6c2f 	stccs	12, cr6, [pc, #-188]!	; 0xffffff44
 34c:	4ebb682f 	cdpmi	8, 11, cr6, cr11, cr15, {1}
 350:	bb846c2f 	bllt	fe11b414 <__bss_end+0xbe015464>
 354:	032f4b4e 	teqeq	pc, #79872	; 0x13800
 358:	2c667dc8 	stclcs	13, cr7, [r6], #-800	; 0xfffffce0
 35c:	322a684c 	eorcc	r6, sl, #4980736	; 0x4c0000
 360:	03674c4c 	cmneq	r7, #19456	; 0x4c00
 364:	4c2c9e79 	stcmi	14, cr9, [ip], #-484	; 0xfffffe1c
 368:	4c322a68 	ldcmi	10, cr2, [r2], #-416	; 0xfffffe60
 36c:	c403674c 	strgt	r6, [r3], #-1868	; 0x74c
 370:	03318202 	teqeq	r1, #536870912	; 0x20000000
 374:	1b034a78 	blne	d2d5c <__resume0_start+0xd2d5c>
 378:	342917d6 	strtcc	r1, [r9], #-2006	; 0x7d6
 37c:	46322b4c 	ldrtmi	r2, [r2], -ip, asr #22
 380:	2e0b0332 	mcrcs	3, 0, r0, cr11, cr2, {1}
 384:	d7682c30 	undefined instruction 0xd7682c30
 388:	316c2f4f 	cmncc	ip, pc, asr #30
 38c:	d7842f2b 	strle	r2, [r4, fp, lsr #30]
 390:	316c2f4e 	cmncc	ip, lr, asr #30
 394:	4ed7842c 	cdpmi	4, 13, cr8, cr7, cr12, {1}
 398:	314d6b2f 	cmpcc	sp, pc, lsr #22
 39c:	682f2d2c 	stmdavs	pc!, {r2, r3, r5, r8, sl, fp, sp}
 3a0:	6e4b4ebb 	mcrvs	14, 2, r4, cr11, cr11, {5}
 3a4:	d7842c30 	undefined instruction 0xd7842c30
 3a8:	316c2f4e 	cmncc	ip, lr, asr #30
 3ac:	d7842f2b 	strle	r2, [r4, fp, lsr #30]
 3b0:	306c2f4e 	rsbcc	r2, ip, lr, asr #30
 3b4:	4ed7682c 	cdpmi	8, 13, cr6, cr7, cr12, {1}
 3b8:	c1032f4b 	tstgt	r3, fp, asr #30
 3bc:	0332667c 	teqeq	r2, #130023424	; 0x7c00000
 3c0:	35302e7a 	ldrcc	r2, [r0, #-3706]!	; 0xe7a
 3c4:	302e7703 	eorcc	r7, lr, r3, lsl #14
 3c8:	4c322a4c 	ldcmi	10, cr2, [r2], #-304	; 0xfffffed0
 3cc:	7903674c 	stmdbvc	r3, {r2, r3, r6, r8, r9, sl, sp, lr}
 3d0:	7a03329e 	bvc	cce50 <__resume0_start+0xcce50>
 3d4:	0335302e 	teqeq	r5, #46	; 0x2e
 3d8:	4c302e77 	ldcmi	14, cr2, [r0], #-476	; 0xfffffe24
 3dc:	4c4c322a 	sfmmi	f3, 2, [ip], {42}	; (stclmi 2, cr3, [ip], {42})	; 0x2a
 3e0:	03cc0367 	biceq	r0, ip, #-1677721599	; 0x9c000001
 3e4:	2e7a0382 	cdpcs	3, 7, cr0, cr10, cr2, {4}
 3e8:	f27ce903 	vmla.i<illegal width 64>	d30, d12, d3
 3ec:	852b3130 	strhi	r3, [fp, #-304]!	; 0x130
 3f0:	2c4e4d2f 	mcrrcs	13, 2, r4, lr, cr15
 3f4:	0268302c 	rsbeq	r3, r8, #44	; 0x2c
 3f8:	01010004 	tsteq	r1, r4
 3fc:	0000004a 	andeq	r0, r0, sl, asr #32
 400:	002c0002 	eoreq	r0, ip, r2
 404:	01020000 	tsteq	r2, r0
 408:	000d0efb 	strdeq	r0, [sp], -fp
 40c:	01010101 	tsteq	r1, r1, lsl #2
 410:	01000000 	tsteq	r0, r0
 414:	2e010000 	cdpcs	0, 0, cr0, cr1, cr0, {0}
 418:	7075732f 	rsbsvc	r7, r5, pc, lsr #6
 41c:	00007265 	andeq	r7, r0, r5, ror #4
 420:	65707573 	ldrbvs	r7, [r0, #-1395]!	; 0x573
 424:	65645f72 	strbvs	r5, [r4, #-3954]!	; 0xf72
 428:	2e79616c 	rpwcsez	f6, f1, #4.0
 42c:	00010053 	andeq	r0, r1, r3, asr r0
 430:	05000000 	streq	r0, [r0]
 434:	100d8c02 	andne	r8, sp, r2, lsl #24
 438:	010d0340 	tsteq	sp, r0, asr #6
 43c:	2f302f2f 	svccs	0x00302f2f
 440:	302f2f2f 	eorcc	r2, pc, pc, lsr #30
 444:	0002022f 	andeq	r0, r2, pc, lsr #4
 448:	011d0101 	tsteq	sp, r1, lsl #2
 44c:	00020000 	andeq	r0, r2, r0
 450:	0000009a 	muleq	r0, sl, r0
 454:	0efb0102 	cdpeq	1, 15, cr0, cr11, cr2, {0}
 458:	0101000d 	tsteq	r1, sp
 45c:	00000101 	andeq	r0, r0, r1, lsl #2
 460:	00000100 	andeq	r0, r0, r0, lsl #2
 464:	732f2e01 	teqvc	pc, #16
 468:	72657075 	rsbvc	r7, r5, #117	; 0x75
 46c:	732f2e00 	teqvc	pc, #0
 470:	72657075 	rsbvc	r7, r5, #117	; 0x75
 474:	2f2e2e2f 	svccs	0x002e2e2f
 478:	2f002e2e 	svccs	0x00002e2e
 47c:	656d6f68 	strbvs	r6, [sp, #-3944]!	; 0xf68
 480:	6b696d2f 	blvs	1a5b944 <__resume0_start+0x1a5b944>
 484:	6f772f65 	svcvs	0x00772f65
 488:	6c2f6b72 	stcvs	11, cr6, [pc], #-456	; 0xfffffe38
 48c:	78756e69 	ldmdavc	r5!, {r0, r3, r5, r6, r9, sl, fp, sp, lr}^
 490:	3432365f 	ldrtcc	r3, [r2], #-1631	; 0x65f
 494:	6372612f 	cmnvs	r2, #-1073741813	; 0xc000000b
 498:	72612f68 	rsbvc	r2, r1, #416	; 0x1a0
 49c:	616d2f6d 	cmnvs	sp, sp, ror #30
 4a0:	732d6863 	teqvc	sp, #6488064	; 0x630000
 4a4:	69356e75 	ldmdbvs	r5!, {r0, r2, r4, r5, r6, r9, sl, fp, sp, lr}
 4a8:	636e692f 	cmnvs	lr, #770048	; 0xbc000
 4ac:	6564756c 	strbvs	r7, [r4, #-1388]!	; 0x56c
 4b0:	63616d2f 	cmnvs	r1, #3008	; 0xbc0
 4b4:	73000068 	movwvc	r0, #104	; 0x68
 4b8:	72657075 	rsbvc	r7, r5, #117	; 0x75
 4bc:	6f6c635f 	svcvs	0x006c635f
 4c0:	632e6b63 	teqvs	lr, #101376	; 0x18c00
 4c4:	00000100 	andeq	r0, r0, r0, lsl #2
 4c8:	745f6d70 	ldrbvc	r6, [pc], #3440	; 4d0 <__resume0_start+0x4d0>
 4cc:	73657079 	cmnvc	r5, #121	; 0x79
 4d0:	0200682e 	andeq	r6, r0, #3014656	; 0x2e0000
 4d4:	6d700000 	ldclvs	0, cr0, [r0]
 4d8:	0200682e 	andeq	r6, r0, #3014656	; 0x2e0000
 4dc:	63630000 	cmnvs	r3, #0
 4e0:	725f756d 	subsvc	r7, pc, #457179136	; 0x1b400000
 4e4:	2e736765 	cdpcs	7, 7, cr6, cr3, cr5, {3}
 4e8:	00030068 	andeq	r0, r3, r8, rrx
 4ec:	05000000 	streq	r0, [r0]
 4f0:	100db402 	andne	fp, sp, r2, lsl #8
 4f4:	012c0340 	teqeq	ip, r0, asr #6
 4f8:	4d2b3113 	stfmis	f3, [fp, #-76]!	; 0xffffffb4
 4fc:	13660e03 	cmnne	r6, #48	; 0x30
 500:	032e0903 	teqeq	lr, #49152	; 0xc000
 504:	67832e77 	undefined instruction 0x67832e77
 508:	69676867 	stmdbvs	r7!, {r0, r1, r2, r5, r6, fp, sp, lr}^
 50c:	134a0f03 	movtne	r0, #44803	; 0xaf03
 510:	032e0903 	teqeq	lr, #49152	; 0xc000
 514:	67832e77 	undefined instruction 0x67832e77
 518:	69676867 	stmdbvs	r7!, {r0, r1, r2, r5, r6, fp, sp, lr}^
 51c:	134a0f03 	movtne	r0, #44803	; 0xaf03
 520:	302a326a 	eorcc	r3, sl, sl, ror #4
 524:	9f83302c 	svcls	0x0083302c
 528:	660e03a1 	strvs	r0, [lr], -r1, lsr #7
 52c:	2a326a13 	bcs	c9ad80 <__resume0_start+0xc9ad80>
 530:	83302c30 	teqhi	r0, #12288	; 0x3000
 534:	10038583 	andne	r8, r3, r3, lsl #11
 538:	302c1466 	eorcc	r1, ip, r6, ror #8
 53c:	032e0903 	teqeq	lr, #49152	; 0xc000
 540:	2f2d2e78 	svccs	0x002d2e78
 544:	87838367 	strhi	r8, [r3, r7, ror #6]
 548:	13660f03 	cmnne	r6, #12
 54c:	0a032f2d 	beq	cc208 <__resume0_start+0xcc208>
 550:	2e78032e 	cdpcs	3, 7, cr0, cr8, cr14, {1}
 554:	674b302c 	strbvs	r3, [fp, -ip, lsr #32]
 558:	0f036b67 	svceq	0x00036b67
 55c:	312f2f66 	teqcc	pc, r6, ror #30
 560:	312b312b 	teqcc	fp, fp, lsr #2
 564:	0602312b 	streq	r3, [r2], -fp, lsr #2
 568:	19010100 	stmdbne	r1, {r8}
 56c:	02000001 	andeq	r0, r0, #1
 570:	00003c00 	andeq	r3, r0, r0, lsl #24
 574:	fb010200 	blx	40d7e <__resume0_start+0x40d7e>
 578:	01000d0e 	tsteq	r0, lr, lsl #26
 57c:	00010101 	andeq	r0, r1, r1, lsl #2
 580:	00010000 	andeq	r0, r1, r0
 584:	2f2e0100 	svccs	0x002e0100
 588:	00002e2e 	andeq	r2, r0, lr, lsr #28
 58c:	645f6d70 	ldrbvs	r6, [pc], #3440	; 594 <__resume0_start+0x594>
 590:	67756265 	ldrbvs	r6, [r5, -r5, ror #4]!
 594:	0100632e 	tsteq	r0, lr, lsr #6
 598:	6d700000 	ldclvs	0, cr0, [r0]
 59c:	0100682e 	tsteq	r0, lr, lsr #16
 5a0:	6d700000 	ldclvs	0, cr0, [r0]
 5a4:	7079745f 	rsbsvc	r7, r9, pc, asr r4
 5a8:	682e7365 	stmdavs	lr!, {r0, r2, r5, r6, r8, r9, ip, sp, lr}
 5ac:	00000100 	andeq	r0, r0, r0, lsl #2
 5b0:	02050000 	andeq	r0, r5, #0
 5b4:	40105080 	andsmi	r5, r0, r0, lsl #1
 5b8:	30011203 	andcc	r1, r1, r3, lsl #4
 5bc:	304d6a4b 	subcc	r6, sp, fp, asr #20
 5c0:	13516a4b 	cmpne	r1, #307200	; 0x4b000
 5c4:	4d302f4c 	ldcmi	15, cr2, [r0, #-304]!	; 0xfffffed0
 5c8:	134d312e 	movtne	r3, #53550	; 0xd12e
 5cc:	312e4d4b 	teqcc	lr, fp, asr #26
 5d0:	302c304d 	eorcc	r3, ip, sp, asr #32
 5d4:	30694c2f 	rsbcc	r4, r9, pc, lsr #24
 5d8:	4c2f302c 	stcmi	0, cr3, [pc], #-176	; 0xffffff50
 5dc:	31301569 	teqcc	r0, r9, ror #10
 5e0:	4d4c6914 	stclmi	9, cr6, [ip, #-80]	; 0xffffffb0
 5e4:	332f6c17 	teqcc	pc, #5888	; 0x1700
 5e8:	31314d4e 	teqcc	r1, lr, asr #26
 5ec:	4d686915 	stclmi	9, cr6, [r8, #-84]!	; 0xffffffac
 5f0:	314b4e15 	cmpcc	fp, r5, lsl lr
 5f4:	30483035 	subcc	r3, r8, r5, lsr r0
 5f8:	4a7fb403 	bmi	1fed60c <__resume0_start+0x1fed60c>
 5fc:	4a00d503 	bmi	35a10 <__resume0_start+0x35a10>
 600:	67674b6a 	strbvs	r4, [r7, -sl, ror #22]!
 604:	68322c4c 	ldmdavs	r2!, {r2, r3, r6, sl, fp, sp}
 608:	2c306867 	ldccs	8, cr6, [r0], #-412	; 0xfffffe64
 60c:	2c2f302f 	stccs	0, cr3, [pc], #-188	; 0xffffff44
 610:	04342b31 	ldrteq	r2, [r4], #-2865	; 0xb31
 614:	7f890302 	svcvc	0x00890302
 618:	2e17034a 	cdpcs	3, 1, cr0, cr7, cr10, {2}
 61c:	522e6903 	eorpl	r6, lr, #49152	; 0xc000
 620:	01042b2f 	tsteq	r4, pc, lsr #22
 624:	4a00f103 	bmi	3ca38 <__resume0_start+0x3ca38>
 628:	97030204 	strls	r0, [r3, -r4, lsl #4]
 62c:	2f4cd67f 	svccs	0x004cd67f
 630:	302c3232 	eorcc	r3, ip, r2, lsr r2
 634:	de030104 	adfles	f0, f3, f4
 638:	884f2e00 	stmdahi	pc, {r9, sl, fp, sp}^
 63c:	2e790319 	mrccs	3, 3, r0, cr9, cr9, {0}
 640:	03020435 	movweq	r0, #9269	; 0x2435
 644:	2d9e7f80 	ldccs	15, cr7, [lr, #512]	; 0x200
 648:	2f4c6e2c 	svccs	0x004c6e2c
 64c:	302c3232 	eorcc	r3, ip, r2, lsr r2
 650:	71030104 	tstvc	r3, r4, lsl #2
 654:	0187032e 	orreq	r0, r7, lr, lsr #6
 658:	f603a12e 	undefined instruction 0xf603a12e
 65c:	8a032e7e 	bhi	cc05c <__resume0_start+0xcc05c>
 660:	25032e01 	strcs	r2, [r3, #-3585]	; 0xe01
 664:	0f4d139e 	svceq	0x004d139e
 668:	142e0903 	strtne	r0, [lr], #-2307	; 0x903
 66c:	4b166969 	blmi	59ac18 <__resume0_start+0x59ac18>
 670:	154d312f 	strbne	r3, [sp, #-303]	; 0x12f
 674:	50312f4c 	eorspl	r2, r1, ip, asr #30
 678:	302c3030 	eorcc	r3, ip, r0, lsr r0
 67c:	2f2f2c30 	svccs	0x002f2c30
 680:	02312f30 	eorseq	r2, r1, #192	; 0xc0
 684:	01010004 	tsteq	r1, r4
 688:	00000086 	andeq	r0, r0, r6, lsl #1
 68c:	002c0002 	eoreq	r0, ip, r2
 690:	01020000 	tsteq	r2, r0
 694:	000d0efb 	strdeq	r0, [sp], -fp
 698:	01010101 	tsteq	r1, r1, lsl #2
 69c:	01000000 	tsteq	r0, r0
 6a0:	2e010000 	cdpcs	0, 0, cr0, cr1, cr0, {0}
 6a4:	002e2e2f 	eoreq	r2, lr, pc, lsr #28
 6a8:	6d656d00 	stclvs	13, cr6, [r5]
 6ac:	756d6d5f 	strbvc	r6, [sp, #-3423]!	; 0xd5f
 6b0:	5f63705f 	svcpl	0x0063705f
 6b4:	2e6d7361 	cdpcs	3, 6, cr7, cr13, cr1, {3}
 6b8:	00010053 	andeq	r0, r1, r3, asr r0
 6bc:	05000000 	streq	r0, [r0]
 6c0:	10541002 	subsne	r1, r4, r2
 6c4:	2f2f1740 	svccs	0x002f1740
 6c8:	302f2f2f 	eorcc	r2, pc, pc, lsr #30
 6cc:	2f2f2f2f 	svccs	0x002f2f2f
 6d0:	2f2f2f2f 	svccs	0x002f2f2f
 6d4:	2f2f2f2f 	svccs	0x002f2f2f
 6d8:	30302f2f 	eorscc	r2, r0, pc, lsr #30
 6dc:	2f2f2f2f 	svccs	0x002f2f2f
 6e0:	2f302f2f 	svccs	0x00302f2f
 6e4:	2f30302f 	svccs	0x0030302f
 6e8:	2f8a302f 	svccs	0x008a302f
 6ec:	2f2f2f2f 	svccs	0x002f2f2f
 6f0:	6d2f512f 	stfvss	f5, [pc, #-188]!	; 0xffffff44
 6f4:	30302f2f 	eorscc	r2, r0, pc, lsr #30
 6f8:	2f302f2f 	svccs	0x00302f2f
 6fc:	6d2f6c2f 	stcvs	12, cr6, [pc, #-188]!	; 0xffffff44
 700:	2f2f2f2f 	svccs	0x002f2f2f
 704:	2f2f2f2f 	svccs	0x002f2f2f
 708:	2f2f2f2f 	svccs	0x002f2f2f
 70c:	0006022f 	andeq	r0, r6, pc, lsr #4
 710:	00ed0101 	rsceq	r0, sp, r1, lsl #2
 714:	00020000 	andeq	r0, r2, r0
 718:	00000047 	andeq	r0, r0, r7, asr #32
 71c:	0efb0102 	cdpeq	1, 15, cr0, cr11, cr2, {0}
 720:	0101000d 	tsteq	r1, sp
 724:	00000101 	andeq	r0, r0, r1, lsl #2
 728:	00000100 	andeq	r0, r0, r0, lsl #2
 72c:	2e2f2e01 	cdpcs	14, 2, cr2, cr15, cr1, {0}
 730:	2f2e002e 	svccs	0x002e002e
 734:	2e2f2e2e 	cdpcs	14, 2, cr2, cr15, cr14, {1}
 738:	656d0000 	strbvs	r0, [sp]!
 73c:	70635f6d 	rsbvc	r5, r3, sp, ror #30
 740:	00632e75 	rsbeq	r2, r3, r5, ror lr
 744:	6d000001 	stcvs	0, cr0, [r0, #-4]
 748:	635f6d65 	cmpvs	pc, #6464	; 0x1940
 74c:	682e7570 	stmdavs	lr!, {r4, r5, r6, r8, sl, ip, sp, lr}
 750:	00000200 	andeq	r0, r0, r0, lsl #4
 754:	745f6d70 	ldrbvc	r6, [pc], #3440	; 75c <__resume0_start+0x75c>
 758:	73657079 	cmnvc	r5, #121	; 0x79
 75c:	0100682e 	tsteq	r0, lr, lsr #16
 760:	00000000 	andeq	r0, r0, r0
 764:	55600205 	strbpl	r0, [r0, #-517]!	; 0x205
 768:	cf034010 	svcgt	0x00034010
 76c:	f7160100 	undefined instruction 0xf7160100
 770:	f20c03f3 	vcge.s8	q0, q14, <illegal reg q9.5>
 774:	f6f6f3f3 	undefined instruction 0xf6f6f3f3
 778:	f6f3f3f3 	undefined instruction 0xf6f3f3f3
 77c:	f3f6f6f3 	vqshlu.s64	<illegal reg q15.5>, <illegal reg q9.5>, #54	; 0x36
 780:	f6f6f3f3 	undefined instruction 0xf6f6f3f3
 784:	f3f3f3f3 	vrsra.u64	<illegal reg q15.5>, <illegal reg q9.5>, #13
 788:	f3f6f3f3 	vrsra.u64	<illegal reg q15.5>, <illegal reg q9.5>, #10
 78c:	f3f4f6f7 	vqshlu.s64	<illegal reg q15.5>, <illegal reg q11.5>, #52	; 0x34
 790:	f3f3f3f5 	vrsra.u64	<illegal reg q15.5>, <illegal reg q10.5>, #13
 794:	f3f6f3f3 	vrsra.u64	<illegal reg q15.5>, <illegal reg q9.5>, #10
 798:	f3f20903 	vtbl.8	d16, {d2-d3}, d3
 79c:	f9f3f3f3 	undefined instruction 0xf9f3f3f3
 7a0:	03f71431 	mvnseq	r1, #822083584	; 0x31000000
 7a4:	2ff3f20b 	svccs	0x00f3f20b
 7a8:	2f2ff32f 	svccs	0x002ff32f
 7ac:	f4322ff3 	undefined instruction 0xf4322ff3
 7b0:	f3f21103 	vuzp.8	d17, d3
 7b4:	03f3f4f3 	mvnseq	pc, #-218103808	; 0xf3000000
 7b8:	f5f3f20a 	undefined instruction 0xf5f3f20a
 7bc:	f3f3f3f3 	vrsra.u64	<illegal reg q15.5>, <illegal reg q9.5>, #13
 7c0:	f9f3f6f3 	undefined instruction 0xf9f3f6f3
 7c4:	f3f3f3f3 	vrsra.u64	<illegal reg q15.5>, <illegal reg q9.5>, #13
 7c8:	31302ff9 	undefined instruction 0x31302ff9
 7cc:	4c143114 	ldfmis	f3, [r4], {20}
 7d0:	154d312f 	strbne	r3, [sp, #-303]	; 0x12f
 7d4:	4b4c4b4d 	blmi	1313510 <__resume0_start+0x1313510>
 7d8:	30332f2f 	eorscc	r2, r3, pc, lsr #30
 7dc:	2f30302f 	svccs	0x0030302f
 7e0:	2f302f2f 	svccs	0x00302f2f
 7e4:	2e0d0330 	mcrcs	3, 0, r0, cr13, cr0, {1}
 7e8:	2f302f2f 	svccs	0x00302f2f
 7ec:	4b304c4d 	blmi	c13928 <__resume0_start+0xc13928>
 7f0:	2f2f4b4d 	svccs	0x002f4b4d
 7f4:	2f312f2f 	svccs	0x00312f2f
 7f8:	2f2f2f31 	svccs	0x002f2f31
 7fc:	0802302f 	stmdaeq	r2, {r0, r1, r2, r3, r5, ip, sp}
 800:	Address 0x00000800 is out of bounds.


Disassembly of section .debug_frame:

00000000 <.debug_frame>:
   0:	0000000c 	andeq	r0, r0, ip
   4:	ffffffff 	undefined instruction 0xffffffff
   8:	7c010001 	stcvc	0, cr0, [r1], {1}
   c:	000d0c0e 	andeq	r0, sp, lr, lsl #24
  10:	00000018 	andeq	r0, r0, r8, lsl r0
  14:	00000000 	andeq	r0, r0, r0
  18:	40100000 	andsmi	r0, r0, r0
  1c:	000000c8 	andeq	r0, r0, r8, asr #1
  20:	11080e44 	tstne	r8, r4, asr #28
  24:	0411010e 	ldreq	r0, [r1], #-270	; 0x10e
  28:	00000002 	andeq	r0, r0, r2
  2c:	0000000c 	andeq	r0, r0, ip
  30:	ffffffff 	undefined instruction 0xffffffff
  34:	7c010001 	stcvc	0, cr0, [r1], {1}
  38:	000d0c0e 	andeq	r0, sp, lr, lsl #24
  3c:	0000000c 	andeq	r0, r0, ip
  40:	0000002c 	andeq	r0, r0, ip, lsr #32
  44:	401000c8 	andsmi	r0, r0, r8, asr #1
  48:	00000024 	andeq	r0, r0, r4, lsr #32
  4c:	0000000c 	andeq	r0, r0, ip
  50:	ffffffff 	undefined instruction 0xffffffff
  54:	7c010001 	stcvc	0, cr0, [r1], {1}
  58:	000d0c0e 	andeq	r0, sp, lr, lsl #24
  5c:	0000000c 	andeq	r0, r0, ip
  60:	0000004c 	andeq	r0, r0, ip, asr #32
  64:	40100600 	andsmi	r0, r0, r0, lsl #12
  68:	00000050 	andeq	r0, r0, r0, asr r0
  6c:	0000000c 	andeq	r0, r0, ip
  70:	0000004c 	andeq	r0, r0, ip, asr #32
  74:	40100650 	andsmi	r0, r0, r0, asr r6
  78:	00000098 	muleq	r0, r8, r0
  7c:	0000000c 	andeq	r0, r0, ip
  80:	0000004c 	andeq	r0, r0, ip, asr #32
  84:	401006e8 	andsmi	r0, r0, r8, ror #13
  88:	0000005c 	andeq	r0, r0, ip, asr r0
  8c:	00000018 	andeq	r0, r0, r8, lsl r0
  90:	0000004c 	andeq	r0, r0, ip, asr #32
  94:	40100744 	andsmi	r0, r0, r4, asr #14
  98:	000002d8 	ldrdeq	r0, [r0], -r8
  9c:	11080e48 	tstne	r8, r8, asr #28
  a0:	0411010e 	ldreq	r0, [r1], #-270	; 0x10e
  a4:	00000002 	andeq	r0, r0, r2
  a8:	0000001c 	andeq	r0, r0, ip, lsl r0
  ac:	0000004c 	andeq	r0, r0, ip, asr #32
  b0:	40100a1c 	andsmi	r0, r0, ip, lsl sl
  b4:	00000320 	andeq	r0, r0, r0, lsr #6
  b8:	11100e48 	tstne	r0, r8, asr #28
  bc:	0611010e 	ldreq	r0, [r1], -lr, lsl #2
  c0:	03051102 	movweq	r1, #20738	; 0x5102
  c4:	00040411 	andeq	r0, r4, r1, lsl r4
  c8:	00000018 	andeq	r0, r0, r8, lsl r0
  cc:	0000004c 	andeq	r0, r0, ip, asr #32
  d0:	40100d3c 	andsmi	r0, r0, ip, lsr sp
  d4:	00000050 	andeq	r0, r0, r0, asr r0
  d8:	11080e44 	tstne	r8, r4, asr #28
  dc:	0411010e 	ldreq	r0, [r1], #-270	; 0x10e
  e0:	00000002 	andeq	r0, r0, r2
  e4:	0000000c 	andeq	r0, r0, ip
  e8:	ffffffff 	undefined instruction 0xffffffff
  ec:	7c010001 	stcvc	0, cr0, [r1], {1}
  f0:	000d0c0e 	andeq	r0, sp, lr, lsl #24
  f4:	0000000c 	andeq	r0, r0, ip
  f8:	000000e4 	andeq	r0, r0, r4, ror #1
  fc:	40100db4 	undefined instruction 0x40100db4
 100:	0000001c 	andeq	r0, r0, ip, lsl r0
 104:	0000000c 	andeq	r0, r0, ip
 108:	000000e4 	andeq	r0, r0, r4, ror #1
 10c:	40100dd0 	undefined instruction 0x40100dd0
 110:	0000005c 	andeq	r0, r0, ip, asr r0
 114:	0000000c 	andeq	r0, r0, ip
 118:	000000e4 	andeq	r0, r0, r4, ror #1
 11c:	40100e2c 	andsmi	r0, r0, ip, lsr #28
 120:	0000005c 	andeq	r0, r0, ip, asr r0
 124:	0000000c 	andeq	r0, r0, ip
 128:	000000e4 	andeq	r0, r0, r4, ror #1
 12c:	40100e88 	andsmi	r0, r0, r8, lsl #29
 130:	00000064 	andeq	r0, r0, r4, rrx
 134:	0000000c 	andeq	r0, r0, ip
 138:	000000e4 	andeq	r0, r0, r4, ror #1
 13c:	40100eec 	andsmi	r0, r0, ip, ror #29
 140:	0000005c 	andeq	r0, r0, ip, asr r0
 144:	0000000c 	andeq	r0, r0, ip
 148:	000000e4 	andeq	r0, r0, r4, ror #1
 14c:	40100f48 	andsmi	r0, r0, r8, asr #30
 150:	00000060 	andeq	r0, r0, r0, rrx
 154:	0000000c 	andeq	r0, r0, ip
 158:	000000e4 	andeq	r0, r0, r4, ror #1
 15c:	40100fa8 	andsmi	r0, r0, r8, lsr #31
 160:	00000050 	andeq	r0, r0, r0, asr r0
 164:	0000000c 	andeq	r0, r0, ip
 168:	000000e4 	andeq	r0, r0, r4, ror #1
 16c:	40100ff8 	undefined instruction 0x40100ff8
 170:	00000030 	andeq	r0, r0, r0, lsr r0
 174:	0000000c 	andeq	r0, r0, ip
 178:	ffffffff 	undefined instruction 0xffffffff
 17c:	7c010001 	stcvc	0, cr0, [r1], {1}
 180:	000d0c0e 	andeq	r0, sp, lr, lsl #24
 184:	00000010 	andeq	r0, r0, r0, lsl r0
 188:	00000174 	andeq	r0, r0, r4, ror r1
 18c:	40105080 	andsmi	r5, r0, r0, lsl #1
 190:	00000020 	andeq	r0, r0, r0, lsr #32
 194:	00080e44 	andeq	r0, r8, r4, asr #28
 198:	00000010 	andeq	r0, r0, r0, lsl r0
 19c:	00000174 	andeq	r0, r0, r4, ror r1
 1a0:	401050a0 	andsmi	r5, r0, r0, lsr #1
 1a4:	00000020 	andeq	r0, r0, r0, lsr #32
 1a8:	00080e44 	andeq	r0, r8, r4, asr #28
 1ac:	0000000c 	andeq	r0, r0, ip
 1b0:	00000174 	andeq	r0, r0, r4, ror r1
 1b4:	401050c0 	andsmi	r5, r0, r0, asr #1
 1b8:	00000018 	andeq	r0, r0, r8, lsl r0
 1bc:	00000010 	andeq	r0, r0, r0, lsl r0
 1c0:	00000174 	andeq	r0, r0, r4, ror r1
 1c4:	401050d8 	ldrsbmi	r5, [r0], -r8
 1c8:	00000010 	andeq	r0, r0, r0, lsl r0
 1cc:	00080e44 	andeq	r0, r8, r4, asr #28
 1d0:	0000000c 	andeq	r0, r0, ip
 1d4:	00000174 	andeq	r0, r0, r4, ror r1
 1d8:	401050e8 	andsmi	r5, r0, r8, ror #1
 1dc:	00000010 	andeq	r0, r0, r0, lsl r0
 1e0:	00000010 	andeq	r0, r0, r0, lsl r0
 1e4:	00000174 	andeq	r0, r0, r4, ror r1
 1e8:	401050f8 	ldrshmi	r5, [r0], -r8
 1ec:	00000010 	andeq	r0, r0, r0, lsl r0
 1f0:	00080e44 	andeq	r0, r8, r4, asr #28
 1f4:	00000010 	andeq	r0, r0, r0, lsl r0
 1f8:	00000174 	andeq	r0, r0, r4, ror r1
 1fc:	40105108 	andsmi	r5, r0, r8, lsl #2
 200:	00000024 	andeq	r0, r0, r4, lsr #32
 204:	00080e44 	andeq	r0, r8, r4, asr #28
 208:	00000010 	andeq	r0, r0, r0, lsl r0
 20c:	00000174 	andeq	r0, r0, r4, ror r1
 210:	4010512c 	andsmi	r5, r0, ip, lsr #2
 214:	00000024 	andeq	r0, r0, r4, lsr #32
 218:	00080e44 	andeq	r0, r8, r4, asr #28
 21c:	0000000c 	andeq	r0, r0, ip
 220:	00000174 	andeq	r0, r0, r4, ror r1
 224:	40105150 	andsmi	r5, r0, r0, asr r1
 228:	00000008 	andeq	r0, r0, r8
 22c:	0000000c 	andeq	r0, r0, ip
 230:	00000174 	andeq	r0, r0, r4, ror r1
 234:	40105158 	andsmi	r5, r0, r8, asr r1
 238:	0000001c 	andeq	r0, r0, ip, lsl r0
 23c:	0000000c 	andeq	r0, r0, ip
 240:	00000174 	andeq	r0, r0, r4, ror r1
 244:	40105174 	andsmi	r5, r0, r4, ror r1
 248:	0000002c 	andeq	r0, r0, ip, lsr #32
 24c:	0000000c 	andeq	r0, r0, ip
 250:	00000174 	andeq	r0, r0, r4, ror r1
 254:	401051a0 	andsmi	r5, r0, r0, lsr #3
 258:	00000020 	andeq	r0, r0, r0, lsr #32
 25c:	0000000c 	andeq	r0, r0, ip
 260:	00000174 	andeq	r0, r0, r4, ror r1
 264:	401051c0 	andsmi	r5, r0, r0, asr #3
 268:	00000014 	andeq	r0, r0, r4, lsl r0
 26c:	0000001c 	andeq	r0, r0, ip, lsl r0
 270:	00000174 	andeq	r0, r0, r4, ror r1
 274:	401051d4 	undefined instruction 0x401051d4
 278:	00000124 	andeq	r0, r0, r4, lsr #2
 27c:	11100e44 	tstne	r0, r4, asr #28
 280:	0411010e 	ldreq	r0, [r1], #-270	; 0x10e
 284:	03011102 	movweq	r1, #4354	; 0x1102
 288:	00040011 	andeq	r0, r4, r1, lsl r0
 28c:	00000018 	andeq	r0, r0, r8, lsl r0
 290:	00000174 	andeq	r0, r0, r4, ror r1
 294:	401052f8 	undefined instruction 0x401052f8
 298:	00000084 	andeq	r0, r0, r4, lsl #1
 29c:	11080e48 	tstne	r8, r8, asr #28
 2a0:	0411010e 	ldreq	r0, [r1], #-270	; 0x10e
 2a4:	00000002 	andeq	r0, r0, r2
 2a8:	0000000c 	andeq	r0, r0, ip
 2ac:	00000174 	andeq	r0, r0, r4, ror r1
 2b0:	4010537c 	andsmi	r5, r0, ip, ror r3
 2b4:	0000000c 	andeq	r0, r0, ip
 2b8:	0000000c 	andeq	r0, r0, ip
 2bc:	00000174 	andeq	r0, r0, r4, ror r1
 2c0:	40105388 	andsmi	r5, r0, r8, lsl #7
 2c4:	00000018 	andeq	r0, r0, r8, lsl r0
 2c8:	0000000c 	andeq	r0, r0, ip
 2cc:	00000174 	andeq	r0, r0, r4, ror r1
 2d0:	401053a0 	andsmi	r5, r0, r0, lsr #7
 2d4:	00000018 	andeq	r0, r0, r8, lsl r0
 2d8:	0000000c 	andeq	r0, r0, ip
 2dc:	00000174 	andeq	r0, r0, r4, ror r1
 2e0:	401053b8 	undefined instruction 0x401053b8
 2e4:	00000018 	andeq	r0, r0, r8, lsl r0
 2e8:	0000001c 	andeq	r0, r0, ip, lsl r0
 2ec:	00000174 	andeq	r0, r0, r4, ror r1
 2f0:	401053d0 	undefined instruction 0x401053d0
 2f4:	00000034 	andeq	r0, r0, r4, lsr r0
 2f8:	11100e44 	tstne	r0, r4, asr #28
 2fc:	0611010e 	ldreq	r0, [r1], -lr, lsl #2
 300:	03051102 	movweq	r1, #20738	; 0x5102
 304:	00040411 	andeq	r0, r4, r1, lsl r4
 308:	0000000c 	andeq	r0, r0, ip
 30c:	ffffffff 	undefined instruction 0xffffffff
 310:	7c010001 	stcvc	0, cr0, [r1], {1}
 314:	000d0c0e 	andeq	r0, sp, lr, lsl #24
 318:	0000000c 	andeq	r0, r0, ip
 31c:	00000308 	andeq	r0, r0, r8, lsl #6
 320:	40105560 	andsmi	r5, r0, r0, ror #10
 324:	000005a4 	andeq	r0, r0, r4, lsr #11
 328:	0000000c 	andeq	r0, r0, ip
 32c:	00000308 	andeq	r0, r0, r8, lsl #6
 330:	40105b04 	andsmi	r5, r0, r4, lsl #22
 334:	00000384 	andeq	r0, r0, r4, lsl #7
 338:	0000000c 	andeq	r0, r0, ip
 33c:	00000308 	andeq	r0, r0, r8, lsl #6
 340:	40105e88 	andsmi	r5, r0, r8, lsl #29
 344:	00000004 	andeq	r0, r0, r4
 348:	0000000c 	andeq	r0, r0, ip
 34c:	00000308 	andeq	r0, r0, r8, lsl #6
 350:	40105e8c 	andsmi	r5, r0, ip, lsl #29
 354:	00000018 	andeq	r0, r0, r8, lsl r0
 358:	0000000c 	andeq	r0, r0, ip
 35c:	00000308 	andeq	r0, r0, r8, lsl #6
 360:	40105ea4 	andsmi	r5, r0, r4, lsr #29
 364:	000000d4 	ldrdeq	r0, [r0], -r4

Disassembly of section .debug_loc:

00000000 <.debug_loc>:
   0:	00000000 	andeq	r0, r0, r0
   4:	00000004 	andeq	r0, r0, r4
   8:	045d0001 	ldrbeq	r0, [sp], #-1
   c:	c8000000 	stmdagt	r0, {}
  10:	02000000 	andeq	r0, r0, #0
  14:	00087d00 	andeq	r7, r8, r0, lsl #26
	...
  20:	10000000 	andne	r0, r0, r0
  24:	01000000 	tsteq	r0, r0
  28:	00005000 	andeq	r5, r0, r0
  2c:	00000000 	andeq	r0, r0, r0
  30:	00700000 	rsbseq	r0, r0, r0
  34:	00740000 	rsbseq	r0, r4, r0
  38:	00010000 	andeq	r0, r1, r0
  3c:	00000051 	andeq	r0, r0, r1, asr r0
  40:	00000000 	andeq	r0, r0, r0
  44:	00014400 	andeq	r4, r1, r0, lsl #8
  48:	00014c00 	andeq	r4, r1, r0, lsl #24
  4c:	5d000100 	stfpls	f0, [r0]
  50:	0000014c 	andeq	r0, r0, ip, asr #2
  54:	0000041c 	andeq	r0, r0, ip, lsl r4
  58:	087d0002 	ldmdaeq	sp!, {r1}^
	...
  64:	00000144 	andeq	r0, r0, r4, asr #2
  68:	00000288 	andeq	r0, r0, r8, lsl #5
  6c:	54500001 	ldrbpl	r0, [r0], #-1
  70:	60000003 	andvs	r0, r0, r3
  74:	01000003 	tsteq	r0, r3
  78:	04005000 	streq	r5, [r0]
  7c:	04040000 	streq	r0, [r4]
  80:	00010000 	andeq	r0, r1, r0
  84:	00000050 	andeq	r0, r0, r0, asr r0
  88:	00000000 	andeq	r0, r0, r0
  8c:	00014400 	andeq	r4, r1, r0, lsl #8
  90:	0001ac00 	andeq	sl, r1, r0, lsl #24
  94:	51000100 	tstpl	r0, r0, lsl #2
  98:	00000358 	andeq	r0, r0, r8, asr r3
  9c:	00000364 	andeq	r0, r0, r4, ror #6
  a0:	00510001 	subseq	r0, r1, r1
  a4:	00000000 	andeq	r0, r0, r0
  a8:	44000000 	strmi	r0, [r0]
  ac:	f8000001 	undefined instruction 0xf8000001
  b0:	01000001 	tsteq	r0, r1
  b4:	03585200 	cmpeq	r8, #0
  b8:	03680000 	cmneq	r8, #0
  bc:	00010000 	andeq	r0, r1, r0
  c0:	00000052 	andeq	r0, r0, r2, asr r0
  c4:	00000000 	andeq	r0, r0, r0
  c8:	00014400 	andeq	r4, r1, r0, lsl #8
  cc:	00024400 	andeq	r4, r2, r0, lsl #8
  d0:	53000100 	movwpl	r0, #256	; 0x100
  d4:	00000284 	andeq	r0, r0, r4, lsl #5
  d8:	0000034c 	andeq	r0, r0, ip, asr #6
  dc:	58530001 	ldmdapl	r3, {r0}^
  e0:	5c000003 	stcpl	0, cr0, [r0], {3}
  e4:	01000003 	tsteq	r0, r3
  e8:	00005300 	andeq	r5, r0, r0, lsl #6
  ec:	00000000 	andeq	r0, r0, r0
  f0:	01700000 	cmneq	r0, r0
  f4:	019c0000 	orrseq	r0, ip, r0
  f8:	00010000 	andeq	r0, r1, r0
  fc:	0001b05c 	andeq	fp, r1, ip, asr r0
 100:	0001e400 	andeq	lr, r1, r0, lsl #8
 104:	5c000100 	stfpls	f0, [r0], {0}
 108:	000001f8 	strdeq	r0, [r0], -r8
 10c:	00000228 	andeq	r0, r0, r8, lsr #4
 110:	44520001 	ldrbmi	r0, [r2], #-1
 114:	78000002 	stmdavc	r0, {r1}
 118:	01000002 	tsteq	r0, r2
 11c:	028c5300 	addeq	r5, ip, #0
 120:	02bc0000 	adcseq	r0, ip, #0
 124:	00010000 	andeq	r0, r1, r0
 128:	0002d052 	andeq	sp, r2, r2, asr r0
 12c:	00030400 	andeq	r0, r3, r0, lsl #8
 130:	52000100 	andpl	r0, r0, #0
 134:	00000318 	andeq	r0, r0, r8, lsl r3
 138:	00000344 	andeq	r0, r0, r4, asr #6
 13c:	58520001 	ldmdapl	r2, {r0}^
 140:	68000003 	stmdavs	r0, {r0, r1}
 144:	01000003 	tsteq	r0, r3
 148:	03685200 	cmneq	r8, #0
 14c:	03a80000 	undefined instruction 0x03a80000
 150:	00010000 	andeq	r0, r1, r0
 154:	0003f45c 	andeq	pc, r3, ip, asr r4
 158:	0003f800 	andeq	pc, r3, r0, lsl #16
 15c:	5c000100 	stfpls	f0, [r0], {0}
	...
 168:	000003a4 	andeq	r0, r0, r4, lsr #7
 16c:	000003a8 	andeq	r0, r0, r8, lsr #7
 170:	f4540001 	undefined instruction 0xf4540001
 174:	00000003 	andeq	r0, r0, r3
 178:	01000004 	tsteq	r0, r4
 17c:	00005400 	andeq	r5, r0, r0, lsl #8
 180:	00000000 	andeq	r0, r0, r0
 184:	041c0000 	ldreq	r0, [ip]
 188:	04240000 	strteq	r0, [r4]
 18c:	00010000 	andeq	r0, r1, r0
 190:	0004245d 	andeq	r2, r4, sp, asr r4
 194:	00073c00 	andeq	r3, r7, r0, lsl #24
 198:	7d000200 	sfmvc	f0, 4, [r0]	; (stcvc 2, cr0, [r0])
 19c:	00000010 	andeq	r0, r0, r0, lsl r0
 1a0:	00000000 	andeq	r0, r0, r0
 1a4:	00041c00 	andeq	r1, r4, r0, lsl #24
 1a8:	00053800 	andeq	r3, r5, r0, lsl #16
 1ac:	50000100 	andpl	r0, r0, r0, lsl #2
 1b0:	00000580 	andeq	r0, r0, r0, lsl #11
 1b4:	0000058c 	andeq	r0, r0, ip, lsl #11
 1b8:	6c500001 	mrrcvs	0, 0, r0, r0, cr1
 1bc:	84000006 	strhi	r0, [r0], #-6
 1c0:	01000006 	tsteq	r0, r6
 1c4:	00005000 	andeq	r5, r0, r0
 1c8:	00000000 	andeq	r0, r0, r0
 1cc:	041c0000 	ldreq	r0, [ip]
 1d0:	04900000 	ldreq	r0, [r0]
 1d4:	00010000 	andeq	r0, r1, r0
 1d8:	00066c51 	andeq	r6, r6, r1, asr ip
 1dc:	00067c00 	andeq	r7, r6, r0, lsl #24
 1e0:	51000100 	tstpl	r0, r0, lsl #2
	...
 1ec:	0000041c 	andeq	r0, r0, ip, lsl r4
 1f0:	000004e8 	andeq	r0, r0, r8, ror #9
 1f4:	6c520001 	mrrcvs	0, 0, r0, r2, cr1
 1f8:	70000006 	andvc	r0, r0, r6
 1fc:	01000006 	tsteq	r0, r6
 200:	00005200 	andeq	r5, r0, r0, lsl #4
 204:	00000000 	andeq	r0, r0, r0
 208:	041c0000 	ldreq	r0, [ip]
 20c:	053c0000 	ldreq	r0, [ip]!
 210:	00010000 	andeq	r0, r1, r0
 214:	00058053 	andeq	r8, r5, r3, asr r0
 218:	00066000 	andeq	r6, r6, r0
 21c:	53000100 	movwpl	r0, #256	; 0x100
 220:	0000066c 	andeq	r0, r0, ip, ror #12
 224:	00000674 	andeq	r0, r0, r4, ror r6
 228:	00530001 	subseq	r0, r3, r1
 22c:	00000000 	andeq	r0, r0, r0
 230:	50000000 	andpl	r0, r0, r0
 234:	80000004 	andhi	r0, r0, r4
 238:	01000004 	tsteq	r0, r4
 23c:	049c5400 	ldreq	r5, [ip], #1024	; 0x400
 240:	04d00000 	ldrbeq	r0, [r0]
 244:	00010000 	andeq	r0, r1, r0
 248:	0004ec54 	andeq	lr, r4, r4, asr ip
 24c:	00053c00 	andeq	r3, r5, r0, lsl #24
 250:	54000100 	strpl	r0, [r0], #-256	; 0x100
 254:	0000053c 	andeq	r0, r0, ip, lsr r5
 258:	00000570 	andeq	r0, r0, r0, ror r5
 25c:	80530001 	subshi	r0, r3, r1
 260:	88000005 	stmdahi	r0, {r0, r2}
 264:	01000005 	tsteq	r0, r5
 268:	058c5400 	streq	r5, [ip, #1024]	; 0x400
 26c:	05c00000 	strbeq	r0, [r0]
 270:	00010000 	andeq	r0, r1, r0
 274:	0005dc50 	andeq	sp, r5, r0, asr ip
 278:	00062000 	andeq	r2, r6, r0
 27c:	50000100 	andpl	r0, r0, r0, lsl #2
 280:	00000628 	andeq	r0, r0, r8, lsr #12
 284:	00000658 	andeq	r0, r0, r8, asr r6
 288:	6c520001 	mrrcvs	0, 0, r0, r2, cr1
 28c:	70000006 	andvc	r0, r0, r6
 290:	01000006 	tsteq	r0, r6
 294:	06705200 	ldrbteq	r5, [r0], -r0, lsl #4
 298:	06840000 	streq	r0, [r4], r0
 29c:	00010000 	andeq	r0, r1, r0
 2a0:	00000050 	andeq	r0, r0, r0, asr r0
 2a4:	00000000 	andeq	r0, r0, r0
 2a8:	0006c000 	andeq	ip, r6, r0
 2ac:	0006c400 	andeq	ip, r6, r0, lsl #8
 2b0:	50000100 	andpl	r0, r0, r0, lsl #2
 2b4:	00000718 	andeq	r0, r0, r8, lsl r7
 2b8:	00000718 	andeq	r0, r0, r8, lsl r7
 2bc:	00500001 	subseq	r0, r0, r1
 2c0:	00000000 	andeq	r0, r0, r0
 2c4:	3c000000 	stccc	0, cr0, [r0], {0}
 2c8:	40000007 	andmi	r0, r0, r7
 2cc:	01000007 	tsteq	r0, r7
 2d0:	07405d00 	strbeq	r5, [r0, -r0, lsl #26]
 2d4:	078c0000 	streq	r0, [ip, r0]
 2d8:	00020000 	andeq	r0, r2, r0
 2dc:	0000087d 	andeq	r0, r0, sp, ror r8
 2e0:	00000000 	andeq	r0, r0, r0
 2e4:	00d40000 	sbcseq	r0, r4, r0
 2e8:	00dc0000 	sbcseq	r0, ip, r0
 2ec:	00010000 	andeq	r0, r1, r0
 2f0:	0000dc50 	andeq	sp, r0, r0, asr ip
 2f4:	00012000 	andeq	r2, r1, r0
 2f8:	52000100 	andpl	r0, r0, #0
	...
 304:	00000138 	andeq	r0, r0, r8, lsr r1
 308:	00000140 	andeq	r0, r0, r0, asr #2
 30c:	40500001 	subsmi	r0, r0, r1
 310:	94000001 	strls	r0, [r0], #-1
 314:	01000001 	tsteq	r0, r1
 318:	00005300 	andeq	r5, r0, r0, lsl #6
 31c:	00000000 	andeq	r0, r0, r0
 320:	01940000 	orrseq	r0, r4, r0
 324:	01a40000 	undefined instruction 0x01a40000
 328:	00010000 	andeq	r0, r1, r0
 32c:	0001a450 	andeq	sl, r1, r0, asr r4
 330:	0001e000 	andeq	lr, r1, r0
 334:	52000100 	andpl	r0, r0, #0
	...
 340:	000001f4 	strdeq	r0, [r0], -r4
 344:	00000204 	andeq	r0, r0, r4, lsl #4
 348:	04500001 	ldrbeq	r0, [r0], #-1
 34c:	44000002 	strmi	r0, [r0], #-2
 350:	01000002 	tsteq	r0, r2
 354:	00005200 	andeq	r5, r0, r0, lsl #4
	...
 360:	00040000 	andeq	r0, r4, r0
 364:	00010000 	andeq	r0, r1, r0
 368:	0000045d 	andeq	r0, r0, sp, asr r4
 36c:	00002000 	andeq	r2, r0, r0
 370:	7d000200 	sfmvc	f0, 4, [r0]	; (stcvc 2, cr0, [r0])
 374:	00000008 	andeq	r0, r0, r8
 378:	00000000 	andeq	r0, r0, r0
 37c:	00000c00 	andeq	r0, r0, r0, lsl #24
 380:	00001800 	andeq	r1, r0, r0, lsl #16
 384:	7d000200 	sfmvc	f0, 4, [r0]	; (stcvc 2, cr0, [r0])
 388:	00001804 	andeq	r1, r0, r4, lsl #16
 38c:	00002000 	andeq	r2, r0, r0
 390:	91000200 	tstls	r0, r0, lsl #4
 394:	00000074 	andeq	r0, r0, r4, ror r0
 398:	00000000 	andeq	r0, r0, r0
 39c:	00002000 	andeq	r2, r0, r0
 3a0:	00002400 	andeq	r2, r0, r0, lsl #8
 3a4:	5d000100 	stfpls	f0, [r0]
 3a8:	00000024 	andeq	r0, r0, r4, lsr #32
 3ac:	00000040 	andeq	r0, r0, r0, asr #32
 3b0:	087d0002 	ldmdaeq	sp!, {r1}^
	...
 3bc:	0000002c 	andeq	r0, r0, ip, lsr #32
 3c0:	00000038 	andeq	r0, r0, r8, lsr r0
 3c4:	047d0002 	ldrbteq	r0, [sp], #-2
 3c8:	00000038 	andeq	r0, r0, r8, lsr r0
 3cc:	00000040 	andeq	r0, r0, r0, asr #32
 3d0:	74910002 	ldrvc	r0, [r1], #2
	...
 3dc:	00000058 	andeq	r0, r0, r8, asr r0
 3e0:	0000005c 	andeq	r0, r0, ip, asr r0
 3e4:	5c5d0001 	mrrcpl	0, 0, r0, sp, cr1
 3e8:	68000000 	stmdavs	r0, {}
 3ec:	02000000 	andeq	r0, r0, #0
 3f0:	00087d00 	andeq	r7, r8, r0, lsl #26
 3f4:	00000000 	andeq	r0, r0, r0
 3f8:	78000000 	stmdavc	r0, {}
 3fc:	7c000000 	stcvc	0, cr0, [r0], {0}
 400:	01000000 	tsteq	r0, r0
 404:	007c5d00 	rsbseq	r5, ip, r0, lsl #26
 408:	00880000 	addeq	r0, r8, r0
 40c:	00020000 	andeq	r0, r2, r0
 410:	0000087d 	andeq	r0, r0, sp, ror r8
 414:	00000000 	andeq	r0, r0, r0
 418:	00880000 	addeq	r0, r8, r0
 41c:	008c0000 	addeq	r0, ip, r0
 420:	00010000 	andeq	r0, r1, r0
 424:	00008c5d 	andeq	r8, r0, sp, asr ip
 428:	0000ac00 	andeq	sl, r0, r0, lsl #24
 42c:	7d000200 	sfmvc	f0, 4, [r0]	; (stcvc 2, cr0, [r0])
 430:	00000008 	andeq	r0, r0, r8
 434:	00000000 	andeq	r0, r0, r0
 438:	00008800 	andeq	r8, r0, r0, lsl #16
 43c:	00009800 	andeq	r9, r0, r0, lsl #16
 440:	50000100 	andpl	r0, r0, r0, lsl #2
 444:	00000098 	muleq	r0, r8, r0
 448:	000000ac 	andeq	r0, r0, ip, lsr #1
 44c:	047d0002 	ldrbteq	r0, [sp], #-2
	...
 458:	00000098 	muleq	r0, r8, r0
 45c:	000000a0 	andeq	r0, r0, r0, lsr #1
 460:	00500001 	subseq	r0, r0, r1
 464:	00000000 	andeq	r0, r0, r0
 468:	ac000000 	stcge	0, cr0, [r0], {0}
 46c:	b0000000 	andlt	r0, r0, r0
 470:	01000000 	tsteq	r0, r0
 474:	00b05d00 	adcseq	r5, r0, r0, lsl #26
 478:	00d00000 	sbcseq	r0, r0, r0
 47c:	00020000 	andeq	r0, r2, r0
 480:	0000087d 	andeq	r0, r0, sp, ror r8
 484:	00000000 	andeq	r0, r0, r0
 488:	00ac0000 	adceq	r0, ip, r0
 48c:	00bc0000 	adcseq	r0, ip, r0
 490:	00010000 	andeq	r0, r1, r0
 494:	0000bc50 	andeq	fp, r0, r0, asr ip
 498:	0000d000 	andeq	sp, r0, r0
 49c:	7d000200 	sfmvc	f0, 4, [r0]	; (stcvc 2, cr0, [r0])
 4a0:	00000004 	andeq	r0, r0, r4
 4a4:	00000000 	andeq	r0, r0, r0
 4a8:	0000bc00 	andeq	fp, r0, r0, lsl #24
 4ac:	0000c400 	andeq	ip, r0, r0, lsl #8
 4b0:	50000100 	andpl	r0, r0, r0, lsl #2
	...
 4bc:	000000d4 	ldrdeq	r0, [r0], -r4
 4c0:	000000d4 	ldrdeq	r0, [r0], -r4
 4c4:	00500001 	subseq	r0, r0, r1
 4c8:	00000000 	andeq	r0, r0, r0
 4cc:	f4000000 	vst4.8	{d0-d3}, [r0], r0
 4d0:	fc000000 	stc2	0, cr0, [r0], {0}
 4d4:	01000000 	tsteq	r0, r0
 4d8:	00005000 	andeq	r5, r0, r0
 4dc:	00000000 	andeq	r0, r0, r0
 4e0:	00fc0000 	rscseq	r0, ip, r0
 4e4:	010c0000 	tsteq	ip, r0
 4e8:	00010000 	andeq	r0, r1, r0
 4ec:	00000050 	andeq	r0, r0, r0, asr r0
 4f0:	00000000 	andeq	r0, r0, r0
 4f4:	00015400 	andeq	r5, r1, r0, lsl #8
 4f8:	00015800 	andeq	r5, r1, r0, lsl #16
 4fc:	5d000100 	stfpls	f0, [r0]
 500:	00000158 	andeq	r0, r0, r8, asr r1
 504:	00000278 	andeq	r0, r0, r8, ror r2
 508:	107d0002 	rsbsne	r0, sp, r2
	...
 514:	00000154 	andeq	r0, r0, r4, asr r1
 518:	00000158 	andeq	r0, r0, r8, asr r1
 51c:	64500001 	ldrbvs	r0, [r0], #-1
 520:	78000001 	stmdavc	r0, {r0}
 524:	01000001 	tsteq	r0, r1
 528:	00005000 	andeq	r5, r0, r0
 52c:	00000000 	andeq	r0, r0, r0
 530:	01740000 	cmneq	r4, r0
 534:	01800000 	orreq	r0, r0, r0
 538:	00010000 	andeq	r0, r1, r0
 53c:	00000051 	andeq	r0, r0, r1, asr r0
 540:	00000000 	andeq	r0, r0, r0
 544:	00017000 	andeq	r7, r1, r0
 548:	0001dc00 	andeq	sp, r1, r0, lsl #24
 54c:	52000100 	andpl	r0, r0, #0
 550:	00000268 	andeq	r0, r0, r8, ror #4
 554:	00000278 	andeq	r0, r0, r8, ror r2
 558:	00520001 	subseq	r0, r2, r1
 55c:	00000000 	andeq	r0, r0, r0
 560:	68000000 	stmdavs	r0, {}
 564:	94000001 	strls	r0, [r0], #-1
 568:	02000001 	andeq	r0, r0, #1
 56c:	94047d00 	strls	r7, [r4], #-3328	; 0xd00
 570:	9c000001 	stcls	0, cr0, [r0], {1}
 574:	01000001 	tsteq	r0, r1
 578:	019c5100 	orrseq	r5, ip, r0, lsl #2
 57c:	01a00000 	moveq	r0, r0
 580:	00020000 	andeq	r0, r2, r0
 584:	01a06c91 	lsleq	r6, r1, <illegal shifter operand>
 588:	01a80000 	undefined instruction 0x01a80000
 58c:	00010000 	andeq	r0, r1, r0
 590:	0001a851 	andeq	sl, r1, r1, asr r8
 594:	0001e400 	andeq	lr, r1, r0, lsl #8
 598:	91000200 	tstls	r0, r0, lsl #4
 59c:	0001e46c 	andeq	lr, r1, ip, ror #8
 5a0:	00021000 	andeq	r1, r2, r0
 5a4:	7d000200 	sfmvc	f0, 4, [r0]	; (stcvc 2, cr0, [r0])
 5a8:	00021004 	andeq	r1, r2, r4
 5ac:	00027800 	andeq	r7, r2, r0, lsl #16
 5b0:	91000200 	tstls	r0, r0, lsl #4
 5b4:	0000006c 	andeq	r0, r0, ip, rrx
 5b8:	00000000 	andeq	r0, r0, r0
 5bc:	00017800 	andeq	r7, r1, r0, lsl #16
 5c0:	0001f000 	andeq	pc, r1, r0
 5c4:	50000100 	andpl	r0, r0, r0, lsl #2
 5c8:	00000268 	andeq	r0, r0, r8, ror #4
 5cc:	00000278 	andeq	r0, r0, r8, ror r2
 5d0:	00500001 	subseq	r0, r0, r1
 5d4:	00000000 	andeq	r0, r0, r0
 5d8:	0c000000 	stceq	0, cr0, [r0], {0}
 5dc:	48000002 	stmdami	r0, {r1}
 5e0:	01000002 	tsteq	r0, r2
 5e4:	02485100 	subeq	r5, r8, #0
 5e8:	02500000 	subseq	r0, r0, #0
 5ec:	00010000 	andeq	r0, r1, r0
 5f0:	0002505c 	andeq	r5, r2, ip, asr r0
 5f4:	00027800 	andeq	r7, r2, r0, lsl #16
 5f8:	51000100 	tstpl	r0, r0, lsl #2
	...
 604:	00000214 	andeq	r0, r0, r4, lsl r2
 608:	00000264 	andeq	r0, r0, r4, ror #4
 60c:	00530001 	subseq	r0, r3, r1
 610:	00000000 	andeq	r0, r0, r0
 614:	78000000 	stmdavc	r0, {}
 618:	80000002 	andhi	r0, r0, r2
 61c:	01000002 	tsteq	r0, r2
 620:	02805d00 	addeq	r5, r0, #0
 624:	02fc0000 	rscseq	r0, ip, #0
 628:	00020000 	andeq	r0, r2, r0
 62c:	0000087d 	andeq	r0, r0, sp, ror r8
 630:	00000000 	andeq	r0, r0, r0
 634:	02cc0000 	sbceq	r0, ip, #0
 638:	02e40000 	rsceq	r0, r4, #0
 63c:	00010000 	andeq	r0, r1, r0
 640:	0002e853 	andeq	lr, r2, r3, asr r8
 644:	0002ec00 	andeq	lr, r2, r0, lsl #24
 648:	53000100 	movwpl	r0, #256	; 0x100
	...
 654:	00000294 	muleq	r0, r4, r2
 658:	000002cc 	andeq	r0, r0, ip, asr #5
 65c:	00530001 	subseq	r0, r3, r1
 660:	00000000 	andeq	r0, r0, r0
 664:	a8000000 	stmdage	r0, {}
 668:	b0000002 	andlt	r0, r0, r2
 66c:	01000002 	tsteq	r0, r2
 670:	02b05100 	adcseq	r5, r0, #0
 674:	02b80000 	adcseq	r0, r8, #0
 678:	00010000 	andeq	r0, r1, r0
 67c:	0002b854 	andeq	fp, r2, r4, asr r8
 680:	0002d400 	andeq	sp, r2, r0, lsl #8
 684:	51000100 	tstpl	r0, r0, lsl #2
 688:	000002d4 	ldrdeq	r0, [r0], -r4
 68c:	000002fc 	strdeq	r0, [r0], -ip
 690:	00540001 	subseq	r0, r4, r1
 694:	00000000 	andeq	r0, r0, r0
 698:	90000000 	andls	r0, r0, r0
 69c:	d0000002 	andle	r0, r0, r2
 6a0:	01000002 	tsteq	r0, r2
 6a4:	00005200 	andeq	r5, r0, r0, lsl #4
 6a8:	00000000 	andeq	r0, r0, r0
 6ac:	02fc0000 	rscseq	r0, ip, #0
 6b0:	03040000 	movweq	r0, #16384	; 0x4000
 6b4:	00010000 	andeq	r0, r1, r0
 6b8:	00000050 	andeq	r0, r0, r0, asr r0
 6bc:	00000000 	andeq	r0, r0, r0
 6c0:	00035000 	andeq	r5, r3, r0
 6c4:	00035400 	andeq	r5, r3, r0, lsl #8
 6c8:	5d000100 	stfpls	f0, [r0]
 6cc:	00000354 	andeq	r0, r0, r4, asr r3
 6d0:	00000384 	andeq	r0, r0, r4, lsl #7
 6d4:	107d0002 	rsbsne	r0, sp, r2
	...
 6e0:	00000350 	andeq	r0, r0, r0, asr r3
 6e4:	00000368 	andeq	r0, r0, r8, ror #6
 6e8:	00500001 	subseq	r0, r0, r1
 6ec:	00000000 	andeq	r0, r0, r0
 6f0:	60000000 	andvs	r0, r0, r0
 6f4:	78000003 	stmdavc	r0, {r0, r1}
 6f8:	01000003 	tsteq	r0, r3
 6fc:	03785600 	cmneq	r8, #0
 700:	03840000 	orreq	r0, r4, #0
 704:	00010000 	andeq	r0, r1, r0
 708:	00000055 	andeq	r0, r0, r5, asr r0
 70c:	00000000 	andeq	r0, r0, r0
	...

Disassembly of section .debug_pubnames:

00000000 <.debug_pubnames>:
   0:	00000017 	andeq	r0, r0, r7, lsl r0
   4:	00000002 	andeq	r0, r0, r2
   8:	05e30000 	strbeq	r0, [r3]!
   c:	057a0000 	ldrbeq	r0, [sl]!
  10:	616d0000 	cmnvs	sp, r0
  14:	00006e69 	andeq	r6, r0, r9, ror #28
  18:	1d000000 	stcne	0, cr0, [r0]
  1c:	02000000 	andeq	r0, r0, #0
  20:	0005e300 	andeq	lr, r5, r0, lsl #6
  24:	0000c300 	andeq	ip, r0, r0, lsl #6
  28:	00006200 	andeq	r6, r0, r0, lsl #4
  2c:	6d656d00 	stclvs	13, cr6, [r5]
  30:	6d656d5f 	stclvs	13, cr6, [r5, #-380]!	; 0xfffffe84
  34:	00797063 	rsbseq	r7, r9, r3, rrx
  38:	00000000 	andeq	r0, r0, r0
  3c:	00000068 	andeq	r0, r0, r8, rrx
  40:	07170002 	ldreq	r0, [r7, -r2]
  44:	21bc0000 	undefined instruction 0x21bc0000
  48:	1f4d0000 	svcne	0x004d0000
  4c:	656d0000 	strbvs	r0, [sp]!
  50:	77745f6d 	ldrbvc	r5, [r4, -sp, ror #30]!
  54:	6e695f69 	cdpvs	15, 6, cr5, cr9, cr9, {3}
  58:	af007469 	svcge	0x00007469
  5c:	7300001f 	movwvc	r0, #31
  60:	70757465 	rsbsvc	r7, r5, r5, ror #8
  64:	6977745f 	ldmdbvs	r7!, {r0, r1, r2, r3, r4, r6, sl, ip, sp, lr}^
  68:	766e655f 	undefined instruction 0x766e655f
  6c:	001fc200 	andseq	ip, pc, r0, lsl #4
  70:	69777400 	ldmdbvs	r7!, {sl, ip, sp, lr}^
  74:	7479625f 	ldrbtvc	r6, [r9], #-607	; 0x25f
  78:	77725f65 	ldrbvc	r5, [r2, -r5, ror #30]!
  7c:	00207600 	eoreq	r7, r0, r0, lsl #12
  80:	69777400 	ldmdbvs	r7!, {sl, ip, sp, lr}^
  84:	7479625f 	ldrbtvc	r6, [r9], #-607	; 0x25f
  88:	77725f65 	ldrbvc	r5, [r2, -r5, ror #30]!
  8c:	6d6f6e5f 	stclvs	14, cr6, [pc, #-380]!	; 0xfffffe84
  90:	2c00756d 	cfstr32cs	mvfx7, [r0], {109}	; 0x6d
  94:	6d000021 	stcvs	0, cr0, [r0, #-132]	; 0xffffff7c
  98:	745f6d65 	ldrbvc	r6, [pc], #3429	; a0 <__resume0_start+0xa0>
  9c:	655f6977 	ldrbvs	r6, [pc, #-2423]	; fffff72d <__bss_end+0xbfef977d>
  a0:	00746978 	rsbseq	r6, r4, r8, ror r9
  a4:	00000000 	andeq	r0, r0, r0
  a8:	000000d2 	ldrdeq	r0, [r0], -r2
  ac:	294a0002 	stmdbcs	sl, {r1}^
  b0:	20800000 	addcs	r0, r0, r0
  b4:	1f340000 	svcne	0x00340000
  b8:	656d0000 	strbvs	r0, [sp]!
  bc:	6c635f6d 	stclvs	15, cr5, [r3], #-436	; 0xfffffe4c
  c0:	6e695f6b 	cdpvs	15, 6, cr5, cr9, cr11, {3}
  c4:	4b007469 	blmi	1d270 <__resume0_start+0x1d270>
  c8:	6d00001f 	stcvs	0, cr0, [r0, #-124]	; 0xffffff84
  cc:	635f6d65 	cmpvs	pc, #6464	; 0x1940
  d0:	705f6b6c 	subsvc	r6, pc, ip, ror #22
  d4:	69646c6c 	stmdbvs	r4!, {r2, r3, r5, r6, sl, fp, sp, lr}^
  d8:	6c626173 	stfvse	f6, [r2], #-460	; 0xfffffe34
  dc:	1f620065 	svcne	0x00620065
  e0:	656d0000 	strbvs	r0, [sp]!
  e4:	6c635f6d 	stclvs	15, cr5, [r3], #-436	; 0xfffffe4c
  e8:	6c705f6b 	ldclvs	15, cr5, [r0], #-428	; 0xfffffe54
  ec:	616e656c 	cmnvs	lr, ip, ror #10
  f0:	00656c62 	rsbeq	r6, r5, r2, ror #24
  f4:	00001f79 	andeq	r1, r0, r9, ror pc
  f8:	5f6d656d 	svcpl	0x006d656d
  fc:	5f6b6c63 	svcpl	0x006b6c63
 100:	64746573 	ldrbtvs	r6, [r4], #-1395	; 0x573
 104:	aa007669 	bge	1dab0 <__resume0_start+0x1dab0>
 108:	6d00001f 	stcvs	0, cr0, [r0, #-124]	; 0xffffff84
 10c:	635f6d65 	cmpvs	pc, #6464	; 0x1940
 110:	675f6b6c 	ldrbvs	r6, [pc, -ip, ror #22]
 114:	69647465 	stmdbvs	r4!, {r0, r2, r5, r6, sl, ip, sp, lr}^
 118:	1fd50076 	svcne	0x00d50076
 11c:	656d0000 	strbvs	r0, [sp]!
 120:	6c635f6d 	stclvs	15, cr5, [r3], #-436	; 0xfffffe4c
 124:	65735f6b 	ldrbvs	r5, [r3, #-3947]!	; 0xf6b
 128:	6c705f74 	ldclvs	15, cr5, [r0], #-464	; 0xfffffe30
 12c:	61665f6c 	cmnvs	r6, ip, ror #30
 130:	726f7463 	rsbvc	r7, pc, #1660944384	; 0x63000000
 134:	00200600 	eoreq	r0, r0, r0, lsl #12
 138:	6d656d00 	stclvs	13, cr6, [r5]
 13c:	6b6c635f 	blvs	1b18ec0 <__resume0_start+0x1b18ec0>
 140:	7465675f 	strbtvc	r6, [r5], #-1887	; 0x75f
 144:	6c6c705f 	stclvs	0, cr7, [ip], #-380	; 0xfffffe84
 148:	6361665f 	cmnvs	r1, #99614720	; 0x5f00000
 14c:	00726f74 	rsbseq	r6, r2, r4, ror pc
 150:	00002031 	andeq	r2, r0, r1, lsr r0
 154:	5f6d656d 	svcpl	0x006d656d
 158:	5f6b6c63 	svcpl	0x006b6c63
 15c:	6d617264 	sfmvs	f7, 2, [r1, #-400]!	; (stclvs 2, cr7, [r1, #-400]!)	; 0xfffffe70
 160:	69746167 	ldmdbvs	r4!, {r0, r1, r2, r5, r6, r8, sp, lr}^
 164:	6d00676e 	stcvs	7, cr6, [r0, #-440]	; 0xfffffe48
 168:	63000020 	movwvs	r0, #32
 16c:	6d5f7570 	cfldr64vs	mvdx7, [pc, #-448]	; 0xfffffe40
 170:	6f6c5f73 	svcvs	0x006c5f73
 174:	6e63706f 	cdpvs	0, 6, cr7, cr3, cr15, {3}
 178:	00000074 	andeq	r0, r0, r4, ror r0
 17c:	01960000 	orrseq	r0, r6, r0
 180:	00020000 	andeq	r0, r2, r0
 184:	000049ca 	andeq	r4, r0, sl, asr #19
 188:	000005c4 	andeq	r0, r0, r4, asr #11
 18c:	000000dd 	ldrdeq	r0, [r0], -sp
 190:	79737562 	ldmdbvc	r3!, {r1, r5, r6, r8, sl, ip, sp, lr}^
 194:	6961775f 	stmdbvs	r1!, {r0, r1, r2, r3, r4, r6, r8, r9, sl, ip, sp, lr}^
 198:	676e6974 	undefined instruction 0x676e6974
 19c:	00010b00 	andeq	r0, r1, r0, lsl #22
 1a0:	6b616600 	blvs	18599a8 <__resume0_start+0x18599a8>
 1a4:	75625f65 	strbvc	r5, [r2, #-3941]!	; 0xf65
 1a8:	775f7973 	undefined instruction 0x775f7973
 1ac:	69746961 	ldmdbvs	r4!, {r0, r5, r6, r8, fp, sp, lr}^
 1b0:	3400676e 	strcc	r6, [r0], #-1902	; 0x76e
 1b4:	73000001 	movwvc	r0, #1
 1b8:	5f657661 	svcpl	0x00657661
 1bc:	5f6d656d 	svcpl	0x006d656d
 1c0:	67616c66 	strbvs	r6, [r1, -r6, ror #24]!
 1c4:	00015900 	andeq	r5, r1, r0, lsl #18
 1c8:	76617300 	strbtvc	r7, [r1], -r0, lsl #6
 1cc:	656d5f65 	strbvs	r5, [sp, #-3941]!	; 0xf65
 1d0:	74735f6d 	ldrbtvc	r5, [r3], #-3949	; 0xf6d
 1d4:	73757461 	cmnvc	r5, #1627389952	; 0x61000000
 1d8:	00018000 	andeq	r8, r1, r0
 1dc:	74656700 	strbtvc	r6, [r5], #-1792	; 0x700
 1e0:	6d656d5f 	stclvs	13, cr6, [r5, #-380]!	; 0xfffffe84
 1e4:	6174735f 	cmnvs	r4, pc, asr r3
 1e8:	00737574 	rsbseq	r7, r3, r4, ror r5
 1ec:	00000197 	muleq	r0, r7, r1
 1f0:	65766173 	ldrbvs	r6, [r6, #-371]!	; 0x173
 1f4:	6d656d5f 	stclvs	13, cr6, [r5, #-380]!	; 0xfffffe84
 1f8:	6174735f 	cmnvs	r4, pc, asr r3
 1fc:	5f737574 	svcpl	0x00737574
 200:	6d6d6f6e 	stclvs	15, cr6, [sp, #-440]!	; 0xfffffe48
 204:	01be0075 	undefined instruction 0x01be0075
 208:	61730000 	cmnvs	r3, r0
 20c:	735f6576 	cmpvc	pc, #494927872	; 0x1d800000
 210:	69356e75 	ldmdbvs	r5!, {r0, r2, r4, r5, r6, r9, sl, fp, sp, lr}
 214:	6d656d5f 	stclvs	13, cr6, [r5, #-380]!	; 0xfffffe84
 218:	6174735f 	cmnvs	r4, pc, asr r3
 21c:	00737574 	rsbseq	r7, r3, r4, ror r5
 220:	000001fa 	strdeq	r0, [r0], -sl
 224:	65766173 	ldrbvs	r6, [r6, #-371]!	; 0x173
 228:	6e75735f 	mrcvs	3, 3, r7, cr5, cr15, {2}
 22c:	6d5f6935 	ldclvs	9, cr6, [pc, #-212]	; 0xffffff2c
 230:	735f6d65 	cmpvc	pc, #6464	; 0x1940
 234:	75746174 	ldrbvc	r6, [r4, #-372]!	; 0x174
 238:	6f6e5f73 	svcvs	0x006e5f73
 23c:	00756d6d 	rsbseq	r6, r5, sp, ror #26
 240:	00000236 	andeq	r0, r0, r6, lsr r2
 244:	5f746567 	svcpl	0x00746567
 248:	6c637963 	stclvs	9, cr7, [r3], #-396	; 0xfffffe74
 24c:	756f6365 	strbvc	r6, [pc, #-869]!	; fffffeef <__bss_end+0xbfef9f3f>
 250:	5300746e 	movwpl	r7, #1134	; 0x46e
 254:	62000002 	andvs	r0, r0, #2
 258:	756b6361 	strbvc	r6, [fp, #-865]!	; 0x361
 25c:	65705f70 	ldrbvs	r5, [r0, #-3952]!	; 0xf70
 260:	6f636672 	svcvs	0x00636672
 264:	65746e75 	ldrbvs	r6, [r4, #-3701]!	; 0xe75
 268:	02660072 	rsbeq	r0, r6, #114	; 0x72
 26c:	6e690000 	cdpvs	0, 6, cr0, cr9, cr0, {0}
 270:	705f7469 	subsvc	r7, pc, r9, ror #8
 274:	63667265 	cmnvs	r6, #1342177286	; 0x50000006
 278:	746e756f 	strbtvc	r7, [lr], #-1391	; 0x56f
 27c:	00737265 	rsbseq	r7, r3, r5, ror #4
 280:	000002a9 	andeq	r0, r0, r9, lsr #5
 284:	74736572 	ldrbtvc	r6, [r3], #-1394	; 0x572
 288:	5f65726f 	svcpl	0x0065726f
 28c:	66726570 	undefined instruction 0x66726570
 290:	6e756f63 	cdpvs	15, 7, cr6, cr5, cr3, {3}
 294:	00726574 	rsbseq	r6, r2, r4, ror r5
 298:	000002bc 	undefined instruction 0x000002bc
 29c:	65736572 	ldrbvs	r6, [r3, #-1394]!	; 0x572
 2a0:	6f635f74 	svcvs	0x00635f74
 2a4:	65746e75 	ldrbvs	r6, [r4, #-3701]!	; 0xe75
 2a8:	02df0072 	sbcseq	r0, pc, #114	; 0x72
 2ac:	68630000 	stmdavs	r3!, {}^
 2b0:	65676e61 	strbvs	r6, [r7, #-3681]!	; 0xe61
 2b4:	6e75725f 	mrcvs	2, 3, r7, cr5, cr15, {2}
 2b8:	656d6974 	strbvs	r6, [sp, #-2420]!	; 0x974
 2bc:	766e655f 	undefined instruction 0x766e655f
 2c0:	0003e600 	andeq	lr, r3, r0, lsl #12
 2c4:	6c656400 	cfstrdvs	mvd6, [r5]
 2c8:	755f7961 	ldrbvc	r7, [pc, #-2401]	; fffff96f <__bss_end+0xbfef99bf>
 2cc:	04ba0073 	ldrteq	r0, [sl], #115	; 0x73
 2d0:	65640000 	strbvs	r0, [r4]!
 2d4:	5f79616c 	svcpl	0x0079616c
 2d8:	e200736d 	and	r7, r0, #-1275068415	; 0xb4000001
 2dc:	69000004 	stmdbvs	r0, {r2}
 2e0:	6e695f6f 	cdpvs	15, 6, cr5, cr9, cr15, {3}
 2e4:	f6007469 	undefined instruction 0xf6007469
 2e8:	69000004 	stmdbvs	r0, {r2}
 2ec:	6e695f6f 	cdpvs	15, 6, cr5, cr9, cr15, {3}
 2f0:	685f7469 	ldmdavs	pc, {r0, r3, r5, r6, sl, ip, sp, lr}^
 2f4:	00686769 	rsbeq	r6, r8, r9, ror #14
 2f8:	0000051d 	andeq	r0, r0, sp, lsl r5
 2fc:	695f6f69 	ldmdbvs	pc, {r0, r3, r5, r6, r8, r9, sl, fp, sp, lr}^
 300:	5f74696e 	svcpl	0x0074696e
 304:	00776f6c 	rsbseq	r6, r7, ip, ror #30
 308:	00000544 	andeq	r0, r0, r4, asr #10
 30c:	685f6f69 	ldmdavs	pc, {r0, r3, r5, r6, r8, r9, sl, fp, sp, lr}^
 310:	00686769 	rsbeq	r6, r8, r9, ror #14
 314:	00000000 	andeq	r0, r0, r0
 318:	0000009a 	muleq	r0, sl, r0
 31c:	50050002 	andpl	r0, r5, r2
 320:	04cf0000 	strbeq	r0, [pc], #0	; 328 <__resume0_start+0x328>
 324:	03360000 	teqeq	r6, #0
 328:	5f5f0000 	svcpl	0x005f0000
 32c:	65766173 	ldrbvs	r6, [r6, #-371]!	; 0x173
 330:	6f72705f 	svcvs	0x0072705f
 334:	73736563 	cmnvc	r3, #415236096	; 0x18c00000
 338:	735f726f 	cmpvc	pc, #-268435450	; 0xf0000006
 33c:	65746174 	ldrbvs	r6, [r4, #-372]!	; 0x174
 340:	00036100 	andeq	r6, r3, r0, lsl #2
 344:	725f5f00 	subsvc	r5, pc, #0
 348:	6f747365 	svcvs	0x00747365
 34c:	705f6572 	subsvc	r6, pc, r2, ror r5
 350:	65636f72 	strbvs	r6, [r3, #-3954]!	; 0xf72
 354:	726f7373 	rsbvc	r7, pc, #-872415231	; 0xcc000001
 358:	6174735f 	cmnvs	r4, pc, asr r3
 35c:	86006574 	undefined instruction 0x86006574
 360:	6d000003 	stcvs	0, cr0, [r0, #-12]
 364:	725f6d65 	subsvc	r6, pc, #6464	; 0x1940
 368:	6f747365 	svcvs	0x00747365
 36c:	705f6572 	subsvc	r6, pc, r2, ror r5
 370:	65636f72 	strbvs	r6, [r3, #-3954]!	; 0xf72
 374:	726f7373 	rsbvc	r7, pc, #-872415231	; 0xcc000001
 378:	6174735f 	cmnvs	r4, pc, asr r3
 37c:	ad006574 	cfstr32ge	mvfx6, [r0, #-464]	; 0xfffffe30
 380:	64000003 	strvs	r0, [r0], #-3
 384:	62617369 	rsbvs	r7, r1, #-1543503871	; 0xa4000001
 388:	635f656c 	cmpvs	pc, #452984832	; 0x1b000000
 38c:	65686361 	strbvs	r6, [r8, #-865]!	; 0x361
 390:	766e695f 	undefined instruction 0x766e695f
 394:	64696c61 	strbtvs	r6, [r9], #-3169	; 0xc61
 398:	00657461 	rsbeq	r7, r5, r1, ror #8
 39c:	000003d4 	ldrdeq	r0, [r0], -r4
 3a0:	5f746573 	svcpl	0x00746573
 3a4:	72706f63 	rsbsvc	r6, r0, #396	; 0x18c
 3a8:	65645f6f 	strbvs	r5, [r4, #-3951]!	; 0xf6f
 3ac:	6c756166 	ldfvse	f6, [r5], #-408	; 0xfffffe68
 3b0:	00000074 	andeq	r0, r0, r4, ror r0
	...

Disassembly of section .debug_aranges:

00000000 <.debug_aranges>:
   0:	0000001c 	andeq	r0, r0, ip, lsl r0
   4:	00000002 	andeq	r0, r0, r2
   8:	00040000 	andeq	r0, r4, r0
   c:	00000000 	andeq	r0, r0, r0
  10:	40100000 	andsmi	r0, r0, r0
  14:	000000c8 	andeq	r0, r0, r8, asr #1
	...
  20:	0000001c 	andeq	r0, r0, ip, lsl r0
  24:	05e30002 	strbeq	r0, [r3, #2]!
  28:	00040000 	andeq	r0, r4, r0
  2c:	00000000 	andeq	r0, r0, r0
  30:	401000c8 	andsmi	r0, r0, r8, asr #1
  34:	00000024 	andeq	r0, r0, r4, lsr #32
	...
  40:	0000001c 	andeq	r0, r0, ip, lsl r0
  44:	06a60002 	strteq	r0, [r6], r2
  48:	00040000 	andeq	r0, r4, r0
  4c:	00000000 	andeq	r0, r0, r0
  50:	40100100 	andsmi	r0, r0, r0, lsl #2
  54:	000004e4 	andeq	r0, r0, r4, ror #9
	...
  60:	0000001c 	andeq	r0, r0, ip, lsl r0
  64:	07170002 	ldreq	r0, [r7, -r2]
  68:	00040000 	andeq	r0, r4, r0
  6c:	00000000 	andeq	r0, r0, r0
  70:	40100600 	andsmi	r0, r0, r0, lsl #12
  74:	0000078c 	andeq	r0, r0, ip, lsl #15
	...
  80:	0000001c 	andeq	r0, r0, ip, lsl r0
  84:	28d30002 	ldmcs	r3, {r1}^
  88:	00040000 	andeq	r0, r4, r0
  8c:	00000000 	andeq	r0, r0, r0
  90:	40100d8c 	andsmi	r0, r0, ip, lsl #27
  94:	00000028 	andeq	r0, r0, r8, lsr #32
	...
  a0:	0000001c 	andeq	r0, r0, ip, lsl r0
  a4:	294a0002 	stmdbcs	sl, {r1}^
  a8:	00040000 	andeq	r0, r4, r0
  ac:	00000000 	andeq	r0, r0, r0
  b0:	40100db4 	undefined instruction 0x40100db4
  b4:	00000274 	andeq	r0, r0, r4, ror r2
	...
  c0:	0000001c 	andeq	r0, r0, ip, lsl r0
  c4:	49ca0002 	stmibmi	sl, {r1}^
  c8:	00040000 	andeq	r0, r4, r0
  cc:	00000000 	andeq	r0, r0, r0
  d0:	40105080 	andsmi	r5, r0, r0, lsl #1
  d4:	00000384 	andeq	r0, r0, r4, lsl #7
	...
  e0:	0000001c 	andeq	r0, r0, ip, lsl r0
  e4:	4f8e0002 	svcmi	0x008e0002
  e8:	00040000 	andeq	r0, r4, r0
  ec:	00000000 	andeq	r0, r0, r0
  f0:	40105410 	andsmi	r5, r0, r0, lsl r4
  f4:	00000150 	andeq	r0, r0, r0, asr r1
	...
 100:	0000001c 	andeq	r0, r0, ip, lsl r0
 104:	50050002 	andpl	r0, r5, r2
 108:	00040000 	andeq	r0, r4, r0
 10c:	00000000 	andeq	r0, r0, r0
 110:	40105560 	andsmi	r5, r0, r0, ror #10
 114:	00000a18 	andeq	r0, r0, r8, lsl sl
	...

Disassembly of section .debug_str:

00000000 <.debug_str>:
       0:	74636146 	strbtvc	r6, [r3], #-326	; 0x146
       4:	004d726f 	subeq	r7, sp, pc, ror #4
       8:	74636146 	strbtvc	r6, [r3], #-326	; 0x146
       c:	004e726f 	subeq	r7, lr, pc, ror #4
      10:	74636146 	strbtvc	r6, [r3], #-326	; 0x146
      14:	0050726f 	subseq	r7, r0, pc, ror #4
      18:	61665f69 	cmnvs	r6, r9, ror #30
      1c:	70630072 	rsbvc	r0, r3, r2, ror r0
      20:	69645f75 	stmdbvs	r4!, {r0, r2, r4, r5, r6, r8, r9, sl, fp, ip, lr}^
      24:	63730076 	cmnvs	r3, #118	; 0x76
      28:	72676663 	rsbvc	r6, r7, #103809024	; 0x6300000
      2c:	6b6c6300 	blvs	1b18c34 <__resume0_start+0x1b18c34>
      30:	7669645f 	undefined instruction 0x7669645f
      34:	76617300 	strbtvc	r7, [r1], -r0, lsl #6
      38:	725f6465 	subsvc	r6, pc, #1694498816	; 0x65000000
      3c:	69746e75 	ldmdbvs	r4!, {r0, r2, r4, r5, r6, r9, sl, fp, sp, lr}^
      40:	635f656d 	cmpvs	pc, #457179136	; 0x1b400000
      44:	65746e6f 	ldrbvs	r6, [r4, #-3695]!	; 0xe6f
      48:	735f7478 	cmpvc	pc, #2013265920	; 0x78000000
      4c:	64006376 	strvs	r6, [r0], #-886	; 0x376
      50:	7273665f 	rsbsvc	r6, r3, #99614720	; 0x5f00000
      54:	554e4700 	strbpl	r4, [lr, #-1792]	; 0x700
      58:	34204320 	strtcc	r4, [r0], #-800	; 0x320
      5c:	342e342e 	strtcc	r3, [lr], #-1070	; 0x42e
      60:	6f687300 	svcvs	0x00687300
      64:	69207472 	stmdbvs	r0!, {r1, r4, r5, r6, sl, ip, sp, lr}
      68:	7300746e 	movwvc	r7, #1134	; 0x46e
      6c:	64657661 	strbtvs	r7, [r5], #-1633	; 0x661
      70:	756d6d5f 	strbvc	r6, [sp, #-3423]!	; 0xd5f
      74:	6174735f 	cmnvs	r4, pc, asr r3
      78:	6d006574 	cfstr32vs	mvfx6, [r0, #-464]	; 0xfffffe30
      7c:	65766e6f 	ldrbvs	r6, [r6, #-3695]!	; 0xe6f
      80:	72616263 	rsbvc	r6, r1, #805306374	; 0x30000006
      84:	6b6c6300 	blvs	1b18c8c <__resume0_start+0x1b18c8c>
      88:	7669645f 	undefined instruction 0x7669645f
      8c:	6d00745f 	cfstrsvs	mvf7, [r0, #-380]	; 0xfffffe84
      90:	006e6961 	rsbeq	r6, lr, r1, ror #18
      94:	72737363 	rsbsvc	r7, r3, #-1946157055	; 0x8c000001
      98:	6c6c7000 	stclvs	0, cr7, [ip]
      9c:	6361665f 	cmnvs	r1, #99614720	; 0x5f00000
      a0:	5f726f74 	svcpl	0x00726f74
      a4:	63730074 	cmnvs	r3, #116	; 0x74
      a8:	65676264 	strbvs	r6, [r7, #-612]!	; 0x264
      ac:	726c626e 	rsbvc	r6, ip, #-536870906	; 0xe0000006
      b0:	69786100 	ldmdbvs	r8!, {r8, sp, lr}^
      b4:	7669645f 	undefined instruction 0x7669645f
      b8:	656c7000 	strbvs	r7, [ip]!
      bc:	72617369 	rsbvc	r7, r1, #-1543503871	; 0xa4000001
      c0:	63326c00 	teqvs	r2, #0
      c4:	63787561 	cmnvs	r8, #406847488	; 0x18400000
      c8:	726c7274 	rsbvc	r7, ip, #1073741831	; 0x40000007
      cc:	63616400 	cmnvs	r1, #0
      d0:	5f5f0072 	svcpl	0x005f0072
      d4:	00323375 	eorseq	r3, r2, r5, ror r3
      d8:	61665f64 	cmnvs	r6, r4, ror #30
      dc:	70610072 	rsbvc	r0, r1, r2, ror r0
      e0:	69645f62 	stmdbvs	r4!, {r1, r5, r6, r8, r9, sl, fp, ip, lr}^
      e4:	65720076 	ldrbvs	r0, [r2, #-118]!	; 0x76
      e8:	656d7573 	strbvs	r7, [sp, #-1395]!	; 0x573
      ec:	696f705f 	stmdbvs	pc!, {r0, r1, r2, r3, r4, r6, ip, sp, lr}^
      f0:	7265746e 	rsbvc	r7, r5, #1845493760	; 0x6e000000
      f4:	6e6f6c00 	cdpvs	12, 6, cr6, cr15, cr0, {0}
      f8:	6f6c2067 	svcvs	0x006c2067
      fc:	6920676e 	stmdbvs	r0!, {r1, r2, r3, r5, r6, r8, r9, sl, sp, lr}
     100:	6900746e 	stmdbvs	r0, {r1, r2, r3, r5, r6, sl, ip, sp, lr}
     104:	00727365 	rsbseq	r7, r2, r5, ror #6
     108:	5f626861 	svcpl	0x00626861
     10c:	00766964 	rsbseq	r6, r6, r4, ror #18
     110:	75736572 	ldrbvc	r6, [r3, #-1394]!	; 0x572
     114:	0031656d 	eorseq	r6, r1, sp, ror #10
     118:	65736572 	ldrbvs	r6, [r3, #-1394]!	; 0x572
     11c:	64657672 	strbtvs	r7, [r5], #-1650	; 0x672
     120:	62747400 	rsbsvs	r7, r4, #0
     124:	0072305f 	rsbseq	r3, r2, pc, asr r0
     128:	72736370 	rsbsvc	r6, r3, #-1073741823	; 0xc0000001
     12c:	76617300 	strbtvc	r7, [r1], -r0, lsl #6
     130:	635f6465 	cmpvs	pc, #1694498816	; 0x65000000
     134:	635f7570 	cmpvs	pc, #469762048	; 0x1c000000
     138:	65746e6f 	ldrbvs	r6, [r4, #-3695]!	; 0xe6f
     13c:	70007478 	andvc	r7, r0, r8, ror r4
     140:	6175656c 	cmnvs	r5, ip, ror #10
     144:	77610072 	undefined instruction 0x77610072
     148:	6d656d5f 	stclvs	13, cr6, [r5, #-380]!	; 0xfffffe84
     14c:	7261705f 	rsbvc	r7, r1, #95	; 0x5f
     150:	5f640061 	svcpl	0x00640061
     154:	72736661 	rsbsvc	r6, r3, #101711872	; 0x6100000
     158:	76617300 	strbtvc	r7, [r1], -r0, lsl #6
     15c:	635f6465 	cmpvs	pc, #1694498816	; 0x65000000
     160:	65746e6f 	ldrbvs	r6, [r4, #-3695]!	; 0xe6f
     164:	75007478 	strvc	r7, [r0, #-1144]	; 0x478
     168:	6769736e 	strbvs	r7, [r9, -lr, ror #6]!
     16c:	2064656e 	rsbcs	r6, r4, lr, ror #10
     170:	72616863 	rsbvc	r6, r1, #6488064	; 0x630000
     174:	72727000 	rsbsvc	r7, r2, #0
     178:	61730072 	cmnvs	r3, r2, ror r0
     17c:	5f646576 	svcpl	0x00646576
     180:	6d617264 	sfmvs	f7, 2, [r1, #-400]!	; (stclvs 2, cr7, [r1, #-400]!)	; 0xfffffe70
     184:	6172745f 	cmnvs	r2, pc, asr r4
     188:	6e696e69 	cdpvs	14, 6, cr6, cr9, cr9, {3}
     18c:	72615f67 	rsbvc	r5, r1, #412	; 0x19c
     190:	69006165 	stmdbvs	r0, {r0, r2, r5, r6, r8, sp, lr}
     194:	626c745f 	rsbvs	r7, ip, #1593835520	; 0x5f000000
     198:	7500726c 	strvc	r7, [r0, #-620]	; 0x26c
     19c:	70747772 	rsbsvc	r7, r4, r2, ror r7
     1a0:	73006469 	movwvc	r6, #1129	; 0x469
     1a4:	655f7379 	ldrbvs	r7, [pc, #-889]	; fffffe33 <__bss_end+0xbfef9e83>
     1a8:	746e6576 	strbtvc	r6, [lr], #-1398	; 0x576
     1ac:	73657200 	cmnvc	r5, #0
     1b0:	31656d75 	smccc	22229	; 0x56d5
     1b4:	6e69625f 	mcrvs	2, 3, r6, cr9, cr15, {2}
     1b8:	646e655f 	strbtvs	r6, [lr], #-1375	; 0x55f
     1bc:	735f5f00 	cmpvc	pc, #0
     1c0:	70003233 	andvc	r3, r0, r3, lsr r2
     1c4:	7263656c 	rsbvc	r6, r3, #452984832	; 0x1b000000
     1c8:	73757300 	cmnvc	r5, #0
     1cc:	646e6570 	strbtvs	r6, [lr], #-1392	; 0x570
     1d0:	6463645f 	strbtvs	r6, [r3], #-1119	; 0x45f
     1d4:	73003263 	movwvc	r3, #611	; 0x263
     1d8:	65707375 	ldrbvs	r7, [r0, #-885]!	; 0x375
     1dc:	645f646e 	ldrbvs	r6, [pc], #1134	; 1e4 <__resume0_start+0x1e4>
     1e0:	33636463 	cmncc	r3, #1660944384	; 0x63000000
     1e4:	63656300 	cmnvs	r5, #0
     1e8:	6f6c0072 	svcvs	0x006c0072
     1ec:	6c20676e 	stcvs	7, cr6, [r0], #-440	; 0xfffffe48
     1f0:	20676e6f 	rsbcs	r6, r7, pc, ror #28
     1f4:	69736e75 	ldmdbvs	r3!, {r0, r2, r4, r5, r6, r9, sl, fp, sp, lr}^
     1f8:	64656e67 	strbtvs	r6, [r5], #-3687	; 0xe67
     1fc:	746e6920 	strbtvc	r6, [lr], #-2336	; 0x920
     200:	63656900 	cmnvs	r5, #0
     204:	6e730072 	mrcvs	0, 3, r0, cr3, cr2, {3}
     208:	61627673 	smcvs	10083	; 0x2763
     20c:	78610072 	stmdavc	r1!, {r1, r4, r5, r6}^
     210:	76655f70 	uqsub16vc	r5, r5, r0
     214:	00746e65 	rsbseq	r6, r4, r5, ror #28
     218:	726f6873 	rsbvc	r6, pc, #7536640	; 0x730000
     21c:	6e752074 	mrcvs	0, 3, r2, cr5, cr4, {3}
     220:	6e676973 	mcrvs	9, 3, r6, cr7, cr3, {3}
     224:	69206465 	stmdbvs	r0!, {r0, r2, r5, r6, sl, sp, lr}
     228:	7000746e 	andvc	r7, r0, lr, ror #8
     22c:	6963656c 	stmdbvs	r3!, {r2, r3, r5, r6, r8, sl, sp, lr}^
     230:	6e007264 	cdpvs	2, 0, cr7, cr0, cr4, {3}
     234:	63736e6f 	cmnvs	r3, #1776	; 0x6f0
     238:	74636361 	strbtvc	r6, [r3], #-865	; 0x361
     23c:	00726c72 	rsbseq	r6, r2, r2, ror ip
     240:	746f7275 	strbtvc	r7, [pc], #629	; 248 <__resume0_start+0x248>
     244:	00646970 	rsbeq	r6, r4, r0, ror r9
     248:	6d6f682f 	stclvs	8, cr6, [pc, #-188]!	; 0xffffff44
     24c:	696d2f65 	stmdbvs	sp!, {r0, r2, r5, r6, r8, r9, sl, fp, sp}^
     250:	772f656b 	strvc	r6, [pc, -fp, ror #10]!
     254:	2f6b726f 	svccs	0x006b726f
     258:	756e696c 	strbvc	r6, [lr, #-2412]!	; 0x96c
     25c:	32365f78 	eorscc	r5, r6, #480	; 0x1e0
     260:	72612f34 	rsbvc	r2, r1, #208	; 0xd0
     264:	612f6863 	teqvs	pc, r3, ror #16
     268:	6d2f6d72 	stcvs	13, cr6, [pc, #-456]!	; 0xfffffe38
     26c:	2d686361 	stclcs	3, cr6, [r8, #-388]!	; 0xfffffe7c
     270:	356e7573 	strbcc	r7, [lr, #-1395]!	; 0x573
     274:	6d702f69 	ldclvs	15, cr2, [r0, #-420]!	; 0xfffffe5c
     278:	6174732f 	cmnvs	r4, pc, lsr #6
     27c:	7962646e 	stmdbvc	r2!, {r1, r2, r3, r5, r6, sl, sp, lr}^
     280:	63326c00 	teqvs	r2, #0
     284:	6400726c 	strvs	r7, [r0], #-620	; 0x26c
     288:	626c745f 	rsbvs	r7, ip, #1593835520	; 0x5f000000
     28c:	6600726c 	strvs	r7, [r0], -ip, ror #4
     290:	00657363 	rsbeq	r7, r5, r3, ror #6
     294:	38755f5f 	ldmdacc	r5!, {r0, r1, r2, r3, r4, r6, r8, r9, sl, fp, ip, lr}^
     298:	73666f00 	cmnvc	r6, #0
     29c:	6d700072 	ldclvs	0, cr0, [r0, #-456]!	; 0xfffffe38
     2a0:	746e6f63 	strbtvc	r6, [lr], #-3939	; 0xf63
     2a4:	726c6f72 	rsbvc	r6, ip, #456	; 0x1c8
     2a8:	73656300 	cmnvc	r5, #0
     2ac:	75730072 	ldrbvc	r0, [r3, #-114]!	; 0x72
     2b0:	6e657073 	mcrvs	0, 3, r7, cr5, cr3, {3}
     2b4:	72665f64 	rsbvc	r5, r6, #400	; 0x190
     2b8:	72007165 	andvc	r7, r0, #1073741849	; 0x40000019
     2bc:	6d757365 	ldclvs	3, cr7, [r5, #-404]!	; 0xfffffe6c
     2c0:	625f3165 	subsvs	r3, pc, #1073741849	; 0x40000019
     2c4:	735f6e69 	cmpvc	pc, #1680	; 0x690
     2c8:	74726174 	ldrbtvc	r6, [r2], #-372	; 0x174
     2cc:	62747400 	rsbsvs	r7, r4, #0
     2d0:	0072315f 	rsbseq	r3, r2, pc, asr r1
     2d4:	5f6d656d 	svcpl	0x006d656d
     2d8:	61726170 	cmnvs	r2, r0, ror r1
     2dc:	666e695f 	undefined instruction 0x666e695f
     2e0:	6c70006f 	ldclvs	0, cr0, [r0], #-444	; 0xfffffe44
     2e4:	61656965 	cmnvs	r5, r5, ror #18
     2e8:	5f690072 	svcpl	0x00690072
     2ec:	00727366 	rsbseq	r7, r2, r6, ror #6
     2f0:	7272726e 	rsbsvc	r7, r2, #-536870906	; 0xe0000006
     2f4:	62747400 	rsbsvs	r7, r4, #0
     2f8:	70007263 	andvc	r7, r0, r3, ror #4
     2fc:	756f636d 	strbvc	r6, [pc, #-877]!	; ffffff97 <__bss_end+0xbfef9fe7>
     300:	0072746e 	rsbseq	r7, r2, lr, ror #8
     304:	66615f69 	strbtvs	r5, [r1], -r9, ror #30
     308:	2e007273 	mcrcs	2, 0, r7, cr0, cr3, {3}
     30c:	7075732f 	rsbsvc	r7, r5, pc, lsr #6
     310:	722f7265 	eorvc	r7, pc, #1342177286	; 0x50000006
     314:	6d757365 	ldclvs	3, cr7, [r5, #-404]!	; 0xfffffe6c
     318:	65722f65 	ldrbvs	r2, [r2, #-3941]!	; 0xf65
     31c:	656d7573 	strbvs	r7, [sp, #-1395]!	; 0x573
     320:	00632e30 	rsbeq	r2, r3, r0, lsr lr
     324:	63656c70 	cmnvs	r5, #28672	; 0x7000
     328:	7000726e 	andvc	r7, r0, lr, ror #4
     32c:	6970746f 	ldmdbvs	r0!, {r0, r1, r2, r3, r5, r6, sl, ip, sp, lr}^
     330:	61630064 	cmnvs	r3, r4, rrx
     334:	46007263 	strmi	r7, [r0], -r3, ror #4
     338:	6f746361 	svcvs	0x00746361
     33c:	64004b72 	strvs	r4, [r0], #-2930	; 0xb72
     340:	00747365 	rsbseq	r7, r4, r5, ror #6
     344:	5f706d74 	svcpl	0x00706d74
     348:	00747364 	rsbseq	r7, r4, r4, ror #6
     34c:	75732f2e 	ldrbvc	r2, [r3, #-3886]!	; 0xf2e
     350:	2f726570 	svccs	0x00726570
     354:	6d6d6f63 	stclvs	15, cr6, [sp, #-396]!	; 0xfffffe74
     358:	632e6e6f 	teqvs	lr, #1776	; 0x6f0
     35c:	706d7400 	rsbvc	r7, sp, r0, lsl #8
     360:	6372735f 	cmnvs	r2, #2080374785	; 0x7c000001
     364:	6d656d00 	stclvs	13, cr6, [r5]
     368:	6d656d5f 	stclvs	13, cr6, [r5, #-380]!	; 0xfffffe84
     36c:	00797063 	rsbseq	r7, r9, r3, rrx
     370:	356c6c50 	strbcc	r6, [ip, #-3152]!	; 0xc50
     374:	656e7554 	strbvs	r7, [lr, #-1364]!	; 0x554
     378:	76615700 	strbtvc	r5, [r1], -r0, lsl #14
     37c:	65745365 	ldrbvs	r5, [r4, #-869]!	; 0x365
     380:	5f5f0070 	svcpl	0x005f0070
     384:	756d6363 	strbvc	r6, [sp, #-867]!	; 0x363
     388:	6268615f 	rsbvs	r6, r8, #-1073741801	; 0xc0000017
     38c:	5f6b6c63 	svcpl	0x006b6c63
     390:	65746167 	ldrbvs	r6, [r4, #-359]!	; 0x167
     394:	65725f30 	ldrbvs	r5, [r2, #-3888]!	; 0xf30
     398:	36303067 	ldrtcc	r3, [r0], -r7, rrx
     39c:	00745f30 	rsbseq	r5, r4, r0, lsr pc
     3a0:	356c6c50 	strbcc	r6, [ip, #-3152]!	; 0xc50
     3a4:	656e7554 	strbvs	r7, [lr, #-1364]!	; 0x554
     3a8:	65560032 	ldrbvs	r0, [r6, #-50]	; 0x32
     3ac:	006b6c43 	rsbeq	r6, fp, r3, asr #24
     3b0:	52657654 	rsbpl	r7, r5, #88080384	; 0x5400000
     3b4:	74657365 	strbtvc	r7, [r5], #-869	; 0x365
     3b8:	635f5f00 	cmpvs	pc, #0
     3bc:	5f756d63 	svcpl	0x00756d63
     3c0:	696d6468 	stmdbvs	sp!, {r3, r5, r6, sl, sp, lr}^
     3c4:	6b6c635f 	blvs	1b19148 <__resume0_start+0x1b19148>
     3c8:	6765725f 	undefined instruction 0x6765725f
     3cc:	30353130 	eorscc	r3, r5, r0, lsr r1
     3d0:	5f00745f 	svcpl	0x0000745f
     3d4:	4d43435f 	stclmi	3, cr4, [r3, #-380]	; 0xfffffe84
     3d8:	48415f55 	stmdami	r1, {r0, r2, r4, r6, r8, r9, sl, fp, ip, lr}^
     3dc:	4b4c4342 	blmi	13110ec <__resume0_start+0x13110ec>
     3e0:	5441475f 	strbpl	r4, [r1], #-1887	; 0x75f
     3e4:	525f3045 	subspl	r3, pc, #69	; 0x45
     3e8:	30304745 	eorscc	r4, r0, r5, asr #14
     3ec:	4d003036 	stcmi	0, cr3, [r0, #-216]	; 0xffffff28
     3f0:	43737562 	cmnmi	r3, #411041792	; 0x18800000
     3f4:	54006b6c 	strpl	r6, [r0], #-2924	; 0xb6c
     3f8:	74614773 	strbtvc	r4, [r1], #-1907	; 0x773
     3fc:	70530065 	subsvc	r0, r3, r5, rrx
     400:	6c433169 	stfvse	f3, [r3], {105}	; 0x69
     404:	634c006b 	movtvs	r0, #49259	; 0xc06b
     408:	68433064 	stmdavs	r3, {r2, r5, r6, ip, sp}^
     40c:	6b6c4330 	blvs	1b110d4 <__resume0_start+0x1b110d4>
     410:	435f5f00 	cmpmi	pc, #0
     414:	5f554d43 	svcpl	0x00554d43
     418:	324c4c50 	subcc	r4, ip, #20480	; 0x5000
     41c:	4e55545f 	mrcmi	4, 2, r5, cr5, cr15, {2}
     420:	5f474e49 	svcpl	0x00474e49
     424:	30474552 	subcc	r4, r7, r2, asr r5
     428:	00433030 	subeq	r3, r3, r0, lsr r0
     42c:	474f4356 	smlsldmi	r4, pc, r6, r3
     430:	436e6961 	cmnmi	lr, #1589248	; 0x184000
     434:	67006c74 	smlsdxvs	r0, r4, ip, r6
     438:	70756f72 	rsbsvc	r6, r5, r2, ror pc
     43c:	67657200 	strbvs	r7, [r5, -r0, lsl #4]!
     440:	6c74635f 	ldclvs	3, cr6, [r4], #-380	; 0xfffffe84
     444:	435f5f00 	cmpmi	pc, #0
     448:	5f554d43 	svcpl	0x00554d43
     44c:	45444546 	strbmi	r4, [r4, #-1350]	; 0x546
     450:	435f504d 	cmpmi	pc, #77	; 0x4d
     454:	54004b4c 	strpl	r4, [r0], #-2892	; 0xb4c
     458:	4f5f4957 	svcmi	0x005f4957
     45c:	52575f50 	subspl	r5, r7, #320	; 0x140
     460:	635f5f00 	cmpvs	pc, #0
     464:	5f756d63 	svcpl	0x00756d63
     468:	316c6c70 	smccc	50880	; 0xc6c0
     46c:	6e75745f 	mrcvs	4, 3, r7, cr5, cr15, {2}
     470:	5f676e69 	svcpl	0x00676e69
     474:	30676572 	rsbcc	r6, r7, r2, ror r5
     478:	5f343030 	svcpl	0x00343030
     47c:	5f5f0074 	svcpl	0x005f0074
     480:	756d6363 	strbvc	r6, [sp, #-867]!	; 0x363
     484:	6464615f 	strbtvs	r6, [r4], #-351	; 0x15f
     488:	6c635f61 	stclvs	15, cr5, [r3], #-388	; 0xfffffe7c
     48c:	65725f6b 	ldrbvs	r5, [r2, #-3947]!	; 0xf6b
     490:	34313067 	ldrtcc	r3, [r1], #-103	; 0x67
     494:	00745f30 	rsbseq	r5, r4, r0, lsr pc
     498:	63635f5f 	cmnvs	r3, #380	; 0x17c
     49c:	645f756d 	ldrbvs	r7, [pc], #1389	; 4a4 <__resume0_start+0x4a4>
     4a0:	5f6d6172 	svcpl	0x006d6172
     4a4:	65746167 	ldrbvs	r6, [r4, #-359]!	; 0x167
     4a8:	6765725f 	undefined instruction 0x6765725f
     4ac:	30303130 	eorscc	r3, r0, r0, lsr r1
     4b0:	5f00745f 	svcpl	0x0000745f
     4b4:	5f6d656d 	svcpl	0x006d656d
     4b8:	5f697774 	svcpl	0x00697774
     4bc:	74666f73 	strbtvc	r6, [r6], #-3955	; 0xf73
     4c0:	7365725f 	cmnvc	r5, #-268435451	; 0xf0000005
     4c4:	50007465 	andpl	r7, r0, r5, ror #8
     4c8:	4474736f 	ldrbtmi	r7, [r4], #-879	; 0x36f
     4cc:	53007669 	movwpl	r7, #1641	; 0x669
     4d0:	47306970 	undefined instruction 0x47306970
     4d4:	00657461 	rsbeq	r7, r5, r1, ror #8
     4d8:	6d4d6453 	cfstrdvs	mvd6, [sp, #-332]	; 0xfffffeb4
     4dc:	6c433063 	mcrrvs	0, 6, r3, r3, cr3
     4e0:	6c43006b 	mcrrvs	0, 6, r0, r3, cr11
     4e4:	6572506b 	ldrbvs	r5, [r2, #-107]!	; 0x6b
     4e8:	00766944 	rsbseq	r6, r6, r4, asr #18
     4ec:	706f7473 	rsbvc	r7, pc, r3, ror r4
     4f0:	74756f5f 	ldrbtvc	r6, [r5], #-3935	; 0xf5f
     4f4:	64616200 	strbtvs	r6, [r1], #-512	; 0x200
     4f8:	56007264 	strpl	r7, [r0], -r4, ror #4
     4fc:	61474f43 	cmpvs	r7, r3, asr #30
     500:	6e456e69 	cdpvs	14, 4, cr6, cr5, cr9, {3}
     504:	4c4c5000 	marmi	acc0, r5, ip
     508:	6f506e49 	svcvs	0x00506e49
     50c:	00726577 	rsbseq	r6, r2, r7, ror r5
     510:	43435f5f 	movtmi	r5, #16223	; 0x3f5f
     514:	4c5f554d 	cfldr64mi	mvdx5, [pc], {77}	; 0x4d
     518:	5f534456 	svcpl	0x00534456
     51c:	5f4b4c43 	svcpl	0x004b4c43
     520:	30474552 	subcc	r4, r7, r2, asr r5
     524:	00433431 	subeq	r3, r3, r1, lsr r4
     528:	476f6950 	undefined instruction 0x476f6950
     52c:	00657461 	rsbeq	r7, r5, r1, ror #8
     530:	346c6c50 	strbtcc	r6, [ip], #-3152	; 0xc50
     534:	006c7443 	rsbeq	r7, ip, r3, asr #8
     538:	63635f5f 	cmnvs	r3, #380	; 0x17c
     53c:	705f756d 	subsvc	r7, pc, sp, ror #10
     540:	5f316c6c 	svcpl	0x00316c6c
     544:	696e7574 	stmdbvs	lr!, {r2, r4, r5, r6, r8, sl, ip, sp, lr}^
     548:	5f32676e 	svcpl	0x0032676e
     54c:	30676572 	rsbcc	r6, r7, r2, ror r5
     550:	5f383330 	svcpl	0x00383330
     554:	5f5f0074 	svcpl	0x005f0074
     558:	554d4343 	strbpl	r4, [sp, #-835]	; 0x343
     55c:	444f4d5f 	strbmi	r4, [pc], #3423	; 564 <__resume0_start+0x564>
     560:	31454c55 	cmpcc	r5, r5, asr ip
     564:	4b4c435f 	blmi	13112e8 <__resume0_start+0x13112e8>
     568:	4f444c00 	svcmi	0x00444c00
     56c:	5f006e45 	svcpl	0x00006e45
     570:	6d63635f 	stclvs	3, cr6, [r3, #-380]!	; 0xfffffe84
     574:	6c705f75 	ldclvs	15, cr5, [r0], #-468	; 0xfffffe2c
     578:	735f366c 	cmpvc	pc, #113246208	; 0x6c00000
     57c:	5f617461 	svcpl	0x00617461
     580:	30676572 	rsbcc	r6, r7, r2, ror r5
     584:	5f383230 	svcpl	0x00383230
     588:	61420074 	cmpvs	r2, r4, ror r0
     58c:	6957646e 	ldmdbvs	r7, {r1, r2, r3, r5, r6, sl, sp, lr}^
     590:	00687464 	rsbeq	r7, r8, r4, ror #8
     594:	6c437353 	mcrrvs	3, 5, r7, r3, cr3
     598:	7355006b 	cmpvc	r5, #107	; 0x6b
     59c:	6b6c4362 	blvs	1b1132c <__resume0_start+0x1b1132c>
     5a0:	635f5f00 	cmpvs	pc, #0
     5a4:	5f756d63 	svcpl	0x00756d63
     5a8:	6364636c 	cmnvs	r4, #-1342177279	; 0xb0000001
     5ac:	635f3068 	cmpvs	pc, #104	; 0x68
     5b0:	745f6b6c 	ldrbvc	r6, [pc], #2924	; 5b8 <__resume0_start+0x5b8>
     5b4:	64634c00 	strbtvs	r4, [r3], #-3072	; 0xc00
     5b8:	31684330 	cmncc	r8, r0, lsr r3
     5bc:	006b6c43 	rsbeq	r6, fp, r3, asr #24
     5c0:	63635f5f 	cmnvs	r3, #380	; 0x17c
     5c4:	6d5f756d 	cfldr64vs	mvdx7, [pc, #-436]	; 0xfffffe4c
     5c8:	5f737562 	svcpl	0x00737562
     5cc:	5f6b6c63 	svcpl	0x006b6c63
     5d0:	30676572 	rsbcc	r6, r7, r2, ror r5
     5d4:	5f633531 	svcpl	0x00633531
     5d8:	5f5f0074 	svcpl	0x005f0074
     5dc:	554d4343 	strbpl	r4, [sp, #-835]	; 0x343
     5e0:	4d44485f 	stclmi	8, cr4, [r4, #-380]	; 0xfffffe84
     5e4:	4c435f49 	mcrrmi	15, 4, r5, r3, cr9
     5e8:	45525f4b 	ldrbmi	r5, [r2, #-3915]	; 0xf4b
     5ec:	35313047 	ldrcc	r3, [r1, #-71]!	; 0x47
     5f0:	65720030 	ldrbvs	r0, [r2, #-48]!	; 0x30
     5f4:	76726573 	undefined instruction 0x76726573
     5f8:	00356465 	eorseq	r6, r5, r5, ror #8
     5fc:	30627041 	rsbcc	r7, r2, r1, asr #32
     600:	65746147 	ldrbvs	r6, [r4, #-327]!	; 0x147
     604:	73657200 	cmnvc	r5, #0
     608:	65767265 	ldrbvs	r7, [r6, #-613]!	; 0x265
     60c:	53003864 	movwpl	r3, #2148	; 0x864
     610:	43636570 	cmnmi	r3, #469762048	; 0x1c000000
     614:	53316b6c 	teqpl	r1, #110592	; 0x1b000
     618:	6d006372 	stcvs	3, cr6, [r0, #-456]	; 0xfffffe38
     61c:	745f6d65 	ldrbvc	r6, [pc], #3429	; 624 <__resume0_start+0x624>
     620:	695f6977 	ldmdbvs	pc, {r0, r1, r2, r4, r5, r6, r8, fp, sp, lr}^
     624:	0074696e 	rsbseq	r6, r4, lr, ror #18
     628:	43435f5f 	movtmi	r5, #16223	; 0x3f5f
     62c:	505f554d 	subspl	r5, pc, sp, asr #10
     630:	5f354c4c 	svcpl	0x00354c4c
     634:	5f524444 	svcpl	0x00524444
     638:	30474552 	subcc	r4, r7, r2, asr r5
     63c:	00303230 	eorseq	r3, r0, r0, lsr r2
     640:	63736f48 	cmnvs	r3, #288	; 0x120
     644:	006c7443 	rsbeq	r7, ip, r3, asr #8
     648:	75732f2e 	ldrbvc	r2, [r3, #-3886]!	; 0xf2e
     64c:	2f726570 	svccs	0x00726570
     650:	65707573 	ldrbvs	r7, [r0, #-1395]!	; 0x573
     654:	77745f72 	undefined instruction 0x77745f72
     658:	00632e69 	rsbeq	r2, r3, r9, ror #28
     65c:	43435f5f 	movtmi	r5, #16223	; 0x3f5f
     660:	505f554d 	subspl	r5, pc, sp, asr #10
     664:	5f344c4c 	svcpl	0x00344c4c
     668:	525f4556 	subspl	r4, pc, #360710144	; 0x15800000
     66c:	30304745 	eorscc	r4, r0, r5, asr #14
     670:	5f003831 	svcpl	0x00003831
     674:	6d63635f 	stclvs	3, cr6, [r3, #-380]!	; 0xfffffe84
     678:	70615f75 	rsbvc	r5, r1, r5, ror pc
     67c:	6c633162 	stfvse	f3, [r3], #-392	; 0xfffffe78
     680:	61725f6b 	cmnvs	r2, fp, ror #30
     684:	5f6f6974 	svcpl	0x006f6974
     688:	30676572 	rsbcc	r6, r7, r2, ror r5
     68c:	5f383530 	svcpl	0x00383530
     690:	444c0074 	strbmi	r0, [ip], #-116	; 0x74
     694:	74754f4f 	ldrbtvc	r4, [r5], #-3919	; 0xf4f
     698:	00747570 	rsbseq	r7, r4, r0, ror r5
     69c:	63635f5f 	cmnvs	r3, #380	; 0x17c
     6a0:	755f756d 	ldrbvc	r7, [pc, #-1389]	; 13b <__resume0_start+0x13b>
     6a4:	635f6273 	cmpvs	pc, #805306375	; 0x30000007
     6a8:	725f6b6c 	subsvc	r6, pc, #110592	; 0x1b000
     6ac:	30306765 	eorscc	r6, r0, r5, ror #14
     6b0:	745f6363 	ldrbvc	r6, [pc], #867	; 6b8 <__resume0_start+0x6b8>
     6b4:	47734d00 	ldrbmi	r4, [r3, -r0, lsl #26]!
     6b8:	00657461 	rsbeq	r7, r5, r1, ror #8
     6bc:	31627041 	cmncc	r2, r1, asr #32
     6c0:	65746147 	ldrbvs	r6, [r4, #-327]!	; 0x147
     6c4:	435f5f00 	cmpmi	pc, #0
     6c8:	5f554d43 	svcpl	0x00554d43
     6cc:	364c4c50 	undefined instruction 0x364c4c50
     6d0:	5441535f 	strbpl	r5, [r1], #-863	; 0x35f
     6d4:	45525f41 	ldrbmi	r5, [r2, #-3905]	; 0xf41
     6d8:	32303047 	eorscc	r3, r0, #71	; 0x47
     6dc:	61550038 	cmpvs	r5, r8, lsr r0
     6e0:	47327472 	undefined instruction 0x47327472
     6e4:	00657461 	rsbeq	r7, r5, r1, ror #8
     6e8:	6c43734d 	mcrrvs	3, 4, r7, r3, cr13
     6ec:	5f5f006b 	svcpl	0x005f006b
     6f0:	756d6363 	strbvc	r6, [sp, #-867]!	; 0x363
     6f4:	646f6d5f 	strbtvs	r6, [pc], #3423	; 6fc <__resume0_start+0x6fc>
     6f8:	31656c75 	smccc	22213	; 0x56c5
     6fc:	6b6c635f 	blvs	1b19480 <__resume0_start+0x1b19480>
     700:	5f00745f 	svcpl	0x0000745f
     704:	6d63635f 	stclvs	3, cr6, [r3, #-380]!	; 0xfffffe84
     708:	736f5f75 	cmnvc	pc, #468	; 0x1d4
     70c:	6d343263 	lfmvs	f3, 4, [r4, #-396]!	; (ldcvs 2, cr3, [r4, #-396]!)	; 0xfffffe74
     710:	6765725f 	undefined instruction 0x6765725f
     714:	30353030 	eorscc	r3, r5, r0, lsr r0
     718:	5f00745f 	svcpl	0x0000745f
     71c:	4d43435f 	stclmi	3, cr4, [r3, #-380]	; 0xfffffe84
     720:	52445f55 	subpl	r5, r4, #340	; 0x154
     724:	475f4d41 	ldrbmi	r4, [pc, -r1, asr #26]
     728:	5f455441 	svcpl	0x00455441
     72c:	30474552 	subcc	r4, r7, r2, asr r5
     730:	00303031 	eorseq	r3, r0, r1, lsr r0
     734:	43435f5f 	movtmi	r5, #16223	; 0x3f5f
     738:	4d5f554d 	cfldr64mi	mvdx5, [pc, #-308]	; 0xfffffecc
     73c:	5f535542 	svcpl	0x00535542
     740:	5f4b4c43 	svcpl	0x004b4c43
     744:	30474552 	subcc	r4, r7, r2, asr r5
     748:	00433531 	subeq	r3, r3, r1, lsr r5
     74c:	5f676572 	svcpl	0x00676572
     750:	65736572 	ldrbvs	r6, [r3, #-1394]!	; 0x572
     754:	634c0074 	movtvs	r0, #49268	; 0xc074
     758:	61473064 	cmpvs	r7, r4, rrx
     75c:	72006574 	andvc	r6, r0, #486539264	; 0x1d000000
     760:	645f6765 	ldrbvs	r6, [pc], #1893	; 768 <__resume0_start+0x768>
     764:	00617461 	rsbeq	r7, r1, r1, ror #8
     768:	4d766944 	ldclmi	9, cr6, [r6, #-272]!	; 0xfffffef0
     76c:	745f5f00 	ldrbvc	r5, [pc], #3840	; 774 <__resume0_start+0x774>
     770:	5f636977 	svcpl	0x00636977
     774:	5f676572 	svcpl	0x00676572
     778:	73550074 	cmpvc	r5, #116	; 0x74
     77c:	61473062 	cmpvs	r7, r2, rrx
     780:	5f006574 	svcpl	0x00006574
     784:	6d63635f 	stclvs	3, cr6, [r3, #-380]!	; 0xfffffe84
     788:	6c705f75 	ldclvs	15, cr5, [r0], #-468	; 0xfffffe2c
     78c:	645f356c 	ldrbvs	r3, [pc], #1388	; 794 <__resume0_start+0x794>
     790:	725f7264 	subsvc	r7, pc, #1073741830	; 0x40000006
     794:	30306765 	eorscc	r6, r0, r5, ror #14
     798:	745f3032 	ldrbvc	r3, [pc], #50	; 7a0 <__resume0_start+0x7a0>
     79c:	635f5f00 	cmpvs	pc, #0
     7a0:	5f756d63 	svcpl	0x00756d63
     7a4:	326c6c70 	rsbcc	r6, ip, #28672	; 0x7000
     7a8:	6475615f 	ldrbtvs	r6, [r5], #-351	; 0x15f
     7ac:	725f6f69 	subsvc	r6, pc, #420	; 0x1a4
     7b0:	30306765 	eorscc	r6, r0, r5, ror #14
     7b4:	745f3830 	ldrbvc	r3, [pc], #2096	; 7bc <__resume0_start+0x7bc>
     7b8:	435f5f00 	cmpmi	pc, #0
     7bc:	5f554d43 	svcpl	0x00554d43
     7c0:	5f535641 	svcpl	0x00535641
     7c4:	5f4b4c43 	svcpl	0x004b4c43
     7c8:	30474552 	subcc	r4, r7, r2, asr r5
     7cc:	00343431 	eorseq	r3, r4, r1, lsr r4
     7d0:	71657246 	cmnvc	r5, r6, asr #4
     7d4:	65646f4d 	strbvs	r6, [r4, #-3917]!	; 0xf4d
     7d8:	4c4c5000 	marmi	acc0, r5, ip
     7dc:	50766944 	rsbspl	r6, r6, r4, asr #18
     7e0:	69775400 	ldmdbvs	r7!, {sl, ip, lr}^
     7e4:	74614730 	strbtvc	r4, [r1], #-1840	; 0x730
     7e8:	77740065 	ldrbvc	r0, [r4, -r5, rrx]!
     7ec:	706f5f69 	rsbvc	r5, pc, r9, ror #30
     7f0:	7079745f 	rsbsvc	r7, r9, pc, asr r4
     7f4:	00655f65 	rsbeq	r5, r5, r5, ror #30
     7f8:	316c6c50 	cmncc	ip, r0, asr ip
     7fc:	656e7554 	strbvs	r7, [lr, #-1364]!	; 0x554
     800:	61747300 	cmnvs	r4, r0, lsl #6
     804:	745f6574 	ldrbvc	r6, [pc], #1396	; 80c <__resume0_start+0x80c>
     808:	7400706d 	strvc	r7, [r0], #-109	; 0x6d
     80c:	725f6977 	subsvc	r6, pc, #1949696	; 0x1dc000
     810:	5f006765 	svcpl	0x00006765
     814:	4d43435f 	stclmi	3, cr4, [r3, #-380]	; 0xfffffe84
     818:	48415f55 	stmdami	r1, {r0, r2, r4, r6, r8, r9, sl, fp, ip, lr}^
     81c:	4b4c4342 	blmi	131152c <__resume0_start+0x131152c>
     820:	5441475f 	strbpl	r4, [r1], #-1887	; 0x75f
     824:	525f3145 	subspl	r3, pc, #1073741841	; 0x40000011
     828:	30304745 	eorscc	r4, r0, r5, asr #14
     82c:	53003436 	movwpl	r3, #1078	; 0x436
     830:	47316970 	undefined instruction 0x47316970
     834:	00657461 	rsbeq	r7, r5, r1, ror #8
     838:	74736942 	ldrbtvc	r6, [r3], #-2370	; 0x942
     83c:	65746147 	ldrbvs	r6, [r4, #-327]!	; 0x147
     840:	635f5f00 	cmpvs	pc, #0
     844:	5f756d63 	svcpl	0x00756d63
     848:	5f697363 	svcpl	0x00697363
     84c:	5f6b6c63 	svcpl	0x006b6c63
     850:	48410074 	stmdami	r1, {r2, r4, r5, r6}^
     854:	6b6c4342 	blvs	1b11564 <__resume0_start+0x1b11564>
     858:	00766944 	rsbseq	r6, r6, r4, asr #18
     85c:	6d6d6453 	cfstrdvs	mvd6, [sp, #-332]!	; 0xfffffeb4
     860:	61473063 	cmpvs	r7, r3, rrx
     864:	5f006574 	svcpl	0x00006574
     868:	6d63635f 	stclvs	3, cr6, [r3, #-380]!	; 0xfffffe84
     86c:	68615f75 	stmdavs	r1!, {r0, r2, r4, r5, r6, r8, r9, sl, fp, ip, lr}^
     870:	6b6c6362 	blvs	1b19600 <__resume0_start+0x1b19600>
     874:	7461675f 	strbtvc	r6, [r1], #-1887	; 0x75f
     878:	725f3165 	subsvc	r3, pc, #1073741849	; 0x40000019
     87c:	30306765 	eorscc	r6, r0, r5, ror #14
     880:	745f3436 	ldrbvc	r3, [pc], #1078	; 888 <__resume0_start+0x888>
     884:	635f5f00 	cmpvs	pc, #0
     888:	5f756d63 	svcpl	0x00756d63
     88c:	696c616d 	stmdbvs	ip!, {r0, r2, r3, r5, r6, r8, sp, lr}^
     890:	5f303034 	svcpl	0x00303034
     894:	5f6b6c63 	svcpl	0x006b6c63
     898:	30676572 	rsbcc	r6, r7, r2, ror r5
     89c:	5f343531 	svcpl	0x00343531
     8a0:	73430074 	movtvc	r0, #12404	; 0x3074
     8a4:	6c433069 	mcrrvs	0, 6, r3, r3, cr9
     8a8:	7256006b 	subsvc	r0, r6, #107	; 0x6b
     8ac:	754f6765 	strbvc	r6, [pc, #-1893]	; 14f <__resume0_start+0x14f>
     8b0:	006e4574 	rsbeq	r4, lr, r4, ror r5
     8b4:	63635f5f 	cmnvs	r3, #380	; 0x17c
     8b8:	675f756d 	ldrbvs	r7, [pc, -sp, ror #10]
     8bc:	635f7370 	cmpvs	pc, #-1073741823	; 0xc0000001
     8c0:	725f6b6c 	subsvc	r6, pc, #110592	; 0x1b000
     8c4:	30306765 	eorscc	r6, r0, r5, ror #14
     8c8:	745f3064 	ldrbvc	r3, [pc], #100	; 8d0 <__resume0_start+0x8d0>
     8cc:	62684100 	rsbvs	r4, r8, #0
     8d0:	65746147 	ldrbvs	r6, [r4, #-327]!	; 0x147
     8d4:	68410030 	stmdavs	r1, {r4, r5}^
     8d8:	74614762 	strbtvc	r4, [r1], #-1890	; 0x762
     8dc:	49003165 	stmdbmi	r0, {r0, r2, r5, r6, r8, ip, sp}
     8e0:	6c437332 	mcrrvs	3, 3, r7, r3, cr2
     8e4:	5f5f006b 	svcpl	0x005f006b
     8e8:	554d4343 	strbpl	r4, [sp, #-835]	; 0x343
     8ec:	4953435f 	ldmdbmi	r3, {r0, r1, r2, r3, r4, r6, r8, r9, lr}^
     8f0:	4b4c435f 	blmi	1311674 <__resume0_start+0x1311674>
     8f4:	706f6e00 	rsbvc	r6, pc, r0, lsl #28
     8f8:	6165725f 	cmnvs	r5, pc, asr r2
     8fc:	5f5f0064 	svcpl	0x005f0064
     900:	756d6363 	strbvc	r6, [sp, #-867]!	; 0x363
     904:	79656b5f 	stmdbvc	r5!, {r0, r1, r2, r3, r4, r6, r8, r9, fp, sp, lr}^
     908:	5f646170 	svcpl	0x00646170
     90c:	5f6b6c63 	svcpl	0x006b6c63
     910:	30676572 	rsbcc	r6, r7, r2, ror r5
     914:	5f346330 	svcpl	0x00346330
     918:	6c500074 	mrrcvs	0, 7, r0, r0, cr4
     91c:	7443316c 	strbvc	r3, [r3], #-364	; 0x16c
     920:	6144006c 	cmpvs	r4, ip, rrx
     924:	6146706d 	cmpvs	r6, sp, rrx
     928:	726f7463 	rsbvc	r7, pc, #1660944384	; 0x63000000
     92c:	67617400 	strbvs	r7, [r1, -r0, lsl #8]!
     930:	6977745f 	ldmdbvs	r7!, {r0, r1, r2, r3, r4, r6, sl, ip, sp, lr}^
     934:	65725f63 	ldrbvs	r5, [r2, #-3939]!	; 0xf63
     938:	654b0067 	strbvs	r0, [fp, #-103]	; 0x67
     93c:	64617079 	strbtvs	r7, [r1], #-121	; 0x79
     940:	65746147 	ldrbvs	r6, [r4, #-327]!	; 0x147
     944:	69705300 	ldmdbvs	r0!, {r8, r9, ip, lr}^
     948:	74614732 	strbtvc	r4, [r1], #-1842	; 0x732
     94c:	77540065 	ldrbvc	r0, [r4, -r5, rrx]
     950:	6b6c4369 	blvs	1b116fc <__resume0_start+0x1b116fc>
     954:	42676552 	rsbmi	r6, r7, #343932928	; 0x14800000
     958:	44006b61 	strmi	r6, [r0], #-2913	; 0xb61
     95c:	30654665 	rsbcc	r4, r5, r5, ror #12
     960:	006b6c43 	rsbeq	r6, fp, r3, asr #24
     964:	536c6c50 	cmnpl	ip, #20480	; 0x5000
     968:	63746977 	cmnvs	r4, #1949696	; 0x1dc000
     96c:	76540068 	ldrbvc	r0, [r4], -r8, rrx
     970:	61473065 	cmpvs	r7, r5, rrx
     974:	5f006574 	svcpl	0x00006574
     978:	6d63635f 	stclvs	3, cr6, [r3, #-380]!	; 0xfffffe84
     97c:	6c705f75 	ldclvs	15, cr5, [r0], #-468	; 0xfffffe2c
     980:	635f316c 	cmpvs	pc, #27
     984:	5f65726f 	svcpl	0x0065726f
     988:	30676572 	rsbcc	r6, r7, r2, ror r5
     98c:	5f303030 	svcpl	0x00303030
     990:	70530074 	subsvc	r0, r3, r4, ror r0
     994:	6c436365 	mcrrvs	3, 6, r6, r3, cr5
     998:	6147326b 	cmpvs	r7, fp, ror #4
     99c:	49006574 	stmdbmi	r0, {r2, r4, r5, r6, r8, sl, sp, lr}
     9a0:	6c433072 	mcrrvs	0, 7, r3, r3, cr2
     9a4:	7041006b 	subvc	r0, r1, fp, rrx
     9a8:	6c433162 	stfvse	f3, [r3], {98}	; 0x62
     9ac:	7669446b 	strbtvc	r4, [r9], -fp, ror #8
     9b0:	74657300 	strbtvc	r7, [r5], #-768	; 0x300
     9b4:	745f7075 	ldrbvc	r7, [pc], #117	; 9bc <__resume0_start+0x9bc>
     9b8:	655f6977 	ldrbvs	r6, [pc, #-2423]	; 49 <__resume0_start+0x49>
     9bc:	4d00766e 	stcmi	6, cr7, [r0, #-440]	; 0xfffffe48
     9c0:	47696c61 	strbmi	r6, [r9, -r1, ror #24]!
     9c4:	00657461 	rsbeq	r7, r5, r1, ror #8
     9c8:	43435f5f 	movtmi	r5, #16223	; 0x3f5f
     9cc:	4d5f554d 	cfldr64mi	mvdx5, [pc, #-308]	; 0xfffffecc
     9d0:	34494c41 	strbcc	r4, [r9], #-3137	; 0xc41
     9d4:	435f3030 	cmpmi	pc, #48	; 0x30
     9d8:	525f4b4c 	subspl	r4, pc, #77824	; 0x13000
     9dc:	31304745 	teqcc	r0, r5, asr #14
     9e0:	72003435 	andvc	r3, r0, #889192448	; 0x35000000
     9e4:	72657365 	rsbvc	r7, r5, #-1811939327	; 0x94000001
     9e8:	31646576 	smccc	18006	; 0x4656
     9ec:	65720031 	ldrbvs	r0, [r2, #-49]!	; 0x31
     9f0:	76726573 	undefined instruction 0x76726573
     9f4:	32316465 	eorscc	r6, r1, #1694498816	; 0x65000000
     9f8:	73657200 	cmnvc	r5, #0
     9fc:	65767265 	ldrbvs	r7, [r6, #-613]!	; 0x265
     a00:	00333164 	eorseq	r3, r3, r4, ror #2
     a04:	43435f5f 	movtmi	r5, #16223	; 0x3f5f
     a08:	555f554d 	ldrbpl	r5, [pc, #-1357]	; 4c3 <__resume0_start+0x4c3>
     a0c:	435f4253 	cmpmi	pc, #805306373	; 0x30000005
     a10:	525f4b4c 	subspl	r4, pc, #77824	; 0x13000
     a14:	30304745 	eorscc	r4, r0, r5, asr #14
     a18:	72004343 	andvc	r4, r0, #201326593	; 0xc000001
     a1c:	72657365 	rsbvc	r7, r5, #-1811939327	; 0x94000001
     a20:	31646576 	smccc	18006	; 0x4656
     a24:	65720035 	ldrbvs	r0, [r2, #-53]!	; 0x35
     a28:	76726573 	undefined instruction 0x76726573
     a2c:	36316465 	ldrtcc	r6, [r1], -r5, ror #8
     a30:	73657200 	cmnvc	r5, #0
     a34:	65767265 	ldrbvs	r7, [r6, #-613]!	; 0x265
     a38:	00373164 	eorseq	r3, r7, r4, ror #2
     a3c:	65736572 	ldrbvs	r6, [r3, #-1394]!	; 0x572
     a40:	64657672 	strbtvs	r7, [r5], #-1650	; 0x672
     a44:	72003831 	andvc	r3, r0, #3211264	; 0x310000
     a48:	72657365 	rsbvc	r7, r5, #-1811939327	; 0x94000001
     a4c:	31646576 	smccc	18006	; 0x4656
     a50:	69530039 	ldmdbvs	r3, {r0, r3, r4, r5}^
     a54:	45616d67 	strbmi	r6, [r1, #-3431]!	; 0xd67
     a58:	6850006e 	ldmdavs	r0, {r1, r2, r3, r5, r6}^
     a5c:	65705379 	ldrbvs	r5, [r0, #-889]!	; 0x379
     a60:	6b6c4363 	blvs	1b117f4 <__resume0_start+0x1b117f4>
     a64:	65746147 	ldrbvs	r6, [r4, #-327]!	; 0x147
     a68:	64705300 	ldrbtvs	r5, [r0], #-768	; 0x300
     a6c:	61476669 	cmpvs	r7, r9, ror #12
     a70:	57006574 	smlsdxpl	r0, r4, r5, r6
     a74:	42657661 	rsbmi	r7, r5, #101711872	; 0x6100000
     a78:	6f74746f 	svcvs	0x0074746f
     a7c:	6453006d 	ldrbvs	r0, [r3], #-109	; 0x6d
     a80:	32636d4d 	rsbcc	r6, r3, #4928	; 0x1340
     a84:	006b6c43 	rsbeq	r6, fp, r3, asr #24
     a88:	30697053 	rsbcc	r7, r9, r3, asr r0
     a8c:	006b6c43 	rsbeq	r6, fp, r3, asr #24
     a90:	5f676572 	svcpl	0x00676572
     a94:	726b6c63 	rsbvc	r6, fp, #25344	; 0x6300
     a98:	435f5f00 	cmpmi	pc, #0
     a9c:	5f554d43 	svcpl	0x00554d43
     aa0:	55444f4d 	strbpl	r4, [r4, #-3917]	; 0xf4d
     aa4:	5f30454c 	svcpl	0x0030454c
     aa8:	004b4c43 	subeq	r4, fp, r3, asr #24
     aac:	47706549 	ldrbmi	r6, [r0, -r9, asr #10]!
     ab0:	00657461 	rsbeq	r7, r5, r1, ror #8
     ab4:	63635f5f 	cmnvs	r3, #380	; 0x17c
     ab8:	695f756d 	ldmdbvs	pc, {r0, r2, r3, r5, r6, r8, sl, ip, sp, lr}^
     abc:	635f7065 	cmpvs	pc, #101	; 0x65
     ac0:	725f6b6c 	subsvc	r6, pc, #110592	; 0x1b000
     ac4:	31306765 	teqcc	r0, r5, ror #14
     ac8:	745f3036 	ldrbvc	r3, [pc], #54	; ad0 <__resume0_start+0xad0>
     acc:	73657200 	cmnvc	r5, #0
     ad0:	65767265 	ldrbvs	r7, [r6, #-613]!	; 0x265
     ad4:	00303264 	eorseq	r3, r0, r4, ror #4
     ad8:	65736572 	ldrbvs	r6, [r3, #-1394]!	; 0x572
     adc:	64657672 	strbtvs	r7, [r5], #-1650	; 0x672
     ae0:	56003132 	undefined instruction 0x56003132
     ae4:	74614765 	strbtvc	r4, [r1], #-1893	; 0x765
     ae8:	64480065 	strbvs	r0, [r8], #-101	; 0x65
     aec:	6c43696d 	mcrrvs	9, 6, r6, r3, cr13
     af0:	4c50006b 	mrrcmi	0, 6, r0, r0, cr11
     af4:	7079424c 	rsbsvc	r4, r9, ip, asr #4
     af8:	00737361 	rsbseq	r7, r3, r1, ror #6
     afc:	65736572 	ldrbvs	r6, [r3, #-1394]!	; 0x572
     b00:	64657672 	strbtvs	r7, [r5], #-1650	; 0x672
     b04:	46003431 	undefined instruction 0x46003431
     b08:	53636172 	cmnpl	r3, #-2147483620	; 0x8000001c
     b0c:	72007465 	andvc	r7, r0, #1694498816	; 0x65000000
     b10:	785f6765 	ldmdavc	pc, {r0, r2, r5, r6, r8, r9, sl, sp, lr}^
     b14:	64646173 	strbtvs	r6, [r4], #-371	; 0x173
     b18:	5f5f0072 	svcpl	0x005f0072
     b1c:	756d6363 	strbvc	r6, [sp, #-867]!	; 0x363
     b20:	6270615f 	rsbsvs	r6, r0, #-1073741801	; 0xc0000017
     b24:	6b6c6331 	blvs	1b197f0 <__resume0_start+0x1b197f0>
     b28:	7461675f 	strbtvc	r6, [r1], #-1887	; 0x75f
     b2c:	65725f65 	ldrbvs	r5, [r2, #-3941]!	; 0xf65
     b30:	36303067 	ldrtcc	r3, [r0], -r7, rrx
     b34:	00745f63 	rsbseq	r5, r4, r3, ror #30
     b38:	7364764c 	cmnvc	r4, #79691776	; 0x4c00000
     b3c:	006b6c43 	rsbeq	r6, fp, r3, asr #24
     b40:	524f4356 	subpl	r4, pc, #1476395009	; 0x58000001
     b44:	6e497473 	mcrvs	4, 2, r7, cr9, cr3, {3}
     b48:	435f5f00 	cmpmi	pc, #0
     b4c:	5f554d43 	svcpl	0x00554d43
     b50:	43495841 	movtmi	r5, #38977	; 0x9841
     b54:	475f4b4c 	ldrbmi	r4, [pc, -ip, asr #22]
     b58:	5f455441 	svcpl	0x00455441
     b5c:	30474552 	subcc	r4, r7, r2, asr r5
     b60:	00633530 	rsbeq	r3, r3, r0, lsr r5
     b64:	43737953 	cmnmi	r3, #1359872	; 0x14c000
     b68:	69446b6c 	stmdbvs	r4, {r2, r3, r5, r6, r8, r9, fp, sp, lr}^
     b6c:	65720076 	ldrbvs	r0, [r2, #-118]!	; 0x76
     b70:	74735f67 	ldrbtvc	r5, [r3], #-3943	; 0xf67
     b74:	73757461 	cmnvc	r5, #1627389952	; 0x61000000
     b78:	4c4c5000 	marmi	acc0, r5, ip
     b7c:	73616942 	cmnvc	r1, #1081344	; 0x108000
     b80:	5f006e45 	svcpl	0x00006e45
     b84:	4d43435f 	stclmi	3, cr4, [r3, #-380]	; 0xfffffe84
     b88:	4c505f55 	mrrcmi	15, 5, r5, r0, cr5
     b8c:	415f324c 	cmpmi	pc, ip, asr #4
     b90:	4f494455 	svcmi	0x00494455
     b94:	4745525f 	smlsldmi	r5, r5, pc, r2
     b98:	38303030 	ldmdacc	r0!, {r4, r5, ip, sp}
     b9c:	67657200 	strbvs	r7, [r5, -r0, lsl #4]!
     ba0:	6461735f 	strbtvs	r7, [r1], #-863	; 0x35f
     ba4:	5f007264 	svcpl	0x00007264
     ba8:	4d43435f 	stclmi	3, cr4, [r3, #-380]	; 0xfffffe84
     bac:	434c5f55 	movtmi	r5, #53077	; 0xcf55
     bb0:	31484344 	cmpcc	r8, r4, asr #6
     bb4:	4b4c435f 	blmi	1311938 <__resume0_start+0x1311938>
     bb8:	635f5f00 	cmpvs	pc, #0
     bbc:	5f756d63 	svcpl	0x00756d63
     bc0:	356c6c70 	strbcc	r6, [ip, #-3184]!	; 0xc70
     bc4:	6e75745f 	mrcvs	4, 3, r7, cr5, cr15, {2}
     bc8:	5f676e69 	svcpl	0x00676e69
     bcc:	30676572 	rsbcc	r6, r7, r2, ror r5
     bd0:	5f343230 	svcpl	0x00343230
     bd4:	5f5f0074 	svcpl	0x005f0074
     bd8:	4d43435f 	stclmi	3, cr4, [r3, #-380]	; 0xfffffe84
     bdc:	4c505f55 	mrrcmi	15, 5, r5, r0, cr5
     be0:	435f314c 	cmpmi	pc, #19
     be4:	5f45524f 	svcpl	0x0045524f
     be8:	30474552 	subcc	r4, r7, r2, asr r5
     bec:	00303030 	eorseq	r3, r0, r0, lsr r0
     bf0:	74726155 	ldrbtvc	r6, [r2], #-341	; 0x155
     bf4:	74614731 	strbtvc	r4, [r1], #-1841	; 0x731
     bf8:	70470065 	subvc	r0, r7, r5, rrx
     bfc:	6b6c4373 	blvs	1b119d0 <__resume0_start+0x1b119d0>
     c00:	435f5f00 	cmpmi	pc, #0
     c04:	5f554d43 	svcpl	0x00554d43
     c08:	41444441 	cmpmi	r4, r1, asr #8
     c0c:	4b4c435f 	blmi	1311990 <__resume0_start+0x1311990>
     c10:	4745525f 	smlsldmi	r5, r5, pc, r2
     c14:	30343130 	eorscc	r3, r4, r0, lsr r1
     c18:	64705300 	ldrbtvs	r5, [r0], #-768	; 0x300
     c1c:	6c436669 	mcrrvs	6, 6, r6, r3, cr9
     c20:	5f5f006b 	svcpl	0x005f006b
     c24:	756d6363 	strbvc	r6, [sp, #-867]!	; 0x363
     c28:	6c6c705f 	stclvs	0, cr7, [ip], #-380	; 0xfffffe84
     c2c:	69765f33 	ldmdbvs	r6!, {r0, r1, r4, r5, r8, r9, sl, fp, ip, lr}^
     c30:	5f6f6564 	svcpl	0x006f6564
     c34:	30676572 	rsbcc	r6, r7, r2, ror r5
     c38:	5f303130 	svcpl	0x00303130
     c3c:	64530074 	ldrbvs	r0, [r3], #-116	; 0x74
     c40:	476d6172 	undefined instruction 0x476d6172
     c44:	00657461 	rsbeq	r7, r5, r1, ror #8
     c48:	5f697774 	svcpl	0x00697774
     c4c:	65747962 	ldrbvs	r7, [r4, #-2402]!	; 0x962
     c50:	0077725f 	rsbseq	r7, r7, pc, asr r2
     c54:	32697754 	rsbcc	r7, r9, #22020096	; 0x1500000
     c58:	65746147 	ldrbvs	r6, [r4, #-327]!	; 0x147
     c5c:	635f5f00 	cmpvs	pc, #0
     c60:	5f756d63 	svcpl	0x00756d63
     c64:	30627061 	rsbcc	r7, r2, r1, rrx
     c68:	5f6b6c63 	svcpl	0x006b6c63
     c6c:	65746167 	ldrbvs	r6, [r4, #-359]!	; 0x167
     c70:	6765725f 	undefined instruction 0x6765725f
     c74:	38363030 	ldmdacc	r6!, {r4, r5, ip, sp}
     c78:	5300745f 	movwpl	r7, #1119	; 0x45f
     c7c:	43326970 	teqmi	r2, #1835008	; 0x1c0000
     c80:	4f006b6c 	svcmi	0x00006b6c
     c84:	34324353 	ldrtcc	r4, [r2], #-851	; 0x353
     c88:	6d73474d 	ldclvs	7, cr4, [r3, #-308]!	; 0xfffffecc
     c8c:	61724400 	cmnvs	r2, r0, lsl #8
     c90:	7461476d 	strbtvc	r4, [r1], #-1901	; 0x76d
     c94:	73550065 	cmpvc	r5, #101	; 0x65
     c98:	79685062 	stmdbvc	r8!, {r1, r5, r6, ip, lr}^
     c9c:	74735230 	ldrbtvc	r5, [r3], #-560	; 0x230
     ca0:	6d645300 	stclvs	3, cr5, [r4]
     ca4:	4732636d 	ldrmi	r6, [r2, -sp, ror #6]!
     ca8:	00657461 	rsbeq	r7, r5, r1, ror #8
     cac:	63635f5f 	cmnvs	r3, #380	; 0x17c
     cb0:	705f756d 	subsvc	r7, pc, sp, ror #10
     cb4:	5f376c6c 	svcpl	0x00376c6c
     cb8:	65646976 	strbvs	r6, [r4, #-2422]!	; 0x976
     cbc:	725f316f 	subsvc	r3, pc, #-1073741797	; 0xc000001b
     cc0:	30306765 	eorscc	r6, r0, r5, ror #14
     cc4:	745f3033 	ldrbvc	r3, [pc], #51	; ccc <__resume0_start+0xccc>
     cc8:	42654400 	rsbmi	r4, r5, #0
     ccc:	6c433065 	mcrrvs	0, 6, r3, r3, cr5
     cd0:	6f4d006b 	svcvs	0x004d006b
     cd4:	65536564 	ldrbvs	r6, [r3, #-1380]	; 0x564
     cd8:	5f5f006c 	svcpl	0x005f006c
     cdc:	554d4343 	strbpl	r4, [sp, #-835]	; 0x343
     ce0:	4c4c505f 	mcrrmi	0, 5, r5, ip, cr15
     ce4:	49565f37 	ldmdbmi	r6, {r0, r1, r2, r4, r5, r8, r9, sl, fp, ip, lr}^
     ce8:	314f4544 	cmpcc	pc, r4, asr #10
     cec:	4745525f 	smlsldmi	r5, r5, pc, r2
     cf0:	30333030 	eorscc	r3, r3, r0, lsr r0
     cf4:	63684f00 	cmnvs	r8, #0
     cf8:	61473069 	cmpvs	r7, r9, rrx
     cfc:	49006574 	stmdbmi	r0, {r2, r4, r5, r6, r8, sl, sp, lr}
     d00:	61473072 	cmpvs	r7, r2, ror r0
     d04:	5f006574 	svcpl	0x00006574
     d08:	4d43435f 	stclmi	3, cr4, [r3, #-380]	; 0xfffffe84
     d0c:	50475f55 	subpl	r5, r7, r5, asr pc
     d10:	4c435f53 	mcrrmi	15, 5, r5, r3, cr3
     d14:	45525f4b 	ldrbmi	r5, [r2, #-3915]	; 0xf4b
     d18:	44303047 	ldrtmi	r3, [r0], #-71	; 0x47
     d1c:	5f5f0030 	svcpl	0x005f0030
     d20:	756d6363 	strbvc	r6, [sp, #-867]!	; 0x363
     d24:	646f6d5f 	strbtvs	r6, [pc], #3423	; d2c <__resume0_start+0xd2c>
     d28:	30656c75 	rsbcc	r6, r5, r5, ror ip
     d2c:	6b6c635f 	blvs	1b19ab0 <__resume0_start+0x1b19ab0>
     d30:	5f00745f 	svcpl	0x0000745f
     d34:	4d43435f 	stclmi	3, cr4, [r3, #-380]	; 0xfffffe84
     d38:	534f5f55 	movtpl	r5, #65365	; 0xff55
     d3c:	4d343243 	lfmmi	f3, 4, [r4, #-268]!	; (ldcmi 2, cr3, [r4, #-268]!)	; 0xfffffef4
     d40:	4745525f 	smlsldmi	r5, r5, pc, r2
     d44:	30353030 	eorscc	r3, r5, r0, lsr r0
     d48:	6c6c5000 	stclvs	0, cr5, [ip]
     d4c:	6e755431 	mrcvs	4, 3, r5, cr5, cr1, {1}
     d50:	53003265 	movwpl	r3, #613	; 0x265
     d54:	47726d74 	undefined instruction 0x47726d74
     d58:	00657461 	rsbeq	r7, r5, r1, ror #8
     d5c:	63616d45 	cmnvs	r1, #4416	; 0x1140
     d60:	65746147 	ldrbvs	r6, [r4, #-327]!	; 0x147
     d64:	79654b00 	stmdbvc	r5!, {r8, r9, fp, lr}^
     d68:	6c656946 	stclvs	9, cr6, [r5], #-280	; 0xfffffee8
     d6c:	5f5f0064 	svcpl	0x005f0064
     d70:	756d6363 	strbvc	r6, [sp, #-867]!	; 0x363
     d74:	64766c5f 	ldrbtvs	r6, [r6], #-3167	; 0xc5f
     d78:	6c635f73 	stclvs	15, cr5, [r3], #-460	; 0xfffffe34
     d7c:	65725f6b 	ldrbvs	r5, [r2, #-3947]!	; 0xf6b
     d80:	34313067 	ldrtcc	r3, [r1], #-103	; 0x67
     d84:	00745f63 	rsbseq	r5, r4, r3, ror #30
     d88:	356c6c50 	strbcc	r6, [ip, #-3152]!	; 0xc50
     d8c:	006c7443 	rsbeq	r7, ip, r3, asr #8
     d90:	63635f5f 	cmnvs	r3, #380	; 0x17c
     d94:	765f756d 	ldrbvc	r7, [pc], -sp, ror #10
     d98:	6c635f65 	stclvs	15, cr5, [r3], #-404	; 0xfffffe6c
     d9c:	65725f6b 	ldrbvs	r5, [r2, #-3947]!	; 0xf6b
     da0:	33313067 	teqcc	r1, #103	; 0x67
     da4:	00745f63 	rsbseq	r5, r4, r3, ror #30
     da8:	63635f5f 	cmnvs	r3, #380	; 0x17c
     dac:	705f756d 	subsvc	r7, pc, sp, ror #10
     db0:	5f326c6c 	svcpl	0x00326c6c
     db4:	696e7574 	stmdbvs	lr!, {r2, r4, r5, r6, r8, sl, ip, sp, lr}^
     db8:	725f676e 	subsvc	r6, pc, #28835840	; 0x1b80000
     dbc:	30306765 	eorscc	r6, r0, r5, ror #14
     dc0:	745f6330 	ldrbvc	r6, [pc], #816	; dc8 <__resume0_start+0xdc8>
     dc4:	67695300 	strbvs	r5, [r9, -r0, lsl #6]!
     dc8:	6e49616d 	dvfvsez	f6, f1, #5.0
     dcc:	74754f00 	ldrbtvc	r4, [r5], #-3840	; 0xf00
     dd0:	45747570 	ldrbmi	r7, [r4, #-1392]!	; 0x570
     dd4:	5f5f006e 	svcpl	0x005f006e
     dd8:	554d4343 	strbpl	r4, [sp, #-835]	; 0x343
     ddc:	4c4c505f 	mcrrmi	0, 5, r5, ip, cr15
     de0:	49565f33 	ldmdbmi	r6, {r0, r1, r4, r5, r8, r9, sl, fp, ip, lr}^
     de4:	5f4f4544 	svcpl	0x004f4544
     de8:	30474552 	subcc	r4, r7, r2, asr r5
     dec:	00303130 	eorseq	r3, r0, r0, lsr r1
     df0:	43435f5f 	movtmi	r5, #16223	; 0x3f5f
     df4:	505f554d 	subspl	r5, pc, sp, asr #10
     df8:	5f354c4c 	svcpl	0x00354c4c
     dfc:	494e5554 	stmdbmi	lr, {r2, r4, r6, r8, sl, ip, lr}^
     e00:	5f32474e 	svcpl	0x0032474e
     e04:	30474552 	subcc	r4, r7, r2, asr r5
     e08:	00433330 	subeq	r3, r3, r0, lsr r3
     e0c:	61646441 	cmnvs	r4, r1, asr #8
     e10:	65746147 	ldrbvs	r6, [r4, #-327]!	; 0x147
     e14:	4f435600 	svcmi	0x00435600
     e18:	73616942 	cmnvc	r1, #1081344	; 0x108000
     e1c:	635f5f00 	cmpvs	pc, #0
     e20:	5f756d63 	svcpl	0x00756d63
     e24:	6364636c 	cmnvs	r4, #-1342177279	; 0xb0000001
     e28:	635f3168 	cmpvs	pc, #26
     e2c:	745f6b6c 	ldrbvc	r6, [pc], #2924	; e34 <__resume0_start+0xe34>
     e30:	49575400 	ldmdbmi	r7, {sl, ip, lr}^
     e34:	4745525f 	smlsldmi	r5, r5, pc, r2
     e38:	5341425f 	movtpl	r4, #4703	; 0x125f
     e3c:	65440045 	strbvs	r0, [r4, #-69]	; 0x45
     e40:	47306542 	ldrmi	r6, [r0, -r2, asr #10]!
     e44:	00657461 	rsbeq	r7, r5, r1, ror #8
     e48:	6d4d6453 	cfstrdvs	mvd6, [sp, #-332]	; 0xfffffeb4
     e4c:	6c433163 	stfvse	f3, [r3], {99}	; 0x63
     e50:	5f5f006b 	svcpl	0x005f006b
     e54:	554d4343 	strbpl	r4, [sp, #-835]	; 0x343
     e58:	5045495f 	subpl	r4, r5, pc, asr r9
     e5c:	4b4c435f 	blmi	1311be0 <__resume0_start+0x1311be0>
     e60:	4745525f 	smlsldmi	r5, r5, pc, r2
     e64:	30363130 	eorscc	r3, r6, r0, lsr r1
     e68:	435f5f00 	cmpmi	pc, #0
     e6c:	5f554d43 	svcpl	0x00554d43
     e70:	31425041 	cmpcc	r2, r1, asr #32
     e74:	5f4b4c43 	svcpl	0x004b4c43
     e78:	49544152 	ldmdbmi	r4, {r1, r4, r6, r8, lr}^
     e7c:	45525f4f 	ldrbmi	r5, [r2, #-3919]	; 0xf4f
     e80:	35303047 	ldrcc	r3, [r0, #-71]!	; 0x47
     e84:	57540038 	smmlarpl	r4, r8, r0, r0
     e88:	504f5f49 	subpl	r5, pc, r9, asr #30
     e8c:	0044525f 	subeq	r5, r4, pc, asr r2
     e90:	5f676572 	svcpl	0x00676572
     e94:	6c74636c 	ldclvs	3, cr6, [r4], #-432	; 0xfffffe50
     e98:	73657200 	cmnvc	r5, #0
     e9c:	65767265 	ldrbvs	r7, [r6, #-613]!	; 0x265
     ea0:	72003064 	andvc	r3, r0, #100	; 0x64
     ea4:	72657365 	rsbvc	r7, r5, #-1811939327	; 0x94000001
     ea8:	31646576 	smccc	18006	; 0x4656
     eac:	73657200 	cmnvc	r5, #0
     eb0:	65767265 	ldrbvs	r7, [r6, #-613]!	; 0x265
     eb4:	72003264 	andvc	r3, r0, #1073741830	; 0x40000006
     eb8:	72657365 	rsbvc	r7, r5, #-1811939327	; 0x94000001
     ebc:	33646576 	cmncc	r4, #494927872	; 0x1d800000
     ec0:	73657200 	cmnvc	r5, #0
     ec4:	65767265 	ldrbvs	r7, [r6, #-613]!	; 0x265
     ec8:	5f003464 	svcpl	0x00003464
     ecc:	4d43435f 	stclmi	3, cr4, [r3, #-380]	; 0xfffffe84
     ed0:	4c505f55 	mrrcmi	15, 5, r5, r0, cr5
     ed4:	545f314c 	ldrbpl	r3, [pc], #332	; edc <__resume0_start+0xedc>
     ed8:	4e494e55 	mcrmi	14, 2, r4, cr9, cr5, {2}
     edc:	525f3247 	subspl	r3, pc, #1879048196	; 0x70000004
     ee0:	30304745 	eorscc	r4, r0, r5, asr #14
     ee4:	72003833 	andvc	r3, r0, #3342336	; 0x330000
     ee8:	72657365 	rsbvc	r7, r5, #-1811939327	; 0x94000001
     eec:	36646576 	undefined instruction 0x36646576
     ef0:	73657200 	cmnvc	r5, #0
     ef4:	65767265 	ldrbvs	r7, [r6, #-613]!	; 0x265
     ef8:	53003764 	movwpl	r3, #1892	; 0x764
     efc:	43636570 	cmnmi	r3, #469762048	; 0x1c000000
     f00:	47316b6c 	ldrmi	r6, [r1, -ip, ror #22]!
     f04:	00657461 	rsbeq	r7, r5, r1, ror #8
     f08:	65736572 	ldrbvs	r6, [r3, #-1394]!	; 0x572
     f0c:	64657672 	strbtvs	r7, [r5], #-1650	; 0x672
     f10:	70530039 	subsvc	r0, r3, r9, lsr r0
     f14:	6c436365 	mcrrvs	3, 6, r6, r3, cr5
     f18:	7253326b 	subsvc	r3, r3, #-1342177274	; 0xb0000006
     f1c:	69490063 	stmdbvs	r9, {r0, r1, r5, r6}^
     f20:	74614773 	strbtvc	r4, [r1], #-1907	; 0x773
     f24:	534f0065 	movtpl	r0, #61541	; 0xf065
     f28:	4d343243 	lfmmi	f3, 4, [r4, #-268]!	; (ldcmi 2, cr3, [r4, #-268]!)	; 0xfffffef4
     f2c:	44006e45 	strmi	r6, [r0], #-3653	; 0xe45
     f30:	6147616d 	cmpvs	r7, sp, ror #2
     f34:	50006574 	andpl	r6, r0, r4, ror r5
     f38:	6e454c4c 	cdpvs	12, 4, cr4, cr5, cr12, {2}
     f3c:	435f5f00 	cmpmi	pc, #0
     f40:	5f554d43 	svcpl	0x00554d43
     f44:	5059454b 	subspl	r4, r9, fp, asr #10
     f48:	435f4441 	cmpmi	pc, #1090519040	; 0x41000000
     f4c:	525f4b4c 	subspl	r4, pc, #77824	; 0x13000
     f50:	30304745 	eorscc	r4, r0, r5, asr #14
     f54:	74003443 	strvc	r3, [r0], #-1091	; 0x443
     f58:	625f6977 	subsvs	r6, pc, #1949696	; 0x1dc000
     f5c:	5f657479 	svcpl	0x00657479
     f60:	6e5f7772 	mrcvs	7, 2, r7, cr15, cr2, {3}
     f64:	756d6d6f 	strbvc	r6, [sp, #-3439]!	; 0xd6f
     f68:	435f5f00 	cmpmi	pc, #0
     f6c:	5f554d43 	svcpl	0x00554d43
     f70:	43535953 	cmpmi	r3, #1359872	; 0x14c000
     f74:	525f4b4c 	subspl	r4, pc, #77824	; 0x13000
     f78:	4f495441 	svcmi	0x00495441
     f7c:	4745525f 	smlsldmi	r5, r5, pc, r2
     f80:	34353030 	ldrtcc	r3, [r5], #-48	; 0x30
     f84:	64644100 	strbtvs	r4, [r4], #-256	; 0x100
     f88:	6b6c4361 	blvs	1b11d14 <__resume0_start+0x1b11d14>
     f8c:	43735400 	cmnmi	r3, #0
     f90:	45006b6c 	strmi	r6, [r0, #-2924]	; 0xb6c
     f94:	30696368 	rsbcc	r6, r9, r8, ror #6
     f98:	65746147 	ldrbvs	r6, [r4, #-327]!	; 0x147
     f9c:	696e4900 	stmdbvs	lr!, {r8, fp, lr}^
     fa0:	65724674 	ldrbvs	r4, [r2, #-1652]!	; 0x674
     fa4:	654b0071 	strbvs	r0, [fp, #-113]	; 0x71
     fa8:	64615079 	strbtvs	r5, [r1], #-121	; 0x79
     fac:	006b6c43 	rsbeq	r6, fp, r3, asr #24
     fb0:	424c4c50 	submi	r4, ip, #20480	; 0x5000
     fb4:	00736169 	rsbseq	r6, r3, r9, ror #2
     fb8:	646e614e 	strbtvs	r6, [lr], #-334	; 0x14e
     fbc:	65746147 	ldrbvs	r6, [r4, #-327]!	; 0x147
     fc0:	47735300 	ldrbmi	r5, [r3, -r0, lsl #6]!
     fc4:	00657461 	rsbeq	r7, r5, r1, ror #8
     fc8:	63635f5f 	cmnvs	r3, #380	; 0x17c
     fcc:	665f756d 	ldrbvs	r7, [pc], -sp, ror #10
     fd0:	6d656465 	cfstrdvs	mvd6, [r5, #-404]!	; 0xfffffe6c
     fd4:	6c635f70 	stclvs	15, cr5, [r3], #-448	; 0xfffffe40
     fd8:	00745f6b 	rsbseq	r5, r4, fp, ror #30
     fdc:	6d656d5f 	stclvs	13, cr6, [r5, #-380]!	; 0xfffffe84
     fe0:	6977745f 	ldmdbvs	r7!, {r0, r1, r2, r3, r4, r6, sl, ip, sp, lr}^
     fe4:	6f74735f 	svcvs	0x0074735f
     fe8:	6d430070 	stclvs	0, cr0, [r3, #-448]	; 0xfffffe40
     fec:	67655275 	undefined instruction 0x67655275
     ff0:	6d644800 	stclvs	8, cr4, [r4]
     ff4:	61474469 	cmpvs	r7, r9, ror #8
     ff8:	56006574 	undefined instruction 0x56006574
     ffc:	31676572 	smccc	30290	; 0x7652
    1000:	4574754f 	ldrbmi	r7, [r4, #-1359]!	; 0x54f
    1004:	5f5f006e 	svcpl	0x005f006e
    1008:	756d6363 	strbvc	r6, [sp, #-867]!	; 0x363
    100c:	6c6c705f 	stclvs	0, cr7, [ip], #-380	; 0xfffffe84
    1010:	75745f35 	ldrbvc	r5, [r4, #-3893]!	; 0xf35
    1014:	676e696e 	strbvs	r6, [lr, -lr, ror #18]!
    1018:	65725f32 	ldrbvs	r5, [r2, #-3890]!	; 0xf32
    101c:	33303067 	teqcc	r0, #103	; 0x67
    1020:	00745f63 	rsbseq	r5, r4, r3, ror #30
    1024:	326c6c50 	rsbcc	r6, ip, #20480	; 0x5000
    1028:	656e7554 	strbvs	r7, [lr, #-1364]!	; 0x554
    102c:	635f5f00 	cmpvs	pc, #0
    1030:	5f756d63 	svcpl	0x00756d63
    1034:	63697861 	cmnvs	r9, #6356992	; 0x610000
    1038:	675f6b6c 	ldrbvs	r6, [pc, -ip, ror #22]
    103c:	5f657461 	svcpl	0x00657461
    1040:	30676572 	rsbcc	r6, r7, r2, ror r5
    1044:	5f633530 	svcpl	0x00633530
    1048:	444c0074 	strbmi	r0, [ip], #-116	; 0x74
    104c:	6e45324f 	cdpvs	2, 4, cr3, cr5, cr15, {2}
    1050:	63614600 	cmnvs	r1, #0
    1054:	4d726f74 	ldclmi	15, cr6, [r2, #-464]!	; 0xfffffe30
    1058:	656d0031 	strbvs	r0, [sp, #-49]!	; 0x31
    105c:	77745f6d 	ldrbvc	r5, [r4, -sp, ror #30]!
    1060:	78655f69 	stmdavc	r5!, {r0, r3, r5, r6, r8, r9, sl, fp, ip, lr}^
    1064:	50007469 	andpl	r7, r0, r9, ror #8
    1068:	43376c6c 	teqmi	r7, #27648	; 0x6c00
    106c:	74006c74 	strvc	r6, [r0], #-3188	; 0xc74
    1070:	6f656d69 	svcvs	0x00656d69
    1074:	5f007475 	svcpl	0x00007475
    1078:	6d63635f 	stclvs	3, cr6, [r3, #-380]!	; 0xfffffe84
    107c:	65725f75 	ldrbvs	r5, [r2, #-3957]!	; 0xf75
    1080:	696c5f67 	stmdbvs	ip!, {r0, r1, r2, r5, r6, r8, r9, sl, fp, ip, lr}^
    1084:	745f7473 	ldrbvc	r7, [pc], #1139	; 108c <__resume0_start+0x108c>
    1088:	6e614e00 	cdpvs	14, 6, cr4, cr1, cr0, {0}
    108c:	6b6c4364 	blvs	1b11e24 <__resume0_start+0x1b11e24>
    1090:	43484f00 	movtmi	r4, #36608	; 0x8f00
    1094:	70533049 	subsvc	r3, r3, r9, asr #32
    1098:	6c436365 	mcrrvs	3, 6, r6, r3, cr5
    109c:	7461476b 	strbtvc	r4, [r1], #-1899	; 0x76b
    10a0:	5f5f0065 	svcpl	0x005f0065
    10a4:	554d4343 	strbpl	r4, [sp, #-835]	; 0x343
    10a8:	4c4c505f 	mcrrmi	0, 5, r5, ip, cr15
    10ac:	55545f31 	ldrbpl	r5, [r4, #-3889]	; 0xf31
    10b0:	474e494e 	strbmi	r4, [lr, -lr, asr #18]
    10b4:	4745525f 	smlsldmi	r5, r5, pc, r2
    10b8:	34303030 	ldrtcc	r3, [r0], #-48	; 0x30
    10bc:	70654900 	rsbvc	r4, r5, r0, lsl #18
    10c0:	006b6c43 	rsbeq	r6, fp, r3, asr #24
    10c4:	63635f5f 	cmnvs	r3, #380	; 0x17c
    10c8:	615f756d 	cmpvs	pc, sp, ror #10
    10cc:	635f7376 	cmpvs	pc, #-671088639	; 0xd8000001
    10d0:	725f6b6c 	subsvc	r6, pc, #110592	; 0x1b000
    10d4:	31306765 	teqcc	r0, r5, ror #14
    10d8:	745f3434 	ldrbvc	r3, [pc], #1076	; 10e0 <__resume0_start+0x10e0>
    10dc:	6c614d00 	stclvs	13, cr4, [r1]
    10e0:	6b6c4369 	blvs	1b11e8c <__resume0_start+0x1b11e8c>
    10e4:	73764100 	cmnvc	r6, #0
    10e8:	006b6c43 	rsbeq	r6, fp, r3, asr #24
    10ec:	5264634c 	rsbpl	r6, r4, #805306369	; 0x30000001
    10f0:	74657365 	strbtvc	r7, [r5], #-869	; 0x365
    10f4:	62735500 	rsbsvs	r5, r3, #0
    10f8:	31796850 	cmncc	r9, r0, asr r8
    10fc:	00747352 	rsbseq	r7, r4, r2, asr r3
    1100:	63635f5f 	cmnvs	r3, #380	; 0x17c
    1104:	735f756d 	cmpvc	pc, #457179136	; 0x1b400000
    1108:	6c637379 	stclvs	3, cr7, [r3], #-484	; 0xfffffe1c
    110c:	725f6c6b 	subsvc	r6, pc, #27392	; 0x6b00
    1110:	6f697461 	svcvs	0x00697461
    1114:	6765725f 	undefined instruction 0x6765725f
    1118:	34353030 	ldrtcc	r3, [r5], #-48	; 0x30
    111c:	5500745f 	strpl	r7, [r0, #-1119]	; 0x45f
    1120:	33747261 	cmncc	r4, #268435462	; 0x10000006
    1124:	65746147 	ldrbvs	r6, [r4, #-327]!	; 0x147
    1128:	46654400 	strbtmi	r4, [r5], -r0, lsl #8
    112c:	61473065 	cmpvs	r7, r5, rrx
    1130:	50006574 	andpl	r6, r0, r4, ror r5
    1134:	43336c6c 	teqmi	r3, #27648	; 0x6c00
    1138:	41006c74 	tstmi	r0, r4, ror ip
    113c:	61476978 	cmpvs	r7, r8, ror r9
    1140:	47006574 	smlsdxmi	r0, r4, r5, r6
    1144:	61477370 	cmpvs	r7, r0, ror r3
    1148:	50006574 	andpl	r6, r0, r4, ror r5
    114c:	43366c6c 	teqmi	r6, #27648	; 0x6c00
    1150:	5f006c74 	svcpl	0x00006c74
    1154:	4d43435f 	stclmi	3, cr4, [r3, #-380]	; 0xfffffe84
    1158:	434c5f55 	movtmi	r5, #53077	; 0xcf55
    115c:	30484344 	subcc	r4, r8, r4, asr #6
    1160:	4b4c435f 	blmi	1311ee4 <__resume0_start+0x1311ee4>
    1164:	636f4c00 	cmnvs	pc, #0
    1168:	6d69546b 	cfstrdvs	mvd5, [r9, #-428]!	; 0xfffffe54
    116c:	5f5f0065 	svcpl	0x005f0065
    1170:	554d4343 	strbpl	r4, [sp, #-835]	; 0x343
    1174:	5f45565f 	svcpl	0x0045565f
    1178:	5f4b4c43 	svcpl	0x004b4c43
    117c:	30474552 	subcc	r4, r7, r2, asr r5
    1180:	00433331 	subeq	r3, r3, r1, lsr r3
    1184:	74726155 	ldrbtvc	r6, [r2], #-341	; 0x155
    1188:	74614730 	strbtvc	r4, [r1], #-1840	; 0x730
    118c:	63560065 	cmpvs	r6, #101	; 0x65
    1190:	6169426f 	cmnvs	r9, pc, ror #4
    1194:	72500073 	subsvc	r0, r0, #115	; 0x73
    1198:	69447665 	stmdbvs	r4, {r0, r2, r5, r6, r9, sl, ip, sp, lr}^
    119c:	5f5f0076 	svcpl	0x005f0076
    11a0:	554d4343 	strbpl	r4, [sp, #-835]	; 0x343
    11a4:	4250415f 	subsmi	r4, r0, #-1073741801	; 0xc0000017
    11a8:	4b4c4331 	blmi	1311e74 <__resume0_start+0x1311e74>
    11ac:	5441475f 	strbpl	r4, [r1], #-1887	; 0x75f
    11b0:	45525f45 	ldrbmi	r5, [r2, #-3909]	; 0xf45
    11b4:	36303047 	ldrtcc	r3, [r0], -r7, asr #32
    11b8:	58410043 	stmdapl	r1, {r0, r1, r6}^
    11bc:	6b6c4349 	blvs	1b11ee8 <__resume0_start+0x1b11ee8>
    11c0:	00766944 	rsbseq	r6, r6, r4, asr #18
    11c4:	43435f5f 	movtmi	r5, #16223	; 0x3f5f
    11c8:	505f554d 	subspl	r5, pc, sp, asr #10
    11cc:	5f354c4c 	svcpl	0x00354c4c
    11d0:	494e5554 	stmdbmi	lr, {r2, r4, r6, r8, sl, ip, lr}^
    11d4:	525f474e 	subspl	r4, pc, #20447232	; 0x1380000
    11d8:	30304745 	eorscc	r4, r0, r5, asr #14
    11dc:	56003432 	undefined instruction 0x56003432
    11e0:	61474f43 	cmpvs	r7, r3, asr #30
    11e4:	72006e69 	andvc	r6, r0, #1680	; 0x690
    11e8:	655f6765 	ldrbvs	r6, [pc, #-1893]	; a8b <__resume0_start+0xa8b>
    11ec:	41007266 	tstmi	r0, r6, ror #4
    11f0:	38323343 	ldmdacc	r2!, {r0, r1, r6, r8, r9, ip, sp}
    11f4:	536b6c43 	cmnpl	fp, #17152	; 0x4300
    11f8:	54006372 	strpl	r6, [r0], #-882	; 0x372
    11fc:	74436977 	strbvc	r6, [r3], #-2423	; 0x977
    1200:	6765526c 	strbvs	r5, [r5, -ip, ror #4]!
    1204:	006b6142 	rsbeq	r6, fp, r2, asr #2
    1208:	71657246 	cmnvc	r5, r6, asr #4
    120c:	636e6575 	cmnvs	lr, #490733568	; 0x1d400000
    1210:	77540079 	undefined instruction 0x77540079
    1214:	61473169 	cmpvs	r7, r9, ror #2
    1218:	50006574 	andpl	r6, r0, r4, ror r5
    121c:	43326c6c 	teqmi	r2, #27648	; 0x6c00
    1220:	5f006c74 	svcpl	0x00006c74
    1224:	4d43435f 	stclmi	3, cr4, [r3, #-380]	; 0xfffffe84
    1228:	45525f55 	ldrbmi	r5, [r2, #-3925]	; 0xf55
    122c:	494c5f47 	stmdbmi	ip, {r0, r1, r2, r6, r8, r9, sl, fp, ip, lr}^
    1230:	5f005453 	svcpl	0x00005453
    1234:	6d63635f 	stclvs	3, cr6, [r3, #-380]!	; 0xfffffe84
    1238:	6c705f75 	ldclvs	15, cr5, [r0], #-468	; 0xfffffe2c
    123c:	765f346c 	ldrbvc	r3, [pc], -ip, ror #8
    1240:	65725f65 	ldrbvs	r5, [r2, #-3941]!	; 0xf65
    1244:	31303067 	teqcc	r0, r7, rrx
    1248:	00745f38 	rsbseq	r5, r4, r8, lsr pc
    124c:	30425041 	subcc	r5, r2, r1, asr #32
    1250:	446b6c43 	strbtmi	r6, [fp], #-3139	; 0xc43
    1254:	41007669 	tstmi	r0, r9, ror #12
    1258:	6c434248 	sfmvs	f4, 2, [r3], {72}	; (stclvs 2, cr4, [r3], {72})	; 0x48
    125c:	6c65536b 	stclvs	3, cr5, [r5], #-428	; 0xfffffe54
    1260:	656d5f00 	strbvs	r5, [sp, #-3840]!	; 0xf00
    1264:	77745f6d 	ldrbvc	r5, [r4, -sp, ror #30]!
    1268:	6f735f69 	svcvs	0x00735f69
    126c:	725f7466 	subsvc	r7, pc, #1711276032	; 0x66000000
    1270:	74657365 	strbtvc	r7, [r5], #-869	; 0x365
    1274:	6d6f6e5f 	stclvs	14, cr6, [pc, #-380]!	; 0xfffffe84
    1278:	4300756d 	movwmi	r7, #1389	; 0x56d
    127c:	47306973 	undefined instruction 0x47306973
    1280:	00657461 	rsbeq	r7, r5, r1, ror #8
    1284:	6d6d6453 	cfstrdvs	mvd6, [sp, #-332]!	; 0xfffffeb4
    1288:	61473163 	cmpvs	r7, r3, ror #2
    128c:	5f006574 	svcpl	0x00006574
    1290:	4d43435f 	stclmi	3, cr4, [r3, #-380]	; 0xfffffe84
    1294:	50415f55 	subpl	r5, r1, r5, asr pc
    1298:	4c433042 	mcrrmi	0, 4, r3, r3, cr2
    129c:	41475f4b 	cmpmi	r7, fp, asr #30
    12a0:	525f4554 	subspl	r4, pc, #352321536	; 0x15000000
    12a4:	30304745 	eorscc	r4, r0, r5, asr #14
    12a8:	6d003836 	stcvs	8, cr3, [r0, #-216]	; 0xffffff28
    12ac:	635f6d65 	cmpvs	pc, #6464	; 0x1940
    12b0:	735f6b6c 	cmpvc	pc, #110592	; 0x1b000
    12b4:	705f7465 	subsvc	r7, pc, r5, ror #8
    12b8:	665f6c6c 	ldrbvs	r6, [pc], -ip, ror #24
    12bc:	6f746361 	svcvs	0x00746361
    12c0:	656d0072 	strbvs	r0, [sp, #-114]!	; 0x72
    12c4:	6c635f6d 	stclvs	15, cr5, [r3], #-436	; 0xfffffe4c
    12c8:	65675f6b 	strbvs	r5, [r7, #-3947]!	; 0xf6b
    12cc:	76696474 	undefined instruction 0x76696474
    12d0:	6d656d00 	stclvs	13, cr6, [r5]
    12d4:	6b6c635f 	blvs	1b1a058 <__resume0_start+0x1b1a058>
    12d8:	7465675f 	strbtvc	r6, [r5], #-1887	; 0x75f
    12dc:	6c6c705f 	stclvs	0, cr7, [ip], #-380	; 0xfffffe84
    12e0:	6361665f 	cmnvs	r1, #99614720	; 0x5f00000
    12e4:	00726f74 	rsbseq	r6, r2, r4, ror pc
    12e8:	5f6d656d 	svcpl	0x006d656d
    12ec:	5f6b6c63 	svcpl	0x006b6c63
    12f0:	64746573 	ldrbtvs	r6, [r4], #-1395	; 0x573
    12f4:	6f007669 	svcvs	0x00007669
    12f8:	66666f6e 	strbtvs	r6, [r6], -lr, ror #30
    12fc:	732f2e00 	teqvc	pc, #0
    1300:	72657075 	rsbvc	r7, r5, #117	; 0x75
    1304:	7075732f 	rsbsvc	r7, r5, pc, lsr #6
    1308:	635f7265 	cmpvs	pc, #1342177286	; 0x50000006
    130c:	6b636f6c 	blvs	18dd0c4 <__resume0_start+0x18dd0c4>
    1310:	6d00632e 	stcvs	3, cr6, [r0, #-184]	; 0xffffff48
    1314:	635f6d65 	cmpvs	pc, #6464	; 0x1940
    1318:	705f6b6c 	subsvc	r6, pc, ip, ror #22
    131c:	6e656c6c 	cdpvs	12, 6, cr6, cr5, cr12, {3}
    1320:	656c6261 	strbvs	r6, [ip, #-609]!	; 0x261
    1324:	6d656d00 	stclvs	13, cr6, [r5]
    1328:	6b6c635f 	blvs	1b1a0ac <__resume0_start+0x1b1a0ac>
    132c:	6172645f 	cmnvs	r2, pc, asr r4
    1330:	7461676d 	strbtvc	r6, [r1], #-1901	; 0x76d
    1334:	00676e69 	rsbeq	r6, r7, r9, ror #28
    1338:	5f757063 	svcpl	0x00757063
    133c:	6c5f736d 	mrrcvs	3, 6, r7, pc, cr13
    1340:	63706f6f 	cmnvs	r0, #444	; 0x1bc
    1344:	6d00746e 	cfstrsvs	mvf7, [r0, #-440]	; 0xfffffe48
    1348:	635f6d65 	cmpvs	pc, #6464	; 0x1940
    134c:	695f6b6c 	ldmdbvs	pc, {r2, r3, r5, r6, r8, r9, fp, sp, lr}^
    1350:	0074696e 	rsbseq	r6, r4, lr, ror #18
    1354:	5f6d656d 	svcpl	0x006d656d
    1358:	5f6b6c63 	svcpl	0x006b6c63
    135c:	646c6c70 	strbtvs	r6, [ip], #-3184	; 0xc70
    1360:	62617369 	rsbvs	r7, r1, #-1543503871	; 0xa4000001
    1364:	7400656c 	strvc	r6, [r0], #-1388	; 0x56c
    1368:	7551706d 	ldrbvc	r7, [r1, #-109]	; 0x6d
    136c:	6400746f 	strvs	r7, [r0], #-1135	; 0x46f
    1370:	79616c65 	stmdbvc	r1!, {r0, r2, r5, r6, sl, fp, sp, lr}^
    1374:	00736d5f 	rsbseq	r6, r3, pc, asr sp
    1378:	2e2e2f2e 	cdpcs	15, 2, cr2, cr14, cr14, {1}
    137c:	5f6d702f 	svcpl	0x006d702f
    1380:	75626564 	strbvc	r6, [r2, #-1380]!	; 0x564
    1384:	00632e67 	rsbeq	r2, r3, r7, ror #28
    1388:	65766173 	ldrbvs	r6, [r6, #-371]!	; 0x173
    138c:	6e75735f 	mrcvs	3, 3, r7, cr5, cr15, {2}
    1390:	6d5f6935 	ldclvs	9, cr6, [pc, #-212]	; 0xffffff2c
    1394:	735f6d65 	cmpvc	pc, #6464	; 0x1940
    1398:	75746174 	ldrbvc	r6, [r4, #-372]!	; 0x174
    139c:	61740073 	cmnvs	r4, r3, ror r0
    13a0:	74656772 	strbtvc	r6, [r5], #-1906	; 0x772
    13a4:	5f6f6900 	svcpl	0x006f6900
    13a8:	74696e69 	strbtvc	r6, [r9], #-3689	; 0xe69
    13ac:	6769685f 	undefined instruction 0x6769685f
    13b0:	68630068 	stmdavs	r3!, {r3, r5, r6}^
    13b4:	65676e61 	strbvs	r6, [r7, #-3681]!	; 0xe61
    13b8:	6e75725f 	mrcvs	2, 3, r7, cr5, cr15, {2}
    13bc:	656d6974 	strbvs	r6, [sp, #-2420]!	; 0x974
    13c0:	766e655f 	undefined instruction 0x766e655f
    13c4:	73657200 	cmnvc	r5, #0
    13c8:	65726f74 	ldrbvs	r6, [r2, #-3956]!	; 0xf74
    13cc:	7265705f 	rsbvc	r7, r5, #95	; 0x5f
    13d0:	756f6366 	strbvc	r6, [pc, #-870]!	; 1072 <__resume0_start+0x1072>
    13d4:	7265746e 	rsbvc	r7, r5, #1845493760	; 0x6e000000
    13d8:	6f6f6c00 	svcvs	0x006f6c00
    13dc:	6c665f70 	stclvs	15, cr5, [r6], #-448	; 0xfffffe40
    13e0:	64006761 	strvs	r6, [r0], #-1889	; 0x761
    13e4:	79616c65 	stmdbvc	r1!, {r0, r2, r5, r6, sl, fp, sp, lr}^
    13e8:	0073755f 	rsbseq	r7, r3, pc, asr r5
    13ec:	7265766f 	rsbvc	r7, r5, #116391936	; 0x6f00000
    13f0:	64616568 	strbtvs	r6, [r1], #-1384	; 0x568
    13f4:	616e6500 	cmnvs	lr, r0, lsl #10
    13f8:	5f656c62 	svcpl	0x00656c62
    13fc:	69766964 	ldmdbvs	r6!, {r2, r5, r6, r8, fp, sp, lr}^
    1400:	00726564 	rsbseq	r6, r2, r4, ror #10
    1404:	65736572 	ldrbvs	r6, [r3, #-1394]!	; 0x572
    1408:	6f635f74 	svcvs	0x00635f74
    140c:	65746e75 	ldrbvs	r6, [r4, #-3701]!	; 0xe75
    1410:	61730072 	cmnvs	r3, r2, ror r0
    1414:	6d5f6576 	cfldr64vs	mvdx6, [pc, #-472]	; 0xfffffe28
    1418:	735f6d65 	cmpvc	pc, #6464	; 0x1940
    141c:	75746174 	ldrbvc	r6, [r4, #-372]!	; 0x174
    1420:	6f6e5f73 	svcvs	0x006e5f73
    1424:	00756d6d 	rsbseq	r6, r5, sp, ror #26
    1428:	685f6f69 	ldmdavs	pc, {r0, r3, r5, r6, r8, r9, sl, fp, sp, lr}^
    142c:	00686769 	rsbeq	r6, r8, r9, ror #14
    1430:	69766964 	ldmdbvs	r6!, {r2, r5, r6, r8, fp, sp, lr}^
    1434:	726f6973 	rsbvc	r6, pc, #1884160	; 0x1cc000
    1438:	63616200 	cmnvs	r1, #0
    143c:	5f70756b 	svcpl	0x0070756b
    1440:	66726570 	undefined instruction 0x66726570
    1444:	756f635f 	strbvc	r6, [pc, #-863]!	; 10ed <__resume0_start+0x10ed>
    1448:	7265746e 	rsbvc	r7, r5, #1845493760	; 0x6e000000
    144c:	616e655f 	cmnvs	lr, pc, asr r5
    1450:	5f656c62 	svcpl	0x00656c62
    1454:	00676572 	rsbeq	r6, r7, r2, ror r5
    1458:	65766173 	ldrbvs	r6, [r6, #-371]!	; 0x173
    145c:	6d656d5f 	stclvs	13, cr6, [r5, #-380]!	; 0xfffffe84
    1460:	616c665f 	cmnvs	ip, pc, asr r6
    1464:	6d630067 	stclvs	0, cr0, [r3, #-412]!	; 0xfffffe64
    1468:	65725f75 	ldrbvs	r5, [r2, #-3957]!	; 0xf75
    146c:	61620067 	cmnvs	r2, r7, rrx
    1470:	70756b63 	rsbsvc	r6, r5, r3, ror #22
    1474:	7265705f 	rsbvc	r7, r5, #95	; 0x5f
    1478:	756f6366 	strbvc	r6, [pc, #-870]!	; 111a <__resume0_start+0x111a>
    147c:	7265746e 	rsbvc	r7, r5, #1845493760	; 0x6e000000
    1480:	5f737500 	svcpl	0x00737500
    1484:	00746e63 	rsbseq	r6, r4, r3, ror #28
    1488:	66696873 	undefined instruction 0x66696873
    148c:	6f640074 	svcvs	0x00640074
    1490:	7365725f 	cmnvc	r5, #-268435451	; 0xf0000005
    1494:	66007465 	strvs	r7, [r0], -r5, ror #8
    1498:	5f656b61 	svcpl	0x00656b61
    149c:	79737562 	ldmdbvc	r3!, {r1, r5, r6, r8, sl, ip, sp, lr}^
    14a0:	6961775f 	stmdbvs	r1!, {r0, r1, r2, r3, r4, r6, r8, r9, sl, ip, sp, lr}^
    14a4:	676e6974 	undefined instruction 0x676e6974
    14a8:	63616200 	cmnvs	r1, #0
    14ac:	5f70756b 	svcpl	0x0070756b
    14b0:	66726570 	undefined instruction 0x66726570
    14b4:	756f635f 	strbvc	r6, [pc, #-863]!	; 115d <__resume0_start+0x115d>
    14b8:	7265746e 	rsbvc	r7, r5, #1845493760	; 0x6e000000
    14bc:	7274635f 	rsbsvc	r6, r4, #2080374785	; 0x7c000001
    14c0:	65725f6c 	ldrbvs	r5, [r2, #-3948]!	; 0xf6c
    14c4:	6f690067 	svcvs	0x00690067
    14c8:	696e695f 	stmdbvs	lr!, {r0, r1, r2, r3, r4, r6, r8, fp, sp, lr}^
    14cc:	6f6c5f74 	svcvs	0x006c5f74
    14d0:	6d6d0077 	stclvs	0, cr0, [sp, #-476]!	; 0xfffffe24
    14d4:	6c665f75 	stclvs	15, cr5, [r6], #-468	; 0xfffffe2c
    14d8:	69006761 	stmdbvs	r0, {r0, r5, r6, r8, r9, sl, sp, lr}
    14dc:	6e695f6f 	cdpvs	15, 6, cr5, cr9, cr15, {3}
    14e0:	64007469 	strvs	r7, [r0], #-1129	; 0x469
    14e4:	64697669 	strbtvs	r7, [r9], #-1641	; 0x669
    14e8:	00646e65 	rsbeq	r6, r4, r5, ror #28
    14ec:	5f746567 	svcpl	0x00746567
    14f0:	5f6d656d 	svcpl	0x006d656d
    14f4:	74617473 	strbtvc	r7, [r1], #-1139	; 0x473
    14f8:	72007375 	andvc	r7, r0, #-738197503	; 0xd4000001
    14fc:	765f6765 	ldrbvc	r6, [pc], -r5, ror #14
    1500:	73006c61 	movwvc	r6, #3169	; 0xc61
    1504:	5f657661 	svcpl	0x00657661
    1508:	356e7573 	strbcc	r7, [lr, #-1395]!	; 0x573
    150c:	656d5f69 	strbvs	r5, [sp, #-3945]!	; 0xf69
    1510:	74735f6d 	ldrbtvc	r5, [r3], #-3949	; 0xf6d
    1514:	73757461 	cmnvc	r5, #1627389952	; 0x61000000
    1518:	6d6f6e5f 	stclvs	14, cr6, [pc, #-380]!	; 0xfffffe84
    151c:	6700756d 	strvs	r7, [r0, -sp, ror #10]
    1520:	635f7465 	cmpvs	pc, #1694498816	; 0x65000000
    1524:	656c6379 	strbvs	r6, [ip, #-889]!	; 0x379
    1528:	6e756f63 	cdpvs	15, 7, cr6, cr5, cr3, {3}
    152c:	70630074 	rsbvc	r0, r3, r4, ror r0
    1530:	72665f75 	rsbvc	r5, r6, #468	; 0x1d4
    1534:	69007165 	stmdbvs	r0, {r0, r2, r5, r6, r8, ip, sp, lr}
    1538:	5f74696e 	svcpl	0x0074696e
    153c:	66726570 	undefined instruction 0x66726570
    1540:	6e756f63 	cdpvs	15, 7, cr6, cr5, cr3, {3}
    1544:	73726574 	cmnvc	r2, #486539264	; 0x1d000000
    1548:	63616600 	cmnvs	r1, #0
    154c:	5f726f74 	svcpl	0x00726f74
    1550:	6166006b 	cmnvs	r6, fp, rrx
    1554:	726f7463 	rsbvc	r7, pc, #1660944384	; 0x63000000
    1558:	66006d5f 	undefined instruction 0x66006d5f
    155c:	6f746361 	svcvs	0x00746361
    1560:	006e5f72 	rsbeq	r5, lr, r2, ror pc
    1564:	74636166 	strbtvc	r6, [r3], #-358	; 0x166
    1568:	705f726f 	subsvc	r7, pc, pc, ror #4
    156c:	76617300 	strbtvc	r7, [r1], -r0, lsl #6
    1570:	665f6465 	ldrbvs	r6, [pc], -r5, ror #8
    1574:	0067616c 	rsbeq	r6, r7, ip, ror #2
    1578:	44706d74 	ldrbtmi	r6, [r0], #-3444	; 0xd74
    157c:	73007669 	movwvc	r7, #1641	; 0x669
    1580:	5f657661 	svcpl	0x00657661
    1584:	5f6d656d 	svcpl	0x006d656d
    1588:	74617473 	strbtvc	r7, [r1], #-1139	; 0x473
    158c:	72007375 	andvc	r7, r0, #-738197503	; 0xd4000001
    1590:	6c5f7761 	mrrcvs	7, 6, r7, pc, cr1
    1594:	755f6269 	ldrbvc	r6, [pc, #-617]	; 1333 <__resume0_start+0x1333>
    1598:	00766964 	rsbseq	r6, r6, r4, ror #18
    159c:	5f746573 	svcpl	0x00746573
    15a0:	72706f63 	rsbsvc	r6, r0, #396	; 0x18c
    15a4:	65645f6f 	strbvs	r5, [r4, #-3951]!	; 0xf6f
    15a8:	6c756166 	ldfvse	f6, [r5], #-408	; 0xfffffe68
    15ac:	69640074 	stmdbvs	r4!, {r2, r4, r5, r6}^
    15b0:	6c626173 	stfvse	f6, [r2], #-460	; 0xfffffe34
    15b4:	61635f65 	cmnvs	r3, r5, ror #30
    15b8:	5f656863 	svcpl	0x00656863
    15bc:	61766e69 	cmnvs	r6, r9, ror #28
    15c0:	6164696c 	cmnvs	r4, ip, ror #18
    15c4:	5f006574 	svcpl	0x00006574
    15c8:	7365725f 	cmnvc	r5, #-268435451	; 0xf0000005
    15cc:	65726f74 	ldrbvs	r6, [r2, #-3956]!	; 0xf74
    15d0:	6f72705f 	svcvs	0x0072705f
    15d4:	73736563 	cmnvc	r3, #415236096	; 0x18c00000
    15d8:	735f726f 	cmpvc	pc, #-268435450	; 0xf0000006
    15dc:	65746174 	ldrbvs	r6, [r4, #-372]!	; 0x174
    15e0:	78746300 	ldmdavc	r4!, {r8, r9, sp, lr}^
    15e4:	2f2e0074 	svccs	0x002e0074
    15e8:	6d2f2e2e 	stcvs	14, cr2, [pc, #-184]!	; 0xffffff48
    15ec:	635f6d65 	cmpvs	pc, #6464	; 0x1940
    15f0:	632e7570 	teqvs	lr, #469762048	; 0x1c000000
    15f4:	6d656d00 	stclvs	13, cr6, [r5]
    15f8:	7365725f 	cmnvc	r5, #-268435451	; 0xf0000005
    15fc:	65726f74 	ldrbvs	r6, [r2, #-3956]!	; 0xf74
    1600:	6f72705f 	svcvs	0x0072705f
    1604:	73736563 	cmnvc	r3, #415236096	; 0x18c00000
    1608:	735f726f 	cmpvc	pc, #-268435450	; 0xf0000006
    160c:	65746174 	ldrbvs	r6, [r4, #-372]!	; 0x174
    1610:	735f5f00 	cmpvc	pc, #0
    1614:	5f657661 	svcpl	0x00657661
    1618:	636f7270 	cmnvs	pc, #7
    161c:	6f737365 	svcvs	0x00737365
    1620:	74735f72 	ldrbtvc	r5, [r3], #-3954	; 0xf72
    1624:	00657461 	rsbeq	r7, r5, r1, ror #8
    1628:	61666564 	cmnvs	r6, r4, ror #10
    162c:	5f746c75 	svcpl	0x00746c75
    1630:	72706f63 	rsbsvc	r6, r0, #396	; 0x18c
    1634:	61765f6f 	cmnvs	r6, pc, ror #30
    1638:	0065756c 	rsbeq	r7, r5, ip, ror #10

Disassembly of section .comment:

00000000 <.comment>:
   0:	3a434347 	bcc	10d0d24 <__resume0_start+0x10d0d24>
   4:	2e342820 	cdpcs	8, 3, cr2, cr4, cr0, {1}
   8:	5f342e34 	svcpl	0x00342e34
   c:	302e3930 	eorcc	r3, lr, r0, lsr r9
  10:	30322e36 	eorscc	r2, r2, r6, lsr lr
  14:	20293031 	eorcs	r3, r9, r1, lsr r0
  18:	2e342e34 	mrccs	14, 1, r2, cr4, cr4, {1}
  1c:	Address 0x0000001c is out of bounds.


Disassembly of section .ARM.attributes:

00000000 <.ARM.attributes>:
   0:	00002a41 	andeq	r2, r0, r1, asr #20
   4:	61656100 	cmnvs	r5, r0, lsl #2
   8:	01006962 	tsteq	r0, r2, ror #18
   c:	00000020 	andeq	r0, r0, r0, lsr #32
  10:	412d3705 	teqmi	sp, r5, lsl #14
  14:	070a0600 	streq	r0, [sl, -r0, lsl #12]
  18:	09010841 	stmdbeq	r1, {r0, r6, fp}
  1c:	14041202 	strne	r1, [r4], #-514	; 0x202
  20:	17011501 	strne	r1, [r1, -r1, lsl #10]
  24:	1a011803 	bne	46038 <__resume0_start+0x46038>
  28:	Address 0x00000028 is out of bounds.


Disassembly of section .debug_ranges:

00000000 <.debug_ranges>:
   0:	00000204 	andeq	r0, r0, r4, lsl #4
   4:	00000224 	andeq	r0, r0, r4, lsr #4
   8:	00000240 	andeq	r0, r0, r0, asr #4
   c:	00000260 	andeq	r0, r0, r0, ror #4
	...
  18:	00000204 	andeq	r0, r0, r4, lsl #4
  1c:	00000224 	andeq	r0, r0, r4, lsr #4
  20:	00000240 	andeq	r0, r0, r0, asr #4
  24:	00000260 	andeq	r0, r0, r0, ror #4
	...
