
standby.elf:     file format elf32-littlearm


Disassembly of section .text:

f0000000 <main>:
f0000000:	e92d41f0 	push	{r4, r5, r6, r7, r8, lr}
f0000004:	e2505000 	subs	r5, r0, #0
f0000008:	03e00000 	mvneq	r0, #0
f000000c:	08bd81f0 	popeq	{r4, r5, r6, r7, r8, pc}
f0000010:	eb0000ff 	bl	f0000414 <standby_flush_tlb>
f0000014:	e59f438c 	ldr	r4, [pc, #908]	; f00003a8 <main+0x3a8>
f0000018:	eb000101 	bl	f0000424 <standby_preload_tlb>
f000001c:	e59f2388 	ldr	r2, [pc, #904]	; f00003ac <main+0x3ac>
f0000020:	e3a03000 	mov	r3, #0
f0000024:	e4c43001 	strb	r3, [r4], #1
f0000028:	e1540002 	cmp	r4, r2
f000002c:	9afffffc 	bls	f0000024 <main+0x24>
f0000030:	e59f4378 	ldr	r4, [pc, #888]	; f00003b0 <main+0x3b0>
f0000034:	e1a01005 	mov	r1, r5
f0000038:	e3a020dc 	mov	r2, #220	; 0xdc
f000003c:	e1a00004 	mov	r0, r4
f0000040:	eb0000dc 	bl	f00003b8 <standby_memcpy>
f0000044:	e3a01103 	mov	r1, #-1073741824	; 0xc0000000
f0000048:	e3a02040 	mov	r2, #64	; 0x40
f000004c:	e59f0360 	ldr	r0, [pc, #864]	; f00003b4 <main+0x3b4>
f0000050:	eb0000d8 	bl	f00003b8 <standby_memcpy>
f0000054:	eb000132 	bl	f0000524 <standby_clk_init>
f0000058:	eb000266 	bl	f00009f8 <standby_clk_apbinit>
f000005c:	eb000288 	bl	f0000a84 <standby_int_init>
f0000060:	eb000537 	bl	f0001544 <standby_tmr_init>
f0000064:	e5940004 	ldr	r0, [r4, #4]
f0000068:	eb00043f 	bl	f000116c <standby_power_init>
f000006c:	e5943000 	ldr	r3, [r4]
f0000070:	e3130001 	tst	r3, #1
f0000074:	0a000001 	beq	f0000080 <main+0x80>
f0000078:	e3a00000 	mov	r0, #0
f000007c:	eb0002be 	bl	f0000b7c <standby_enable_int>
f0000080:	e59f3328 	ldr	r3, [pc, #808]	; f00003b0 <main+0x3b0>
f0000084:	e5933000 	ldr	r3, [r3]
f0000088:	e3130004 	tst	r3, #4
f000008c:	0a000001 	beq	f0000098 <main+0x98>
f0000090:	e3a0001f 	mov	r0, #31
f0000094:	eb0002b8 	bl	f0000b7c <standby_enable_int>
f0000098:	e59f3310 	ldr	r3, [pc, #784]	; f00003b0 <main+0x3b0>
f000009c:	e5933000 	ldr	r3, [r3]
f00000a0:	e3130008 	tst	r3, #8
f00000a4:	0a000004 	beq	f00000bc <main+0xbc>
f00000a8:	eb0002d1 	bl	f0000bf4 <standby_ir_init>
f00000ac:	e3a00005 	mov	r0, #5
f00000b0:	eb0002b1 	bl	f0000b7c <standby_enable_int>
f00000b4:	e3a00006 	mov	r0, #6
f00000b8:	eb0002af 	bl	f0000b7c <standby_enable_int>
f00000bc:	e59f32ec 	ldr	r3, [pc, #748]	; f00003b0 <main+0x3b0>
f00000c0:	e5933000 	ldr	r3, [r3]
f00000c4:	e3130010 	tst	r3, #16
f00000c8:	0a000001 	beq	f00000d4 <main+0xd4>
f00000cc:	e3a00018 	mov	r0, #24
f00000d0:	eb0002a9 	bl	f0000b7c <standby_enable_int>
f00000d4:	e59f32d4 	ldr	r3, [pc, #724]	; f00003b0 <main+0x3b0>
f00000d8:	e5933000 	ldr	r3, [r3]
f00000dc:	e3130002 	tst	r3, #2
f00000e0:	0a000002 	beq	f00000f0 <main+0xf0>
f00000e4:	eb000605 	bl	f0001900 <standby_usb_init>
f00000e8:	e3a00026 	mov	r0, #38	; 0x26
f00000ec:	eb0002a2 	bl	f0000b7c <standby_enable_int>
f00000f0:	e59f32b8 	ldr	r3, [pc, #696]	; f00003b0 <main+0x3b0>
f00000f4:	e5932000 	ldr	r2, [r3]
f00000f8:	e3120020 	tst	r2, #32
f00000fc:	0a000005 	beq	f0000118 <main+0x118>
f0000100:	e5930008 	ldr	r0, [r3, #8]
f0000104:	e3500000 	cmp	r0, #0
f0000108:	0a000002 	beq	f0000118 <main+0x118>
f000010c:	eb0004c4 	bl	f0001424 <standby_tmr_set>
f0000110:	e3a00016 	mov	r0, #22
f0000114:	eb000298 	bl	f0000b7c <standby_enable_int>
f0000118:	e59f3290 	ldr	r3, [pc, #656]	; f00003b0 <main+0x3b0>
f000011c:	e5933000 	ldr	r3, [r3]
f0000120:	e3130040 	tst	r3, #64	; 0x40
f0000124:	0a000001 	beq	f0000130 <main+0x130>
f0000128:	e3a0001c 	mov	r0, #28
f000012c:	eb000292 	bl	f0000b7c <standby_enable_int>
f0000130:	eb0000b2 	bl	f0000400 <save_sp>
f0000134:	e59f4278 	ldr	r4, [pc, #632]	; f00003b4 <main+0x3b4>
f0000138:	e3a07000 	mov	r7, #0
f000013c:	e5840040 	str	r0, [r4, #64]	; 0x40
f0000140:	eb00078b 	bl	f0001f74 <dram_power_save_process>
f0000144:	e1a00007 	mov	r0, r7
f0000148:	eb00020d 	bl	f0000984 <standby_clk_dramgating>
f000014c:	e2840044 	add	r0, r4, #68	; 0x44
f0000150:	eb0001f7 	bl	f0000934 <standby_clk_get_pll_factor>
f0000154:	e3a03010 	mov	r3, #16
f0000158:	e284004c 	add	r0, r4, #76	; 0x4c
f000015c:	e5c4304c 	strb	r3, [r4, #76]	; 0x4c
f0000160:	e5c4704d 	strb	r7, [r4, #77]	; 0x4d
f0000164:	e5c4704e 	strb	r7, [r4, #78]	; 0x4e
f0000168:	e5c4704f 	strb	r7, [r4, #79]	; 0x4f
f000016c:	eb0001d8 	bl	f00008d4 <standby_clk_set_pll_factor>
f0000170:	e3a00001 	mov	r0, #1
f0000174:	eb00064b 	bl	f0001aa8 <change_runtime_env>
f0000178:	e3a0000a 	mov	r0, #10
f000017c:	eb0006b3 	bl	f0001c50 <delay_ms>
f0000180:	eb000125 	bl	f000061c <standby_clk_core2hosc>
f0000184:	e3a00001 	mov	r0, #1
f0000188:	eb000646 	bl	f0001aa8 <change_runtime_env>
f000018c:	e3a00001 	mov	r0, #1
f0000190:	eb00068d 	bl	f0001bcc <delay_us>
f0000194:	eb00013a 	bl	f0000684 <standby_clk_plldisable>
f0000198:	e3a00001 	mov	r0, #1
f000019c:	eb0002c3 	bl	f0000cb0 <standby_get_voltage>
f00001a0:	e5840054 	str	r0, [r4, #84]	; 0x54
f00001a4:	e3a00002 	mov	r0, #2
f00001a8:	eb0002c0 	bl	f0000cb0 <standby_get_voltage>
f00001ac:	e3a01ffa 	mov	r1, #1000	; 0x3e8
f00001b0:	e5840058 	str	r0, [r4, #88]	; 0x58
f00001b4:	e3a00002 	mov	r0, #2
f00001b8:	eb0002e4 	bl	f0000d50 <standby_set_voltage>
f00001bc:	e3a01faf 	mov	r1, #700	; 0x2bc
f00001c0:	e3a00001 	mov	r0, #1
f00001c4:	eb0002e1 	bl	f0000d50 <standby_set_voltage>
f00001c8:	e284005c 	add	r0, r4, #92	; 0x5c
f00001cc:	eb0001ab 	bl	f0000880 <standby_clk_getdiv>
f00001d0:	e5943060 	ldr	r3, [r4, #96]	; 0x60
f00001d4:	e1a00004 	mov	r0, r4
f00001d8:	e3c33eff 	bic	r3, r3, #4080	; 0xff0
f00001dc:	e7cf3617 	bfi	r3, r7, #12, #4
f00001e0:	e5a03060 	str	r3, [r0, #96]!	; 0x60
f00001e4:	eb00018e 	bl	f0000824 <standby_clk_setdiv>
f00001e8:	eb0001f1 	bl	f00009b4 <standby_clk_apb2losc>
f00001ec:	e3a00001 	mov	r0, #1
f00001f0:	eb00062c 	bl	f0001aa8 <change_runtime_env>
f00001f4:	eb0000fc 	bl	f00005ec <standby_clk_core2losc>
f00001f8:	e320f003 	wfi
f00001fc:	e59f61ac 	ldr	r6, [pc, #428]	; f00003b0 <main+0x3b0>
f0000200:	eb000105 	bl	f000061c <standby_clk_core2hosc>
f0000204:	eb0001f3 	bl	f00009d8 <standby_clk_apb2hosc>
f0000208:	e284005c 	add	r0, r4, #92	; 0x5c
f000020c:	eb000184 	bl	f0000824 <standby_clk_setdiv>
f0000210:	e1a00007 	mov	r0, r7
f0000214:	e5867000 	str	r7, [r6]
f0000218:	eb000269 	bl	f0000bc4 <standby_query_int>
f000021c:	e1500007 	cmp	r0, r7
f0000220:	13a07000 	movne	r7, #0
f0000224:	03a07001 	moveq	r7, #1
f0000228:	e3a00026 	mov	r0, #38	; 0x26
f000022c:	e5867000 	str	r7, [r6]
f0000230:	eb000263 	bl	f0000bc4 <standby_query_int>
f0000234:	e3500000 	cmp	r0, #0
f0000238:	e3a0001f 	mov	r0, #31
f000023c:	03a03002 	moveq	r3, #2
f0000240:	13a03000 	movne	r3, #0
f0000244:	e1837007 	orr	r7, r3, r7
f0000248:	e5867000 	str	r7, [r6]
f000024c:	eb00025c 	bl	f0000bc4 <standby_query_int>
f0000250:	e3500000 	cmp	r0, #0
f0000254:	e3a00005 	mov	r0, #5
f0000258:	03a03004 	moveq	r3, #4
f000025c:	13a03000 	movne	r3, #0
f0000260:	e1837007 	orr	r7, r3, r7
f0000264:	e5867000 	str	r7, [r6]
f0000268:	eb000255 	bl	f0000bc4 <standby_query_int>
f000026c:	e3500000 	cmp	r0, #0
f0000270:	e3a00018 	mov	r0, #24
f0000274:	03a03008 	moveq	r3, #8
f0000278:	13a03000 	movne	r3, #0
f000027c:	e1837007 	orr	r7, r3, r7
f0000280:	e5867000 	str	r7, [r6]
f0000284:	eb00024e 	bl	f0000bc4 <standby_query_int>
f0000288:	e3500000 	cmp	r0, #0
f000028c:	e3a00016 	mov	r0, #22
f0000290:	03a03010 	moveq	r3, #16
f0000294:	13a03000 	movne	r3, #0
f0000298:	e1837007 	orr	r7, r3, r7
f000029c:	e5867000 	str	r7, [r6]
f00002a0:	eb000247 	bl	f0000bc4 <standby_query_int>
f00002a4:	e3500000 	cmp	r0, #0
f00002a8:	e3a0001c 	mov	r0, #28
f00002ac:	03a03020 	moveq	r3, #32
f00002b0:	13a03000 	movne	r3, #0
f00002b4:	e1837007 	orr	r7, r3, r7
f00002b8:	e5867000 	str	r7, [r6]
f00002bc:	eb000240 	bl	f0000bc4 <standby_query_int>
f00002c0:	e5941054 	ldr	r1, [r4, #84]	; 0x54
f00002c4:	e3500000 	cmp	r0, #0
f00002c8:	e3a00001 	mov	r0, #1
f00002cc:	03a03040 	moveq	r3, #64	; 0x40
f00002d0:	13a03000 	movne	r3, #0
f00002d4:	e1837007 	orr	r7, r3, r7
f00002d8:	e5867000 	str	r7, [r6]
f00002dc:	eb00029b 	bl	f0000d50 <standby_set_voltage>
f00002e0:	e5941058 	ldr	r1, [r4, #88]	; 0x58
f00002e4:	e3a00002 	mov	r0, #2
f00002e8:	eb000298 	bl	f0000d50 <standby_set_voltage>
f00002ec:	eb0000fe 	bl	f00006ec <standby_clk_pllenable>
f00002f0:	e3a00001 	mov	r0, #1
f00002f4:	eb0005eb 	bl	f0001aa8 <change_runtime_env>
f00002f8:	e3a0000a 	mov	r0, #10
f00002fc:	eb000653 	bl	f0001c50 <delay_ms>
f0000300:	eb0000d2 	bl	f0000650 <standby_clk_core2pll>
f0000304:	e3a00001 	mov	r0, #1
f0000308:	eb0005e6 	bl	f0001aa8 <change_runtime_env>
f000030c:	e3a0000a 	mov	r0, #10
f0000310:	eb00064e 	bl	f0001c50 <delay_ms>
f0000314:	e2840044 	add	r0, r4, #68	; 0x44
f0000318:	eb00016d 	bl	f00008d4 <standby_clk_set_pll_factor>
f000031c:	e3a00001 	mov	r0, #1
f0000320:	eb0005e0 	bl	f0001aa8 <change_runtime_env>
f0000324:	e3a00005 	mov	r0, #5
f0000328:	eb000648 	bl	f0001c50 <delay_ms>
f000032c:	e3a00001 	mov	r0, #1
f0000330:	eb000193 	bl	f0000984 <standby_clk_dramgating>
f0000334:	eb00044e 	bl	f0001474 <standby_tmr_enable_watchdog>
f0000338:	eb00077b 	bl	f000212c <dram_power_up_process>
f000033c:	eb000455 	bl	f0001498 <standby_tmr_disable_watchdog>
f0000340:	e5940040 	ldr	r0, [r4, #64]	; 0x40
f0000344:	eb000030 	bl	f000040c <restore_sp>
f0000348:	e5963000 	ldr	r3, [r6]
f000034c:	e3130002 	tst	r3, #2
f0000350:	0a000000 	beq	f0000358 <main+0x358>
f0000354:	eb00056b 	bl	f0001908 <standby_usb_exit>
f0000358:	e59f3050 	ldr	r3, [pc, #80]	; f00003b0 <main+0x3b0>
f000035c:	e5933000 	ldr	r3, [r3]
f0000360:	e3130008 	tst	r3, #8
f0000364:	0a000000 	beq	f000036c <main+0x36c>
f0000368:	eb000223 	bl	f0000bfc <standby_ir_exit>
f000036c:	e59f403c 	ldr	r4, [pc, #60]	; f00003b0 <main+0x3b0>
f0000370:	e1d400b2 	ldrh	r0, [r4, #2]
f0000374:	eb0002ed 	bl	f0000f30 <standby_power_exit>
f0000378:	eb000416 	bl	f00013d8 <standby_tmr_exit>
f000037c:	eb0001e7 	bl	f0000b20 <standby_int_exit>
f0000380:	eb0001ac 	bl	f0000a38 <standby_clk_apbexit>
f0000384:	eb000087 	bl	f00005a8 <standby_clk_exit>
f0000388:	e3a00103 	mov	r0, #-1073741824	; 0xc0000000
f000038c:	e59f1020 	ldr	r1, [pc, #32]	; f00003b4 <main+0x3b4>
f0000390:	e3a02040 	mov	r2, #64	; 0x40
f0000394:	eb000007 	bl	f00003b8 <standby_memcpy>
f0000398:	e5943000 	ldr	r3, [r4]
f000039c:	e3a00000 	mov	r0, #0
f00003a0:	e5853000 	str	r3, [r5]
f00003a4:	e8bd81f0 	pop	{r4, r5, r6, r7, r8, pc}
f00003a8:	f0002a14 	undefined instruction 0xf0002a14
f00003ac:	f0002bec 	undefined instruction 0xf0002bec
f00003b0:	f0002b0c 	undefined instruction 0xf0002b0c
f00003b4:	f0002a14 	undefined instruction 0xf0002a14

f00003b8 <standby_memcpy>:
f00003b8:	e3500000 	cmp	r0, #0
f00003bc:	13510000 	cmpne	r1, #0
f00003c0:	13a03000 	movne	r3, #0
f00003c4:	03a03001 	moveq	r3, #1
f00003c8:	1a000003 	bne	f00003dc <standby_memcpy+0x24>
f00003cc:	e12fff1e 	bx	lr
f00003d0:	e7d1c003 	ldrb	ip, [r1, r3]
f00003d4:	e7c0c003 	strb	ip, [r0, r3]
f00003d8:	e2833001 	add	r3, r3, #1
f00003dc:	e3520000 	cmp	r2, #0
f00003e0:	e2422001 	sub	r2, r2, #1
f00003e4:	cafffff9 	bgt	f00003d0 <standby_memcpy+0x18>
f00003e8:	e12fff1e 	bx	lr

f00003ec <standby_mdelay>:
f00003ec:	e59f3008 	ldr	r3, [pc, #8]	; f00003fc <standby_mdelay+0x10>
f00003f0:	e5933000 	ldr	r3, [r3]
f00003f4:	e0000093 	mul	r0, r3, r0
f00003f8:	ea000548 	b	f0001920 <standby_delay>
f00003fc:	f0002be8 	undefined instruction 0xf0002be8

f0000400 <save_sp>:
f0000400:	e1a0000d 	mov	r0, sp
f0000404:	e59fd0dc 	ldr	sp, [pc, #220]	; f00004e8 <standby_preload_tlb+0xc4>
f0000408:	e1a0f00e 	mov	pc, lr

f000040c <restore_sp>:
f000040c:	e1a0d000 	mov	sp, r0
f0000410:	e1a0f00e 	mov	pc, lr

f0000414 <standby_flush_tlb>:
f0000414:	e92d000f 	push	{r0, r1, r2, r3}
f0000418:	ee080f17 	mcr	15, 0, r0, cr8, cr7, {0}
f000041c:	e8bd000f 	pop	{r0, r1, r2, r3}
f0000420:	e1a0f00e 	mov	pc, lr

f0000424 <standby_preload_tlb>:
f0000424:	e92d000f 	push	{r0, r1, r2, r3}
f0000428:	e59f00bc 	ldr	r0, [pc, #188]	; f00004ec <standby_preload_tlb+0xc8>
f000042c:	ee0a0f11 	mcr	15, 0, r0, cr10, cr1, {0}
f0000430:	e59f00b8 	ldr	r0, [pc, #184]	; f00004f0 <standby_preload_tlb+0xcc>
f0000434:	ee0a0f11 	mcr	15, 0, r0, cr10, cr1, {0}
f0000438:	e59f00b4 	ldr	r0, [pc, #180]	; f00004f4 <standby_preload_tlb+0xd0>
f000043c:	ee0a0f11 	mcr	15, 0, r0, cr10, cr1, {0}
f0000440:	e59f00b0 	ldr	r0, [pc, #176]	; f00004f8 <standby_preload_tlb+0xd4>
f0000444:	ee0a0f11 	mcr	15, 0, r0, cr10, cr1, {0}
f0000448:	e59f00ac 	ldr	r0, [pc, #172]	; f00004fc <standby_preload_tlb+0xd8>
f000044c:	ee0a0f11 	mcr	15, 0, r0, cr10, cr1, {0}
f0000450:	e59f00a8 	ldr	r0, [pc, #168]	; f0000500 <standby_preload_tlb+0xdc>
f0000454:	ee0a0f11 	mcr	15, 0, r0, cr10, cr1, {0}
f0000458:	e59f00a4 	ldr	r0, [pc, #164]	; f0000504 <standby_preload_tlb+0xe0>
f000045c:	ee0a0f11 	mcr	15, 0, r0, cr10, cr1, {0}
f0000460:	e3a0020f 	mov	r0, #-268435456	; 0xf0000000
f0000464:	ee0a0f11 	mcr	15, 0, r0, cr10, cr1, {0}
f0000468:	e59f0098 	ldr	r0, [pc, #152]	; f0000508 <standby_preload_tlb+0xe4>
f000046c:	ee0a0f11 	mcr	15, 0, r0, cr10, cr1, {0}
f0000470:	e59f0094 	ldr	r0, [pc, #148]	; f000050c <standby_preload_tlb+0xe8>
f0000474:	ee0a0f11 	mcr	15, 0, r0, cr10, cr1, {0}
f0000478:	e59f0090 	ldr	r0, [pc, #144]	; f0000510 <standby_preload_tlb+0xec>
f000047c:	ee0a0f11 	mcr	15, 0, r0, cr10, cr1, {0}
f0000480:	e59f008c 	ldr	r0, [pc, #140]	; f0000514 <standby_preload_tlb+0xf0>
f0000484:	ee0a0f11 	mcr	15, 0, r0, cr10, cr1, {0}
f0000488:	e59f0088 	ldr	r0, [pc, #136]	; f0000518 <standby_preload_tlb+0xf4>
f000048c:	ee0a0f11 	mcr	15, 0, r0, cr10, cr1, {0}
f0000490:	e59f0084 	ldr	r0, [pc, #132]	; f000051c <standby_preload_tlb+0xf8>
f0000494:	ee0a0f11 	mcr	15, 0, r0, cr10, cr1, {0}
f0000498:	e59f0080 	ldr	r0, [pc, #128]	; f0000520 <standby_preload_tlb+0xfc>
f000049c:	ee0a0f11 	mcr	15, 0, r0, cr10, cr1, {0}
f00004a0:	e3a0020f 	mov	r0, #-268435456	; 0xf0000000
f00004a4:	ee0a0f31 	mcr	15, 0, r0, cr10, cr1, {1}
f00004a8:	e59f0058 	ldr	r0, [pc, #88]	; f0000508 <standby_preload_tlb+0xe4>
f00004ac:	ee0a0f31 	mcr	15, 0, r0, cr10, cr1, {1}
f00004b0:	e59f0054 	ldr	r0, [pc, #84]	; f000050c <standby_preload_tlb+0xe8>
f00004b4:	ee0a0f31 	mcr	15, 0, r0, cr10, cr1, {1}
f00004b8:	e59f0050 	ldr	r0, [pc, #80]	; f0000510 <standby_preload_tlb+0xec>
f00004bc:	ee0a0f31 	mcr	15, 0, r0, cr10, cr1, {1}
f00004c0:	e59f004c 	ldr	r0, [pc, #76]	; f0000514 <standby_preload_tlb+0xf0>
f00004c4:	ee0a0f31 	mcr	15, 0, r0, cr10, cr1, {1}
f00004c8:	e59f0048 	ldr	r0, [pc, #72]	; f0000518 <standby_preload_tlb+0xf4>
f00004cc:	ee0a0f31 	mcr	15, 0, r0, cr10, cr1, {1}
f00004d0:	e59f0044 	ldr	r0, [pc, #68]	; f000051c <standby_preload_tlb+0xf8>
f00004d4:	ee0a0f31 	mcr	15, 0, r0, cr10, cr1, {1}
f00004d8:	e59f0040 	ldr	r0, [pc, #64]	; f0000520 <standby_preload_tlb+0xfc>
f00004dc:	ee0a0f31 	mcr	15, 0, r0, cr10, cr1, {1}
f00004e0:	e8bd000f 	pop	{r0, r1, r2, r3}
f00004e4:	e1a0f00e 	mov	pc, lr
f00004e8:	f0007ffc 	undefined instruction 0xf0007ffc
f00004ec:	f1c20000 	undefined instruction 0xf1c20000
f00004f0:	f1c2ac00 	undefined instruction 0xf1c2ac00
f00004f4:	f1c2b000 	undefined instruction 0xf1c2b000
f00004f8:	f1c2b400 	undefined instruction 0xf1c2b400
f00004fc:	f1c20400 	undefined instruction 0xf1c20400
f0000500:	f1c20c00 	undefined instruction 0xf1c20c00
f0000504:	f1c22800 	undefined instruction 0xf1c22800
f0000508:	f0000400 	undefined instruction 0xf0000400
f000050c:	f0000800 	undefined instruction 0xf0000800
f0000510:	f0000c00 	undefined instruction 0xf0000c00
f0000514:	f0001000 	undefined instruction 0xf0001000
f0000518:	f0001400 	undefined instruction 0xf0001400
f000051c:	f0001800 	undefined instruction 0xf0001800
f0000520:	f0001c00 	undefined instruction 0xf0001c00

f0000524 <standby_clk_init>:
f0000524:	e59f206c 	ldr	r2, [pc, #108]	; f0000598 <standby_clk_init+0x74>
f0000528:	e3a00000 	mov	r0, #0
f000052c:	e59f3068 	ldr	r3, [pc, #104]	; f000059c <standby_clk_init+0x78>
f0000530:	e92d45f0 	push	{r4, r5, r6, r7, r8, sl, lr}
f0000534:	e5927000 	ldr	r7, [r2]
f0000538:	e5936000 	ldr	r6, [r3]
f000053c:	e2833008 	add	r3, r3, #8
f0000540:	e300abb8 	movw	sl, #3000	; 0xbb8
f0000544:	e5935000 	ldr	r5, [r3]
f0000548:	e2833008 	add	r3, r3, #8
f000054c:	e5934000 	ldr	r4, [r3]
f0000550:	e2833008 	add	r3, r3, #8
f0000554:	e593c000 	ldr	ip, [r3]
f0000558:	e2833008 	add	r3, r3, #8
f000055c:	e5931000 	ldr	r1, [r3]
f0000560:	e2833008 	add	r3, r3, #8
f0000564:	e5938000 	ldr	r8, [r3]
f0000568:	e59f3030 	ldr	r3, [pc, #48]	; f00005a0 <standby_clk_init+0x7c>
f000056c:	e583801c 	str	r8, [r3, #28]
f0000570:	e59f802c 	ldr	r8, [pc, #44]	; f00005a4 <standby_clk_init+0x80>
f0000574:	e5837004 	str	r7, [r3, #4]
f0000578:	e5836008 	str	r6, [r3, #8]
f000057c:	e588a000 	str	sl, [r8]
f0000580:	e583500c 	str	r5, [r3, #12]
f0000584:	e5834010 	str	r4, [r3, #16]
f0000588:	e583c014 	str	ip, [r3, #20]
f000058c:	e5831018 	str	r1, [r3, #24]
f0000590:	e5832000 	str	r2, [r3]
f0000594:	e8bd85f0 	pop	{r4, r5, r6, r7, r8, sl, pc}
f0000598:	f1c20000 	undefined instruction 0xf1c20000
f000059c:	f1c20008 	undefined instruction 0xf1c20008
f00005a0:	f0002a78 	undefined instruction 0xf0002a78
f00005a4:	f0002be8 	undefined instruction 0xf0002be8

f00005a8 <standby_clk_exit>:
f00005a8:	e59f3038 	ldr	r3, [pc, #56]	; f00005e8 <standby_clk_exit+0x40>
f00005ac:	e3a00000 	mov	r0, #0
f00005b0:	e5931004 	ldr	r1, [r3, #4]
f00005b4:	e5932000 	ldr	r2, [r3]
f00005b8:	e5821000 	str	r1, [r2]
f00005bc:	e5931008 	ldr	r1, [r3, #8]
f00005c0:	e5821008 	str	r1, [r2, #8]
f00005c4:	e593100c 	ldr	r1, [r3, #12]
f00005c8:	e5821010 	str	r1, [r2, #16]
f00005cc:	e5931010 	ldr	r1, [r3, #16]
f00005d0:	e5821018 	str	r1, [r2, #24]
f00005d4:	e5931018 	ldr	r1, [r3, #24]
f00005d8:	e5821028 	str	r1, [r2, #40]	; 0x28
f00005dc:	e593301c 	ldr	r3, [r3, #28]
f00005e0:	e5823030 	str	r3, [r2, #48]	; 0x30
f00005e4:	e12fff1e 	bx	lr
f00005e8:	f0002a78 	undefined instruction 0xf0002a78

f00005ec <standby_clk_core2losc>:
f00005ec:	e59f3020 	ldr	r3, [pc, #32]	; f0000614 <standby_clk_core2losc+0x28>
f00005f0:	e3a00000 	mov	r0, #0
f00005f4:	e5933000 	ldr	r3, [r3]
f00005f8:	e5932054 	ldr	r2, [r3, #84]	; 0x54
f00005fc:	e7d1281f 	bfc	r2, #16, #2
f0000600:	e5832054 	str	r2, [r3, #84]	; 0x54
f0000604:	e59f300c 	ldr	r3, [pc, #12]	; f0000618 <standby_clk_core2losc+0x2c>
f0000608:	e3a02001 	mov	r2, #1
f000060c:	e5832000 	str	r2, [r3]
f0000610:	e12fff1e 	bx	lr
f0000614:	f0002a78 	undefined instruction 0xf0002a78
f0000618:	f0002be8 	undefined instruction 0xf0002be8

f000061c <standby_clk_core2hosc>:
f000061c:	e59f3024 	ldr	r3, [pc, #36]	; f0000648 <standby_clk_core2hosc+0x2c>
f0000620:	e3a01001 	mov	r1, #1
f0000624:	e3a00000 	mov	r0, #0
f0000628:	e5933000 	ldr	r3, [r3]
f000062c:	e5932054 	ldr	r2, [r3, #84]	; 0x54
f0000630:	e7d12811 	bfi	r2, r1, #16, #2
f0000634:	e5832054 	str	r2, [r3, #84]	; 0x54
f0000638:	e59f300c 	ldr	r3, [pc, #12]	; f000064c <standby_clk_core2hosc+0x30>
f000063c:	e3a02f96 	mov	r2, #600	; 0x258
f0000640:	e5832000 	str	r2, [r3]
f0000644:	e12fff1e 	bx	lr
f0000648:	f0002a78 	undefined instruction 0xf0002a78
f000064c:	f0002be8 	undefined instruction 0xf0002be8

f0000650 <standby_clk_core2pll>:
f0000650:	e59f3024 	ldr	r3, [pc, #36]	; f000067c <standby_clk_core2pll+0x2c>
f0000654:	e3a01002 	mov	r1, #2
f0000658:	e3a00000 	mov	r0, #0
f000065c:	e5933000 	ldr	r3, [r3]
f0000660:	e5932054 	ldr	r2, [r3, #84]	; 0x54
f0000664:	e7d12811 	bfi	r2, r1, #16, #2
f0000668:	e5832054 	str	r2, [r3, #84]	; 0x54
f000066c:	e59f300c 	ldr	r3, [pc, #12]	; f0000680 <standby_clk_core2pll+0x30>
f0000670:	e3a02e7d 	mov	r2, #2000	; 0x7d0
f0000674:	e5832000 	str	r2, [r3]
f0000678:	e12fff1e 	bx	lr
f000067c:	f0002a78 	undefined instruction 0xf0002a78
f0000680:	f0002be8 	undefined instruction 0xf0002be8

f0000684 <standby_clk_plldisable>:
f0000684:	e59f305c 	ldr	r3, [pc, #92]	; f00006e8 <standby_clk_plldisable+0x64>
f0000688:	e3a00000 	mov	r0, #0
f000068c:	e5933000 	ldr	r3, [r3]
f0000690:	e5932000 	ldr	r2, [r3]
f0000694:	e7df2f9f 	bfc	r2, #31, #1
f0000698:	e5832000 	str	r2, [r3]
f000069c:	e5932008 	ldr	r2, [r3, #8]
f00006a0:	e7df2f9f 	bfc	r2, #31, #1
f00006a4:	e5832008 	str	r2, [r3, #8]
f00006a8:	e5932010 	ldr	r2, [r3, #16]
f00006ac:	e7df2f9f 	bfc	r2, #31, #1
f00006b0:	e5832010 	str	r2, [r3, #16]
f00006b4:	e5932018 	ldr	r2, [r3, #24]
f00006b8:	e7df2f9f 	bfc	r2, #31, #1
f00006bc:	e5832018 	str	r2, [r3, #24]
f00006c0:	e5932020 	ldr	r2, [r3, #32]
f00006c4:	e7df2f9f 	bfc	r2, #31, #1
f00006c8:	e5832020 	str	r2, [r3, #32]
f00006cc:	e5932028 	ldr	r2, [r3, #40]	; 0x28
f00006d0:	e7df2f9f 	bfc	r2, #31, #1
f00006d4:	e5832028 	str	r2, [r3, #40]	; 0x28
f00006d8:	e5932030 	ldr	r2, [r3, #48]	; 0x30
f00006dc:	e7df2f9f 	bfc	r2, #31, #1
f00006e0:	e5832030 	str	r2, [r3, #48]	; 0x30
f00006e4:	e12fff1e 	bx	lr
f00006e8:	f0002a78 	undefined instruction 0xf0002a78

f00006ec <standby_clk_pllenable>:
f00006ec:	e59f305c 	ldr	r3, [pc, #92]	; f0000750 <standby_clk_pllenable+0x64>
f00006f0:	e3a00000 	mov	r0, #0
f00006f4:	e5933000 	ldr	r3, [r3]
f00006f8:	e5932000 	ldr	r2, [r3]
f00006fc:	e3822102 	orr	r2, r2, #-2147483648	; 0x80000000
f0000700:	e5832000 	str	r2, [r3]
f0000704:	e5932008 	ldr	r2, [r3, #8]
f0000708:	e3822102 	orr	r2, r2, #-2147483648	; 0x80000000
f000070c:	e5832008 	str	r2, [r3, #8]
f0000710:	e5932010 	ldr	r2, [r3, #16]
f0000714:	e3822102 	orr	r2, r2, #-2147483648	; 0x80000000
f0000718:	e5832010 	str	r2, [r3, #16]
f000071c:	e5932018 	ldr	r2, [r3, #24]
f0000720:	e3822102 	orr	r2, r2, #-2147483648	; 0x80000000
f0000724:	e5832018 	str	r2, [r3, #24]
f0000728:	e5932020 	ldr	r2, [r3, #32]
f000072c:	e3822102 	orr	r2, r2, #-2147483648	; 0x80000000
f0000730:	e5832020 	str	r2, [r3, #32]
f0000734:	e5932028 	ldr	r2, [r3, #40]	; 0x28
f0000738:	e3822102 	orr	r2, r2, #-2147483648	; 0x80000000
f000073c:	e5832028 	str	r2, [r3, #40]	; 0x28
f0000740:	e5932030 	ldr	r2, [r3, #48]	; 0x30
f0000744:	e3822102 	orr	r2, r2, #-2147483648	; 0x80000000
f0000748:	e5832030 	str	r2, [r3, #48]	; 0x30
f000074c:	e12fff1e 	bx	lr
f0000750:	f0002a78 	undefined instruction 0xf0002a78

f0000754 <standby_clk_hoscdisable>:
f0000754:	e59f3014 	ldr	r3, [pc, #20]	; f0000770 <standby_clk_hoscdisable+0x1c>
f0000758:	e3a00000 	mov	r0, #0
f000075c:	e5933000 	ldr	r3, [r3]
f0000760:	e5932050 	ldr	r2, [r3, #80]	; 0x50
f0000764:	e7c0201f 	bfc	r2, #0, #1
f0000768:	e5832050 	str	r2, [r3, #80]	; 0x50
f000076c:	e12fff1e 	bx	lr
f0000770:	f0002a78 	undefined instruction 0xf0002a78

f0000774 <standby_clk_hoscenable>:
f0000774:	e59f3014 	ldr	r3, [pc, #20]	; f0000790 <standby_clk_hoscenable+0x1c>
f0000778:	e3a00000 	mov	r0, #0
f000077c:	e5932000 	ldr	r2, [r3]
f0000780:	e5923050 	ldr	r3, [r2, #80]	; 0x50
f0000784:	e3833001 	orr	r3, r3, #1
f0000788:	e5823050 	str	r3, [r2, #80]	; 0x50
f000078c:	e12fff1e 	bx	lr
f0000790:	f0002a78 	undefined instruction 0xf0002a78

f0000794 <standby_clk_ldodisable>:
f0000794:	e59f303c 	ldr	r3, [pc, #60]	; f00007d8 <standby_clk_ldodisable+0x44>
f0000798:	e3001538 	movw	r1, #1336	; 0x538
f000079c:	e3a00000 	mov	r0, #0
f00007a0:	e5933000 	ldr	r3, [r3]
f00007a4:	e5932050 	ldr	r2, [r3, #80]	; 0x50
f00007a8:	e7df2a91 	bfi	r2, r1, #21, #11
f00007ac:	e5832050 	str	r2, [r3, #80]	; 0x50
f00007b0:	e5932050 	ldr	r2, [r3, #80]	; 0x50
f00007b4:	e7d0281f 	bfc	r2, #16, #1
f00007b8:	e5832050 	str	r2, [r3, #80]	; 0x50
f00007bc:	e5932020 	ldr	r2, [r3, #32]
f00007c0:	e7c7239f 	bfc	r2, #7, #1
f00007c4:	e5832020 	str	r2, [r3, #32]
f00007c8:	e5932050 	ldr	r2, [r3, #80]	; 0x50
f00007cc:	e7df2a9f 	bfc	r2, #21, #11
f00007d0:	e5832050 	str	r2, [r3, #80]	; 0x50
f00007d4:	e12fff1e 	bx	lr
f00007d8:	f0002a78 	undefined instruction 0xf0002a78

f00007dc <standby_clk_ldoenable>:
f00007dc:	e59f303c 	ldr	r3, [pc, #60]	; f0000820 <standby_clk_ldoenable+0x44>
f00007e0:	e3001538 	movw	r1, #1336	; 0x538
f00007e4:	e3a00000 	mov	r0, #0
f00007e8:	e5933000 	ldr	r3, [r3]
f00007ec:	e5932050 	ldr	r2, [r3, #80]	; 0x50
f00007f0:	e7df2a91 	bfi	r2, r1, #21, #11
f00007f4:	e5832050 	str	r2, [r3, #80]	; 0x50
f00007f8:	e5932050 	ldr	r2, [r3, #80]	; 0x50
f00007fc:	e3822801 	orr	r2, r2, #65536	; 0x10000
f0000800:	e5832050 	str	r2, [r3, #80]	; 0x50
f0000804:	e5932020 	ldr	r2, [r3, #32]
f0000808:	e3822080 	orr	r2, r2, #128	; 0x80
f000080c:	e5832020 	str	r2, [r3, #32]
f0000810:	e5932050 	ldr	r2, [r3, #80]	; 0x50
f0000814:	e7df2a9f 	bfc	r2, #21, #11
f0000818:	e5832050 	str	r2, [r3, #80]	; 0x50
f000081c:	e12fff1e 	bx	lr
f0000820:	f0002a78 	undefined instruction 0xf0002a78

f0000824 <standby_clk_setdiv>:
f0000824:	e2502000 	subs	r2, r0, #0
f0000828:	03e00000 	mvneq	r0, #0
f000082c:	012fff1e 	bxeq	lr
f0000830:	e59f3044 	ldr	r3, [pc, #68]	; f000087c <standby_clk_setdiv+0x58>
f0000834:	e3a00000 	mov	r0, #0
f0000838:	e592c000 	ldr	ip, [r2]
f000083c:	e5933000 	ldr	r3, [r3]
f0000840:	e7e1c25c 	ubfx	ip, ip, #4, #2
f0000844:	e5931054 	ldr	r1, [r3, #84]	; 0x54
f0000848:	e7c1101c 	bfi	r1, ip, #0, #2
f000084c:	e5831054 	str	r1, [r3, #84]	; 0x54
f0000850:	e592c000 	ldr	ip, [r2]
f0000854:	e5931054 	ldr	r1, [r3, #84]	; 0x54
f0000858:	e7e1c45c 	ubfx	ip, ip, #8, #2
f000085c:	e7c5121c 	bfi	r1, ip, #4, #2
f0000860:	e5831054 	str	r1, [r3, #84]	; 0x54
f0000864:	e5921000 	ldr	r1, [r2]
f0000868:	e5932054 	ldr	r2, [r3, #84]	; 0x54
f000086c:	e7e11651 	ubfx	r1, r1, #12, #2
f0000870:	e7c92411 	bfi	r2, r1, #8, #2
f0000874:	e5832054 	str	r2, [r3, #84]	; 0x54
f0000878:	e12fff1e 	bx	lr
f000087c:	f0002a78 	undefined instruction 0xf0002a78

f0000880 <standby_clk_getdiv>:
f0000880:	e2503000 	subs	r3, r0, #0
f0000884:	03e00000 	mvneq	r0, #0
f0000888:	012fff1e 	bxeq	lr
f000088c:	e59f103c 	ldr	r1, [pc, #60]	; f00008d0 <standby_clk_getdiv+0x50>
f0000890:	e3a00000 	mov	r0, #0
f0000894:	e5932000 	ldr	r2, [r3]
f0000898:	e5911000 	ldr	r1, [r1]
f000089c:	e591c054 	ldr	ip, [r1, #84]	; 0x54
f00008a0:	e20cc003 	and	ip, ip, #3
f00008a4:	e7c7221c 	bfi	r2, ip, #4, #4
f00008a8:	e5832000 	str	r2, [r3]
f00008ac:	e591c054 	ldr	ip, [r1, #84]	; 0x54
f00008b0:	e7e1c25c 	ubfx	ip, ip, #4, #2
f00008b4:	e7cb241c 	bfi	r2, ip, #8, #4
f00008b8:	e5832000 	str	r2, [r3]
f00008bc:	e5911054 	ldr	r1, [r1, #84]	; 0x54
f00008c0:	e7e11451 	ubfx	r1, r1, #8, #2
f00008c4:	e7cf2611 	bfi	r2, r1, #12, #4
f00008c8:	e5832000 	str	r2, [r3]
f00008cc:	e12fff1e 	bx	lr
f00008d0:	f0002a78 	undefined instruction 0xf0002a78

f00008d4 <standby_clk_set_pll_factor>:
f00008d4:	e2502000 	subs	r2, r0, #0
f00008d8:	03e00000 	mvneq	r0, #0
f00008dc:	012fff1e 	bxeq	lr
f00008e0:	e59f3048 	ldr	r3, [pc, #72]	; f0000930 <standby_clk_set_pll_factor+0x5c>
f00008e4:	e3a00000 	mov	r0, #0
f00008e8:	e5d2c000 	ldrb	ip, [r2]
f00008ec:	e5933000 	ldr	r3, [r3]
f00008f0:	e5931000 	ldr	r1, [r3]
f00008f4:	e7cc141c 	bfi	r1, ip, #8, #5
f00008f8:	e5831000 	str	r1, [r3]
f00008fc:	e5931000 	ldr	r1, [r3]
f0000900:	e5d2c001 	ldrb	ip, [r2, #1]
f0000904:	e7c5121c 	bfi	r1, ip, #4, #2
f0000908:	e5831000 	str	r1, [r3]
f000090c:	e5931000 	ldr	r1, [r3]
f0000910:	e5d2c002 	ldrb	ip, [r2, #2]
f0000914:	e7c1101c 	bfi	r1, ip, #0, #2
f0000918:	e5831000 	str	r1, [r3]
f000091c:	e5d21003 	ldrb	r1, [r2, #3]
f0000920:	e5932000 	ldr	r2, [r3]
f0000924:	e7d12811 	bfi	r2, r1, #16, #2
f0000928:	e5832000 	str	r2, [r3]
f000092c:	e12fff1e 	bx	lr
f0000930:	f0002a78 	undefined instruction 0xf0002a78

f0000934 <standby_clk_get_pll_factor>:
f0000934:	e2503000 	subs	r3, r0, #0
f0000938:	03e00000 	mvneq	r0, #0
f000093c:	012fff1e 	bxeq	lr
f0000940:	e59f2038 	ldr	r2, [pc, #56]	; f0000980 <standby_clk_get_pll_factor+0x4c>
f0000944:	e3a00000 	mov	r0, #0
f0000948:	e5922000 	ldr	r2, [r2]
f000094c:	e5921000 	ldr	r1, [r2]
f0000950:	e7e41451 	ubfx	r1, r1, #8, #5
f0000954:	e5c31000 	strb	r1, [r3]
f0000958:	e5921000 	ldr	r1, [r2]
f000095c:	e7e11251 	ubfx	r1, r1, #4, #2
f0000960:	e5c31001 	strb	r1, [r3, #1]
f0000964:	e5921000 	ldr	r1, [r2]
f0000968:	e2011003 	and	r1, r1, #3
f000096c:	e5c31002 	strb	r1, [r3, #2]
f0000970:	e5922000 	ldr	r2, [r2]
f0000974:	e7e12852 	ubfx	r2, r2, #16, #2
f0000978:	e5c32003 	strb	r2, [r3, #3]
f000097c:	e12fff1e 	bx	lr
f0000980:	f0002a78 	undefined instruction 0xf0002a78

f0000984 <standby_clk_dramgating>:
f0000984:	e59f3024 	ldr	r3, [pc, #36]	; f00009b0 <standby_clk_dramgating+0x2c>
f0000988:	e3500000 	cmp	r0, #0
f000098c:	15932000 	ldrne	r2, [r3]
f0000990:	05933000 	ldreq	r3, [r3]
f0000994:	15923020 	ldrne	r3, [r2, #32]
f0000998:	05932020 	ldreq	r2, [r3, #32]
f000099c:	13833202 	orrne	r3, r3, #536870912	; 0x20000000
f00009a0:	07dd2e90 	bfieq	r2, r0, #29, #1
f00009a4:	15823020 	strne	r3, [r2, #32]
f00009a8:	05832020 	streq	r2, [r3, #32]
f00009ac:	e12fff1e 	bx	lr
f00009b0:	f0002a78 	undefined instruction 0xf0002a78

f00009b4 <standby_clk_apb2losc>:
f00009b4:	e59f3018 	ldr	r3, [pc, #24]	; f00009d4 <standby_clk_apb2losc+0x20>
f00009b8:	e3a01002 	mov	r1, #2
f00009bc:	e3a00000 	mov	r0, #0
f00009c0:	e5933000 	ldr	r3, [r3]
f00009c4:	e5932058 	ldr	r2, [r3, #88]	; 0x58
f00009c8:	e7d92c11 	bfi	r2, r1, #24, #2
f00009cc:	e5832058 	str	r2, [r3, #88]	; 0x58
f00009d0:	e12fff1e 	bx	lr
f00009d4:	f0002a78 	undefined instruction 0xf0002a78

f00009d8 <standby_clk_apb2hosc>:
f00009d8:	e59f3014 	ldr	r3, [pc, #20]	; f00009f4 <standby_clk_apb2hosc+0x1c>
f00009dc:	e3a00000 	mov	r0, #0
f00009e0:	e5933000 	ldr	r3, [r3]
f00009e4:	e5932058 	ldr	r2, [r3, #88]	; 0x58
f00009e8:	e7d92c1f 	bfc	r2, #24, #2
f00009ec:	e5832058 	str	r2, [r3, #88]	; 0x58
f00009f0:	e12fff1e 	bx	lr
f00009f4:	f0002a78 	undefined instruction 0xf0002a78

f00009f8 <standby_clk_apbinit>:
f00009f8:	e59f2034 	ldr	r2, [pc, #52]	; f0000a34 <standby_clk_apbinit+0x3c>
f00009fc:	e3a00000 	mov	r0, #0
f0000a00:	e5923000 	ldr	r3, [r2]
f0000a04:	e5931058 	ldr	r1, [r3, #88]	; 0x58
f0000a08:	e5821020 	str	r1, [r2, #32]
f0000a0c:	e5932058 	ldr	r2, [r3, #88]	; 0x58
f0000a10:	e7d92c1f 	bfc	r2, #24, #2
f0000a14:	e5832058 	str	r2, [r3, #88]	; 0x58
f0000a18:	e5932058 	ldr	r2, [r3, #88]	; 0x58
f0000a1c:	e7c4201f 	bfc	r2, #0, #5
f0000a20:	e5832058 	str	r2, [r3, #88]	; 0x58
f0000a24:	e5932058 	ldr	r2, [r3, #88]	; 0x58
f0000a28:	e7d1281f 	bfc	r2, #16, #2
f0000a2c:	e5832058 	str	r2, [r3, #88]	; 0x58
f0000a30:	e12fff1e 	bx	lr
f0000a34:	f0002a78 	undefined instruction 0xf0002a78

f0000a38 <standby_clk_apbexit>:
f0000a38:	e59f2040 	ldr	r2, [pc, #64]	; f0000a80 <standby_clk_apbexit+0x48>
f0000a3c:	e3a00000 	mov	r0, #0
f0000a40:	e5923000 	ldr	r3, [r2]
f0000a44:	e592c020 	ldr	ip, [r2, #32]
f0000a48:	e5931058 	ldr	r1, [r3, #88]	; 0x58
f0000a4c:	e7c4101c 	bfi	r1, ip, #0, #5
f0000a50:	e5831058 	str	r1, [r3, #88]	; 0x58
f0000a54:	e592c020 	ldr	ip, [r2, #32]
f0000a58:	e5931058 	ldr	r1, [r3, #88]	; 0x58
f0000a5c:	e7e1c85c 	ubfx	ip, ip, #16, #2
f0000a60:	e7d1181c 	bfi	r1, ip, #16, #2
f0000a64:	e5831058 	str	r1, [r3, #88]	; 0x58
f0000a68:	e5921020 	ldr	r1, [r2, #32]
f0000a6c:	e5932058 	ldr	r2, [r3, #88]	; 0x58
f0000a70:	e7e11c51 	ubfx	r1, r1, #24, #2
f0000a74:	e7d92c11 	bfi	r2, r1, #24, #2
f0000a78:	e5832058 	str	r2, [r3, #88]	; 0x58
f0000a7c:	e12fff1e 	bx	lr
f0000a80:	f0002a78 	undefined instruction 0xf0002a78

f0000a84 <standby_int_init>:
f0000a84:	e59f308c 	ldr	r3, [pc, #140]	; f0000b18 <standby_int_init+0x94>
f0000a88:	e3a01000 	mov	r1, #0
f0000a8c:	e59f2088 	ldr	r2, [pc, #136]	; f0000b1c <standby_int_init+0x98>
f0000a90:	e3e0c000 	mvn	ip, #0
f0000a94:	e92d4ff0 	push	{r4, r5, r6, r7, r8, r9, sl, fp, lr}
f0000a98:	e593a040 	ldr	sl, [r3, #64]	; 0x40
f0000a9c:	e5938044 	ldr	r8, [r3, #68]	; 0x44
f0000aa0:	e1a00001 	mov	r0, r1
f0000aa4:	e5936048 	ldr	r6, [r3, #72]	; 0x48
f0000aa8:	e5935050 	ldr	r5, [r3, #80]	; 0x50
f0000aac:	e5934054 	ldr	r4, [r3, #84]	; 0x54
f0000ab0:	e5939058 	ldr	r9, [r3, #88]	; 0x58
f0000ab4:	e593b030 	ldr	fp, [r3, #48]	; 0x30
f0000ab8:	e5937034 	ldr	r7, [r3, #52]	; 0x34
f0000abc:	e5823000 	str	r3, [r2]
f0000ac0:	e5827020 	str	r7, [r2, #32]
f0000ac4:	e5937038 	ldr	r7, [r3, #56]	; 0x38
f0000ac8:	e582a004 	str	sl, [r2, #4]
f0000acc:	e5828008 	str	r8, [r2, #8]
f0000ad0:	e5827024 	str	r7, [r2, #36]	; 0x24
f0000ad4:	e582600c 	str	r6, [r2, #12]
f0000ad8:	e5825010 	str	r5, [r2, #16]
f0000adc:	e5824014 	str	r4, [r2, #20]
f0000ae0:	e5829018 	str	r9, [r2, #24]
f0000ae4:	e582b01c 	str	fp, [r2, #28]
f0000ae8:	e3a02001 	mov	r2, #1
f0000aec:	e5831040 	str	r1, [r3, #64]	; 0x40
f0000af0:	e5831044 	str	r1, [r3, #68]	; 0x44
f0000af4:	e5831048 	str	r1, [r3, #72]	; 0x48
f0000af8:	e583c050 	str	ip, [r3, #80]	; 0x50
f0000afc:	e583c054 	str	ip, [r3, #84]	; 0x54
f0000b00:	e583c058 	str	ip, [r3, #88]	; 0x58
f0000b04:	e5831030 	str	r1, [r3, #48]	; 0x30
f0000b08:	e5831034 	str	r1, [r3, #52]	; 0x34
f0000b0c:	e5831038 	str	r1, [r3, #56]	; 0x38
f0000b10:	e5832010 	str	r2, [r3, #16]
f0000b14:	e8bd8ff0 	pop	{r4, r5, r6, r7, r8, r9, sl, fp, pc}
f0000b18:	f1c20400 	undefined instruction 0xf1c20400
f0000b1c:	f0002a9c 	undefined instruction 0xf0002a9c

f0000b20 <standby_int_exit>:
f0000b20:	e59f3050 	ldr	r3, [pc, #80]	; f0000b78 <standby_int_exit+0x58>
f0000b24:	e3a00000 	mov	r0, #0
f0000b28:	e5931004 	ldr	r1, [r3, #4]
f0000b2c:	e5932000 	ldr	r2, [r3]
f0000b30:	e5821040 	str	r1, [r2, #64]	; 0x40
f0000b34:	e5931008 	ldr	r1, [r3, #8]
f0000b38:	e5821044 	str	r1, [r2, #68]	; 0x44
f0000b3c:	e593100c 	ldr	r1, [r3, #12]
f0000b40:	e5821048 	str	r1, [r2, #72]	; 0x48
f0000b44:	e5931010 	ldr	r1, [r3, #16]
f0000b48:	e5821050 	str	r1, [r2, #80]	; 0x50
f0000b4c:	e5931014 	ldr	r1, [r3, #20]
f0000b50:	e5821054 	str	r1, [r2, #84]	; 0x54
f0000b54:	e5931018 	ldr	r1, [r3, #24]
f0000b58:	e5821058 	str	r1, [r2, #88]	; 0x58
f0000b5c:	e593101c 	ldr	r1, [r3, #28]
f0000b60:	e5821030 	str	r1, [r2, #48]	; 0x30
f0000b64:	e5931020 	ldr	r1, [r3, #32]
f0000b68:	e5821034 	str	r1, [r2, #52]	; 0x34
f0000b6c:	e5933024 	ldr	r3, [r3, #36]	; 0x24
f0000b70:	e5823038 	str	r3, [r2, #56]	; 0x38
f0000b74:	e12fff1e 	bx	lr
f0000b78:	f0002a9c 	undefined instruction 0xf0002a9c

f0000b7c <standby_enable_int>:
f0000b7c:	e59f303c 	ldr	r3, [pc, #60]	; f0000bc0 <standby_enable_int+0x44>
f0000b80:	e1a022a0 	lsr	r2, r0, #5
f0000b84:	e282c010 	add	ip, r2, #16
f0000b88:	e200101f 	and	r1, r0, #31
f0000b8c:	e92d4010 	push	{r4, lr}
f0000b90:	e5933000 	ldr	r3, [r3]
f0000b94:	e3a04001 	mov	r4, #1
f0000b98:	e2822014 	add	r2, r2, #20
f0000b9c:	e3a00000 	mov	r0, #0
f0000ba0:	e1a01114 	lsl	r1, r4, r1
f0000ba4:	e793410c 	ldr	r4, [r3, ip, lsl #2]
f0000ba8:	e1814004 	orr	r4, r1, r4
f0000bac:	e783410c 	str	r4, [r3, ip, lsl #2]
f0000bb0:	e793c102 	ldr	ip, [r3, r2, lsl #2]
f0000bb4:	e1cc1001 	bic	r1, ip, r1
f0000bb8:	e7831102 	str	r1, [r3, r2, lsl #2]
f0000bbc:	e8bd8010 	pop	{r4, pc}
f0000bc0:	f0002a9c 	undefined instruction 0xf0002a9c

f0000bc4 <standby_query_int>:
f0000bc4:	e59f3024 	ldr	r3, [pc, #36]	; f0000bf0 <standby_query_int+0x2c>
f0000bc8:	e200201f 	and	r2, r0, #31
f0000bcc:	e1a002a0 	lsr	r0, r0, #5
f0000bd0:	e3a01001 	mov	r1, #1
f0000bd4:	e2800004 	add	r0, r0, #4
f0000bd8:	e5933000 	ldr	r3, [r3]
f0000bdc:	e7933100 	ldr	r3, [r3, r0, lsl #2]
f0000be0:	e0131211 	ands	r1, r3, r1, lsl r2
f0000be4:	03e00000 	mvneq	r0, #0
f0000be8:	13a00000 	movne	r0, #0
f0000bec:	e12fff1e 	bx	lr
f0000bf0:	f0002a9c 	undefined instruction 0xf0002a9c

f0000bf4 <standby_ir_init>:
f0000bf4:	e3a00000 	mov	r0, #0
f0000bf8:	e12fff1e 	bx	lr

f0000bfc <standby_ir_exit>:
f0000bfc:	e3a00000 	mov	r0, #0
f0000c00:	e12fff1e 	bx	lr

f0000c04 <standby_ir_detect>:
f0000c04:	e3a00000 	mov	r0, #0
f0000c08:	e12fff1e 	bx	lr

f0000c0c <standby_ir_verify>:
f0000c0c:	e3e00000 	mvn	r0, #0
f0000c10:	e12fff1e 	bx	lr

f0000c14 <standby_key_exit>:
f0000c14:	e59f3014 	ldr	r3, [pc, #20]	; f0000c30 <standby_key_exit+0x1c>
f0000c18:	e3a00000 	mov	r0, #0
f0000c1c:	e5931008 	ldr	r1, [r3, #8]
f0000c20:	e893000c 	ldm	r3, {r2, r3}
f0000c24:	e5823000 	str	r3, [r2]
f0000c28:	e5821004 	str	r1, [r2, #4]
f0000c2c:	e12fff1e 	bx	lr
f0000c30:	f0002ac4 	undefined instruction 0xf0002ac4

f0000c34 <standby_query_key>:
f0000c34:	e59f301c 	ldr	r3, [pc, #28]	; f0000c58 <standby_query_key+0x24>
f0000c38:	e5933000 	ldr	r3, [r3]
f0000c3c:	e5932008 	ldr	r2, [r3, #8]
f0000c40:	e3120002 	tst	r2, #2
f0000c44:	13a02002 	movne	r2, #2
f0000c48:	03e00000 	mvneq	r0, #0
f0000c4c:	13a00000 	movne	r0, #0
f0000c50:	15832008 	strne	r2, [r3, #8]
f0000c54:	e12fff1e 	bx	lr
f0000c58:	f0002ac4 	undefined instruction 0xf0002ac4

f0000c5c <standby_key_init>:
f0000c5c:	e59f3044 	ldr	r3, [pc, #68]	; f0000ca8 <standby_key_init+0x4c>
f0000c60:	e3a0000a 	mov	r0, #10
f0000c64:	e92d4070 	push	{r4, r5, r6, lr}
f0000c68:	e59f403c 	ldr	r4, [pc, #60]	; f0000cac <standby_key_init+0x50>
f0000c6c:	e5931000 	ldr	r1, [r3]
f0000c70:	e3a05000 	mov	r5, #0
f0000c74:	e5932004 	ldr	r2, [r3, #4]
f0000c78:	e5835000 	str	r5, [r3]
f0000c7c:	e5843000 	str	r3, [r4]
f0000c80:	e9840006 	stmib	r4, {r1, r2}
f0000c84:	ebfffdd8 	bl	f00003ec <standby_mdelay>
f0000c88:	e5943000 	ldr	r3, [r4]
f0000c8c:	e3a02002 	mov	r2, #2
f0000c90:	e3a01041 	mov	r1, #65	; 0x41
f0000c94:	e1a00005 	mov	r0, r5
f0000c98:	e5831000 	str	r1, [r3]
f0000c9c:	e5832004 	str	r2, [r3, #4]
f0000ca0:	e5832008 	str	r2, [r3, #8]
f0000ca4:	e8bd8070 	pop	{r4, r5, r6, pc}
f0000ca8:	f1c22800 	undefined instruction 0xf1c22800
f0000cac:	f0002ac4 	undefined instruction 0xf0002ac4

f0000cb0 <standby_get_voltage>:
f0000cb0:	e59f3090 	ldr	r3, [pc, #144]	; f0000d48 <standby_get_voltage+0x98>
f0000cb4:	e92d4037 	push	{r0, r1, r2, r4, r5, lr}
f0000cb8:	e1a05000 	mov	r5, r0
f0000cbc:	e28320a8 	add	r2, r3, #168	; 0xa8
f0000cc0:	ea000002 	b	f0000cd0 <standby_get_voltage+0x20>
f0000cc4:	e493101c 	ldr	r1, [r3], #28
f0000cc8:	e1510005 	cmp	r1, r5
f0000ccc:	0a000003 	beq	f0000ce0 <standby_get_voltage+0x30>
f0000cd0:	e1530002 	cmp	r3, r2
f0000cd4:	e1a04003 	mov	r4, r3
f0000cd8:	1afffff9 	bne	f0000cc4 <standby_get_voltage+0x14>
f0000cdc:	ea000017 	b	f0000d40 <standby_get_voltage+0x90>
f0000ce0:	e3540000 	cmp	r4, #0
f0000ce4:	0a000015 	beq	f0000d40 <standby_get_voltage+0x90>
f0000ce8:	e3a01034 	mov	r1, #52	; 0x34
f0000cec:	e5d42010 	ldrb	r2, [r4, #16]
f0000cf0:	e28d3007 	add	r3, sp, #7
f0000cf4:	e3a00000 	mov	r0, #0
f0000cf8:	eb000247 	bl	f000161c <twi_byte_rw>
f0000cfc:	e3e00000 	mvn	r0, #0
f0000d00:	e5943018 	ldr	r3, [r4, #24]
f0000d04:	e3550006 	cmp	r5, #6
f0000d08:	e5942014 	ldr	r2, [r4, #20]
f0000d0c:	e1e03310 	mvn	r3, r0, lsl r3
f0000d10:	e5dd1007 	ldrb	r1, [sp, #7]
f0000d14:	1594000c 	ldrne	r0, [r4, #12]
f0000d18:	03a00ffa 	moveq	r0, #1000	; 0x3e8
f0000d1c:	e0013213 	and	r3, r1, r3, lsl r2
f0000d20:	e1a03253 	asr	r3, r3, r2
f0000d24:	059f2020 	ldreq	r2, [pc, #32]	; f0000d4c <standby_get_voltage+0x9c>
f0000d28:	15942004 	ldrne	r2, [r4, #4]
f0000d2c:	e6ef3073 	uxtb	r3, r3
f0000d30:	07923103 	ldreq	r3, [r2, r3, lsl #2]
f0000d34:	10202390 	mlane	r0, r0, r3, r2
f0000d38:	00000390 	muleq	r0, r0, r3
f0000d3c:	ea000000 	b	f0000d44 <standby_get_voltage+0x94>
f0000d40:	e3e00000 	mvn	r0, #0
f0000d44:	e8bd803e 	pop	{r1, r2, r3, r4, r5, pc}
f0000d48:	f00028ec 	undefined instruction 0xf00028ec
f0000d4c:	f00028a0 	undefined instruction 0xf00028a0

f0000d50 <standby_set_voltage>:
f0000d50:	e59f31cc 	ldr	r3, [pc, #460]	; f0000f24 <standby_set_voltage+0x1d4>
f0000d54:	e92d41f3 	push	{r0, r1, r4, r5, r6, r7, r8, lr}
f0000d58:	e28320a8 	add	r2, r3, #168	; 0xa8
f0000d5c:	ea000002 	b	f0000d6c <standby_set_voltage+0x1c>
f0000d60:	e594c000 	ldr	ip, [r4]
f0000d64:	e15c0000 	cmp	ip, r0
f0000d68:	0a000004 	beq	f0000d80 <standby_set_voltage+0x30>
f0000d6c:	e1530002 	cmp	r3, r2
f0000d70:	e1a04003 	mov	r4, r3
f0000d74:	e283301c 	add	r3, r3, #28
f0000d78:	1afffff8 	bne	f0000d60 <standby_set_voltage+0x10>
f0000d7c:	ea000067 	b	f0000f20 <standby_set_voltage+0x1d0>
f0000d80:	e3540000 	cmp	r4, #0
f0000d84:	0a000065 	beq	f0000f20 <standby_set_voltage+0x1d0>
f0000d88:	e5943004 	ldr	r3, [r4, #4]
f0000d8c:	e1510003 	cmp	r1, r3
f0000d90:	ba000062 	blt	f0000f20 <standby_set_voltage+0x1d0>
f0000d94:	e5942008 	ldr	r2, [r4, #8]
f0000d98:	e1510002 	cmp	r1, r2
f0000d9c:	ca00005f 	bgt	f0000f20 <standby_set_voltage+0x1d0>
f0000da0:	ea00005b 	b	f0000f14 <standby_set_voltage+0x1c4>
f0000da4:	e594500c 	ldr	r5, [r4, #12]
f0000da8:	e3550000 	cmp	r5, #0
f0000dac:	e1a02005 	mov	r2, r5
f0000db0:	13a00000 	movne	r0, #0
f0000db4:	1a000002 	bne	f0000dc4 <standby_set_voltage+0x74>
f0000db8:	ea000030 	b	f0000e80 <standby_set_voltage+0x130>
f0000dbc:	e1a02082 	lsl	r2, r2, #1
f0000dc0:	e2800001 	add	r0, r0, #1
f0000dc4:	e3520000 	cmp	r2, #0
f0000dc8:	aafffffb 	bge	f0000dbc <standby_set_voltage+0x6c>
f0000dcc:	e245c001 	sub	ip, r5, #1
f0000dd0:	e3a05000 	mov	r5, #0
f0000dd4:	e063300c 	rsb	r3, r3, ip
f0000dd8:	e0831001 	add	r1, r3, r1
f0000ddc:	e1510002 	cmp	r1, r2
f0000de0:	e1a03085 	lsl	r3, r5, #1
f0000de4:	20621001 	rsbcs	r1, r2, r1
f0000de8:	e3835001 	orr	r5, r3, #1
f0000dec:	31a05003 	movcc	r5, r3
f0000df0:	e2500001 	subs	r0, r0, #1
f0000df4:	e1a020a2 	lsr	r2, r2, #1
f0000df8:	5afffff7 	bpl	f0000ddc <standby_set_voltage+0x8c>
f0000dfc:	ea00001f 	b	f0000e80 <standby_set_voltage+0x130>
f0000e00:	e59f3120 	ldr	r3, [pc, #288]	; f0000f28 <standby_set_voltage+0x1d8>
f0000e04:	e1510003 	cmp	r1, r3
f0000e08:	03a05000 	moveq	r5, #0
f0000e0c:	0a000024 	beq	f0000ea4 <standby_set_voltage+0x154>
f0000e10:	e594000c 	ldr	r0, [r4, #12]
f0000e14:	e3500000 	cmp	r0, #0
f0000e18:	e1a03000 	mov	r3, r0
f0000e1c:	13a02000 	movne	r2, #0
f0000e20:	1a000002 	bne	f0000e30 <standby_set_voltage+0xe0>
f0000e24:	ea000010 	b	f0000e6c <standby_set_voltage+0x11c>
f0000e28:	e1a03083 	lsl	r3, r3, #1
f0000e2c:	e2822001 	add	r2, r2, #1
f0000e30:	e3530000 	cmp	r3, #0
f0000e34:	aafffffb 	bge	f0000e28 <standby_set_voltage+0xd8>
f0000e38:	e59fc0ec 	ldr	ip, [pc, #236]	; f0000f2c <standby_set_voltage+0x1dc>
f0000e3c:	e3a05000 	mov	r5, #0
f0000e40:	e080c00c 	add	ip, r0, ip
f0000e44:	e08c1001 	add	r1, ip, r1
f0000e48:	e1510003 	cmp	r1, r3
f0000e4c:	e1a00085 	lsl	r0, r5, #1
f0000e50:	20631001 	rsbcs	r1, r3, r1
f0000e54:	e3805001 	orr	r5, r0, #1
f0000e58:	31a05000 	movcc	r5, r0
f0000e5c:	e2522001 	subs	r2, r2, #1
f0000e60:	e1a030a3 	lsr	r3, r3, #1
f0000e64:	5afffff7 	bpl	f0000e48 <standby_set_voltage+0xf8>
f0000e68:	ea000000 	b	f0000e70 <standby_set_voltage+0x120>
f0000e6c:	e1a05000 	mov	r5, r0
f0000e70:	e6ef5075 	uxtb	r5, r5
f0000e74:	e3550010 	cmp	r5, #16
f0000e78:	9a000002 	bls	f0000e88 <standby_set_voltage+0x138>
f0000e7c:	e2455006 	sub	r5, r5, #6
f0000e80:	e6ef5075 	uxtb	r5, r5
f0000e84:	ea000006 	b	f0000ea4 <standby_set_voltage+0x154>
f0000e88:	e355000d 	cmp	r5, #13
f0000e8c:	82455005 	subhi	r5, r5, #5
f0000e90:	8afffffa 	bhi	f0000e80 <standby_set_voltage+0x130>
f0000e94:	03a05009 	moveq	r5, #9
f0000e98:	0a000001 	beq	f0000ea4 <standby_set_voltage+0x154>
f0000e9c:	e3550008 	cmp	r5, #8
f0000ea0:	23a05008 	movcs	r5, #8
f0000ea4:	e5947018 	ldr	r7, [r4, #24]
f0000ea8:	e3a06001 	mov	r6, #1
f0000eac:	e5943014 	ldr	r3, [r4, #20]
f0000eb0:	e28d8007 	add	r8, sp, #7
f0000eb4:	e1a07716 	lsl	r7, r6, r7
f0000eb8:	e5d42010 	ldrb	r2, [r4, #16]
f0000ebc:	e2477001 	sub	r7, r7, #1
f0000ec0:	e1a05315 	lsl	r5, r5, r3
f0000ec4:	e3a00000 	mov	r0, #0
f0000ec8:	e3a01034 	mov	r1, #52	; 0x34
f0000ecc:	e1a07317 	lsl	r7, r7, r3
f0000ed0:	e1a03008 	mov	r3, r8
f0000ed4:	eb0001d0 	bl	f000161c <twi_byte_rw>
f0000ed8:	e5dd3007 	ldrb	r3, [sp, #7]
f0000edc:	e6ef7077 	uxtb	r7, r7
f0000ee0:	e6ef5075 	uxtb	r5, r5
f0000ee4:	e0072003 	and	r2, r7, r3
f0000ee8:	e1520005 	cmp	r2, r5
f0000eec:	0a00000b 	beq	f0000f20 <standby_set_voltage+0x1d0>
f0000ef0:	e1c37007 	bic	r7, r3, r7
f0000ef4:	e1a00006 	mov	r0, r6
f0000ef8:	e1855007 	orr	r5, r5, r7
f0000efc:	e1a03008 	mov	r3, r8
f0000f00:	e5cd5007 	strb	r5, [sp, #7]
f0000f04:	e3a01034 	mov	r1, #52	; 0x34
f0000f08:	e5d42010 	ldrb	r2, [r4, #16]
f0000f0c:	eb0001c2 	bl	f000161c <twi_byte_rw>
f0000f10:	ea000002 	b	f0000f20 <standby_set_voltage+0x1d0>
f0000f14:	e3500006 	cmp	r0, #6
f0000f18:	1affffa1 	bne	f0000da4 <standby_set_voltage+0x54>
f0000f1c:	eaffffb7 	b	f0000e00 <standby_set_voltage+0xb0>
f0000f20:	e8bd81fc 	pop	{r2, r3, r4, r5, r6, r7, r8, pc}
f0000f24:	f00028ec 	undefined instruction 0xf00028ec
f0000f28:	001312d0 	undefined instruction 0x001312d0
f0000f2c:	ffedb07f 	undefined instruction 0xffedb07f

f0000f30 <standby_power_exit>:
f0000f30:	e92d4037 	push	{r0, r1, r2, r4, r5, lr}
f0000f34:	e28d5007 	add	r5, sp, #7
f0000f38:	e1a04000 	mov	r4, r0
f0000f3c:	e3a01034 	mov	r1, #52	; 0x34
f0000f40:	e3a0204b 	mov	r2, #75	; 0x4b
f0000f44:	e1a03005 	mov	r3, r5
f0000f48:	e3a00000 	mov	r0, #0
f0000f4c:	eb0001b2 	bl	f000161c <twi_byte_rw>
f0000f50:	e3a00001 	mov	r0, #1
f0000f54:	e3a01034 	mov	r1, #52	; 0x34
f0000f58:	e3a0200e 	mov	r2, #14
f0000f5c:	e1a03005 	mov	r3, r5
f0000f60:	eb0001ad 	bl	f000161c <twi_byte_rw>
f0000f64:	e3140001 	tst	r4, #1
f0000f68:	0a00000c 	beq	f0000fa0 <standby_power_exit+0x70>
f0000f6c:	e3a01034 	mov	r1, #52	; 0x34
f0000f70:	e3a02042 	mov	r2, #66	; 0x42
f0000f74:	e1a03005 	mov	r3, r5
f0000f78:	e3a00000 	mov	r0, #0
f0000f7c:	eb0001a6 	bl	f000161c <twi_byte_rw>
f0000f80:	e5ddc007 	ldrb	ip, [sp, #7]
f0000f84:	e1a03005 	mov	r3, r5
f0000f88:	e3a00001 	mov	r0, #1
f0000f8c:	e3a01034 	mov	r1, #52	; 0x34
f0000f90:	e3a02042 	mov	r2, #66	; 0x42
f0000f94:	e3ccc003 	bic	ip, ip, #3
f0000f98:	e5cdc007 	strb	ip, [sp, #7]
f0000f9c:	eb00019e 	bl	f000161c <twi_byte_rw>
f0000fa0:	e3140080 	tst	r4, #128	; 0x80
f0000fa4:	0a00000d 	beq	f0000fe0 <standby_power_exit+0xb0>
f0000fa8:	e28d5007 	add	r5, sp, #7
f0000fac:	e3a01034 	mov	r1, #52	; 0x34
f0000fb0:	e3a02042 	mov	r2, #66	; 0x42
f0000fb4:	e1a03005 	mov	r3, r5
f0000fb8:	e3a00000 	mov	r0, #0
f0000fbc:	eb000196 	bl	f000161c <twi_byte_rw>
f0000fc0:	e5ddc007 	ldrb	ip, [sp, #7]
f0000fc4:	e1a03005 	mov	r3, r5
f0000fc8:	e3a00001 	mov	r0, #1
f0000fcc:	e3a01034 	mov	r1, #52	; 0x34
f0000fd0:	e3a02042 	mov	r2, #66	; 0x42
f0000fd4:	e3ccc001 	bic	ip, ip, #1
f0000fd8:	e5cdc007 	strb	ip, [sp, #7]
f0000fdc:	eb00018e 	bl	f000161c <twi_byte_rw>
f0000fe0:	e3140040 	tst	r4, #64	; 0x40
f0000fe4:	0a00000d 	beq	f0001020 <standby_power_exit+0xf0>
f0000fe8:	e28d5007 	add	r5, sp, #7
f0000fec:	e3a01034 	mov	r1, #52	; 0x34
f0000ff0:	e3a02042 	mov	r2, #66	; 0x42
f0000ff4:	e1a03005 	mov	r3, r5
f0000ff8:	e3a00000 	mov	r0, #0
f0000ffc:	eb000186 	bl	f000161c <twi_byte_rw>
f0001000:	e5ddc007 	ldrb	ip, [sp, #7]
f0001004:	e1a03005 	mov	r3, r5
f0001008:	e3a00001 	mov	r0, #1
f000100c:	e3a01034 	mov	r1, #52	; 0x34
f0001010:	e3a02042 	mov	r2, #66	; 0x42
f0001014:	e3ccc002 	bic	ip, ip, #2
f0001018:	e5cdc007 	strb	ip, [sp, #7]
f000101c:	eb00017e 	bl	f000161c <twi_byte_rw>
f0001020:	e3140020 	tst	r4, #32
f0001024:	0a00000d 	beq	f0001060 <standby_power_exit+0x130>
f0001028:	e28d5007 	add	r5, sp, #7
f000102c:	e3a01034 	mov	r1, #52	; 0x34
f0001030:	e3a02044 	mov	r2, #68	; 0x44
f0001034:	e1a03005 	mov	r3, r5
f0001038:	e3a00000 	mov	r0, #0
f000103c:	eb000176 	bl	f000161c <twi_byte_rw>
f0001040:	e5ddc007 	ldrb	ip, [sp, #7]
f0001044:	e1a03005 	mov	r3, r5
f0001048:	e3a00001 	mov	r0, #1
f000104c:	e3a01034 	mov	r1, #52	; 0x34
f0001050:	e3a02044 	mov	r2, #68	; 0x44
f0001054:	e3ccc020 	bic	ip, ip, #32
f0001058:	e5cdc007 	strb	ip, [sp, #7]
f000105c:	eb00016e 	bl	f000161c <twi_byte_rw>
f0001060:	e3140010 	tst	r4, #16
f0001064:	0a00000d 	beq	f00010a0 <standby_power_exit+0x170>
f0001068:	e28d5007 	add	r5, sp, #7
f000106c:	e3a01034 	mov	r1, #52	; 0x34
f0001070:	e3a02044 	mov	r2, #68	; 0x44
f0001074:	e1a03005 	mov	r3, r5
f0001078:	e3a00000 	mov	r0, #0
f000107c:	eb000166 	bl	f000161c <twi_byte_rw>
f0001080:	e5ddc007 	ldrb	ip, [sp, #7]
f0001084:	e1a03005 	mov	r3, r5
f0001088:	e3a00001 	mov	r0, #1
f000108c:	e3a01034 	mov	r1, #52	; 0x34
f0001090:	e3a02044 	mov	r2, #68	; 0x44
f0001094:	e3ccc040 	bic	ip, ip, #64	; 0x40
f0001098:	e5cdc007 	strb	ip, [sp, #7]
f000109c:	eb00015e 	bl	f000161c <twi_byte_rw>
f00010a0:	e3140002 	tst	r4, #2
f00010a4:	0a00000d 	beq	f00010e0 <standby_power_exit+0x1b0>
f00010a8:	e28d5007 	add	r5, sp, #7
f00010ac:	e3a01034 	mov	r1, #52	; 0x34
f00010b0:	e3a02043 	mov	r2, #67	; 0x43
f00010b4:	e1a03005 	mov	r3, r5
f00010b8:	e3a00000 	mov	r0, #0
f00010bc:	eb000156 	bl	f000161c <twi_byte_rw>
f00010c0:	e5ddc007 	ldrb	ip, [sp, #7]
f00010c4:	e1a03005 	mov	r3, r5
f00010c8:	e3a00001 	mov	r0, #1
f00010cc:	e3a01034 	mov	r1, #52	; 0x34
f00010d0:	e3a02043 	mov	r2, #67	; 0x43
f00010d4:	e3ccc003 	bic	ip, ip, #3
f00010d8:	e5cdc007 	strb	ip, [sp, #7]
f00010dc:	eb00014e 	bl	f000161c <twi_byte_rw>
f00010e0:	e3140004 	tst	r4, #4
f00010e4:	0a00000d 	beq	f0001120 <standby_power_exit+0x1f0>
f00010e8:	e28d5007 	add	r5, sp, #7
f00010ec:	e3a01034 	mov	r1, #52	; 0x34
f00010f0:	e3a02040 	mov	r2, #64	; 0x40
f00010f4:	e1a03005 	mov	r3, r5
f00010f8:	e3a00000 	mov	r0, #0
f00010fc:	eb000146 	bl	f000161c <twi_byte_rw>
f0001100:	e5ddc007 	ldrb	ip, [sp, #7]
f0001104:	e1a03005 	mov	r3, r5
f0001108:	e3a00001 	mov	r0, #1
f000110c:	e3a01034 	mov	r1, #52	; 0x34
f0001110:	e3a02040 	mov	r2, #64	; 0x40
f0001114:	e3ccc00c 	bic	ip, ip, #12
f0001118:	e5cdc007 	strb	ip, [sp, #7]
f000111c:	eb00013e 	bl	f000161c <twi_byte_rw>
f0001120:	e3140008 	tst	r4, #8
f0001124:	0a00000d 	beq	f0001160 <standby_power_exit+0x230>
f0001128:	e28d4007 	add	r4, sp, #7
f000112c:	e3a01034 	mov	r1, #52	; 0x34
f0001130:	e3a02040 	mov	r2, #64	; 0x40
f0001134:	e1a03004 	mov	r3, r4
f0001138:	e3a00000 	mov	r0, #0
f000113c:	eb000136 	bl	f000161c <twi_byte_rw>
f0001140:	e5ddc007 	ldrb	ip, [sp, #7]
f0001144:	e1a03004 	mov	r3, r4
f0001148:	e3a00001 	mov	r0, #1
f000114c:	e3a01034 	mov	r1, #52	; 0x34
f0001150:	e3a02040 	mov	r2, #64	; 0x40
f0001154:	e3ccc060 	bic	ip, ip, #96	; 0x60
f0001158:	e5cdc007 	strb	ip, [sp, #7]
f000115c:	eb00012e 	bl	f000161c <twi_byte_rw>
f0001160:	eb0001d4 	bl	f00018b8 <standby_twi_exit>
f0001164:	e3a00000 	mov	r0, #0
f0001168:	e8bd803e 	pop	{r1, r2, r3, r4, r5, pc}

f000116c <standby_power_init>:
f000116c:	e92d4037 	push	{r0, r1, r2, r4, r5, lr}
f0001170:	e1a04000 	mov	r4, r0
f0001174:	e3a00000 	mov	r0, #0
f0001178:	eb000113 	bl	f00015cc <standby_twi_init>
f000117c:	e3140001 	tst	r4, #1
f0001180:	0a00000d 	beq	f00011bc <standby_power_init+0x50>
f0001184:	e28d5007 	add	r5, sp, #7
f0001188:	e3a01034 	mov	r1, #52	; 0x34
f000118c:	e3a02042 	mov	r2, #66	; 0x42
f0001190:	e1a03005 	mov	r3, r5
f0001194:	e3a00000 	mov	r0, #0
f0001198:	eb00011f 	bl	f000161c <twi_byte_rw>
f000119c:	e5ddc007 	ldrb	ip, [sp, #7]
f00011a0:	e1a03005 	mov	r3, r5
f00011a4:	e3a00001 	mov	r0, #1
f00011a8:	e3a01034 	mov	r1, #52	; 0x34
f00011ac:	e3a02042 	mov	r2, #66	; 0x42
f00011b0:	e38cc003 	orr	ip, ip, #3
f00011b4:	e5cdc007 	strb	ip, [sp, #7]
f00011b8:	eb000117 	bl	f000161c <twi_byte_rw>
f00011bc:	e3140080 	tst	r4, #128	; 0x80
f00011c0:	0a00001a 	beq	f0001230 <standby_power_init+0xc4>
f00011c4:	e28d5007 	add	r5, sp, #7
f00011c8:	e3a01034 	mov	r1, #52	; 0x34
f00011cc:	e3a02042 	mov	r2, #66	; 0x42
f00011d0:	e1a03005 	mov	r3, r5
f00011d4:	e3a00000 	mov	r0, #0
f00011d8:	eb00010f 	bl	f000161c <twi_byte_rw>
f00011dc:	e5ddc007 	ldrb	ip, [sp, #7]
f00011e0:	e3a01034 	mov	r1, #52	; 0x34
f00011e4:	e3a02042 	mov	r2, #66	; 0x42
f00011e8:	e1a03005 	mov	r3, r5
f00011ec:	e3a00001 	mov	r0, #1
f00011f0:	e18cc000 	orr	ip, ip, r0
f00011f4:	e5cdc007 	strb	ip, [sp, #7]
f00011f8:	eb000107 	bl	f000161c <twi_byte_rw>
f00011fc:	e3a01034 	mov	r1, #52	; 0x34
f0001200:	e3a02036 	mov	r2, #54	; 0x36
f0001204:	e1a03005 	mov	r3, r5
f0001208:	e3a00000 	mov	r0, #0
f000120c:	eb000102 	bl	f000161c <twi_byte_rw>
f0001210:	e5ddc007 	ldrb	ip, [sp, #7]
f0001214:	e1a03005 	mov	r3, r5
f0001218:	e3a00001 	mov	r0, #1
f000121c:	e3a01034 	mov	r1, #52	; 0x34
f0001220:	e3a02036 	mov	r2, #54	; 0x36
f0001224:	e3ccc030 	bic	ip, ip, #48	; 0x30
f0001228:	e5cdc007 	strb	ip, [sp, #7]
f000122c:	eb0000fa 	bl	f000161c <twi_byte_rw>
f0001230:	e3140040 	tst	r4, #64	; 0x40
f0001234:	0a00000d 	beq	f0001270 <standby_power_init+0x104>
f0001238:	e28d5007 	add	r5, sp, #7
f000123c:	e3a01034 	mov	r1, #52	; 0x34
f0001240:	e3a02042 	mov	r2, #66	; 0x42
f0001244:	e1a03005 	mov	r3, r5
f0001248:	e3a00000 	mov	r0, #0
f000124c:	eb0000f2 	bl	f000161c <twi_byte_rw>
f0001250:	e5ddc007 	ldrb	ip, [sp, #7]
f0001254:	e1a03005 	mov	r3, r5
f0001258:	e3a00001 	mov	r0, #1
f000125c:	e3a01034 	mov	r1, #52	; 0x34
f0001260:	e3a02042 	mov	r2, #66	; 0x42
f0001264:	e38cc002 	orr	ip, ip, #2
f0001268:	e5cdc007 	strb	ip, [sp, #7]
f000126c:	eb0000ea 	bl	f000161c <twi_byte_rw>
f0001270:	e3140020 	tst	r4, #32
f0001274:	0a00000d 	beq	f00012b0 <standby_power_init+0x144>
f0001278:	e28d5007 	add	r5, sp, #7
f000127c:	e3a01034 	mov	r1, #52	; 0x34
f0001280:	e3a02044 	mov	r2, #68	; 0x44
f0001284:	e1a03005 	mov	r3, r5
f0001288:	e3a00000 	mov	r0, #0
f000128c:	eb0000e2 	bl	f000161c <twi_byte_rw>
f0001290:	e5ddc007 	ldrb	ip, [sp, #7]
f0001294:	e1a03005 	mov	r3, r5
f0001298:	e3a00001 	mov	r0, #1
f000129c:	e3a01034 	mov	r1, #52	; 0x34
f00012a0:	e3a02044 	mov	r2, #68	; 0x44
f00012a4:	e38cc020 	orr	ip, ip, #32
f00012a8:	e5cdc007 	strb	ip, [sp, #7]
f00012ac:	eb0000da 	bl	f000161c <twi_byte_rw>
f00012b0:	e3140010 	tst	r4, #16
f00012b4:	0a00000d 	beq	f00012f0 <standby_power_init+0x184>
f00012b8:	e28d5007 	add	r5, sp, #7
f00012bc:	e3a01034 	mov	r1, #52	; 0x34
f00012c0:	e3a02044 	mov	r2, #68	; 0x44
f00012c4:	e1a03005 	mov	r3, r5
f00012c8:	e3a00000 	mov	r0, #0
f00012cc:	eb0000d2 	bl	f000161c <twi_byte_rw>
f00012d0:	e5ddc007 	ldrb	ip, [sp, #7]
f00012d4:	e1a03005 	mov	r3, r5
f00012d8:	e3a00001 	mov	r0, #1
f00012dc:	e3a01034 	mov	r1, #52	; 0x34
f00012e0:	e3a02044 	mov	r2, #68	; 0x44
f00012e4:	e38cc040 	orr	ip, ip, #64	; 0x40
f00012e8:	e5cdc007 	strb	ip, [sp, #7]
f00012ec:	eb0000ca 	bl	f000161c <twi_byte_rw>
f00012f0:	e3140002 	tst	r4, #2
f00012f4:	0a000015 	beq	f0001350 <standby_power_init+0x1e4>
f00012f8:	e28d5007 	add	r5, sp, #7
f00012fc:	e3a01034 	mov	r1, #52	; 0x34
f0001300:	e3a02043 	mov	r2, #67	; 0x43
f0001304:	e1a03005 	mov	r3, r5
f0001308:	e3a00000 	mov	r0, #0
f000130c:	eb0000c2 	bl	f000161c <twi_byte_rw>
f0001310:	e5ddc007 	ldrb	ip, [sp, #7]
f0001314:	e3a01034 	mov	r1, #52	; 0x34
f0001318:	e3a02043 	mov	r2, #67	; 0x43
f000131c:	e1a03005 	mov	r3, r5
f0001320:	e3a00001 	mov	r0, #1
f0001324:	e38cc003 	orr	ip, ip, #3
f0001328:	e5cdc007 	strb	ip, [sp, #7]
f000132c:	eb0000ba 	bl	f000161c <twi_byte_rw>
f0001330:	e5ddc007 	ldrb	ip, [sp, #7]
f0001334:	e1a03005 	mov	r3, r5
f0001338:	e3a00001 	mov	r0, #1
f000133c:	e3a01034 	mov	r1, #52	; 0x34
f0001340:	e3a0204b 	mov	r2, #75	; 0x4b
f0001344:	e38cc003 	orr	ip, ip, #3
f0001348:	e5cdc007 	strb	ip, [sp, #7]
f000134c:	eb0000b2 	bl	f000161c <twi_byte_rw>
f0001350:	e3140004 	tst	r4, #4
f0001354:	0a00000d 	beq	f0001390 <standby_power_init+0x224>
f0001358:	e28d5007 	add	r5, sp, #7
f000135c:	e3a01034 	mov	r1, #52	; 0x34
f0001360:	e3a02040 	mov	r2, #64	; 0x40
f0001364:	e1a03005 	mov	r3, r5
f0001368:	e3a00000 	mov	r0, #0
f000136c:	eb0000aa 	bl	f000161c <twi_byte_rw>
f0001370:	e5ddc007 	ldrb	ip, [sp, #7]
f0001374:	e1a03005 	mov	r3, r5
f0001378:	e3a00001 	mov	r0, #1
f000137c:	e3a01034 	mov	r1, #52	; 0x34
f0001380:	e3a02040 	mov	r2, #64	; 0x40
f0001384:	e38cc00c 	orr	ip, ip, #12
f0001388:	e5cdc007 	strb	ip, [sp, #7]
f000138c:	eb0000a2 	bl	f000161c <twi_byte_rw>
f0001390:	e3140008 	tst	r4, #8
f0001394:	0a00000d 	beq	f00013d0 <standby_power_init+0x264>
f0001398:	e28d4007 	add	r4, sp, #7
f000139c:	e3a01034 	mov	r1, #52	; 0x34
f00013a0:	e3a02040 	mov	r2, #64	; 0x40
f00013a4:	e1a03004 	mov	r3, r4
f00013a8:	e3a00000 	mov	r0, #0
f00013ac:	eb00009a 	bl	f000161c <twi_byte_rw>
f00013b0:	e5ddc007 	ldrb	ip, [sp, #7]
f00013b4:	e1a03004 	mov	r3, r4
f00013b8:	e3a00001 	mov	r0, #1
f00013bc:	e3a01034 	mov	r1, #52	; 0x34
f00013c0:	e3a02040 	mov	r2, #64	; 0x40
f00013c4:	e38cc060 	orr	ip, ip, #96	; 0x60
f00013c8:	e5cdc007 	strb	ip, [sp, #7]
f00013cc:	eb000092 	bl	f000161c <twi_byte_rw>
f00013d0:	e3a00000 	mov	r0, #0
f00013d4:	e8bd803e 	pop	{r1, r2, r3, r4, r5, pc}

f00013d8 <standby_tmr_exit>:
f00013d8:	e59f3040 	ldr	r3, [pc, #64]	; f0001420 <standby_tmr_exit+0x48>
f00013dc:	e3a00000 	mov	r0, #0
f00013e0:	e92d40f0 	push	{r4, r5, r6, r7, lr}
f00013e4:	e593101c 	ldr	r1, [r3, #28]
f00013e8:	e8930084 	ldm	r3, {r2, r7}
f00013ec:	e5936008 	ldr	r6, [r3, #8]
f00013f0:	e593500c 	ldr	r5, [r3, #12]
f00013f4:	e5934010 	ldr	r4, [r3, #16]
f00013f8:	e593c014 	ldr	ip, [r3, #20]
f00013fc:	e5933018 	ldr	r3, [r3, #24]
f0001400:	e5827014 	str	r7, [r2, #20]
f0001404:	e5826018 	str	r6, [r2, #24]
f0001408:	e5825010 	str	r5, [r2, #16]
f000140c:	e5824024 	str	r4, [r2, #36]	; 0x24
f0001410:	e582c028 	str	ip, [r2, #40]	; 0x28
f0001414:	e5823020 	str	r3, [r2, #32]
f0001418:	e5821000 	str	r1, [r2]
f000141c:	e8bd80f0 	pop	{r4, r5, r6, r7, pc}
f0001420:	f0002ad0 	undefined instruction 0xf0002ad0

f0001424 <standby_tmr_set>:
f0001424:	e59f3044 	ldr	r3, [pc, #68]	; f0001470 <standby_tmr_set+0x4c>
f0001428:	e3a02000 	mov	r2, #0
f000142c:	e3a01001 	mov	r1, #1
f0001430:	e1a0c500 	lsl	ip, r0, #10
f0001434:	e1a00002 	mov	r0, r2
f0001438:	e5933000 	ldr	r3, [r3]
f000143c:	e5831004 	str	r1, [r3, #4]
f0001440:	e5831000 	str	r1, [r3]
f0001444:	e5832010 	str	r2, [r3, #16]
f0001448:	e28220d0 	add	r2, r2, #208	; 0xd0
f000144c:	e583c014 	str	ip, [r3, #20]
f0001450:	e5832010 	str	r2, [r3, #16]
f0001454:	e5932010 	ldr	r2, [r3, #16]
f0001458:	e3822002 	orr	r2, r2, #2
f000145c:	e5832010 	str	r2, [r3, #16]
f0001460:	e5932010 	ldr	r2, [r3, #16]
f0001464:	e1822001 	orr	r2, r2, r1
f0001468:	e5832010 	str	r2, [r3, #16]
f000146c:	e12fff1e 	bx	lr
f0001470:	f0002ad0 	undefined instruction 0xf0002ad0

f0001474 <standby_tmr_enable_watchdog>:
f0001474:	e59f3018 	ldr	r3, [pc, #24]	; f0001494 <standby_tmr_enable_watchdog+0x20>
f0001478:	e3a02012 	mov	r2, #18
f000147c:	e5933000 	ldr	r3, [r3]
f0001480:	e5832094 	str	r2, [r3, #148]	; 0x94
f0001484:	e5932094 	ldr	r2, [r3, #148]	; 0x94
f0001488:	e3822001 	orr	r2, r2, #1
f000148c:	e5832094 	str	r2, [r3, #148]	; 0x94
f0001490:	e12fff1e 	bx	lr
f0001494:	f0002ad0 	undefined instruction 0xf0002ad0

f0001498 <standby_tmr_disable_watchdog>:
f0001498:	e59f301c 	ldr	r3, [pc, #28]	; f00014bc <standby_tmr_disable_watchdog+0x24>
f000149c:	e5933000 	ldr	r3, [r3]
f00014a0:	e5932094 	ldr	r2, [r3, #148]	; 0x94
f00014a4:	e3c22002 	bic	r2, r2, #2
f00014a8:	e5832094 	str	r2, [r3, #148]	; 0x94
f00014ac:	e5932094 	ldr	r2, [r3, #148]	; 0x94
f00014b0:	e3c22001 	bic	r2, r2, #1
f00014b4:	e5832094 	str	r2, [r3, #148]	; 0x94
f00014b8:	e12fff1e 	bx	lr
f00014bc:	f0002ad0 	undefined instruction 0xf0002ad0

f00014c0 <standby_tmr_query>:
f00014c0:	e3500000 	cmp	r0, #0
f00014c4:	1a000006 	bne	f00014e4 <standby_tmr_query+0x24>
f00014c8:	e59f301c 	ldr	r3, [pc, #28]	; f00014ec <standby_tmr_query+0x2c>
f00014cc:	e5933000 	ldr	r3, [r3]
f00014d0:	e5932004 	ldr	r2, [r3, #4]
f00014d4:	e3120001 	tst	r2, #1
f00014d8:	13a02001 	movne	r2, #1
f00014dc:	15832004 	strne	r2, [r3, #4]
f00014e0:	112fff1e 	bxne	lr
f00014e4:	e3e00000 	mvn	r0, #0
f00014e8:	e12fff1e 	bx	lr
f00014ec:	f0002ad0 	undefined instruction 0xf0002ad0

f00014f0 <standby_tmr_mdlay>:
f00014f0:	e92d4010 	push	{r4, lr}
f00014f4:	e59f4044 	ldr	r4, [pc, #68]	; f0001540 <standby_tmr_mdlay+0x50>
f00014f8:	e350001e 	cmp	r0, #30
f00014fc:	a1a02000 	movge	r2, r0
f0001500:	b3a0201e 	movlt	r2, #30
f0001504:	e3000bb8 	movw	r0, #3000	; 0xbb8
f0001508:	e5943000 	ldr	r3, [r4]
f000150c:	e5832024 	str	r2, [r3, #36]	; 0x24
f0001510:	e5932020 	ldr	r2, [r3, #32]
f0001514:	e3822002 	orr	r2, r2, #2
f0001518:	e5832020 	str	r2, [r3, #32]
f000151c:	e5932020 	ldr	r2, [r3, #32]
f0001520:	e3822001 	orr	r2, r2, #1
f0001524:	e5832020 	str	r2, [r3, #32]
f0001528:	eb0000fc 	bl	f0001920 <standby_delay>
f000152c:	e5943000 	ldr	r3, [r4]
f0001530:	e5932028 	ldr	r2, [r3, #40]	; 0x28
f0001534:	e3520000 	cmp	r2, #0
f0001538:	1afffffc 	bne	f0001530 <standby_tmr_mdlay+0x40>
f000153c:	e8bd8010 	pop	{r4, pc}
f0001540:	f0002ad0 	undefined instruction 0xf0002ad0

f0001544 <standby_tmr_init>:
f0001544:	e59f3078 	ldr	r3, [pc, #120]	; f00015c4 <standby_tmr_init+0x80>
f0001548:	e3a00ffa 	mov	r0, #1000	; 0x3e8
f000154c:	e92d41f0 	push	{r4, r5, r6, r7, r8, lr}
f0001550:	e59f4070 	ldr	r4, [pc, #112]	; f00015c8 <standby_tmr_init+0x84>
f0001554:	e5938000 	ldr	r8, [r3]
f0001558:	e3a05000 	mov	r5, #0
f000155c:	e5937010 	ldr	r7, [r3, #16]
f0001560:	e5936014 	ldr	r6, [r3, #20]
f0001564:	e593e018 	ldr	lr, [r3, #24]
f0001568:	e593c020 	ldr	ip, [r3, #32]
f000156c:	e5931024 	ldr	r1, [r3, #36]	; 0x24
f0001570:	e5932028 	ldr	r2, [r3, #40]	; 0x28
f0001574:	e584e008 	str	lr, [r4, #8]
f0001578:	e584c018 	str	ip, [r4, #24]
f000157c:	e5841010 	str	r1, [r4, #16]
f0001580:	e5842014 	str	r2, [r4, #20]
f0001584:	e3a02001 	mov	r2, #1
f0001588:	e584801c 	str	r8, [r4, #28]
f000158c:	e584700c 	str	r7, [r4, #12]
f0001590:	e5846004 	str	r6, [r4, #4]
f0001594:	e5835000 	str	r5, [r3]
f0001598:	e5832004 	str	r2, [r3, #4]
f000159c:	e5835020 	str	r5, [r3, #32]
f00015a0:	e5843000 	str	r3, [r4]
f00015a4:	eb0000dd 	bl	f0001920 <standby_delay>
f00015a8:	e5943000 	ldr	r3, [r4]
f00015ac:	e3a020d0 	mov	r2, #208	; 0xd0
f00015b0:	e3a00ffa 	mov	r0, #1000	; 0x3e8
f00015b4:	e5832020 	str	r2, [r3, #32]
f00015b8:	eb0000d8 	bl	f0001920 <standby_delay>
f00015bc:	e1a00005 	mov	r0, r5
f00015c0:	e8bd81f0 	pop	{r4, r5, r6, r7, r8, pc}
f00015c4:	f1c20c00 	undefined instruction 0xf1c20c00
f00015c8:	f0002ad0 	undefined instruction 0xf0002ad0

f00015cc <standby_twi_init>:
f00015cc:	e59f2040 	ldr	r2, [pc, #64]	; f0001614 <standby_twi_init+0x48>
f00015d0:	e59f3040 	ldr	r3, [pc, #64]	; f0001618 <standby_twi_init+0x4c>
f00015d4:	e7922100 	ldr	r2, [r2, r0, lsl #2]
f00015d8:	e5920014 	ldr	r0, [r2, #20]
f00015dc:	e592100c 	ldr	r1, [r2, #12]
f00015e0:	e5832000 	str	r2, [r3]
f00015e4:	e5830004 	str	r0, [r3, #4]
f00015e8:	e2011080 	and	r1, r1, #128	; 0x80
f00015ec:	e5831008 	str	r1, [r3, #8]
f00015f0:	e3a03028 	mov	r3, #40	; 0x28
f00015f4:	e5823014 	str	r3, [r2, #20]
f00015f8:	e5923018 	ldr	r3, [r2, #24]
f00015fc:	e3833001 	orr	r3, r3, #1
f0001600:	e5823018 	str	r3, [r2, #24]
f0001604:	e5920018 	ldr	r0, [r2, #24]
f0001608:	e2100001 	ands	r0, r0, #1
f000160c:	1afffffc 	bne	f0001604 <standby_twi_init+0x38>
f0001610:	e12fff1e 	bx	lr
f0001614:	f00028e0 	undefined instruction 0xf00028e0
f0001618:	f0002af0 	undefined instruction 0xf0002af0

f000161c <twi_byte_rw>:
f000161c:	e59fc290 	ldr	ip, [pc, #656]	; f00018b4 <twi_byte_rw+0x298>
f0001620:	e92d4030 	push	{r4, r5, lr}
f0001624:	e3a04000 	mov	r4, #0
f0001628:	e59cc000 	ldr	ip, [ip]
f000162c:	e58c401c 	str	r4, [ip, #28]
f0001630:	e59c4010 	ldr	r4, [ip, #16]
f0001634:	e6ef4074 	uxtb	r4, r4
f0001638:	e35400f8 	cmp	r4, #248	; 0xf8
f000163c:	1a00007c 	bne	f0001834 <twi_byte_rw+0x218>
f0001640:	e59c500c 	ldr	r5, [ip, #12]
f0001644:	e30042ff 	movw	r4, #767	; 0x2ff
f0001648:	e3855020 	orr	r5, r5, #32
f000164c:	e58c500c 	str	r5, [ip, #12]
f0001650:	e59c500c 	ldr	r5, [ip, #12]
f0001654:	e3150008 	tst	r5, #8
f0001658:	0a000002 	beq	f0001668 <twi_byte_rw+0x4c>
f000165c:	e3540000 	cmp	r4, #0
f0001660:	0a000073 	beq	f0001834 <twi_byte_rw+0x218>
f0001664:	ea000001 	b	f0001670 <twi_byte_rw+0x54>
f0001668:	e2544001 	subs	r4, r4, #1
f000166c:	2afffff7 	bcs	f0001650 <twi_byte_rw+0x34>
f0001670:	e59c4010 	ldr	r4, [ip, #16]
f0001674:	e6ef4074 	uxtb	r4, r4
f0001678:	e3540008 	cmp	r4, #8
f000167c:	1a00006c 	bne	f0001834 <twi_byte_rw+0x218>
f0001680:	e1a01081 	lsl	r1, r1, #1
f0001684:	e30042ff 	movw	r4, #767	; 0x2ff
f0001688:	e58c1008 	str	r1, [ip, #8]
f000168c:	e59c500c 	ldr	r5, [ip, #12]
f0001690:	e20550f7 	and	r5, r5, #247	; 0xf7
f0001694:	e58c500c 	str	r5, [ip, #12]
f0001698:	e59c500c 	ldr	r5, [ip, #12]
f000169c:	e3150008 	tst	r5, #8
f00016a0:	0a000002 	beq	f00016b0 <twi_byte_rw+0x94>
f00016a4:	e3540000 	cmp	r4, #0
f00016a8:	0a000061 	beq	f0001834 <twi_byte_rw+0x218>
f00016ac:	ea000001 	b	f00016b8 <twi_byte_rw+0x9c>
f00016b0:	e2544001 	subs	r4, r4, #1
f00016b4:	2afffff7 	bcs	f0001698 <twi_byte_rw+0x7c>
f00016b8:	e59c4010 	ldr	r4, [ip, #16]
f00016bc:	e6ef4074 	uxtb	r4, r4
f00016c0:	e3540018 	cmp	r4, #24
f00016c4:	1a00005a 	bne	f0001834 <twi_byte_rw+0x218>
f00016c8:	e58c2008 	str	r2, [ip, #8]
f00016cc:	e30022ff 	movw	r2, #767	; 0x2ff
f00016d0:	e59c400c 	ldr	r4, [ip, #12]
f00016d4:	e20440f7 	and	r4, r4, #247	; 0xf7
f00016d8:	e58c400c 	str	r4, [ip, #12]
f00016dc:	e59c400c 	ldr	r4, [ip, #12]
f00016e0:	e3140008 	tst	r4, #8
f00016e4:	0a000002 	beq	f00016f4 <twi_byte_rw+0xd8>
f00016e8:	e3520000 	cmp	r2, #0
f00016ec:	0a000050 	beq	f0001834 <twi_byte_rw+0x218>
f00016f0:	ea000001 	b	f00016fc <twi_byte_rw+0xe0>
f00016f4:	e2522001 	subs	r2, r2, #1
f00016f8:	2afffff7 	bcs	f00016dc <twi_byte_rw+0xc0>
f00016fc:	e59c2010 	ldr	r2, [ip, #16]
f0001700:	e6ef2072 	uxtb	r2, r2
f0001704:	e3520028 	cmp	r2, #40	; 0x28
f0001708:	1a000049 	bne	f0001834 <twi_byte_rw+0x218>
f000170c:	e3500001 	cmp	r0, #1
f0001710:	1a000011 	bne	f000175c <twi_byte_rw+0x140>
f0001714:	e5d32000 	ldrb	r2, [r3]
f0001718:	e30032ff 	movw	r3, #767	; 0x2ff
f000171c:	e58c2008 	str	r2, [ip, #8]
f0001720:	e59c200c 	ldr	r2, [ip, #12]
f0001724:	e20220f7 	and	r2, r2, #247	; 0xf7
f0001728:	e58c200c 	str	r2, [ip, #12]
f000172c:	e59c200c 	ldr	r2, [ip, #12]
f0001730:	e3120008 	tst	r2, #8
f0001734:	0a000002 	beq	f0001744 <twi_byte_rw+0x128>
f0001738:	e3530000 	cmp	r3, #0
f000173c:	0a00003c 	beq	f0001834 <twi_byte_rw+0x218>
f0001740:	ea000001 	b	f000174c <twi_byte_rw+0x130>
f0001744:	e2533001 	subs	r3, r3, #1
f0001748:	2afffff7 	bcs	f000172c <twi_byte_rw+0x110>
f000174c:	e59c3010 	ldr	r3, [ip, #16]
f0001750:	e6ef3073 	uxtb	r3, r3
f0001754:	e3530028 	cmp	r3, #40	; 0x28
f0001758:	ea000033 	b	f000182c <twi_byte_rw+0x210>
f000175c:	e59c000c 	ldr	r0, [ip, #12]
f0001760:	e30022ff 	movw	r2, #767	; 0x2ff
f0001764:	e20000c0 	and	r0, r0, #192	; 0xc0
f0001768:	e3800020 	orr	r0, r0, #32
f000176c:	e58c000c 	str	r0, [ip, #12]
f0001770:	e59c000c 	ldr	r0, [ip, #12]
f0001774:	e3100008 	tst	r0, #8
f0001778:	0a000002 	beq	f0001788 <twi_byte_rw+0x16c>
f000177c:	e3520000 	cmp	r2, #0
f0001780:	0a00002b 	beq	f0001834 <twi_byte_rw+0x218>
f0001784:	ea000001 	b	f0001790 <twi_byte_rw+0x174>
f0001788:	e2522001 	subs	r2, r2, #1
f000178c:	2afffff7 	bcs	f0001770 <twi_byte_rw+0x154>
f0001790:	e59c2010 	ldr	r2, [ip, #16]
f0001794:	e6ef2072 	uxtb	r2, r2
f0001798:	e3520010 	cmp	r2, #16
f000179c:	1a000024 	bne	f0001834 <twi_byte_rw+0x218>
f00017a0:	e3811001 	orr	r1, r1, #1
f00017a4:	e30022ff 	movw	r2, #767	; 0x2ff
f00017a8:	e58c1008 	str	r1, [ip, #8]
f00017ac:	e59c100c 	ldr	r1, [ip, #12]
f00017b0:	e20110f7 	and	r1, r1, #247	; 0xf7
f00017b4:	e58c100c 	str	r1, [ip, #12]
f00017b8:	e59c100c 	ldr	r1, [ip, #12]
f00017bc:	e3110008 	tst	r1, #8
f00017c0:	0a000002 	beq	f00017d0 <twi_byte_rw+0x1b4>
f00017c4:	e3520000 	cmp	r2, #0
f00017c8:	0a000019 	beq	f0001834 <twi_byte_rw+0x218>
f00017cc:	ea000001 	b	f00017d8 <twi_byte_rw+0x1bc>
f00017d0:	e2522001 	subs	r2, r2, #1
f00017d4:	2afffff7 	bcs	f00017b8 <twi_byte_rw+0x19c>
f00017d8:	e59c2010 	ldr	r2, [ip, #16]
f00017dc:	e6ef2072 	uxtb	r2, r2
f00017e0:	e3520040 	cmp	r2, #64	; 0x40
f00017e4:	1a000012 	bne	f0001834 <twi_byte_rw+0x218>
f00017e8:	e59c100c 	ldr	r1, [ip, #12]
f00017ec:	e30022ff 	movw	r2, #767	; 0x2ff
f00017f0:	e20110f7 	and	r1, r1, #247	; 0xf7
f00017f4:	e58c100c 	str	r1, [ip, #12]
f00017f8:	e59c100c 	ldr	r1, [ip, #12]
f00017fc:	e3110008 	tst	r1, #8
f0001800:	0a000002 	beq	f0001810 <twi_byte_rw+0x1f4>
f0001804:	e3520000 	cmp	r2, #0
f0001808:	0a000009 	beq	f0001834 <twi_byte_rw+0x218>
f000180c:	ea000001 	b	f0001818 <twi_byte_rw+0x1fc>
f0001810:	e2522001 	subs	r2, r2, #1
f0001814:	2afffff7 	bcs	f00017f8 <twi_byte_rw+0x1dc>
f0001818:	e59c2008 	ldr	r2, [ip, #8]
f000181c:	e5c32000 	strb	r2, [r3]
f0001820:	e59c3010 	ldr	r3, [ip, #16]
f0001824:	e6ef3073 	uxtb	r3, r3
f0001828:	e3530058 	cmp	r3, #88	; 0x58
f000182c:	03a00000 	moveq	r0, #0
f0001830:	0a000000 	beq	f0001838 <twi_byte_rw+0x21c>
f0001834:	e3e00000 	mvn	r0, #0
f0001838:	e59c200c 	ldr	r2, [ip, #12]
f000183c:	e30032ff 	movw	r3, #767	; 0x2ff
f0001840:	e20220c0 	and	r2, r2, #192	; 0xc0
f0001844:	e3822010 	orr	r2, r2, #16
f0001848:	e58c200c 	str	r2, [ip, #12]
f000184c:	e59c200c 	ldr	r2, [ip, #12]
f0001850:	e59c200c 	ldr	r2, [ip, #12]
f0001854:	e3120010 	tst	r2, #16
f0001858:	1a000002 	bne	f0001868 <twi_byte_rw+0x24c>
f000185c:	e3530000 	cmp	r3, #0
f0001860:	1a000002 	bne	f0001870 <twi_byte_rw+0x254>
f0001864:	e8bd8030 	pop	{r4, r5, pc}
f0001868:	e2533001 	subs	r3, r3, #1
f000186c:	2afffff7 	bcs	f0001850 <twi_byte_rw+0x234>
f0001870:	e30032ff 	movw	r3, #767	; 0x2ff
f0001874:	e59c2010 	ldr	r2, [ip, #16]
f0001878:	e35200f8 	cmp	r2, #248	; 0xf8
f000187c:	1a000002 	bne	f000188c <twi_byte_rw+0x270>
f0001880:	e3530000 	cmp	r3, #0
f0001884:	1a000002 	bne	f0001894 <twi_byte_rw+0x278>
f0001888:	e8bd8030 	pop	{r4, r5, pc}
f000188c:	e2533001 	subs	r3, r3, #1
f0001890:	2afffff7 	bcs	f0001874 <twi_byte_rw+0x258>
f0001894:	e30032ff 	movw	r3, #767	; 0x2ff
f0001898:	e59c2020 	ldr	r2, [ip, #32]
f000189c:	e352003a 	cmp	r2, #58	; 0x3a
f00018a0:	08bd8030 	popeq	{r4, r5, pc}
f00018a4:	e3530000 	cmp	r3, #0
f00018a8:	e2433001 	sub	r3, r3, #1
f00018ac:	1afffff9 	bne	f0001898 <twi_byte_rw+0x27c>
f00018b0:	e8bd8030 	pop	{r4, r5, pc}
f00018b4:	f0002af0 	undefined instruction 0xf0002af0

f00018b8 <standby_twi_exit>:
f00018b8:	e92d4010 	push	{r4, lr}
f00018bc:	e59f4038 	ldr	r4, [pc, #56]	; f00018fc <standby_twi_exit+0x44>
f00018c0:	e3a0000a 	mov	r0, #10
f00018c4:	e5943000 	ldr	r3, [r4]
f00018c8:	e5932018 	ldr	r2, [r3, #24]
f00018cc:	e3822001 	orr	r2, r2, #1
f00018d0:	e5832018 	str	r2, [r3, #24]
f00018d4:	ebfffac4 	bl	f00003ec <standby_mdelay>
f00018d8:	e5943000 	ldr	r3, [r4]
f00018dc:	e5941004 	ldr	r1, [r4, #4]
f00018e0:	e3a00000 	mov	r0, #0
f00018e4:	e5942008 	ldr	r2, [r4, #8]
f00018e8:	e5831014 	str	r1, [r3, #20]
f00018ec:	e593100c 	ldr	r1, [r3, #12]
f00018f0:	e1812002 	orr	r2, r1, r2
f00018f4:	e583200c 	str	r2, [r3, #12]
f00018f8:	e8bd8010 	pop	{r4, pc}
f00018fc:	f0002af0 	undefined instruction 0xf0002af0

f0001900 <standby_usb_init>:
f0001900:	e3a00000 	mov	r0, #0
f0001904:	e12fff1e 	bx	lr

f0001908 <standby_usb_exit>:
f0001908:	e3a00000 	mov	r0, #0
f000190c:	e12fff1e 	bx	lr

f0001910 <standby_is_usb_status_change>:
f0001910:	e3a00000 	mov	r0, #0
f0001914:	e12fff1e 	bx	lr

f0001918 <standby_query_usb_event>:
f0001918:	e3e00000 	mvn	r0, #0
f000191c:	e12fff1e 	bx	lr

f0001920 <standby_delay>:
f0001920:	e92d000f 	push	{r0, r1, r2, r3}
f0001924:	e3a01011 	mov	r1, #17
f0001928:	e1a03000 	mov	r3, r0

f000192c <loop2>:
f000192c:	e2500001 	subs	r0, r0, #1
f0001930:	8afffffd 	bhi	f000192c <loop2>
f0001934:	e1a00003 	mov	r0, r3
f0001938:	e2511001 	subs	r1, r1, #1
f000193c:	8afffffa 	bhi	f000192c <loop2>
f0001940:	e8bd000f 	pop	{r0, r1, r2, r3}
f0001944:	e1a0f00e 	mov	pc, lr

f0001948 <standby_delay_cycle>:
f0001948:	e2500001 	subs	r0, r0, #1
f000194c:	8afffffd 	bhi	f0001948 <standby_delay_cycle>
f0001950:	e1a0f00e 	mov	pc, lr

f0001954 <busy_waiting>:
f0001954:	e24dd008 	sub	sp, sp, #8
f0001958:	e3a03001 	mov	r3, #1
f000195c:	e58d3004 	str	r3, [sp, #4]
f0001960:	e59d3004 	ldr	r3, [sp, #4]
f0001964:	e3530001 	cmp	r3, #1
f0001968:	0afffffc 	beq	f0001960 <busy_waiting+0xc>
f000196c:	e28dd008 	add	sp, sp, #8
f0001970:	e12fff1e 	bx	lr

f0001974 <fake_busy_waiting>:
f0001974:	e24dd008 	sub	sp, sp, #8
f0001978:	e3a03002 	mov	r3, #2
f000197c:	e58d3004 	str	r3, [sp, #4]
f0001980:	e59d3004 	ldr	r3, [sp, #4]
f0001984:	e3530001 	cmp	r3, #1
f0001988:	0afffffc 	beq	f0001980 <fake_busy_waiting+0xc>
f000198c:	e28dd008 	add	sp, sp, #8
f0001990:	e12fff1e 	bx	lr

f0001994 <save_mem_flag>:
f0001994:	e59f300c 	ldr	r3, [pc, #12]	; f00019a8 <save_mem_flag+0x14>
f0001998:	e593223c 	ldr	r2, [r3, #572]	; 0x23c
f000199c:	e3822001 	orr	r2, r2, #1
f00019a0:	e583223c 	str	r2, [r3, #572]	; 0x23c
f00019a4:	e12fff1e 	bx	lr
f00019a8:	f1c01000 	undefined instruction 0xf1c01000

f00019ac <save_mem_status>:
f00019ac:	e24dd008 	sub	sp, sp, #8
f00019b0:	e58d0004 	str	r0, [sp, #4]
f00019b4:	e28dd008 	add	sp, sp, #8
f00019b8:	e12fff1e 	bx	lr

f00019bc <get_mem_status>:
f00019bc:	e59f3004 	ldr	r3, [pc, #4]	; f00019c8 <get_mem_status+0xc>
f00019c0:	e5930004 	ldr	r0, [r3, #4]
f00019c4:	e12fff1e 	bx	lr
f00019c8:	c0200000 	eorgt	r0, r0, r0

f00019cc <save_mem_status_nommu>:
f00019cc:	e24dd008 	sub	sp, sp, #8
f00019d0:	e58d0004 	str	r0, [sp, #4]
f00019d4:	e28dd008 	add	sp, sp, #8
f00019d8:	e12fff1e 	bx	lr

f00019dc <save_sun5i_mem_status>:
f00019dc:	e24dd008 	sub	sp, sp, #8
f00019e0:	e59f3014 	ldr	r3, [pc, #20]	; f00019fc <save_sun5i_mem_status+0x20>
f00019e4:	e58d0004 	str	r0, [sp, #4]
f00019e8:	e5930ffc 	ldr	r0, [r3, #4092]	; 0xffc
f00019ec:	e59d2004 	ldr	r2, [sp, #4]
f00019f0:	e5832ffc 	str	r2, [r3, #4092]	; 0xffc
f00019f4:	e28dd008 	add	sp, sp, #8
f00019f8:	e12fff1e 	bx	lr
f00019fc:	c010f000 	andsgt	pc, r0, r0

f0001a00 <save_sun5i_mem_status_nommu>:
f0001a00:	e24dd008 	sub	sp, sp, #8
f0001a04:	e59f3014 	ldr	r3, [pc, #20]	; f0001a20 <save_sun5i_mem_status_nommu+0x20>
f0001a08:	e58d0004 	str	r0, [sp, #4]
f0001a0c:	e5930ffc 	ldr	r0, [r3, #4092]	; 0xffc
f0001a10:	e59d2004 	ldr	r2, [sp, #4]
f0001a14:	e5832ffc 	str	r2, [r3, #4092]	; 0xffc
f0001a18:	e28dd008 	add	sp, sp, #8
f0001a1c:	e12fff1e 	bx	lr
f0001a20:	4010f000 	andsmi	pc, r0, r0

f0001a24 <get_cyclecount>:
f0001a24:	ee190f1d 	mrc	15, 0, r0, cr9, cr13, {0}
f0001a28:	e12fff1e 	bx	lr

f0001a2c <backup_perfcounter>:
f0001a2c:	ee192f1c 	mrc	15, 0, r2, cr9, cr12, {0}
f0001a30:	e59f300c 	ldr	r3, [pc, #12]	; f0001a44 <backup_perfcounter+0x18>
f0001a34:	e5832000 	str	r2, [r3]
f0001a38:	ee192f3c 	mrc	15, 0, r2, cr9, cr12, {1}
f0001a3c:	e5832004 	str	r2, [r3, #4]
f0001a40:	e12fff1e 	bx	lr
f0001a44:	f0002afc 	undefined instruction 0xf0002afc

f0001a48 <init_perfcounters>:
f0001a48:	e3500000 	cmp	r0, #0
f0001a4c:	03a00001 	moveq	r0, #1
f0001a50:	13a00007 	movne	r0, #7
f0001a54:	e3510000 	cmp	r1, #0
f0001a58:	13800008 	orrne	r0, r0, #8
f0001a5c:	e3800010 	orr	r0, r0, #16
f0001a60:	ee090f1c 	mcr	15, 0, r0, cr9, cr12, {0}
f0001a64:	e3a0313e 	mov	r3, #-2147483633	; 0x8000000f
f0001a68:	ee093f3c 	mcr	15, 0, r3, cr9, cr12, {1}
f0001a6c:	ee093f7c 	mcr	15, 0, r3, cr9, cr12, {3}
f0001a70:	e12fff1e 	bx	lr

f0001a74 <restore_perfcounter>:
f0001a74:	e59f3014 	ldr	r3, [pc, #20]	; f0001a90 <restore_perfcounter+0x1c>
f0001a78:	e5933000 	ldr	r3, [r3]
f0001a7c:	ee093f1c 	mcr	15, 0, r3, cr9, cr12, {0}
f0001a80:	e59f3008 	ldr	r3, [pc, #8]	; f0001a90 <restore_perfcounter+0x1c>
f0001a84:	e5933004 	ldr	r3, [r3, #4]
f0001a88:	ee093f3c 	mcr	15, 0, r3, cr9, cr12, {1}
f0001a8c:	e12fff1e 	bx	lr
f0001a90:	f0002afc 	undefined instruction 0xf0002afc

f0001a94 <reset_counter>:
f0001a94:	e3a03000 	mov	r3, #0
f0001a98:	ee193f1c 	mrc	15, 0, r3, cr9, cr12, {0}
f0001a9c:	e2833004 	add	r3, r3, #4
f0001aa0:	ee093f1c 	mcr	15, 0, r3, cr9, cr12, {0}
f0001aa4:	e12fff1e 	bx	lr

f0001aa8 <change_runtime_env>:
f0001aa8:	e92d4013 	push	{r0, r1, r4, lr}
f0001aac:	e3a03000 	mov	r3, #0
f0001ab0:	e59f1108 	ldr	r1, [pc, #264]	; f0001bc0 <change_runtime_env+0x118>
f0001ab4:	e1500003 	cmp	r0, r3
f0001ab8:	e58d3004 	str	r3, [sp, #4]
f0001abc:	e59f2100 	ldr	r2, [pc, #256]	; f0001bc4 <change_runtime_env+0x11c>
f0001ac0:	11a02001 	movne	r2, r1
f0001ac4:	ee191f1d 	mrc	15, 0, r1, cr9, cr13, {0}
f0001ac8:	ee190f1d 	mrc	15, 0, r0, cr9, cr13, {0}
f0001acc:	e59fc0f4 	ldr	ip, [pc, #244]	; f0001bc8 <change_runtime_env+0x120>
f0001ad0:	e0611000 	rsb	r1, r1, r0
f0001ad4:	e58c1008 	str	r1, [ip, #8]
f0001ad8:	e5921054 	ldr	r1, [r2, #84]	; 0x54
f0001adc:	e58d1004 	str	r1, [sp, #4]
f0001ae0:	e59d1004 	ldr	r1, [sp, #4]
f0001ae4:	e1a01821 	lsr	r1, r1, #16
f0001ae8:	e58d1004 	str	r1, [sp, #4]
f0001aec:	e59d1004 	ldr	r1, [sp, #4]
f0001af0:	e2011003 	and	r1, r1, #3
f0001af4:	e58d1004 	str	r1, [sp, #4]
f0001af8:	e59d1004 	ldr	r1, [sp, #4]
f0001afc:	e1510003 	cmp	r1, r3
f0001b00:	02833020 	addeq	r3, r3, #32
f0001b04:	0a000003 	beq	f0001b18 <change_runtime_env+0x70>
f0001b08:	e59d1004 	ldr	r1, [sp, #4]
f0001b0c:	e3510001 	cmp	r1, #1
f0001b10:	1a000002 	bne	f0001b20 <change_runtime_env+0x78>
f0001b14:	e3053dc0 	movw	r3, #24000	; 0x5dc0
f0001b18:	e58c300c 	str	r3, [ip, #12]
f0001b1c:	ea000026 	b	f0001bbc <change_runtime_env+0x114>
f0001b20:	e59d1004 	ldr	r1, [sp, #4]
f0001b24:	e3510002 	cmp	r1, #2
f0001b28:	1a000023 	bne	f0001bbc <change_runtime_env+0x114>
f0001b2c:	e5922000 	ldr	r2, [r2]
f0001b30:	e3a04001 	mov	r4, #1
f0001b34:	e58d2004 	str	r2, [sp, #4]
f0001b38:	e59d1004 	ldr	r1, [sp, #4]
f0001b3c:	e59dc004 	ldr	ip, [sp, #4]
f0001b40:	e59d0004 	ldr	r0, [sp, #4]
f0001b44:	e7e11851 	ubfx	r1, r1, #16, #2
f0001b48:	e59d2004 	ldr	r2, [sp, #4]
f0001b4c:	e1a01114 	lsl	r1, r4, r1
f0001b50:	e2022003 	and	r2, r2, #3
f0001b54:	e0822004 	add	r2, r2, r4
f0001b58:	e0120192 	muls	r2, r2, r1
f0001b5c:	01a01002 	moveq	r1, r2
f0001b60:	0a000013 	beq	f0001bb4 <change_runtime_env+0x10c>
f0001b64:	ea000001 	b	f0001b70 <change_runtime_env+0xc8>
f0001b68:	e1a02082 	lsl	r2, r2, #1
f0001b6c:	e2833001 	add	r3, r3, #1
f0001b70:	e3520000 	cmp	r2, #0
f0001b74:	aafffffb 	bge	f0001b68 <change_runtime_env+0xc0>
f0001b78:	e7e4c45c 	ubfx	ip, ip, #8, #5
f0001b7c:	e3054dc0 	movw	r4, #24000	; 0x5dc0
f0001b80:	e7e10250 	ubfx	r0, r0, #4, #2
f0001b84:	e3a01000 	mov	r1, #0
f0001b88:	e00c0c94 	mul	ip, r4, ip
f0001b8c:	e2800001 	add	r0, r0, #1
f0001b90:	e0000c90 	mul	r0, r0, ip
f0001b94:	e1500002 	cmp	r0, r2
f0001b98:	e1a0c081 	lsl	ip, r1, #1
f0001b9c:	20620000 	rsbcs	r0, r2, r0
f0001ba0:	e38c1001 	orr	r1, ip, #1
f0001ba4:	31a0100c 	movcc	r1, ip
f0001ba8:	e2533001 	subs	r3, r3, #1
f0001bac:	e1a020a2 	lsr	r2, r2, #1
f0001bb0:	5afffff7 	bpl	f0001b94 <change_runtime_env+0xec>
f0001bb4:	e59f300c 	ldr	r3, [pc, #12]	; f0001bc8 <change_runtime_env+0x120>
f0001bb8:	e583100c 	str	r1, [r3, #12]
f0001bbc:	e8bd801c 	pop	{r2, r3, r4, pc}
f0001bc0:	f1c20000 	undefined instruction 0xf1c20000
f0001bc4:	01c20000 	biceq	r0, r2, r0
f0001bc8:	f0002afc 	undefined instruction 0xf0002afc

f0001bcc <delay_us>:
f0001bcc:	e59f3078 	ldr	r3, [pc, #120]	; f0001c4c <delay_us+0x80>
f0001bd0:	e92d4010 	push	{r4, lr}
f0001bd4:	e593c00c 	ldr	ip, [r3, #12]
f0001bd8:	e35c0ffa 	cmp	ip, #1000	; 0x3e8
f0001bdc:	98bd8010 	popls	{r4, pc}
f0001be0:	e3a02000 	mov	r2, #0
f0001be4:	e3a03ffa 	mov	r3, #1000	; 0x3e8
f0001be8:	e2822001 	add	r2, r2, #1
f0001bec:	e1a03083 	lsl	r3, r3, #1
f0001bf0:	e3520016 	cmp	r2, #22
f0001bf4:	1afffffb 	bne	f0001be8 <delay_us+0x1c>
f0001bf8:	e3a01000 	mov	r1, #0
f0001bfc:	e15c0003 	cmp	ip, r3
f0001c00:	e1a04081 	lsl	r4, r1, #1
f0001c04:	2063c00c 	rsbcs	ip, r3, ip
f0001c08:	e3841001 	orr	r1, r4, #1
f0001c0c:	31a01004 	movcc	r1, r4
f0001c10:	e2522001 	subs	r2, r2, #1
f0001c14:	e1a030a3 	lsr	r3, r3, #1
f0001c18:	5afffff7 	bpl	f0001bfc <delay_us+0x30>
f0001c1c:	ee193f1d 	mrc	15, 0, r3, cr9, cr13, {0}
f0001c20:	e59f2024 	ldr	r2, [pc, #36]	; f0001c4c <delay_us+0x80>
f0001c24:	e2811001 	add	r1, r1, #1
f0001c28:	e5922008 	ldr	r2, [r2, #8]
f0001c2c:	e0622003 	rsb	r2, r2, r3
f0001c30:	e0212190 	mla	r1, r0, r1, r2
f0001c34:	ea000000 	b	f0001c3c <delay_us+0x70>
f0001c38:	ee193f1d 	mrc	15, 0, r3, cr9, cr13, {0}
f0001c3c:	e0613003 	rsb	r3, r1, r3
f0001c40:	e3530000 	cmp	r3, #0
f0001c44:	bafffffb 	blt	f0001c38 <delay_us+0x6c>
f0001c48:	e8bd8010 	pop	{r4, pc}
f0001c4c:	f0002afc 	undefined instruction 0xf0002afc

f0001c50 <delay_ms>:
f0001c50:	e3a03ffa 	mov	r3, #1000	; 0x3e8
f0001c54:	e0000093 	mul	r0, r3, r0
f0001c58:	eaffffdb 	b	f0001bcc <delay_us>

f0001c5c <io_init>:
f0001c5c:	e59f2008 	ldr	r2, [pc, #8]	; f0001c6c <io_init+0x10>
f0001c60:	e59f3008 	ldr	r3, [pc, #8]	; f0001c70 <io_init+0x14>
f0001c64:	e5832890 	str	r2, [r3, #2192]	; 0x890
f0001c68:	e12fff1e 	bx	lr
f0001c6c:	00111111 	andseq	r1, r1, r1, lsl r1
f0001c70:	f1c20000 	undefined instruction 0xf1c20000

f0001c74 <io_init_high>:
f0001c74:	e59f300c 	ldr	r3, [pc, #12]	; f0001c88 <io_init_high+0x14>
f0001c78:	e59328a0 	ldr	r2, [r3, #2208]	; 0x8a0
f0001c7c:	e382203f 	orr	r2, r2, #63	; 0x3f
f0001c80:	e58328a0 	str	r2, [r3, #2208]	; 0x8a0
f0001c84:	e12fff1e 	bx	lr
f0001c88:	f1c20000 	undefined instruction 0xf1c20000

f0001c8c <io_init_low>:
f0001c8c:	e59f300c 	ldr	r3, [pc, #12]	; f0001ca0 <io_init_low+0x14>
f0001c90:	e59328a0 	ldr	r2, [r3, #2208]	; 0x8a0
f0001c94:	e3c2203f 	bic	r2, r2, #63	; 0x3f
f0001c98:	e58328a0 	str	r2, [r3, #2208]	; 0x8a0
f0001c9c:	e12fff1e 	bx	lr
f0001ca0:	f1c20000 	undefined instruction 0xf1c20000

f0001ca4 <io_high>:
f0001ca4:	e92d4070 	push	{r4, r5, r6, lr}
f0001ca8:	e59f4024 	ldr	r4, [pc, #36]	; f0001cd4 <io_high+0x30>
f0001cac:	e3a05001 	mov	r5, #1
f0001cb0:	e59468a0 	ldr	r6, [r4, #2208]	; 0x8a0
f0001cb4:	e1a05015 	lsl	r5, r5, r0
f0001cb8:	e3020710 	movw	r0, #10000	; 0x2710
f0001cbc:	e1c66005 	bic	r6, r6, r5
f0001cc0:	e58468a0 	str	r6, [r4, #2208]	; 0x8a0
f0001cc4:	ebffffc0 	bl	f0001bcc <delay_us>
f0001cc8:	e1865005 	orr	r5, r6, r5
f0001ccc:	e58458a0 	str	r5, [r4, #2208]	; 0x8a0
f0001cd0:	e8bd8070 	pop	{r4, r5, r6, pc}
f0001cd4:	f1c20000 	undefined instruction 0xf1c20000

f0001cd8 <DRAMC_hostport_on_off>:
f0001cd8:	e350001f 	cmp	r0, #31
f0001cdc:	812fff1e 	bxhi	lr
f0001ce0:	e59f3014 	ldr	r3, [pc, #20]	; f0001cfc <DRAMC_hostport_on_off+0x24>
f0001ce4:	e3510000 	cmp	r1, #0
f0001ce8:	e7932100 	ldr	r2, [r3, r0, lsl #2]
f0001cec:	13822001 	orrne	r2, r2, #1
f0001cf0:	03c22001 	biceq	r2, r2, #1
f0001cf4:	e7832100 	str	r2, [r3, r0, lsl #2]
f0001cf8:	e12fff1e 	bx	lr
f0001cfc:	f1c01250 	undefined instruction 0xf1c01250

f0001d00 <DRAMC_hostport_check_ahb_fifo_status>:
f0001d00:	e350001f 	cmp	r0, #31
f0001d04:	83a00000 	movhi	r0, #0
f0001d08:	959f300c 	ldrls	r3, [pc, #12]	; f0001d1c <DRAMC_hostport_check_ahb_fifo_status+0x1c>
f0001d0c:	95933234 	ldrls	r3, [r3, #564]	; 0x234
f0001d10:	91a00033 	lsrls	r0, r3, r0
f0001d14:	92000001 	andls	r0, r0, #1
f0001d18:	e12fff1e 	bx	lr
f0001d1c:	f1c01000 	undefined instruction 0xf1c01000

f0001d20 <DRAMC_hostport_setup>:
f0001d20:	e350001f 	cmp	r0, #31
f0001d24:	e92d4010 	push	{r4, lr}
f0001d28:	88bd8010 	pophi	{r4, pc}
f0001d2c:	e59fc030 	ldr	ip, [pc, #48]	; f0001d64 <DRAMC_hostport_setup+0x44>
f0001d30:	e1a02202 	lsl	r2, r2, #4
f0001d34:	e20240ff 	and	r4, r2, #255	; 0xff
f0001d38:	e2011003 	and	r1, r1, #3
f0001d3c:	e2033003 	and	r3, r3, #3
f0001d40:	e79c2100 	ldr	r2, [ip, r0, lsl #2]
f0001d44:	e3c2200c 	bic	r2, r2, #12
f0001d48:	e1822101 	orr	r2, r2, r1, lsl #2
f0001d4c:	e3c220f0 	bic	r2, r2, #240	; 0xf0
f0001d50:	e1822004 	orr	r2, r2, r4
f0001d54:	e3c22cff 	bic	r2, r2, #65280	; 0xff00
f0001d58:	e1823403 	orr	r3, r2, r3, lsl #8
f0001d5c:	e78c3100 	str	r3, [ip, r0, lsl #2]
f0001d60:	e8bd8010 	pop	{r4, pc}
f0001d64:	f1c01250 	undefined instruction 0xf1c01250

f0001d68 <dram_hostport_on_off>:
f0001d68:	e350001f 	cmp	r0, #31
f0001d6c:	812fff1e 	bxhi	lr
f0001d70:	e59f3014 	ldr	r3, [pc, #20]	; f0001d8c <dram_hostport_on_off+0x24>
f0001d74:	e3510000 	cmp	r1, #0
f0001d78:	e7932100 	ldr	r2, [r3, r0, lsl #2]
f0001d7c:	13822001 	orrne	r2, r2, #1
f0001d80:	03c22001 	biceq	r2, r2, #1
f0001d84:	e7832100 	str	r2, [r3, r0, lsl #2]
f0001d88:	e12fff1e 	bx	lr
f0001d8c:	f1c01250 	undefined instruction 0xf1c01250

f0001d90 <dram_hostport_check_ahb_fifo_status>:
f0001d90:	e350001f 	cmp	r0, #31
f0001d94:	83a00000 	movhi	r0, #0
f0001d98:	959f300c 	ldrls	r3, [pc, #12]	; f0001dac <dram_hostport_check_ahb_fifo_status+0x1c>
f0001d9c:	95933234 	ldrls	r3, [r3, #564]	; 0x234
f0001da0:	91a00033 	lsrls	r0, r3, r0
f0001da4:	92000001 	andls	r0, r0, #1
f0001da8:	e12fff1e 	bx	lr
f0001dac:	f1c01000 	undefined instruction 0xf1c01000

f0001db0 <dram_hostport_setup>:
f0001db0:	eaffffda 	b	f0001d20 <DRAMC_hostport_setup>

f0001db4 <mctl_ahb_reset>:
f0001db4:	e92d4010 	push	{r4, lr}
f0001db8:	e59f4020 	ldr	r4, [pc, #32]	; f0001de0 <mctl_ahb_reset+0x2c>
f0001dbc:	e3a00010 	mov	r0, #16
f0001dc0:	e5943060 	ldr	r3, [r4, #96]	; 0x60
f0001dc4:	e3c33903 	bic	r3, r3, #49152	; 0xc000
f0001dc8:	e5843060 	str	r3, [r4, #96]	; 0x60
f0001dcc:	ebfffed3 	bl	f0001920 <standby_delay>
f0001dd0:	e5943060 	ldr	r3, [r4, #96]	; 0x60
f0001dd4:	e3833903 	orr	r3, r3, #49152	; 0xc000
f0001dd8:	e5843060 	str	r3, [r4, #96]	; 0x60
f0001ddc:	e8bd8010 	pop	{r4, pc}
f0001de0:	f1c20000 	undefined instruction 0xf1c20000

f0001de4 <DRAMC_enter_power_down>:
f0001de4:	e59f3024 	ldr	r3, [pc, #36]	; f0001e10 <DRAMC_enter_power_down+0x2c>
f0001de8:	e1a01003 	mov	r1, r3
f0001dec:	e5932004 	ldr	r2, [r3, #4]
f0001df0:	e3c2233e 	bic	r2, r2, #-134217728	; 0xf8000000
f0001df4:	e382220f 	orr	r2, r2, #-268435456	; 0xf0000000
f0001df8:	e5832004 	str	r2, [r3, #4]
f0001dfc:	e5913004 	ldr	r3, [r1, #4]
f0001e00:	e3530000 	cmp	r3, #0
f0001e04:	bafffffc 	blt	f0001dfc <DRAMC_enter_power_down+0x18>
f0001e08:	e3a00c01 	mov	r0, #256	; 0x100
f0001e0c:	eafffec3 	b	f0001920 <standby_delay>
f0001e10:	f1c01000 	undefined instruction 0xf1c01000

f0001e14 <dram_enter_power_down>:
f0001e14:	eafffff2 	b	f0001de4 <DRAMC_enter_power_down>

f0001e18 <mctl_mode_exit>:
f0001e18:	e59f3024 	ldr	r3, [pc, #36]	; f0001e44 <mctl_mode_exit+0x2c>
f0001e1c:	e1a01003 	mov	r1, r3
f0001e20:	e5932004 	ldr	r2, [r3, #4]
f0001e24:	e3c2233e 	bic	r2, r2, #-134217728	; 0xf8000000
f0001e28:	e382232e 	orr	r2, r2, #-1207959552	; 0xb8000000
f0001e2c:	e5832004 	str	r2, [r3, #4]
f0001e30:	e5913004 	ldr	r3, [r1, #4]
f0001e34:	e3530000 	cmp	r3, #0
f0001e38:	bafffffc 	blt	f0001e30 <mctl_mode_exit+0x18>
f0001e3c:	e3a00c01 	mov	r0, #256	; 0x100
f0001e40:	eafffeb6 	b	f0001920 <standby_delay>
f0001e44:	f1c01000 	undefined instruction 0xf1c01000

f0001e48 <DRAMC_exit_power_down>:
f0001e48:	eafffff2 	b	f0001e18 <mctl_mode_exit>

f0001e4c <dram_exit_power_down>:
f0001e4c:	eafffff1 	b	f0001e18 <mctl_mode_exit>

f0001e50 <DRAMC_exit_selfrefresh>:
f0001e50:	e92d4010 	push	{r4, lr}
f0001e54:	ebffffef 	bl	f0001e18 <mctl_mode_exit>
f0001e58:	e59f3060 	ldr	r3, [pc, #96]	; f0001ec0 <DRAMC_exit_selfrefresh+0x70>
f0001e5c:	e1a01003 	mov	r1, r3
f0001e60:	e5932004 	ldr	r2, [r3, #4]
f0001e64:	e3c2233e 	bic	r2, r2, #-134217728	; 0xf8000000
f0001e68:	e3822326 	orr	r2, r2, #-1744830464	; 0x98000000
f0001e6c:	e5832004 	str	r2, [r3, #4]
f0001e70:	e5913004 	ldr	r3, [r1, #4]
f0001e74:	e59f4044 	ldr	r4, [pc, #68]	; f0001ec0 <DRAMC_exit_selfrefresh+0x70>
f0001e78:	e3530000 	cmp	r3, #0
f0001e7c:	bafffffb 	blt	f0001e70 <DRAMC_exit_selfrefresh+0x20>
f0001e80:	e3a00c01 	mov	r0, #256	; 0x100
f0001e84:	ebfffea5 	bl	f0001920 <standby_delay>
f0001e88:	e5942010 	ldr	r2, [r4, #16]
f0001e8c:	e3a03000 	mov	r3, #0
f0001e90:	e3c22102 	bic	r2, r2, #-2147483648	; 0x80000000
f0001e94:	e5842010 	str	r2, [r4, #16]
f0001e98:	e59f2024 	ldr	r2, [pc, #36]	; f0001ec4 <DRAMC_exit_selfrefresh+0x74>
f0001e9c:	e1a01103 	lsl	r1, r3, #2
f0001ea0:	e2833001 	add	r3, r3, #1
f0001ea4:	e0812002 	add	r2, r1, r2
f0001ea8:	e353001f 	cmp	r3, #31
f0001eac:	e5921000 	ldr	r1, [r2]
f0001eb0:	e3811001 	orr	r1, r1, #1
f0001eb4:	e5821000 	str	r1, [r2]
f0001eb8:	1afffff6 	bne	f0001e98 <DRAMC_exit_selfrefresh+0x48>
f0001ebc:	e8bd8010 	pop	{r4, pc}
f0001ec0:	f1c01000 	undefined instruction 0xf1c01000
f0001ec4:	f1c01250 	undefined instruction 0xf1c01250

f0001ec8 <dram_exit_selfrefresh>:
f0001ec8:	eaffffe0 	b	f0001e50 <DRAMC_exit_selfrefresh>

f0001ecc <mctl_precharge_all>:
f0001ecc:	e59f3024 	ldr	r3, [pc, #36]	; f0001ef8 <mctl_precharge_all+0x2c>
f0001ed0:	e1a01003 	mov	r1, r3
f0001ed4:	e5932004 	ldr	r2, [r3, #4]
f0001ed8:	e3c2233e 	bic	r2, r2, #-134217728	; 0xf8000000
f0001edc:	e382232a 	orr	r2, r2, #-1476395008	; 0xa8000000
f0001ee0:	e5832004 	str	r2, [r3, #4]
f0001ee4:	e5913004 	ldr	r3, [r1, #4]
f0001ee8:	e3530000 	cmp	r3, #0
f0001eec:	bafffffc 	blt	f0001ee4 <mctl_precharge_all+0x18>
f0001ef0:	e3a00c01 	mov	r0, #256	; 0x100
f0001ef4:	eafffe89 	b	f0001920 <standby_delay>
f0001ef8:	f1c01000 	undefined instruction 0xf1c01000

f0001efc <DRAMC_enter_selfrefresh>:
f0001efc:	e3a03000 	mov	r3, #0
f0001f00:	e92d4010 	push	{r4, lr}
f0001f04:	e59f205c 	ldr	r2, [pc, #92]	; f0001f68 <DRAMC_enter_selfrefresh+0x6c>
f0001f08:	e1a01103 	lsl	r1, r3, #2
f0001f0c:	e2833001 	add	r3, r3, #1
f0001f10:	e0812002 	add	r2, r1, r2
f0001f14:	e353001f 	cmp	r3, #31
f0001f18:	e5921000 	ldr	r1, [r2]
f0001f1c:	e3c11001 	bic	r1, r1, #1
f0001f20:	e5821000 	str	r1, [r2]
f0001f24:	1afffff6 	bne	f0001f04 <DRAMC_enter_selfrefresh+0x8>
f0001f28:	ebffffe7 	bl	f0001ecc <mctl_precharge_all>
f0001f2c:	e59f3038 	ldr	r3, [pc, #56]	; f0001f6c <DRAMC_enter_selfrefresh+0x70>
f0001f30:	e1a01003 	mov	r1, r3
f0001f34:	e5932004 	ldr	r2, [r3, #4]
f0001f38:	e3c2233e 	bic	r2, r2, #-134217728	; 0xf8000000
f0001f3c:	e3822209 	orr	r2, r2, #-1879048192	; 0x90000000
f0001f40:	e5832004 	str	r2, [r3, #4]
f0001f44:	e5913004 	ldr	r3, [r1, #4]
f0001f48:	e3530000 	cmp	r3, #0
f0001f4c:	bafffffc 	blt	f0001f44 <DRAMC_enter_selfrefresh+0x48>
f0001f50:	e3a00c01 	mov	r0, #256	; 0x100
f0001f54:	ebfffe71 	bl	f0001920 <standby_delay>
f0001f58:	e59f300c 	ldr	r3, [pc, #12]	; f0001f6c <DRAMC_enter_selfrefresh+0x70>
f0001f5c:	e3a02001 	mov	r2, #1
f0001f60:	e583223c 	str	r2, [r3, #572]	; 0x23c
f0001f64:	e8bd8010 	pop	{r4, pc}
f0001f68:	f1c01250 	undefined instruction 0xf1c01250
f0001f6c:	f1c01000 	undefined instruction 0xf1c01000

f0001f70 <dram_enter_selfrefresh>:
f0001f70:	eaffffe1 	b	f0001efc <DRAMC_enter_selfrefresh>

f0001f74 <dram_power_save_process>:
f0001f74:	e92d4010 	push	{r4, lr}
f0001f78:	ebffffdf 	bl	f0001efc <DRAMC_enter_selfrefresh>
f0001f7c:	eb000073 	bl	f0002150 <mctl_itm_disable>
f0001f80:	eb00007f 	bl	f0002184 <mctl_disable_dll>
f0001f84:	e3a00000 	mov	r0, #0
f0001f88:	e8bd8010 	pop	{r4, pc}

f0001f8c <DRAMC_retraining>:
f0001f8c:	e59f3194 	ldr	r3, [pc, #404]	; f0002128 <DRAMC_retraining+0x19c>
f0001f90:	e92d4ff0 	push	{r4, r5, r6, r7, r8, r9, sl, fp, lr}
f0001f94:	e24dd024 	sub	sp, sp, #36	; 0x24
f0001f98:	e5931004 	ldr	r1, [r3, #4]
f0001f9c:	e1a05003 	mov	r5, r3
f0001fa0:	e593b010 	ldr	fp, [r3, #16]
f0001fa4:	e1a04003 	mov	r4, r3
f0001fa8:	e5939014 	ldr	r9, [r3, #20]
f0001fac:	e593a018 	ldr	sl, [r3, #24]
f0001fb0:	e593201c 	ldr	r2, [r3, #28]
f0001fb4:	e59371f0 	ldr	r7, [r3, #496]	; 0x1f0
f0001fb8:	e58d101c 	str	r1, [sp, #28]
f0001fbc:	e58d2018 	str	r2, [sp, #24]
f0001fc0:	e59311f4 	ldr	r1, [r3, #500]	; 0x1f4
f0001fc4:	e58d7014 	str	r7, [sp, #20]
f0001fc8:	e59321f8 	ldr	r2, [r3, #504]	; 0x1f8
f0001fcc:	e59371fc 	ldr	r7, [r3, #508]	; 0x1fc
f0001fd0:	e58d1010 	str	r1, [sp, #16]
f0001fd4:	e58d200c 	str	r2, [sp, #12]
f0001fd8:	e58d7008 	str	r7, [sp, #8]
f0001fdc:	e59320a8 	ldr	r2, [r3, #168]	; 0xa8
f0001fe0:	e5931008 	ldr	r1, [r3, #8]
f0001fe4:	e5930208 	ldr	r0, [r3, #520]	; 0x208
f0001fe8:	e593e20c 	ldr	lr, [r3, #524]	; 0x20c
f0001fec:	e5936210 	ldr	r6, [r3, #528]	; 0x210
f0001ff0:	e7e30750 	ubfx	r0, r0, #14, #4
f0001ff4:	e593c214 	ldr	ip, [r3, #532]	; 0x214
f0001ff8:	e5937000 	ldr	r7, [r3]
f0001ffc:	e1a0e52e 	lsr	lr, lr, #10
f0002000:	e7e36756 	ubfx	r6, r6, #14, #4
f0002004:	e58d1004 	str	r1, [sp, #4]
f0002008:	e20ee0f0 	and	lr, lr, #240	; 0xf0
f000200c:	e20216ff 	and	r1, r2, #267386880	; 0xff00000
f0002010:	e58d7000 	str	r7, [sp]
f0002014:	e1a0c12c 	lsr	ip, ip, #2
f0002018:	e59370b0 	ldr	r7, [r3, #176]	; 0xb0
f000201c:	e18e6406 	orr	r6, lr, r6, lsl #8
f0002020:	e2022202 	and	r2, r2, #536870912	; 0x20000000
f0002024:	e1866000 	orr	r6, r6, r0
f0002028:	e3c774ff 	bic	r7, r7, #-16777216	; 0xff000000
f000202c:	e20cca0f 	and	ip, ip, #61440	; 0xf000
f0002030:	e3c7760f 	bic	r7, r7, #15728640	; 0xf00000
f0002034:	e186800c 	orr	r8, r6, ip
f0002038:	e1877001 	orr	r7, r7, r1
f000203c:	e3877205 	orr	r7, r7, #1342177280	; 0x50000000
f0002040:	e1877002 	orr	r7, r7, r2
f0002044:	ebffff5a 	bl	f0001db4 <mctl_ahb_reset>
f0002048:	eb000038 	bl	f0002130 <mctl_set_drive>
f000204c:	eb00003f 	bl	f0002150 <mctl_itm_disable>
f0002050:	eb000154 	bl	f00025a8 <mctl_enable_dll0>
f0002054:	e59d1000 	ldr	r1, [sp]
f0002058:	e59d201c 	ldr	r2, [sp, #28]
f000205c:	e3a00001 	mov	r0, #1
f0002060:	e5851000 	str	r1, [r5]
f0002064:	e5852004 	str	r2, [r5, #4]
f0002068:	e58570a8 	str	r7, [r5, #168]	; 0xa8
f000206c:	e59530b4 	ldr	r3, [r5, #180]	; 0xb4
f0002070:	e1e038a3 	mvn	r3, r3, lsr #17
f0002074:	e1e03883 	mvn	r3, r3, lsl #17
f0002078:	e58530b4 	str	r3, [r5, #180]	; 0xb4
f000207c:	eb000074 	bl	f0002254 <DRAMC_clock_output_en>
f0002080:	eb00015d 	bl	f00025fc <mctl_ddr3_reset>
f0002084:	e3a00010 	mov	r0, #16
f0002088:	ebfffe24 	bl	f0001920 <standby_delay>
f000208c:	e5953000 	ldr	r3, [r5]
f0002090:	e3530000 	cmp	r3, #0
f0002094:	bafffffc 	blt	f000208c <DRAMC_retraining+0x100>
f0002098:	e1a00008 	mov	r0, r8
f000209c:	eb00010b 	bl	f00024d0 <mctl_enable_dllx>
f00020a0:	e59d3004 	ldr	r3, [sp, #4]
f00020a4:	e59d1018 	ldr	r1, [sp, #24]
f00020a8:	e59d2014 	ldr	r2, [sp, #20]
f00020ac:	e5843008 	str	r3, [r4, #8]
f00020b0:	e584b010 	str	fp, [r4, #16]
f00020b4:	e59d3010 	ldr	r3, [sp, #16]
f00020b8:	e5849014 	str	r9, [r4, #20]
f00020bc:	e584a018 	str	sl, [r4, #24]
f00020c0:	e584101c 	str	r1, [r4, #28]
f00020c4:	e58421f0 	str	r2, [r4, #496]	; 0x1f0
f00020c8:	e59d100c 	ldr	r1, [sp, #12]
f00020cc:	e59d2008 	ldr	r2, [sp, #8]
f00020d0:	e58431f4 	str	r3, [r4, #500]	; 0x1f4
f00020d4:	e58411f8 	str	r1, [r4, #504]	; 0x1f8
f00020d8:	e58421fc 	str	r2, [r4, #508]	; 0x1fc
f00020dc:	e5943000 	ldr	r3, [r4]
f00020e0:	e3833102 	orr	r3, r3, #-2147483648	; 0x80000000
f00020e4:	e5843000 	str	r3, [r4]
f00020e8:	e5953000 	ldr	r3, [r5]
f00020ec:	e3530000 	cmp	r3, #0
f00020f0:	bafffffc 	blt	f00020e8 <DRAMC_retraining+0x15c>
f00020f4:	e3a03000 	mov	r3, #0
f00020f8:	e3a00801 	mov	r0, #65536	; 0x10000
f00020fc:	e584323c 	str	r3, [r4, #572]	; 0x23c
f0002100:	ebfffe06 	bl	f0001920 <standby_delay>
f0002104:	eb000018 	bl	f000216c <mctl_itm_enable>
f0002108:	eb000043 	bl	f000221c <DRAMC_scan_readpipe>
f000210c:	e1a06000 	mov	r6, r0
f0002110:	eb000032 	bl	f00021e0 <mctl_configure_hostport>
f0002114:	e3560000 	cmp	r6, #0
f0002118:	1affffc9 	bne	f0002044 <DRAMC_retraining+0xb8>
f000211c:	e1a00006 	mov	r0, r6
f0002120:	e28dd024 	add	sp, sp, #36	; 0x24
f0002124:	e8bd8ff0 	pop	{r4, r5, r6, r7, r8, r9, sl, fp, pc}
f0002128:	f1c01000 	undefined instruction 0xf1c01000

f000212c <dram_power_up_process>:
f000212c:	eaffff96 	b	f0001f8c <DRAMC_retraining>

f0002130 <mctl_set_drive>:
f0002130:	e59f2014 	ldr	r2, [pc, #20]	; f000214c <mctl_set_drive+0x1c>
f0002134:	e5923230 	ldr	r3, [r2, #560]	; 0x230
f0002138:	e3833c6f 	orr	r3, r3, #28416	; 0x6f00
f000213c:	e38330fc 	orr	r3, r3, #252	; 0xfc
f0002140:	e3c33003 	bic	r3, r3, #3
f0002144:	e5823230 	str	r3, [r2, #560]	; 0x230
f0002148:	e12fff1e 	bx	lr
f000214c:	f1c01000 	undefined instruction 0xf1c01000

f0002150 <mctl_itm_disable>:
f0002150:	e59f3010 	ldr	r3, [pc, #16]	; f0002168 <mctl_itm_disable+0x18>
f0002154:	e5932000 	ldr	r2, [r3]
f0002158:	e3822201 	orr	r2, r2, #268435456	; 0x10000000
f000215c:	e3c22102 	bic	r2, r2, #-2147483648	; 0x80000000
f0002160:	e5832000 	str	r2, [r3]
f0002164:	e12fff1e 	bx	lr
f0002168:	f1c01000 	undefined instruction 0xf1c01000

f000216c <mctl_itm_enable>:
f000216c:	e59f300c 	ldr	r3, [pc, #12]	; f0002180 <mctl_itm_enable+0x14>
f0002170:	e5932000 	ldr	r2, [r3]
f0002174:	e3c22201 	bic	r2, r2, #268435456	; 0x10000000
f0002178:	e5832000 	str	r2, [r3]
f000217c:	e12fff1e 	bx	lr
f0002180:	f1c01000 	undefined instruction 0xf1c01000

f0002184 <mctl_disable_dll>:
f0002184:	e59f3050 	ldr	r3, [pc, #80]	; f00021dc <mctl_disable_dll+0x58>
f0002188:	e5932204 	ldr	r2, [r3, #516]	; 0x204
f000218c:	e3c22101 	bic	r2, r2, #1073741824	; 0x40000000
f0002190:	e3822102 	orr	r2, r2, #-2147483648	; 0x80000000
f0002194:	e5832204 	str	r2, [r3, #516]	; 0x204
f0002198:	e5932208 	ldr	r2, [r3, #520]	; 0x208
f000219c:	e3c22101 	bic	r2, r2, #1073741824	; 0x40000000
f00021a0:	e3822102 	orr	r2, r2, #-2147483648	; 0x80000000
f00021a4:	e5832208 	str	r2, [r3, #520]	; 0x208
f00021a8:	e593220c 	ldr	r2, [r3, #524]	; 0x20c
f00021ac:	e3c22101 	bic	r2, r2, #1073741824	; 0x40000000
f00021b0:	e3822102 	orr	r2, r2, #-2147483648	; 0x80000000
f00021b4:	e583220c 	str	r2, [r3, #524]	; 0x20c
f00021b8:	e5932210 	ldr	r2, [r3, #528]	; 0x210
f00021bc:	e3c22101 	bic	r2, r2, #1073741824	; 0x40000000
f00021c0:	e3822102 	orr	r2, r2, #-2147483648	; 0x80000000
f00021c4:	e5832210 	str	r2, [r3, #528]	; 0x210
f00021c8:	e5932214 	ldr	r2, [r3, #532]	; 0x214
f00021cc:	e3c22101 	bic	r2, r2, #1073741824	; 0x40000000
f00021d0:	e3822102 	orr	r2, r2, #-2147483648	; 0x80000000
f00021d4:	e5832214 	str	r2, [r3, #532]	; 0x214
f00021d8:	e12fff1e 	bx	lr
f00021dc:	f1c01000 	undefined instruction 0xf1c01000

f00021e0 <mctl_configure_hostport>:
f00021e0:	e59f1024 	ldr	r1, [pc, #36]	; f000220c <mctl_configure_hostport+0x2c>
f00021e4:	e3a03000 	mov	r3, #0
f00021e8:	e59f2020 	ldr	r2, [pc, #32]	; f0002210 <mctl_configure_hostport+0x30>
f00021ec:	e1a0c103 	lsl	ip, r3, #2
f00021f0:	e7910103 	ldr	r0, [r1, r3, lsl #2]
f00021f4:	e2833001 	add	r3, r3, #1
f00021f8:	e08c2002 	add	r2, ip, r2
f00021fc:	e3530020 	cmp	r3, #32
f0002200:	e5820000 	str	r0, [r2]
f0002204:	1afffff7 	bne	f00021e8 <mctl_configure_hostport+0x8>
f0002208:	e12fff1e 	bx	lr
f000220c:	f0002994 	undefined instruction 0xf0002994
f0002210:	f1c01250 	undefined instruction 0xf1c01250

f0002214 <DRAMC_exit>:
f0002214:	e3a00000 	mov	r0, #0
f0002218:	e12fff1e 	bx	lr

f000221c <DRAMC_scan_readpipe>:
f000221c:	e59f302c 	ldr	r3, [pc, #44]	; f0002250 <DRAMC_scan_readpipe+0x34>
f0002220:	e1a01003 	mov	r1, r3
f0002224:	e5932000 	ldr	r2, [r3]
f0002228:	e3822101 	orr	r2, r2, #1073741824	; 0x40000000
f000222c:	e5832000 	str	r2, [r3]
f0002230:	e5913000 	ldr	r3, [r1]
f0002234:	e3130101 	tst	r3, #1073741824	; 0x40000000
f0002238:	1afffffc 	bne	f0002230 <DRAMC_scan_readpipe+0x14>
f000223c:	e59f300c 	ldr	r3, [pc, #12]	; f0002250 <DRAMC_scan_readpipe+0x34>
f0002240:	e593000c 	ldr	r0, [r3, #12]
f0002244:	e2100601 	ands	r0, r0, #1048576	; 0x100000
f0002248:	13e00000 	mvnne	r0, #0
f000224c:	e12fff1e 	bx	lr
f0002250:	f1c01000 	undefined instruction 0xf1c01000

f0002254 <DRAMC_clock_output_en>:
f0002254:	e59f3018 	ldr	r3, [pc, #24]	; f0002274 <DRAMC_clock_output_en+0x20>
f0002258:	e3500000 	cmp	r0, #0
f000225c:	e59f2010 	ldr	r2, [pc, #16]	; f0002274 <DRAMC_clock_output_en+0x20>
f0002260:	e5933230 	ldr	r3, [r3, #560]	; 0x230
f0002264:	13833801 	orrne	r3, r3, #65536	; 0x10000
f0002268:	03c33801 	biceq	r3, r3, #65536	; 0x10000
f000226c:	e5823230 	str	r3, [r2, #560]	; 0x230
f0002270:	e12fff1e 	bx	lr
f0002274:	f1c01000 	undefined instruction 0xf1c01000

f0002278 <DRAMC_set_autorefresh_cycle>:
f0002278:	e3013f33 	movw	r3, #7987	; 0x1f33
f000227c:	e3a02009 	mov	r2, #9
f0002280:	e59f101c 	ldr	r1, [pc, #28]	; f00022a4 <DRAMC_set_autorefresh_cycle+0x2c>
f0002284:	e0030093 	mul	r3, r3, r0
f0002288:	e1a03523 	lsr	r3, r3, #10
f000228c:	e0020392 	mul	r2, r2, r3
f0002290:	e59f3010 	ldr	r3, [pc, #16]	; f00022a8 <DRAMC_set_autorefresh_cycle+0x30>
f0002294:	e24220c8 	sub	r2, r2, #200	; 0xc8
f0002298:	e1812402 	orr	r2, r1, r2, lsl #8
f000229c:	e5832010 	str	r2, [r3, #16]
f00022a0:	e12fff1e 	bx	lr
f00022a4:	08000083 	stmdaeq	r0, {r0, r1, r7}
f00022a8:	f1c01000 	undefined instruction 0xf1c01000

f00022ac <DRAMC_get_dram_size>:
f00022ac:	e59f3068 	ldr	r3, [pc, #104]	; f000231c <DRAMC_get_dram_size+0x70>
f00022b0:	e5933004 	ldr	r3, [r3, #4]
f00022b4:	e7e201d3 	ubfx	r0, r3, #3, #3
f00022b8:	e3500000 	cmp	r0, #0
f00022bc:	02800020 	addeq	r0, r0, #32
f00022c0:	0a00000b 	beq	f00022f4 <DRAMC_get_dram_size+0x48>
f00022c4:	e3500001 	cmp	r0, #1
f00022c8:	0280003f 	addeq	r0, r0, #63	; 0x3f
f00022cc:	0a000008 	beq	f00022f4 <DRAMC_get_dram_size+0x48>
f00022d0:	e3500002 	cmp	r0, #2
f00022d4:	0280007e 	addeq	r0, r0, #126	; 0x7e
f00022d8:	0a000005 	beq	f00022f4 <DRAMC_get_dram_size+0x48>
f00022dc:	e3500003 	cmp	r0, #3
f00022e0:	028000fd 	addeq	r0, r0, #253	; 0xfd
f00022e4:	0a000002 	beq	f00022f4 <DRAMC_get_dram_size+0x48>
f00022e8:	e3500004 	cmp	r0, #4
f00022ec:	03a00c02 	moveq	r0, #512	; 0x200
f00022f0:	13a00b01 	movne	r0, #1024	; 0x400
f00022f4:	e7e120d3 	ubfx	r2, r3, #1, #2
f00022f8:	e3520001 	cmp	r2, #1
f00022fc:	e7e22353 	ubfx	r2, r3, #6, #3
f0002300:	01a00080 	lsleq	r0, r0, #1
f0002304:	e3520003 	cmp	r2, #3
f0002308:	e7e13553 	ubfx	r3, r3, #10, #2
f000230c:	01a00080 	lsleq	r0, r0, #1
f0002310:	e3530001 	cmp	r3, #1
f0002314:	01a00080 	lsleq	r0, r0, #1
f0002318:	e12fff1e 	bx	lr
f000231c:	f1c01000 	undefined instruction 0xf1c01000

f0002320 <dram_init>:
f0002320:	e3a00000 	mov	r0, #0
f0002324:	e12fff1e 	bx	lr

f0002328 <dram_exit>:
f0002328:	e3a00000 	mov	r0, #0
f000232c:	e12fff1e 	bx	lr

f0002330 <dram_get_size>:
f0002330:	eaffffdd 	b	f00022ac <DRAMC_get_dram_size>

f0002334 <dram_set_drive>:
f0002334:	e59f2014 	ldr	r2, [pc, #20]	; f0002350 <dram_set_drive+0x1c>
f0002338:	e5923230 	ldr	r3, [r2, #560]	; 0x230
f000233c:	e3833c6f 	orr	r3, r3, #28416	; 0x6f00
f0002340:	e38330fc 	orr	r3, r3, #252	; 0xfc
f0002344:	e3c33003 	bic	r3, r3, #3
f0002348:	e5823230 	str	r3, [r2, #560]	; 0x230
f000234c:	e12fff1e 	bx	lr
f0002350:	f1c01000 	undefined instruction 0xf1c01000

f0002354 <dram_set_autorefresh_cycle>:
f0002354:	e3013f33 	movw	r3, #7987	; 0x1f33
f0002358:	e3a02009 	mov	r2, #9
f000235c:	e59f101c 	ldr	r1, [pc, #28]	; f0002380 <dram_set_autorefresh_cycle+0x2c>
f0002360:	e0030093 	mul	r3, r3, r0
f0002364:	e1a03523 	lsr	r3, r3, #10
f0002368:	e0020392 	mul	r2, r2, r3
f000236c:	e59f3010 	ldr	r3, [pc, #16]	; f0002384 <dram_set_autorefresh_cycle+0x30>
f0002370:	e24220c8 	sub	r2, r2, #200	; 0xc8
f0002374:	e1812402 	orr	r2, r1, r2, lsl #8
f0002378:	e5832010 	str	r2, [r3, #16]
f000237c:	e12fff1e 	bx	lr
f0002380:	08000083 	stmdaeq	r0, {r0, r1, r7}
f0002384:	f1c01000 	undefined instruction 0xf1c01000

f0002388 <dram_scan_readpipe>:
f0002388:	e59f302c 	ldr	r3, [pc, #44]	; f00023bc <dram_scan_readpipe+0x34>
f000238c:	e1a01003 	mov	r1, r3
f0002390:	e5932000 	ldr	r2, [r3]
f0002394:	e3822101 	orr	r2, r2, #1073741824	; 0x40000000
f0002398:	e5832000 	str	r2, [r3]
f000239c:	e5913000 	ldr	r3, [r1]
f00023a0:	e3130101 	tst	r3, #1073741824	; 0x40000000
f00023a4:	1afffffc 	bne	f000239c <dram_scan_readpipe+0x14>
f00023a8:	e59f300c 	ldr	r3, [pc, #12]	; f00023bc <dram_scan_readpipe+0x34>
f00023ac:	e593000c 	ldr	r0, [r3, #12]
f00023b0:	e2100601 	ands	r0, r0, #1048576	; 0x100000
f00023b4:	13e00000 	mvnne	r0, #0
f00023b8:	e12fff1e 	bx	lr
f00023bc:	f1c01000 	undefined instruction 0xf1c01000

f00023c0 <mctl_setup_dram_clock>:
f00023c0:	e59f30fc 	ldr	r3, [pc, #252]	; f00024c4 <mctl_setup_dram_clock+0x104>
f00023c4:	e3a01000 	mov	r1, #0
f00023c8:	e92d4ff1 	push	{r0, r4, r5, r6, r7, r8, r9, sl, fp, lr}
f00023cc:	e3a04018 	mov	r4, #24
f00023d0:	e593c020 	ldr	ip, [r3, #32]
f00023d4:	e3a05000 	mov	r5, #0
f00023d8:	e0944004 	adds	r4, r4, r4
f00023dc:	e2811001 	add	r1, r1, #1
f00023e0:	e0a55005 	adc	r5, r5, r5
f00023e4:	e351003b 	cmp	r1, #59	; 0x3b
f00023e8:	1afffffa 	bne	f00023d8 <mctl_setup_dram_clock+0x18>
f00023ec:	e1a06000 	mov	r6, r0
f00023f0:	e3a07000 	mov	r7, #0
f00023f4:	e3a02000 	mov	r2, #0
f00023f8:	e3a03000 	mov	r3, #0
f00023fc:	e3a08001 	mov	r8, #1
f0002400:	e3a09000 	mov	r9, #0
f0002404:	e1550007 	cmp	r5, r7
f0002408:	8a000009 	bhi	f0002434 <mctl_setup_dram_clock+0x74>
f000240c:	1a000001 	bne	f0002418 <mctl_setup_dram_clock+0x58>
f0002410:	e1540006 	cmp	r4, r6
f0002414:	8a000006 	bhi	f0002434 <mctl_setup_dram_clock+0x74>
f0002418:	e092a002 	adds	sl, r2, r2
f000241c:	e0a3b003 	adc	fp, r3, r3
f0002420:	e18a2008 	orr	r2, sl, r8
f0002424:	e0566004 	subs	r6, r6, r4
f0002428:	e0c77005 	sbc	r7, r7, r5
f000242c:	e18b3009 	orr	r3, fp, r9
f0002430:	ea000001 	b	f000243c <mctl_setup_dram_clock+0x7c>
f0002434:	e0922002 	adds	r2, r2, r2
f0002438:	e0a33003 	adc	r3, r3, r3
f000243c:	e2511001 	subs	r1, r1, #1
f0002440:	4a000002 	bmi	f0002450 <mctl_setup_dram_clock+0x90>
f0002444:	e1b050a5 	lsrs	r5, r5, #1
f0002448:	e1a04064 	rrx	r4, r4
f000244c:	eaffffec 	b	f0002404 <mctl_setup_dram_clock+0x44>
f0002450:	e3cc1033 	bic	r1, ip, #51	; 0x33
f0002454:	e202201f 	and	r2, r2, #31
f0002458:	e3813011 	orr	r3, r1, #17
f000245c:	e59f4060 	ldr	r4, [pc, #96]	; f00024c4 <mctl_setup_dram_clock+0x104>
f0002460:	e3c33c1f 	bic	r3, r3, #7936	; 0x1f00
f0002464:	e3a00601 	mov	r0, #1048576	; 0x100000
f0002468:	e1833402 	orr	r3, r3, r2, lsl #8
f000246c:	e3c33803 	bic	r3, r3, #196608	; 0x30000
f0002470:	e3833801 	orr	r3, r3, #65536	; 0x10000
f0002474:	e3c33202 	bic	r3, r3, #536870912	; 0x20000000
f0002478:	e3833102 	orr	r3, r3, #-2147483648	; 0x80000000
f000247c:	e5843020 	str	r3, [r4, #32]
f0002480:	ebfffd26 	bl	f0001920 <standby_delay>
f0002484:	e5943020 	ldr	r3, [r4, #32]
f0002488:	e3a00a01 	mov	r0, #4096	; 0x1000
f000248c:	e3833202 	orr	r3, r3, #536870912	; 0x20000000
f0002490:	e5843020 	str	r3, [r4, #32]
f0002494:	e59f302c 	ldr	r3, [pc, #44]	; f00024c8 <mctl_setup_dram_clock+0x108>
f0002498:	e584315c 	str	r3, [r4, #348]	; 0x15c
f000249c:	e5945060 	ldr	r5, [r4, #96]	; 0x60
f00024a0:	e3c55903 	bic	r5, r5, #49152	; 0xc000
f00024a4:	e5845060 	str	r5, [r4, #96]	; 0x60
f00024a8:	ebfffd1c 	bl	f0001920 <standby_delay>
f00024ac:	e3855903 	orr	r5, r5, #49152	; 0xc000
f00024b0:	e3a00a01 	mov	r0, #4096	; 0x1000
f00024b4:	e5845060 	str	r5, [r4, #96]	; 0x60
f00024b8:	e28dd004 	add	sp, sp, #4
f00024bc:	e8bd4ff0 	pop	{r4, r5, r6, r7, r8, r9, sl, fp, lr}
f00024c0:	eafffd16 	b	f0001920 <standby_delay>
f00024c4:	f1c20000 	undefined instruction 0xf1c20000
f00024c8:	82000001 	andhi	r0, r0, #1

f00024cc <dram_set_clock>:
f00024cc:	eaffffbb 	b	f00023c0 <mctl_setup_dram_clock>

f00024d0 <mctl_enable_dllx>:
f00024d0:	e59f30c8 	ldr	r3, [pc, #200]	; f00025a0 <mctl_enable_dllx+0xd0>
f00024d4:	e3a02001 	mov	r2, #1
f00024d8:	e92d4010 	push	{r4, lr}
f00024dc:	e5934004 	ldr	r4, [r3, #4]
f00024e0:	e7e24354 	ubfx	r4, r4, #6, #3
f00024e4:	e3540003 	cmp	r4, #3
f00024e8:	03a04005 	moveq	r4, #5
f00024ec:	13a04003 	movne	r4, #3
f00024f0:	e59f30ac 	ldr	r3, [pc, #172]	; f00025a4 <mctl_enable_dllx+0xd4>
f00024f4:	e1a01102 	lsl	r1, r2, #2
f00024f8:	e200c00f 	and	ip, r0, #15
f00024fc:	e2822001 	add	r2, r2, #1
f0002500:	e0813003 	add	r3, r1, r3
f0002504:	e1520004 	cmp	r2, r4
f0002508:	e1a00220 	lsr	r0, r0, #4
f000250c:	e5931000 	ldr	r1, [r3]
f0002510:	e3c1190f 	bic	r1, r1, #245760	; 0x3c000
f0002514:	e181170c 	orr	r1, r1, ip, lsl #14
f0002518:	e5831000 	str	r1, [r3]
f000251c:	e5931000 	ldr	r1, [r3]
f0002520:	e3c11103 	bic	r1, r1, #-1073741824	; 0xc0000000
f0002524:	e3811102 	orr	r1, r1, #-2147483648	; 0x80000000
f0002528:	e5831000 	str	r1, [r3]
f000252c:	3affffef 	bcc	f00024f0 <mctl_enable_dllx+0x20>
f0002530:	e3a00c01 	mov	r0, #256	; 0x100
f0002534:	ebfffcf9 	bl	f0001920 <standby_delay>
f0002538:	e3a03001 	mov	r3, #1
f000253c:	e59f2060 	ldr	r2, [pc, #96]	; f00025a4 <mctl_enable_dllx+0xd4>
f0002540:	e1a01103 	lsl	r1, r3, #2
f0002544:	e2833001 	add	r3, r3, #1
f0002548:	e0812002 	add	r2, r1, r2
f000254c:	e1530004 	cmp	r3, r4
f0002550:	e5921000 	ldr	r1, [r2]
f0002554:	e3c11103 	bic	r1, r1, #-1073741824	; 0xc0000000
f0002558:	e5821000 	str	r1, [r2]
f000255c:	3afffff6 	bcc	f000253c <mctl_enable_dllx+0x6c>
f0002560:	e3a00a01 	mov	r0, #4096	; 0x1000
f0002564:	ebfffced 	bl	f0001920 <standby_delay>
f0002568:	e3a03001 	mov	r3, #1
f000256c:	e59f2030 	ldr	r2, [pc, #48]	; f00025a4 <mctl_enable_dllx+0xd4>
f0002570:	e1a01103 	lsl	r1, r3, #2
f0002574:	e2833001 	add	r3, r3, #1
f0002578:	e0812002 	add	r2, r1, r2
f000257c:	e1530004 	cmp	r3, r4
f0002580:	e5921000 	ldr	r1, [r2]
f0002584:	e3c11103 	bic	r1, r1, #-1073741824	; 0xc0000000
f0002588:	e3811101 	orr	r1, r1, #1073741824	; 0x40000000
f000258c:	e5821000 	str	r1, [r2]
f0002590:	3afffff5 	bcc	f000256c <mctl_enable_dllx+0x9c>
f0002594:	e3a00a01 	mov	r0, #4096	; 0x1000
f0002598:	e8bd4010 	pop	{r4, lr}
f000259c:	eafffcdf 	b	f0001920 <standby_delay>
f00025a0:	f1c01000 	undefined instruction 0xf1c01000
f00025a4:	f1c01204 	undefined instruction 0xf1c01204

f00025a8 <mctl_enable_dll0>:
f00025a8:	e92d4010 	push	{r4, lr}
f00025ac:	e59f4044 	ldr	r4, [pc, #68]	; f00025f8 <mctl_enable_dll0+0x50>
f00025b0:	e3a00c01 	mov	r0, #256	; 0x100
f00025b4:	e5943204 	ldr	r3, [r4, #516]	; 0x204
f00025b8:	e3c33103 	bic	r3, r3, #-1073741824	; 0xc0000000
f00025bc:	e3833102 	orr	r3, r3, #-2147483648	; 0x80000000
f00025c0:	e5843204 	str	r3, [r4, #516]	; 0x204
f00025c4:	ebfffcd5 	bl	f0001920 <standby_delay>
f00025c8:	e5943204 	ldr	r3, [r4, #516]	; 0x204
f00025cc:	e3a00a01 	mov	r0, #4096	; 0x1000
f00025d0:	e3c33103 	bic	r3, r3, #-1073741824	; 0xc0000000
f00025d4:	e5843204 	str	r3, [r4, #516]	; 0x204
f00025d8:	ebfffcd0 	bl	f0001920 <standby_delay>
f00025dc:	e5943204 	ldr	r3, [r4, #516]	; 0x204
f00025e0:	e3a00a01 	mov	r0, #4096	; 0x1000
f00025e4:	e3c33103 	bic	r3, r3, #-1073741824	; 0xc0000000
f00025e8:	e3833101 	orr	r3, r3, #1073741824	; 0x40000000
f00025ec:	e5843204 	str	r3, [r4, #516]	; 0x204
f00025f0:	e8bd4010 	pop	{r4, lr}
f00025f4:	eafffcc9 	b	f0001920 <standby_delay>
f00025f8:	f1c01000 	undefined instruction 0xf1c01000

f00025fc <mctl_ddr3_reset>:
f00025fc:	e92d4010 	push	{r4, lr}
f0002600:	e59f4020 	ldr	r4, [pc, #32]	; f0002628 <mctl_ddr3_reset+0x2c>
f0002604:	e3a00c01 	mov	r0, #256	; 0x100
f0002608:	e5943230 	ldr	r3, [r4, #560]	; 0x230
f000260c:	e3c33a01 	bic	r3, r3, #4096	; 0x1000
f0002610:	e5843230 	str	r3, [r4, #560]	; 0x230
f0002614:	ebfffcc1 	bl	f0001920 <standby_delay>
f0002618:	e5943230 	ldr	r3, [r4, #560]	; 0x230
f000261c:	e3833a01 	orr	r3, r3, #4096	; 0x1000
f0002620:	e5843230 	str	r3, [r4, #560]	; 0x230
f0002624:	e8bd8010 	pop	{r4, pc}
f0002628:	f1c01000 	undefined instruction 0xf1c01000

f000262c <DRAMC_init>:
f000262c:	e92d41f0 	push	{r4, r5, r6, r7, r8, lr}
f0002630:	e2504000 	subs	r4, r0, #0
f0002634:	03e00000 	mvneq	r0, #0
f0002638:	08bd81f0 	popeq	{r4, r5, r6, r7, r8, pc}
f000263c:	e5940004 	ldr	r0, [r4, #4]
f0002640:	ebffff5e 	bl	f00023c0 <mctl_setup_dram_clock>
f0002644:	e59f3248 	ldr	r3, [pc, #584]	; f0002894 <DRAMC_init+0x268>
f0002648:	e3a02000 	mov	r2, #0
f000264c:	e583223c 	str	r2, [r3, #572]	; 0x23c
f0002650:	e5932230 	ldr	r2, [r3, #560]	; 0x230
f0002654:	e3822c6f 	orr	r2, r2, #28416	; 0x6f00
f0002658:	e38220fc 	orr	r2, r2, #252	; 0xfc
f000265c:	e3c22003 	bic	r2, r2, #3
f0002660:	e5832230 	str	r2, [r3, #560]	; 0x230
f0002664:	e5932230 	ldr	r2, [r3, #560]	; 0x230
f0002668:	e3c22801 	bic	r2, r2, #65536	; 0x10000
f000266c:	e5832230 	str	r2, [r3, #560]	; 0x230
f0002670:	e5932000 	ldr	r2, [r3]
f0002674:	e3822201 	orr	r2, r2, #268435456	; 0x10000000
f0002678:	e3c22102 	bic	r2, r2, #-2147483648	; 0x80000000
f000267c:	e5832000 	str	r2, [r3]
f0002680:	ebffffc8 	bl	f00025a8 <mctl_enable_dll0>
f0002684:	e5943014 	ldr	r3, [r4, #20]
f0002688:	e5941008 	ldr	r1, [r4, #8]
f000268c:	e5942010 	ldr	r2, [r4, #16]
f0002690:	e3510003 	cmp	r1, #3
f0002694:	13a01000 	movne	r1, #0
f0002698:	03a01001 	moveq	r1, #1
f000269c:	e1a031a3 	lsr	r3, r3, #3
f00026a0:	e3520c01 	cmp	r2, #256	; 0x100
f00026a4:	e1813083 	orr	r3, r1, r3, lsl #1
f00026a8:	0a00000d 	beq	f00026e4 <DRAMC_init+0xb8>
f00026ac:	e3520c02 	cmp	r2, #512	; 0x200
f00026b0:	03833008 	orreq	r3, r3, #8
f00026b4:	0a00000a 	beq	f00026e4 <DRAMC_init+0xb8>
f00026b8:	e3520b01 	cmp	r2, #1024	; 0x400
f00026bc:	03833010 	orreq	r3, r3, #16
f00026c0:	0a000007 	beq	f00026e4 <DRAMC_init+0xb8>
f00026c4:	e3520b02 	cmp	r2, #2048	; 0x800
f00026c8:	03833018 	orreq	r3, r3, #24
f00026cc:	0a000004 	beq	f00026e4 <DRAMC_init+0xb8>
f00026d0:	e3520a01 	cmp	r2, #4096	; 0x1000
f00026d4:	03833020 	orreq	r3, r3, #32
f00026d8:	0a000001 	beq	f00026e4 <DRAMC_init+0xb8>
f00026dc:	e3520a02 	cmp	r2, #8192	; 0x2000
f00026e0:	03833028 	orreq	r3, r3, #40	; 0x28
f00026e4:	e594200c 	ldr	r2, [r4, #12]
f00026e8:	e5941018 	ldr	r1, [r4, #24]
f00026ec:	e2422001 	sub	r2, r2, #1
f00026f0:	e59f619c 	ldr	r6, [pc, #412]	; f0002894 <DRAMC_init+0x268>
f00026f4:	e1a011a1 	lsr	r1, r1, #3
f00026f8:	e1a02502 	lsl	r2, r2, #10
f00026fc:	e2411001 	sub	r1, r1, #1
f0002700:	e3822a03 	orr	r2, r2, #12288	; 0x3000
f0002704:	e1822301 	orr	r2, r2, r1, lsl #6
f0002708:	e1823003 	orr	r3, r2, r3
f000270c:	e5863004 	str	r3, [r6, #4]
f0002710:	e5943020 	ldr	r3, [r4, #32]
f0002714:	e20310ff 	and	r1, r3, #255	; 0xff
f0002718:	e7f32453 	ubfx	r2, r3, #8, #20
f000271c:	e203320f 	and	r3, r3, #-268435456	; 0xf0000000
f0002720:	e1822a01 	orr	r2, r2, r1, lsl #20
f0002724:	e1823003 	orr	r3, r2, r3
f0002728:	e58630a8 	str	r3, [r6, #168]	; 0xa8
f000272c:	e59650b4 	ldr	r5, [r6, #180]	; 0xb4
f0002730:	e1e058a5 	mvn	r5, r5, lsr #17
f0002734:	e1e05885 	mvn	r5, r5, lsl #17
f0002738:	e58650b4 	str	r5, [r6, #180]	; 0xb4
f000273c:	e5963230 	ldr	r3, [r6, #560]	; 0x230
f0002740:	e3833801 	orr	r3, r3, #65536	; 0x10000
f0002744:	e5863230 	str	r3, [r6, #560]	; 0x230
f0002748:	ebffffab 	bl	f00025fc <mctl_ddr3_reset>
f000274c:	e3a00010 	mov	r0, #16
f0002750:	ebfffc72 	bl	f0001920 <standby_delay>
f0002754:	e5963000 	ldr	r3, [r6]
f0002758:	e59f7134 	ldr	r7, [pc, #308]	; f0002894 <DRAMC_init+0x268>
f000275c:	e3530000 	cmp	r3, #0
f0002760:	bafffffb 	blt	f0002754 <DRAMC_init+0x128>
f0002764:	e5940038 	ldr	r0, [r4, #56]	; 0x38
f0002768:	ebffff58 	bl	f00024d0 <mctl_enable_dllx>
f000276c:	e5942004 	ldr	r2, [r4, #4]
f0002770:	e3013f33 	movw	r3, #7987	; 0x1f33
f0002774:	e0030392 	mul	r3, r2, r3
f0002778:	e3a02009 	mov	r2, #9
f000277c:	e1a03523 	lsr	r3, r3, #10
f0002780:	e0030392 	mul	r3, r2, r3
f0002784:	e24330c8 	sub	r3, r3, #200	; 0xc8
f0002788:	e1a03403 	lsl	r3, r3, #8
f000278c:	e3833302 	orr	r3, r3, #134217728	; 0x8000000
f0002790:	e3833083 	orr	r3, r3, #131	; 0x83
f0002794:	e5873010 	str	r3, [r7, #16]
f0002798:	e594302c 	ldr	r3, [r4, #44]	; 0x2c
f000279c:	e5873014 	str	r3, [r7, #20]
f00027a0:	e5943030 	ldr	r3, [r4, #48]	; 0x30
f00027a4:	e5873018 	str	r3, [r7, #24]
f00027a8:	e5943034 	ldr	r3, [r4, #52]	; 0x34
f00027ac:	e587301c 	str	r3, [r7, #28]
f00027b0:	e5943008 	ldr	r3, [r4, #8]
f00027b4:	e3530003 	cmp	r3, #3
f00027b8:	0594501c 	ldreq	r5, [r4, #28]
f00027bc:	02455004 	subeq	r5, r5, #4
f00027c0:	01a05205 	lsleq	r5, r5, #4
f00027c4:	03855c1a 	orreq	r5, r5, #6656	; 0x1a00
f00027c8:	0a000004 	beq	f00027e0 <DRAMC_init+0x1b4>
f00027cc:	e3530002 	cmp	r3, #2
f00027d0:	0594501c 	ldreq	r5, [r4, #28]
f00027d4:	01a05205 	lsleq	r5, r5, #4
f00027d8:	03855c0a 	orreq	r5, r5, #2560	; 0xa00
f00027dc:	03855002 	orreq	r5, r5, #2
f00027e0:	e59f30ac 	ldr	r3, [pc, #172]	; f0002894 <DRAMC_init+0x268>
f00027e4:	e1a01003 	mov	r1, r3
f00027e8:	e58351f0 	str	r5, [r3, #496]	; 0x1f0
f00027ec:	e5942044 	ldr	r2, [r4, #68]	; 0x44
f00027f0:	e58321f4 	str	r2, [r3, #500]	; 0x1f4
f00027f4:	e5942048 	ldr	r2, [r4, #72]	; 0x48
f00027f8:	e58321f8 	str	r2, [r3, #504]	; 0x1f8
f00027fc:	e594204c 	ldr	r2, [r4, #76]	; 0x4c
f0002800:	e58321fc 	str	r2, [r3, #508]	; 0x1fc
f0002804:	e5932000 	ldr	r2, [r3]
f0002808:	e3822901 	orr	r2, r2, #16384	; 0x4000
f000280c:	e3c22802 	bic	r2, r2, #131072	; 0x20000
f0002810:	e5832000 	str	r2, [r3]
f0002814:	e5932000 	ldr	r2, [r3]
f0002818:	e3822102 	orr	r2, r2, #-2147483648	; 0x80000000
f000281c:	e5832000 	str	r2, [r3]
f0002820:	e5912000 	ldr	r2, [r1]
f0002824:	e59f3068 	ldr	r3, [pc, #104]	; f0002894 <DRAMC_init+0x268>
f0002828:	e3520000 	cmp	r2, #0
f000282c:	bafffffb 	blt	f0002820 <DRAMC_init+0x1f4>
f0002830:	e5932000 	ldr	r2, [r3]
f0002834:	e1a01003 	mov	r1, r3
f0002838:	e3c22201 	bic	r2, r2, #268435456	; 0x10000000
f000283c:	e5832000 	str	r2, [r3]
f0002840:	e5932000 	ldr	r2, [r3]
f0002844:	e3822101 	orr	r2, r2, #1073741824	; 0x40000000
f0002848:	e5832000 	str	r2, [r3]
f000284c:	e5910000 	ldr	r0, [r1]
f0002850:	e2100101 	ands	r0, r0, #1073741824	; 0x40000000
f0002854:	1afffffc 	bne	f000284c <DRAMC_init+0x220>
f0002858:	e59f3034 	ldr	r3, [pc, #52]	; f0002894 <DRAMC_init+0x268>
f000285c:	e593300c 	ldr	r3, [r3, #12]
f0002860:	e2133601 	ands	r3, r3, #1048576	; 0x100000
f0002864:	18bd81f0 	popne	{r4, r5, r6, r7, r8, pc}
f0002868:	e59f1028 	ldr	r1, [pc, #40]	; f0002898 <DRAMC_init+0x26c>
f000286c:	e59f2028 	ldr	r2, [pc, #40]	; f000289c <DRAMC_init+0x270>
f0002870:	e1a0c103 	lsl	ip, r3, #2
f0002874:	e7910103 	ldr	r0, [r1, r3, lsl #2]
f0002878:	e2833001 	add	r3, r3, #1
f000287c:	e08c2002 	add	r2, ip, r2
f0002880:	e3530020 	cmp	r3, #32
f0002884:	e5820000 	str	r0, [r2]
f0002888:	1afffff7 	bne	f000286c <DRAMC_init+0x240>
f000288c:	e8bd41f0 	pop	{r4, r5, r6, r7, r8, lr}
f0002890:	eafffe85 	b	f00022ac <DRAMC_get_dram_size>
f0002894:	f1c01000 	undefined instruction 0xf1c01000
f0002898:	f0002994 	undefined instruction 0xf0002994
f000289c:	f1c01250 	undefined instruction 0xf1c01250

Disassembly of section .rodata:

f00028a0 <axp20_ldo4_data>:
f00028a0:	000004e2 	andeq	r0, r0, r2, ror #9
f00028a4:	00000514 	andeq	r0, r0, r4, lsl r5
f00028a8:	00000578 	andeq	r0, r0, r8, ror r5
f00028ac:	000005dc 	ldrdeq	r0, [r0], -ip
f00028b0:	00000640 	andeq	r0, r0, r0, asr #12
f00028b4:	000006a4 	andeq	r0, r0, r4, lsr #13
f00028b8:	00000708 	andeq	r0, r0, r8, lsl #14
f00028bc:	0000076c 	andeq	r0, r0, ip, ror #14
f00028c0:	000007d0 	ldrdeq	r0, [r0], -r0
f00028c4:	000009c4 	andeq	r0, r0, r4, asr #19
f00028c8:	00000a8c 	andeq	r0, r0, ip, lsl #21
f00028cc:	00000af0 	strdeq	r0, [r0], -r0
f00028d0:	00000bb8 	undefined instruction 0x00000bb8
f00028d4:	00000c1c 	andeq	r0, r0, ip, lsl ip
f00028d8:	00000c80 	andeq	r0, r0, r0, lsl #25
f00028dc:	00000ce4 	andeq	r0, r0, r4, ror #25

f00028e0 <TWI_REG_BASE>:
f00028e0:	f1c2ac00 	undefined instruction 0xf1c2ac00
f00028e4:	f1c2b000 	undefined instruction 0xf1c2b000
f00028e8:	f1c2b400 	undefined instruction 0xf1c2b400

Disassembly of section .data:

f00028ec <axp20_info>:
f00028ec:	00000003 	andeq	r0, r0, r3
f00028f0:	00000514 	andeq	r0, r0, r4, lsl r5
f00028f4:	00000514 	andeq	r0, r0, r4, lsl r5
	...
f0002908:	00000004 	andeq	r0, r0, r4
f000290c:	00000708 	andeq	r0, r0, r8, lsl #14
f0002910:	00000ce4 	andeq	r0, r0, r4, ror #25
f0002914:	00000064 	andeq	r0, r0, r4, rrx
f0002918:	00000028 	andeq	r0, r0, r8, lsr #32
f000291c:	00000004 	andeq	r0, r0, r4
f0002920:	00000004 	andeq	r0, r0, r4
f0002924:	00000005 	andeq	r0, r0, r5
f0002928:	000002bc 	undefined instruction 0x000002bc
f000292c:	00000dac 	andeq	r0, r0, ip, lsr #27
f0002930:	00000019 	andeq	r0, r0, r9, lsl r0
f0002934:	00000029 	andeq	r0, r0, r9, lsr #32
f0002938:	00000000 	andeq	r0, r0, r0
f000293c:	00000007 	andeq	r0, r0, r7
f0002940:	00000006 	andeq	r0, r0, r6
f0002944:	000004e2 	andeq	r0, r0, r2, ror #9
f0002948:	00000ce4 	andeq	r0, r0, r4, ror #25
f000294c:	00000064 	andeq	r0, r0, r4, rrx
f0002950:	00000028 	andeq	r0, r0, r8, lsr #32
f0002954:	00000000 	andeq	r0, r0, r0
f0002958:	00000004 	andeq	r0, r0, r4
f000295c:	00000001 	andeq	r0, r0, r1
f0002960:	000002bc 	undefined instruction 0x000002bc
f0002964:	000008e3 	andeq	r0, r0, r3, ror #17
f0002968:	00000019 	andeq	r0, r0, r9, lsl r0
f000296c:	00000023 	andeq	r0, r0, r3, lsr #32
f0002970:	00000000 	andeq	r0, r0, r0
f0002974:	00000006 	andeq	r0, r0, r6
f0002978:	00000002 	andeq	r0, r0, r2
f000297c:	000002bc 	undefined instruction 0x000002bc
f0002980:	00000dac 	andeq	r0, r0, ip, lsr #27
f0002984:	00000019 	andeq	r0, r0, r9, lsl r0
f0002988:	00000027 	andeq	r0, r0, r7, lsr #32
f000298c:	00000000 	andeq	r0, r0, r0
f0002990:	00000007 	andeq	r0, r0, r7

f0002994 <hpcr_value>:
	...
f00029d4:	00001031 	andeq	r1, r0, r1, lsr r0
f00029d8:	00001031 	andeq	r1, r0, r1, lsr r0
f00029dc:	00000735 	andeq	r0, r0, r5, lsr r7
f00029e0:	00001035 	andeq	r1, r0, r5, lsr r0
f00029e4:	00001035 	andeq	r1, r0, r5, lsr r0
f00029e8:	00000731 	andeq	r0, r0, r1, lsr r7
f00029ec:	00001031 	andeq	r1, r0, r1, lsr r0
f00029f0:	00000000 	andeq	r0, r0, r0
f00029f4:	00000301 	andeq	r0, r0, r1, lsl #6
f00029f8:	00000301 	andeq	r0, r0, r1, lsl #6
f00029fc:	00000301 	andeq	r0, r0, r1, lsl #6
f0002a00:	00000301 	andeq	r0, r0, r1, lsl #6
f0002a04:	00000301 	andeq	r0, r0, r1, lsl #6
f0002a08:	00000301 	andeq	r0, r0, r1, lsl #6
f0002a0c:	00000301 	andeq	r0, r0, r1, lsl #6
f0002a10:	00000000 	andeq	r0, r0, r0

Disassembly of section .bss:

f0002a14 <dram_traning_area_back>:
	...

f0002a54 <sp_backup>:
f0002a54:	00000000 	andeq	r0, r0, r0

f0002a58 <orig_pll>:
	...

f0002a60 <local_pll>:
	...

f0002a68 <dcdc2>:
f0002a68:	00000000 	andeq	r0, r0, r0

f0002a6c <dcdc3>:
f0002a6c:	00000000 	andeq	r0, r0, r0

f0002a70 <clk_div>:
f0002a70:	00000000 	andeq	r0, r0, r0

f0002a74 <tmp_clk_div>:
f0002a74:	00000000 	andeq	r0, r0, r0

f0002a78 <CmuReg>:
f0002a78:	00000000 	andeq	r0, r0, r0

f0002a7c <ccu_reg_back>:
	...

f0002a98 <apbclkbak>:
f0002a98:	00000000 	andeq	r0, r0, r0

f0002a9c <IntcReg>:
f0002a9c:	00000000 	andeq	r0, r0, r0

f0002aa0 <IrqEnReg>:
	...

f0002aac <IrqMaskReg>:
	...

f0002ab8 <IrqSelReg>:
	...

f0002ac4 <KeyReg>:
f0002ac4:	00000000 	andeq	r0, r0, r0

f0002ac8 <KeyCtrl>:
f0002ac8:	00000000 	andeq	r0, r0, r0

f0002acc <KeyIntc>:
f0002acc:	00000000 	andeq	r0, r0, r0

f0002ad0 <TmrReg>:
f0002ad0:	00000000 	andeq	r0, r0, r0

f0002ad4 <Tmr0IntVal>:
f0002ad4:	00000000 	andeq	r0, r0, r0

f0002ad8 <Tmr0CntVal>:
f0002ad8:	00000000 	andeq	r0, r0, r0

f0002adc <Tmr0Ctl>:
f0002adc:	00000000 	andeq	r0, r0, r0

f0002ae0 <Tmr1IntVal>:
f0002ae0:	00000000 	andeq	r0, r0, r0

f0002ae4 <Tmr1CntVal>:
f0002ae4:	00000000 	andeq	r0, r0, r0

f0002ae8 <Tmr1Ctl>:
f0002ae8:	00000000 	andeq	r0, r0, r0

f0002aec <TmrIntCtl>:
f0002aec:	00000000 	andeq	r0, r0, r0

f0002af0 <twi_reg>:
f0002af0:	00000000 	andeq	r0, r0, r0

f0002af4 <TwiClkRegBak>:
f0002af4:	00000000 	andeq	r0, r0, r0

f0002af8 <TwiCtlRegBak>:
f0002af8:	00000000 	andeq	r0, r0, r0

f0002afc <backup_perf_counter_ctrl_reg>:
f0002afc:	00000000 	andeq	r0, r0, r0

f0002b00 <backup_perf_counter_enable_reg>:
f0002b00:	00000000 	andeq	r0, r0, r0

f0002b04 <overhead>:
f0002b04:	00000000 	andeq	r0, r0, r0

f0002b08 <cpu_freq>:
f0002b08:	00000000 	andeq	r0, r0, r0

f0002b0c <pm_info>:
	...

f0002be8 <cpu_ms_loopcnt>:
f0002be8:	00000000 	andeq	r0, r0, r0

Disassembly of section .debug_abbrev:

00000000 <.debug_abbrev>:
       0:	25011101 	strcs	r1, [r1, #-257]	; 0x101
       4:	030b130e 	movweq	r1, #45838	; 0xb30e
       8:	110e1b0e 	tstne	lr, lr, lsl #22
       c:	10011201 	andne	r1, r1, r1, lsl #4
      10:	02000006 	andeq	r0, r0, #6
      14:	0e030113 	mcreq	1, 0, r0, cr3, cr3, {0}
      18:	0b3a0b0b 	bleq	e82c4c <__standby_start+0xe82c4c>
      1c:	13010b3b 	movwne	r0, #6971	; 0x1b3b
      20:	0d030000 	stceq	0, cr0, [r3]
      24:	3a0e0300 	bcc	380c2c <__standby_start+0x380c2c>
      28:	490b3b0b 	stmdbmi	fp, {r0, r1, r3, r8, r9, fp, ip, sp}
      2c:	000a3813 	andeq	r3, sl, r3, lsl r8
      30:	00240400 	eoreq	r0, r4, r0, lsl #8
      34:	0b3e0b0b 	bleq	f82c68 <__standby_start+0xf82c68>
      38:	00000e03 	andeq	r0, r0, r3, lsl #28
      3c:	0b002405 	bleq	9058 <__standby_start+0x9058>
      40:	030b3e0b 	movweq	r3, #48651	; 0xbe0b
      44:	06000008 	streq	r0, [r0], -r8
      48:	13490101 	movtne	r0, #37121	; 0x9101
      4c:	00001301 	andeq	r1, r0, r1, lsl #6
      50:	49002107 	stmdbmi	r0, {r0, r1, r2, r8, sp}
      54:	000b2f13 	andeq	r2, fp, r3, lsl pc
      58:	00240800 	eoreq	r0, r4, r0, lsl #16
      5c:	0b3e0b0b 	bleq	f82c90 <__standby_start+0xf82c90>
      60:	16090000 	strne	r0, [r9], -r0
      64:	3a0e0300 	bcc	380c6c <__standby_start+0x380c6c>
      68:	490b3b0b 	stmdbmi	fp, {r0, r1, r3, r8, r9, fp, ip, sp}
      6c:	0a000013 	beq	c0 <__standby_start+0xc0>
      70:	0e03000d 	cdpeq	0, 0, cr0, cr3, cr13, {0}
      74:	0b3b0b3a 	bleq	ec2d64 <__standby_start+0xec2d64>
      78:	0b0b1349 	bleq	2c4da4 <__standby_start+0x2c4da4>
      7c:	0b0c0b0d 	bleq	302cb8 <__standby_start+0x302cb8>
      80:	00000a38 	andeq	r0, r0, r8, lsr sl
      84:	0301040b 	movweq	r0, #5131	; 0x140b
      88:	3a0b0b0e 	bcc	2c2cc8 <__standby_start+0x2c2cc8>
      8c:	010b3b0b 	tsteq	fp, fp, lsl #22
      90:	0c000013 	stceq	0, cr0, [r0], {19}
      94:	0e030028 	cdpeq	0, 0, cr0, cr3, cr8, {1}
      98:	00000d1c 	andeq	r0, r0, ip, lsl sp
      9c:	03000d0d 	movweq	r0, #3341	; 0xd0d
      a0:	3b0b3a08 	blcc	2ce8c8 <__standby_start+0x2ce8c8>
      a4:	3813490b 	ldmdacc	r3, {r0, r1, r3, r8, fp, lr}
      a8:	0e00000a 	cdpeq	0, 0, cr0, cr0, cr10, {0}
      ac:	0e03002e 	cdpeq	0, 0, cr0, cr3, cr14, {1}
      b0:	0b3b0b3a 	bleq	ec2da0 <__standby_start+0xec2da0>
      b4:	0b200c27 	bleq	803158 <__standby_start+0x803158>
      b8:	2e0f0000 	cdpcs	0, 0, cr0, cr15, cr0, {0}
      bc:	030c3f01 	movweq	r3, #52993	; 0xcf01
      c0:	3b0b3a0e 	blcc	2ce900 <__standby_start+0x2ce900>
      c4:	490c270b 	stmdbmi	ip, {r0, r1, r3, r8, r9, sl, sp}
      c8:	12011113 	andne	r1, r1, #-1073741820	; 0xc0000004
      cc:	01064001 	tsteq	r6, r1
      d0:	10000013 	andne	r0, r0, r3, lsl r0
      d4:	08030005 	stmdaeq	r3, {r0, r2}
      d8:	0b3b0b3a 	bleq	ec2dc8 <__standby_start+0xec2dc8>
      dc:	06021349 	streq	r1, [r2], -r9, asr #6
      e0:	34110000 	ldrcc	r0, [r1]
      e4:	3a0e0300 	bcc	380cec <__standby_start+0x380cec>
      e8:	490b3b0b 	stmdbmi	fp, {r0, r1, r3, r8, r9, fp, ip, sp}
      ec:	00060213 	andeq	r0, r6, r3, lsl r2
      f0:	001d1200 	andseq	r1, sp, r0, lsl #4
      f4:	01521331 	cmpeq	r2, r1, lsr r3
      f8:	0b580655 	bleq	1601a54 <__standby_start+0x1601a54>
      fc:	00000b59 	andeq	r0, r0, r9, asr fp
     100:	0b000f13 	bleq	3d54 <__standby_start+0x3d54>
     104:	0013490b 	andseq	r4, r3, fp, lsl #18
     108:	00341400 	eorseq	r1, r4, r0, lsl #8
     10c:	0b3a0e03 	bleq	e83920 <__standby_start+0xe83920>
     110:	13490b3b 	movtne	r0, #39739	; 0x9b3b
     114:	00000a02 	andeq	r0, r0, r2, lsl #20
     118:	03003415 	movweq	r3, #1045	; 0x415
     11c:	3b0b3a0e 	blcc	2ce95c <__standby_start+0x2ce95c>
     120:	3f13490b 	svccc	0x0013490b
     124:	000a020c 	andeq	r0, sl, ip, lsl #4
     128:	00341600 	eorseq	r1, r4, r0, lsl #12
     12c:	0b3a0e03 	bleq	e83940 <__standby_start+0xe83940>
     130:	13490b3b 	movtne	r0, #39739	; 0x9b3b
     134:	0c3c0c3f 	ldceq	12, cr0, [ip], #-252	; 0xffffff04
     138:	01000000 	tsteq	r0, r0
     13c:	0e250111 	mcreq	1, 1, r0, cr5, cr1, {0}
     140:	0e030b13 	vmoveq.32	d3[0], r0
     144:	01110e1b 	tsteq	r1, fp, lsl lr
     148:	06100112 	undefined instruction 0x06100112
     14c:	24020000 	strcs	r0, [r2]
     150:	3e0b0b00 	vmlacc.f64	d0, d11, d0
     154:	000e030b 	andeq	r0, lr, fp, lsl #6
     158:	00240300 	eoreq	r0, r4, r0, lsl #6
     15c:	0b3e0b0b 	bleq	f82d90 <__standby_start+0xf82d90>
     160:	00000803 	andeq	r0, r0, r3, lsl #16
     164:	0b002404 	bleq	917c <__standby_start+0x917c>
     168:	000b3e0b 	andeq	r3, fp, fp, lsl #28
     16c:	00160500 	andseq	r0, r6, r0, lsl #10
     170:	0b3a0e03 	bleq	e83984 <__standby_start+0xe83984>
     174:	13490b3b 	movtne	r0, #39739	; 0x9b3b
     178:	0f060000 	svceq	0x00060000
     17c:	000b0b00 	andeq	r0, fp, r0, lsl #22
     180:	012e0700 	teqeq	lr, r0, lsl #14
     184:	0e030c3f 	mcreq	12, 0, r0, cr3, cr15, {1}
     188:	0b3b0b3a 	bleq	ec2e78 <__standby_start+0xec2e78>
     18c:	01110c27 	tsteq	r1, r7, lsr #24
     190:	0a400112 	beq	10005e0 <__standby_start+0x10005e0>
     194:	00001301 	andeq	r1, r0, r1, lsl #6
     198:	03000508 	movweq	r0, #1288	; 0x508
     19c:	3b0b3a0e 	blcc	2ce9dc <__standby_start+0x2ce9dc>
     1a0:	0213490b 	andseq	r4, r3, #180224	; 0x2c000
     1a4:	0900000a 	stmdbeq	r0, {r1, r3}
     1a8:	08030005 	stmdaeq	r3, {r0, r2}
     1ac:	0b3b0b3a 	bleq	ec2e9c <__standby_start+0xec2e9c>
     1b0:	0a021349 	beq	84edc <__standby_start+0x84edc>
     1b4:	340a0000 	strcc	r0, [sl]
     1b8:	3a0e0300 	bcc	380dc0 <__standby_start+0x380dc0>
     1bc:	490b3b0b 	stmdbmi	fp, {r0, r1, r3, r8, r9, fp, ip, sp}
     1c0:	0b000013 	bleq	214 <__standby_start+0x214>
     1c4:	0b0b000f 	bleq	2c0208 <__standby_start+0x2c0208>
     1c8:	00001349 	andeq	r1, r0, r9, asr #6
     1cc:	0300050c 	movweq	r0, #1292	; 0x50c
     1d0:	3b0b3a08 	blcc	2ce9f8 <__standby_start+0x2ce9f8>
     1d4:	0213490b 	andseq	r4, r3, #180224	; 0x2c000
     1d8:	0d000006 	stceq	0, cr0, [r0, #-24]	; 0xffffffe8
     1dc:	0e030034 	mcreq	0, 0, r0, cr3, cr4, {1}
     1e0:	0b3b0b3a 	bleq	ec2ed0 <__standby_start+0xec2ed0>
     1e4:	0c3f1349 	ldceq	3, cr1, [pc], #-292	; 0xfffffedc
     1e8:	00000c3c 	andeq	r0, r0, ip, lsr ip
     1ec:	00110100 	andseq	r0, r1, r0, lsl #2
     1f0:	01110610 	tsteq	r1, r0, lsl r6
     1f4:	08030112 	stmdaeq	r3, {r1, r4, r8}
     1f8:	0825081b 	stmdaeq	r5!, {r0, r1, r3, r4, fp}
     1fc:	00000513 	andeq	r0, r0, r3, lsl r5
     200:	01110100 	tsteq	r1, r0, lsl #2
     204:	0b130e25 	bleq	4c3aa0 <__standby_start+0x4c3aa0>
     208:	0e1b0e03 	cdpeq	14, 1, cr0, cr11, cr3, {0}
     20c:	01120111 	tsteq	r2, r1, lsl r1
     210:	00000610 	andeq	r0, r0, r0, lsl r6
     214:	0b002402 	bleq	9224 <__standby_start+0x9224>
     218:	030b3e0b 	movweq	r3, #48651	; 0xbe0b
     21c:	0300000e 	movweq	r0, #14
     220:	0b0b0024 	bleq	2c02b8 <__standby_start+0x2c02b8>
     224:	08030b3e 	stmdaeq	r3, {r1, r2, r3, r4, r5, r8, r9, fp}
     228:	24040000 	strcs	r0, [r4]
     22c:	3e0b0b00 	vmlacc.f64	d0, d11, d0
     230:	0500000b 	streq	r0, [r0, #-11]
     234:	0e030016 	mcreq	0, 0, r0, cr3, cr6, {0}
     238:	0b3b0b3a 	bleq	ec2f28 <__standby_start+0xec2f28>
     23c:	00001349 	andeq	r1, r0, r9, asr #6
     240:	03011306 	movweq	r1, #4870	; 0x1306
     244:	3a0b0b0e 	bcc	2c2e84 <__standby_start+0x2c2e84>
     248:	010b3b0b 	tsteq	fp, fp, lsl #22
     24c:	07000013 	smladeq	r0, r3, r0, r0
     250:	0e03000d 	cdpeq	0, 0, cr0, cr3, cr13, {0}
     254:	0b3b0b3a 	bleq	ec2f44 <__standby_start+0xec2f44>
     258:	0b0b1349 	bleq	2c4f84 <__standby_start+0x2c4f84>
     25c:	0b0c0b0d 	bleq	302e98 <__standby_start+0x302e98>
     260:	00000a38 	andeq	r0, r0, r8, lsr sl
     264:	03000d08 	movweq	r0, #3336	; 0xd08
     268:	3b0b3a0e 	blcc	2ceaa8 <__standby_start+0x2ceaa8>
     26c:	0b134905 	bleq	4d2688 <__standby_start+0x4d2688>
     270:	0c0b0d0b 	stceq	13, cr0, [fp], {11}
     274:	000a380b 	andeq	r3, sl, fp, lsl #16
     278:	00160900 	andseq	r0, r6, r0, lsl #18
     27c:	0b3a0e03 	bleq	e83a90 <__standby_start+0xe83a90>
     280:	1349053b 	movtne	r0, #38203	; 0x953b
     284:	130a0000 	movwne	r0, #40960	; 0xa000
     288:	0b0e0301 	bleq	380e94 <__standby_start+0x380e94>
     28c:	3b0b3a0b 	blcc	2ceac0 <__standby_start+0x2ceac0>
     290:	00130105 	andseq	r0, r3, r5, lsl #2
     294:	01130b00 	tsteq	r3, r0, lsl #22
     298:	050b0e03 	streq	r0, [fp, #-3587]	; 0xe03
     29c:	053b0b3a 	ldreq	r0, [fp, #-2874]!	; 0xb3a
     2a0:	00001301 	andeq	r1, r0, r1, lsl #6
     2a4:	03000d0c 	movweq	r0, #3340	; 0xd0c
     2a8:	3b0b3a0e 	blcc	2ceae8 <__standby_start+0x2ceae8>
     2ac:	38134905 	ldmdacc	r3, {r0, r2, r8, fp, lr}
     2b0:	0d00000a 	stceq	0, cr0, [r0, #-40]	; 0xffffffd8
     2b4:	13490035 	movtne	r0, #36917	; 0x9035
     2b8:	010e0000 	tsteq	lr, r0
     2bc:	01134901 	tsteq	r3, r1, lsl #18
     2c0:	0f000013 	svceq	0x00000013
     2c4:	13490021 	movtne	r0, #36897	; 0x9021
     2c8:	00000b2f 	andeq	r0, r0, pc, lsr #22
     2cc:	03000d10 	movweq	r0, #3344	; 0xd10
     2d0:	3b0b3a0e 	blcc	2ceb10 <__standby_start+0x2ceb10>
     2d4:	3813490b 	ldmdacc	r3, {r0, r1, r3, r8, fp, lr}
     2d8:	1100000a 	tstne	r0, sl
     2dc:	0803000d 	stmdaeq	r3, {r0, r2, r3}
     2e0:	0b3b0b3a 	bleq	ec2fd0 <__standby_start+0xec2fd0>
     2e4:	0a381349 	beq	e05010 <__standby_start+0xe05010>
     2e8:	2e120000 	cdpcs	0, 1, cr0, cr2, cr0, {0}
     2ec:	030c3f00 	movweq	r3, #52992	; 0xcf00
     2f0:	3b0b3a0e 	blcc	2ceb30 <__standby_start+0x2ceb30>
     2f4:	490c270b 	stmdbmi	ip, {r0, r1, r3, r8, r9, sl, sp}
     2f8:	12011113 	andne	r1, r1, #-1073741820	; 0xc0000004
     2fc:	00064001 	andeq	r4, r6, r1
     300:	002e1300 	eoreq	r1, lr, r0, lsl #6
     304:	0e030c3f 	mcreq	12, 0, r0, cr3, cr15, {1}
     308:	0b3b0b3a 	bleq	ec2ff8 <__standby_start+0xec2ff8>
     30c:	13490c27 	movtne	r0, #39975	; 0x9c27
     310:	01120111 	tsteq	r2, r1, lsl r1
     314:	00000a40 	andeq	r0, r0, r0, asr #20
     318:	3f002e14 	svccc	0x00002e14
     31c:	3a0e030c 	bcc	380f54 <__standby_start+0x380f54>
     320:	27053b0b 	strcs	r3, [r5, -fp, lsl #22]
     324:	1113490c 	tstne	r3, ip, lsl #18
     328:	40011201 	andmi	r1, r1, r1, lsl #4
     32c:	1500000a 	strne	r0, [r0, #-10]
     330:	0c3f012e 	ldfeqs	f0, [pc], #-184	; 0xffffff48
     334:	0b3a0e03 	bleq	e83b48 <__standby_start+0xe83b48>
     338:	0c27053b 	cfstr32eq	mvfx0, [r7], #-236	; 0xffffff14
     33c:	01111349 	tsteq	r1, r9, asr #6
     340:	0a400112 	beq	1000790 <__standby_start+0x1000790>
     344:	00001301 	andeq	r1, r0, r1, lsl #6
     348:	03000516 	movweq	r0, #1302	; 0x516
     34c:	3b0b3a0e 	blcc	2ceb8c <__standby_start+0x2ceb8c>
     350:	02134905 	andseq	r4, r3, #81920	; 0x14000
     354:	17000006 	strne	r0, [r0, -r6]
     358:	0b0b000f 	bleq	2c039c <__standby_start+0x2c039c>
     35c:	00001349 	andeq	r1, r0, r9, asr #6
     360:	3f012e18 	svccc	0x00012e18
     364:	3a0e030c 	bcc	380f9c <__standby_start+0x380f9c>
     368:	27053b0b 	strcs	r3, [r5, -fp, lsl #22]
     36c:	1201110c 	andne	r1, r1, #3
     370:	010a4001 	tsteq	sl, r1
     374:	19000013 	stmdbne	r0, {r0, r1, r4}
     378:	0e030005 	cdpeq	0, 0, cr0, cr3, cr5, {0}
     37c:	053b0b3a 	ldreq	r0, [fp, #-2874]!	; 0xb3a
     380:	0a021349 	beq	850ac <__standby_start+0x850ac>
     384:	341a0000 	ldrcc	r0, [sl]
     388:	3a0e0300 	bcc	380f90 <__standby_start+0x380f90>
     38c:	490b3b0b 	stmdbmi	fp, {r0, r1, r3, r8, r9, fp, ip, sp}
     390:	000a0213 	andeq	r0, sl, r3, lsl r2
     394:	00341b00 	eorseq	r1, r4, r0, lsl #22
     398:	0b3a0e03 	bleq	e83bac <__standby_start+0xe83bac>
     39c:	1349053b 	movtne	r0, #38203	; 0x953b
     3a0:	00000a02 	andeq	r0, r0, r2, lsl #20
     3a4:	0300341c 	movweq	r3, #1052	; 0x41c
     3a8:	3b0b3a0e 	blcc	2cebe8 <__standby_start+0x2cebe8>
     3ac:	3f13490b 	svccc	0x0013490b
     3b0:	000a020c 	andeq	r0, sl, ip, lsl #4
     3b4:	11010000 	tstne	r1, r0
     3b8:	130e2501 	movwne	r2, #58625	; 0xe501
     3bc:	1b0e030b 	blne	380ff0 <__standby_start+0x380ff0>
     3c0:	1201110e 	andne	r1, r1, #-2147483645	; 0x80000003
     3c4:	00061001 	andeq	r1, r6, r1
     3c8:	00240200 	eoreq	r0, r4, r0, lsl #4
     3cc:	0b3e0b0b 	bleq	f83000 <__standby_start+0xf83000>
     3d0:	00000e03 	andeq	r0, r0, r3, lsl #28
     3d4:	0b002403 	bleq	93e8 <__standby_start+0x93e8>
     3d8:	030b3e0b 	movweq	r3, #48651	; 0xbe0b
     3dc:	04000008 	streq	r0, [r0], #-8
     3e0:	0b0b0024 	bleq	2c0478 <__standby_start+0x2c0478>
     3e4:	00000b3e 	andeq	r0, r0, lr, lsr fp
     3e8:	03001605 	movweq	r1, #1541	; 0x605
     3ec:	3b0b3a0e 	blcc	2cec2c <__standby_start+0x2cec2c>
     3f0:	0013490b 	andseq	r4, r3, fp, lsl #18
     3f4:	00350600 	eorseq	r0, r5, r0, lsl #12
     3f8:	00001349 	andeq	r1, r0, r9, asr #6
     3fc:	49010107 	stmdbmi	r1, {r0, r1, r2, r8}
     400:	00130113 	andseq	r0, r3, r3, lsl r1
     404:	00210800 	eoreq	r0, r1, r0, lsl #16
     408:	0b2f1349 	bleq	bc5134 <__standby_start+0xbc5134>
     40c:	04090000 	streq	r0, [r9]
     410:	0b0e0301 	bleq	38101c <__standby_start+0x38101c>
     414:	3b0b3a0b 	blcc	2cec48 <__standby_start+0x2cec48>
     418:	0013010b 	andseq	r0, r3, fp, lsl #2
     41c:	00280a00 	eoreq	r0, r8, r0, lsl #20
     420:	0d1c0e03 	ldceq	14, cr0, [ip, #-12]
     424:	130b0000 	movwne	r0, #45056	; 0xb000
     428:	0b0e0301 	bleq	381034 <__standby_start+0x381034>
     42c:	3b0b3a0b 	blcc	2cec60 <__standby_start+0x2cec60>
     430:	0013010b 	andseq	r0, r3, fp, lsl #2
     434:	000d0c00 	andeq	r0, sp, r0, lsl #24
     438:	0b3a0e03 	bleq	e83c4c <__standby_start+0xe83c4c>
     43c:	13490b3b 	movtne	r0, #39739	; 0x9b3b
     440:	00000a38 	andeq	r0, r0, r8, lsr sl
     444:	3f002e0d 	svccc	0x00002e0d
     448:	3a0e030c 	bcc	381080 <__standby_start+0x381080>
     44c:	270b3b0b 	strcs	r3, [fp, -fp, lsl #22]
     450:	1113490c 	tstne	r3, ip, lsl #18
     454:	40011201 	andmi	r1, r1, r1, lsl #4
     458:	0e000006 	cdpeq	0, 0, cr0, cr0, cr6, {0}
     45c:	0c3f002e 	ldceq	0, cr0, [pc], #-184	; 0xffffff48
     460:	0b3a0e03 	bleq	e83c74 <__standby_start+0xe83c74>
     464:	0c270b3b 	stceq	11, cr0, [r7], #-236	; 0xffffff14
     468:	01111349 	tsteq	r1, r9, asr #6
     46c:	0a400112 	beq	10008bc <__standby_start+0x10008bc>
     470:	2e0f0000 	cdpcs	0, 0, cr0, cr15, cr0, {0}
     474:	030c3f01 	movweq	r3, #52993	; 0xcf01
     478:	3b0b3a0e 	blcc	2cecb8 <__standby_start+0x2cecb8>
     47c:	490c270b 	stmdbmi	ip, {r0, r1, r3, r8, r9, sl, sp}
     480:	12011113 	andne	r1, r1, #-1073741820	; 0xc0000004
     484:	01064001 	tsteq	r6, r1
     488:	10000013 	andne	r0, r0, r3, lsl r0
     48c:	08030005 	stmdaeq	r3, {r0, r2}
     490:	0b3b0b3a 	bleq	ec3180 <__standby_start+0xec3180>
     494:	06021349 	streq	r1, [r2], -r9, asr #6
     498:	34110000 	ldrcc	r0, [r1]
     49c:	3a0e0300 	bcc	3810a4 <__standby_start+0x3810a4>
     4a0:	490b3b0b 	stmdbmi	fp, {r0, r1, r3, r8, r9, fp, ip, sp}
     4a4:	00060213 	andeq	r0, r6, r3, lsl r2
     4a8:	00341200 	eorseq	r1, r4, r0, lsl #4
     4ac:	0b3a0e03 	bleq	e83cc0 <__standby_start+0xe83cc0>
     4b0:	13490b3b 	movtne	r0, #39739	; 0x9b3b
     4b4:	2e130000 	cdpcs	0, 1, cr0, cr3, cr0, {0}
     4b8:	030c3f01 	movweq	r3, #52993	; 0xcf01
     4bc:	3b0b3a0e 	blcc	2cecfc <__standby_start+0x2cecfc>
     4c0:	490c270b 	stmdbmi	ip, {r0, r1, r3, r8, r9, sl, sp}
     4c4:	12011113 	andne	r1, r1, #-1073741820	; 0xc0000004
     4c8:	010a4001 	tsteq	sl, r1
     4cc:	14000013 	strne	r0, [r0], #-19
     4d0:	0e030034 	mcreq	0, 0, r0, cr3, cr4, {1}
     4d4:	0b3b0b3a 	bleq	ec31c4 <__standby_start+0xec31c4>
     4d8:	0a021349 	beq	85204 <__standby_start+0x85204>
     4dc:	0f150000 	svceq	0x00150000
     4e0:	490b0b00 	stmdbmi	fp, {r8, r9, fp}
     4e4:	00000013 	andeq	r0, r0, r3, lsl r0
     4e8:	25011101 	strcs	r1, [r1, #-257]	; 0x101
     4ec:	030b130e 	movweq	r1, #45838	; 0xb30e
     4f0:	110e1b0e 	tstne	lr, lr, lsl #22
     4f4:	10011201 	andne	r1, r1, r1, lsl #4
     4f8:	02000006 	andeq	r0, r0, #6
     4fc:	0b0b0024 	bleq	2c0594 <__standby_start+0x2c0594>
     500:	0e030b3e 	vmoveq.16	d3[0], r0
     504:	24030000 	strcs	r0, [r3]
     508:	3e0b0b00 	vmlacc.f64	d0, d11, d0
     50c:	0008030b 	andeq	r0, r8, fp, lsl #6
     510:	00240400 	eoreq	r0, r4, r0, lsl #8
     514:	0b3e0b0b 	bleq	f83148 <__standby_start+0xf83148>
     518:	16050000 	strne	r0, [r5], -r0
     51c:	3a0e0300 	bcc	381124 <__standby_start+0x381124>
     520:	490b3b0b 	stmdbmi	fp, {r0, r1, r3, r8, r9, fp, ip, sp}
     524:	06000013 	undefined instruction 0x06000013
     528:	0c3f002e 	ldceq	0, cr0, [pc], #-184	; 0xffffff48
     52c:	0b3a0e03 	bleq	e83d40 <__standby_start+0xe83d40>
     530:	0c270b3b 	stceq	11, cr0, [r7], #-236	; 0xffffff14
     534:	01111349 	tsteq	r1, r9, asr #6
     538:	0a400112 	beq	1000988 <__standby_start+0x1000988>
     53c:	01000000 	tsteq	r0, r0
     540:	0e250111 	mcreq	1, 1, r0, cr5, cr1, {0}
     544:	0e030b13 	vmoveq.32	d3[0], r0
     548:	01110e1b 	tsteq	r1, fp, lsl lr
     54c:	06100112 	undefined instruction 0x06100112
     550:	24020000 	strcs	r0, [r2]
     554:	3e0b0b00 	vmlacc.f64	d0, d11, d0
     558:	000e030b 	andeq	r0, lr, fp, lsl #6
     55c:	00240300 	eoreq	r0, r4, r0, lsl #6
     560:	0b3e0b0b 	bleq	f83194 <__standby_start+0xf83194>
     564:	00000803 	andeq	r0, r0, r3, lsl #16
     568:	0b002404 	bleq	9580 <__standby_start+0x9580>
     56c:	000b3e0b 	andeq	r3, fp, fp, lsl #28
     570:	00160500 	andseq	r0, r6, r0, lsl #10
     574:	0b3a0e03 	bleq	e83d88 <__standby_start+0xe83d88>
     578:	13490b3b 	movtne	r0, #39739	; 0x9b3b
     57c:	35060000 	strcc	r0, [r6]
     580:	00134900 	andseq	r4, r3, r0, lsl #18
     584:	01130700 	tsteq	r3, r0, lsl #14
     588:	0b0b0e03 	bleq	2c3d9c <__standby_start+0x2c3d9c>
     58c:	0b3b0b3a 	bleq	ec327c <__standby_start+0xec327c>
     590:	00001301 	andeq	r1, r0, r1, lsl #6
     594:	03000d08 	movweq	r0, #3336	; 0xd08
     598:	3b0b3a0e 	blcc	2cedd8 <__standby_start+0x2cedd8>
     59c:	3813490b 	ldmdacc	r3, {r0, r1, r3, r8, fp, lr}
     5a0:	0900000a 	stmdbeq	r0, {r1, r3}
     5a4:	0c3f002e 	ldceq	0, cr0, [pc], #-184	; 0xffffff48
     5a8:	0b3a0e03 	bleq	e83dbc <__standby_start+0xe83dbc>
     5ac:	0c270b3b 	stceq	11, cr0, [r7], #-236	; 0xffffff14
     5b0:	01111349 	tsteq	r1, r9, asr #6
     5b4:	0a400112 	beq	1000a04 <__standby_start+0x1000a04>
     5b8:	2e0a0000 	cdpcs	0, 0, cr0, cr10, cr0, {0}
     5bc:	030c3f00 	movweq	r3, #52992	; 0xcf00
     5c0:	3b0b3a0e 	blcc	2cee00 <__standby_start+0x2cee00>
     5c4:	490c270b 	stmdbmi	ip, {r0, r1, r3, r8, r9, sl, sp}
     5c8:	12011113 	andne	r1, r1, #-1073741820	; 0xc0000004
     5cc:	00064001 	andeq	r4, r6, r1
     5d0:	00340b00 	eorseq	r0, r4, r0, lsl #22
     5d4:	0b3a0e03 	bleq	e83de8 <__standby_start+0xe83de8>
     5d8:	13490b3b 	movtne	r0, #39739	; 0x9b3b
     5dc:	00000a02 	andeq	r0, r0, r2, lsl #20
     5e0:	0b000f0c 	bleq	4218 <__standby_start+0x4218>
     5e4:	0013490b 	andseq	r4, r3, fp, lsl #18
     5e8:	00340d00 	eorseq	r0, r4, r0, lsl #26
     5ec:	0b3a0e03 	bleq	e83e00 <__standby_start+0xe83e00>
     5f0:	13490b3b 	movtne	r0, #39739	; 0x9b3b
     5f4:	01000000 	tsteq	r0, r0
     5f8:	0e250111 	mcreq	1, 1, r0, cr5, cr1, {0}
     5fc:	0e030b13 	vmoveq.32	d3[0], r0
     600:	01110e1b 	tsteq	r1, fp, lsl lr
     604:	06100112 	undefined instruction 0x06100112
     608:	24020000 	strcs	r0, [r2]
     60c:	3e0b0b00 	vmlacc.f64	d0, d11, d0
     610:	000e030b 	andeq	r0, lr, fp, lsl #6
     614:	00240300 	eoreq	r0, r4, r0, lsl #6
     618:	0b3e0b0b 	bleq	f8324c <__standby_start+0xf8324c>
     61c:	00000803 	andeq	r0, r0, r3, lsl #16
     620:	0b002404 	bleq	9638 <__standby_start+0x9638>
     624:	000b3e0b 	andeq	r3, fp, fp, lsl #28
     628:	00160500 	andseq	r0, r6, r0, lsl #10
     62c:	0b3a0e03 	bleq	e83e40 <__standby_start+0xe83e40>
     630:	13490b3b 	movtne	r0, #39739	; 0x9b3b
     634:	04060000 	streq	r0, [r6]
     638:	0b0e0301 	bleq	381244 <__standby_start+0x381244>
     63c:	3b0b3a0b 	blcc	2cee70 <__standby_start+0x2cee70>
     640:	0013010b 	andseq	r0, r3, fp, lsl #2
     644:	00280700 	eoreq	r0, r8, r0, lsl #14
     648:	0d1c0e03 	ldceq	14, cr0, [ip, #-12]
     64c:	13080000 	movwne	r0, #32768	; 0x8000
     650:	0b0e0301 	bleq	38125c <__standby_start+0x38125c>
     654:	3b0b3a0b 	blcc	2cee88 <__standby_start+0x2cee88>
     658:	0013010b 	andseq	r0, r3, fp, lsl #2
     65c:	000d0900 	andeq	r0, sp, r0, lsl #18
     660:	0b3a0803 	bleq	e82674 <__standby_start+0xe82674>
     664:	13490b3b 	movtne	r0, #39739	; 0x9b3b
     668:	00000a38 	andeq	r0, r0, r8, lsr sl
     66c:	03000d0a 	movweq	r0, #3338	; 0xd0a
     670:	3b0b3a0e 	blcc	2ceeb0 <__standby_start+0x2ceeb0>
     674:	3813490b 	ldmdacc	r3, {r0, r1, r3, r8, fp, lr}
     678:	0b00000a 	bleq	6a8 <__standby_start+0x6a8>
     67c:	0e03012e 	adfeqsp	f0, f3, #0.5
     680:	0b3b0b3a 	bleq	ec3370 <__standby_start+0xec3370>
     684:	13490c27 	movtne	r0, #39975	; 0x9c27
     688:	13010b20 	movwne	r0, #6944	; 0x1b20
     68c:	050c0000 	streq	r0, [ip]
     690:	3a080300 	bcc	201298 <__standby_start+0x201298>
     694:	490b3b0b 	stmdbmi	fp, {r0, r1, r3, r8, r9, fp, ip, sp}
     698:	0d000013 	stceq	0, cr0, [r0, #-76]	; 0xffffffb4
     69c:	08030034 	stmdaeq	r3, {r2, r4, r5}
     6a0:	0b3b0b3a 	bleq	ec3390 <__standby_start+0xec3390>
     6a4:	00001349 	andeq	r1, r0, r9, asr #6
     6a8:	0b000f0e 	bleq	42e8 <__standby_start+0x42e8>
     6ac:	0013490b 	andseq	r4, r3, fp, lsl #18
     6b0:	00050f00 	andeq	r0, r5, r0, lsl #30
     6b4:	0b3a0e03 	bleq	e83ec8 <__standby_start+0xe83ec8>
     6b8:	13490b3b 	movtne	r0, #39739	; 0x9b3b
     6bc:	34100000 	ldrcc	r0, [r0]
     6c0:	3a0e0300 	bcc	3812c8 <__standby_start+0x3812c8>
     6c4:	490b3b0b 	stmdbmi	fp, {r0, r1, r3, r8, r9, fp, ip, sp}
     6c8:	11000013 	tstne	r0, r3, lsl r0
     6cc:	0c3f012e 	ldfeqs	f0, [pc], #-184	; 0xffffff48
     6d0:	0b3a0e03 	bleq	e83ee4 <__standby_start+0xe83ee4>
     6d4:	0c27053b 	cfstr32eq	mvfx0, [r7], #-236	; 0xffffff14
     6d8:	01111349 	tsteq	r1, r9, asr #6
     6dc:	06400112 	undefined instruction 0x06400112
     6e0:	00001301 	andeq	r1, r0, r1, lsl #6
     6e4:	03000512 	movweq	r0, #1298	; 0x512
     6e8:	3b0b3a0e 	blcc	2cef28 <__standby_start+0x2cef28>
     6ec:	02134905 	andseq	r4, r3, #81920	; 0x14000
     6f0:	13000006 	movwne	r0, #6
     6f4:	0e030034 	mcreq	0, 0, r0, cr3, cr4, {1}
     6f8:	053b0b3a 	ldreq	r0, [fp, #-2874]!	; 0xb3a
     6fc:	0a021349 	beq	85428 <__standby_start+0x85428>
     700:	34140000 	ldrcc	r0, [r4]
     704:	3a080300 	bcc	20130c <__standby_start+0x20130c>
     708:	49053b0b 	stmdbmi	r5, {r0, r1, r3, r8, r9, fp, ip, sp}
     70c:	00060213 	andeq	r0, r6, r3, lsl r2
     710:	00341500 	eorseq	r1, r4, r0, lsl #10
     714:	0b3a0e03 	bleq	e83f28 <__standby_start+0xe83f28>
     718:	1349053b 	movtne	r0, #38203	; 0x953b
     71c:	1d160000 	ldcne	0, cr0, [r6]
     720:	52133101 	andspl	r3, r3, #1073741824	; 0x40000000
     724:	58065501 	stmdapl	r6, {r0, r8, sl, ip, lr}
     728:	0005590b 	andeq	r5, r5, fp, lsl #18
     72c:	00051700 	andeq	r1, r5, r0, lsl #14
     730:	00001331 	andeq	r1, r0, r1, lsr r3
     734:	55010b18 	strpl	r0, [r1, #-2840]	; 0xb18
     738:	19000006 	stmdbne	r0, {r1, r2}
     73c:	13310034 	teqne	r1, #52	; 0x34
     740:	2e1a0000 	cdpcs	0, 1, cr0, cr10, cr0, {0}
     744:	030c3f01 	movweq	r3, #52993	; 0xcf01
     748:	3b0b3a0e 	blcc	2cef88 <__standby_start+0x2cef88>
     74c:	110c270b 	tstne	ip, fp, lsl #14
     750:	40011201 	andmi	r1, r1, r1, lsl #4
     754:	00130106 	andseq	r0, r3, r6, lsl #2
     758:	00051b00 	andeq	r1, r5, r0, lsl #22
     75c:	0b3a0e03 	bleq	e83f70 <__standby_start+0xe83f70>
     760:	13490b3b 	movtne	r0, #39739	; 0x9b3b
     764:	00000602 	andeq	r0, r0, r2, lsl #12
     768:	0300341c 	movweq	r3, #1052	; 0x41c
     76c:	3b0b3a0e 	blcc	2cefac <__standby_start+0x2cefac>
     770:	0213490b 	andseq	r4, r3, #180224	; 0x2c000
     774:	1d00000a 	stcne	0, cr0, [r0, #-40]	; 0xffffffd8
     778:	08030034 	stmdaeq	r3, {r2, r4, r5}
     77c:	0b3b0b3a 	bleq	ec346c <__standby_start+0xec346c>
     780:	06021349 	streq	r1, [r2], -r9, asr #6
     784:	341e0000 	ldrcc	r0, [lr]
     788:	3a0e0300 	bcc	381390 <__standby_start+0x381390>
     78c:	490b3b0b 	stmdbmi	fp, {r0, r1, r3, r8, r9, fp, ip, sp}
     790:	00060213 	andeq	r0, r6, r3, lsl r2
     794:	011d1f00 	tsteq	sp, r0, lsl #30
     798:	01521331 	cmpeq	r2, r1, lsr r3
     79c:	0b580655 	bleq	16020f8 <__standby_start+0x16020f8>
     7a0:	13010b59 	movwne	r0, #7001	; 0x1b59
     7a4:	1d200000 	stcne	0, cr0, [r0]
     7a8:	11133101 	tstne	r3, r1, lsl #2
     7ac:	58011201 	stmdapl	r1, {r0, r9, ip}
     7b0:	010b590b 	tsteq	fp, fp, lsl #18
     7b4:	21000013 	tstcs	r0, r3, lsl r0
     7b8:	13310005 	teqne	r1, #5
     7bc:	00000602 	andeq	r0, r0, r2, lsl #12
     7c0:	31003422 	tstcc	r0, r2, lsr #8
     7c4:	00060213 	andeq	r0, r6, r3, lsl r2
     7c8:	012e2300 	teqeq	lr, r0, lsl #6
     7cc:	0e030c3f 	mcreq	12, 0, r0, cr3, cr15, {1}
     7d0:	0b3b0b3a 	bleq	ec34c0 <__standby_start+0xec34c0>
     7d4:	13490c27 	movtne	r0, #39975	; 0x9c27
     7d8:	01120111 	tsteq	r2, r1, lsl r1
     7dc:	13010640 	movwne	r0, #5696	; 0x1640
     7e0:	01240000 	teqeq	r4, r0
     7e4:	01134901 	tsteq	r3, r1, lsl #18
     7e8:	25000013 	strcs	r0, [r0, #-19]
     7ec:	13490021 	movtne	r0, #36897	; 0x9021
     7f0:	00000b2f 	andeq	r0, r0, pc, lsr #22
     7f4:	49002626 	stmdbmi	r0, {r1, r2, r5, r9, sl, sp}
     7f8:	00000013 	andeq	r0, r0, r3, lsl r0
     7fc:	25011101 	strcs	r1, [r1, #-257]	; 0x101
     800:	030b130e 	movweq	r1, #45838	; 0xb30e
     804:	110e1b0e 	tstne	lr, lr, lsl #22
     808:	10011201 	andne	r1, r1, r1, lsl #4
     80c:	02000006 	andeq	r0, r0, #6
     810:	0b0b0024 	bleq	2c08a8 <__standby_start+0x2c08a8>
     814:	0e030b3e 	vmoveq.16	d3[0], r0
     818:	24030000 	strcs	r0, [r3]
     81c:	3e0b0b00 	vmlacc.f64	d0, d11, d0
     820:	0008030b 	andeq	r0, r8, fp, lsl #6
     824:	00240400 	eoreq	r0, r4, r0, lsl #8
     828:	0b3e0b0b 	bleq	f8345c <__standby_start+0xf8345c>
     82c:	16050000 	strne	r0, [r5], -r0
     830:	3a0e0300 	bcc	381438 <__standby_start+0x381438>
     834:	490b3b0b 	stmdbmi	fp, {r0, r1, r3, r8, r9, fp, ip, sp}
     838:	06000013 	undefined instruction 0x06000013
     83c:	13490035 	movtne	r0, #36917	; 0x9035
     840:	01070000 	tsteq	r7, r0
     844:	01134901 	tsteq	r3, r1, lsl #18
     848:	08000013 	stmdaeq	r0, {r0, r1, r4}
     84c:	13490021 	movtne	r0, #36897	; 0x9021
     850:	00000b2f 	andeq	r0, r0, pc, lsr #22
     854:	03011309 	movweq	r1, #4873	; 0x1309
     858:	3a050b0e 	bcc	143498 <__standby_start+0x143498>
     85c:	010b3b0b 	tsteq	fp, fp, lsl #22
     860:	0a000013 	beq	8b4 <__standby_start+0x8b4>
     864:	0e03000d 	cdpeq	0, 0, cr0, cr3, cr13, {0}
     868:	0b3b0b3a 	bleq	ec3558 <__standby_start+0xec3558>
     86c:	0a381349 	beq	e05598 <__standby_start+0xe05598>
     870:	040b0000 	streq	r0, [fp]
     874:	0b0e0301 	bleq	381480 <__standby_start+0x381480>
     878:	3b0b3a0b 	blcc	2cf0ac <__standby_start+0x2cf0ac>
     87c:	0013010b 	andseq	r0, r3, fp, lsl #2
     880:	00280c00 	eoreq	r0, r8, r0, lsl #24
     884:	0d1c0e03 	ldceq	14, cr0, [ip, #-12]
     888:	2e0d0000 	cdpcs	0, 0, cr0, cr13, cr0, {0}
     88c:	030c3f01 	movweq	r3, #52993	; 0xcf01
     890:	3b0b3a0e 	blcc	2cf0d0 <__standby_start+0x2cf0d0>
     894:	490c270b 	stmdbmi	ip, {r0, r1, r3, r8, r9, sl, sp}
     898:	12011113 	andne	r1, r1, #-1073741820	; 0xc0000004
     89c:	01064001 	tsteq	r6, r1
     8a0:	0e000013 	mcreq	0, 0, r0, cr0, cr3, {0}
     8a4:	08030034 	stmdaeq	r3, {r2, r4, r5}
     8a8:	0b3b0b3a 	bleq	ec3598 <__standby_start+0xec3598>
     8ac:	00001349 	andeq	r1, r0, r9, asr #6
     8b0:	3f012e0f 	svccc	0x00012e0f
     8b4:	3a0e030c 	bcc	3814ec <__standby_start+0x3814ec>
     8b8:	270b3b0b 	strcs	r3, [fp, -fp, lsl #22]
     8bc:	1113490c 	tstne	r3, ip, lsl #18
     8c0:	40011201 	andmi	r1, r1, r1, lsl #4
     8c4:	0013010a 	andseq	r0, r3, sl, lsl #2
     8c8:	00051000 	andeq	r1, r5, r0
     8cc:	0b3a0e03 	bleq	e840e0 <__standby_start+0xe840e0>
     8d0:	13490b3b 	movtne	r0, #39739	; 0x9b3b
     8d4:	00000602 	andeq	r0, r0, r2, lsl #12
     8d8:	3f002e11 	svccc	0x00002e11
     8dc:	3a0e030c 	bcc	381514 <__standby_start+0x381514>
     8e0:	270b3b0b 	strcs	r3, [fp, -fp, lsl #22]
     8e4:	1201110c 	andne	r1, r1, #3
     8e8:	000a4001 	andeq	r4, sl, r1
     8ec:	00341200 	eorseq	r1, r4, r0, lsl #4
     8f0:	0b3a0e03 	bleq	e84104 <__standby_start+0xe84104>
     8f4:	13490b3b 	movtne	r0, #39739	; 0x9b3b
     8f8:	2e130000 	cdpcs	0, 1, cr0, cr3, cr0, {0}
     8fc:	030c3f01 	movweq	r3, #52993	; 0xcf01
     900:	3b0b3a0e 	blcc	2cf140 <__standby_start+0x2cf140>
     904:	110c270b 	tstne	ip, fp, lsl #14
     908:	40011201 	andmi	r1, r1, r1, lsl #4
     90c:	00130106 	andseq	r0, r3, r6, lsl #2
     910:	00051400 	andeq	r1, r5, r0, lsl #8
     914:	0b3a0803 	bleq	e82928 <__standby_start+0xe82928>
     918:	13490b3b 	movtne	r0, #39739	; 0x9b3b
     91c:	00000602 	andeq	r0, r0, r2, lsl #12
     920:	03003415 	movweq	r3, #1045	; 0x415
     924:	3b0b3a0e 	blcc	2cf164 <__standby_start+0x2cf164>
     928:	0213490b 	andseq	r4, r3, #180224	; 0x2c000
     92c:	1600000a 	strne	r0, [r0], -sl
     930:	0b0b000f 	bleq	2c0974 <__standby_start+0x2c0974>
     934:	00001349 	andeq	r1, r0, r9, asr #6
     938:	01110100 	tsteq	r1, r0, lsl #2
     93c:	0b130e25 	bleq	4c41d8 <__standby_start+0x4c41d8>
     940:	0e1b0e03 	cdpeq	14, 1, cr0, cr11, cr3, {0}
     944:	01120111 	tsteq	r2, r1, lsl r1
     948:	00000610 	andeq	r0, r0, r0, lsl r6
     94c:	0b002402 	bleq	995c <__standby_start+0x995c>
     950:	030b3e0b 	movweq	r3, #48651	; 0xbe0b
     954:	0300000e 	movweq	r0, #14
     958:	0b0b0024 	bleq	2c09f0 <__standby_start+0x2c09f0>
     95c:	08030b3e 	stmdaeq	r3, {r1, r2, r3, r4, r5, r8, r9, fp}
     960:	24040000 	strcs	r0, [r4]
     964:	3e0b0b00 	vmlacc.f64	d0, d11, d0
     968:	0500000b 	streq	r0, [r0, #-11]
     96c:	0e030016 	mcreq	0, 0, r0, cr3, cr6, {0}
     970:	0b3b0b3a 	bleq	ec3660 <__standby_start+0xec3660>
     974:	00001349 	andeq	r1, r0, r9, asr #6
     978:	03011306 	movweq	r1, #4870	; 0x1306
     97c:	3a0b0b0e 	bcc	2c35bc <__standby_start+0x2c35bc>
     980:	010b3b0b 	tsteq	fp, fp, lsl #22
     984:	07000013 	smladeq	r0, r3, r0, r0
     988:	0e03000d 	cdpeq	0, 0, cr0, cr3, cr13, {0}
     98c:	0b3b0b3a 	bleq	ec367c <__standby_start+0xec367c>
     990:	0a381349 	beq	e056bc <__standby_start+0xe056bc>
     994:	35080000 	strcc	r0, [r8]
     998:	00134900 	andseq	r4, r3, r0, lsl #18
     99c:	01040900 	tsteq	r4, r0, lsl #18
     9a0:	0b0b0e03 	bleq	2c41b4 <__standby_start+0x2c41b4>
     9a4:	0b3b0b3a 	bleq	ec3694 <__standby_start+0xec3694>
     9a8:	00001301 	andeq	r1, r0, r1, lsl #6
     9ac:	0300280a 	movweq	r2, #2058	; 0x80a
     9b0:	000d1c0e 	andeq	r1, sp, lr, lsl #24
     9b4:	012e0b00 	teqeq	lr, r0, lsl #22
     9b8:	0b3a0e03 	bleq	e841cc <__standby_start+0xe841cc>
     9bc:	0c270b3b 	stceq	11, cr0, [r7], #-236	; 0xffffff14
     9c0:	0b201349 	bleq	8056ec <__standby_start+0x8056ec>
     9c4:	00001301 	andeq	r1, r0, r1, lsl #6
     9c8:	0300340c 	movweq	r3, #1036	; 0x40c
     9cc:	3b0b3a0e 	blcc	2cf20c <__standby_start+0x2cf20c>
     9d0:	0013490b 	andseq	r4, r3, fp, lsl #18
     9d4:	012e0d00 	teqeq	lr, r0, lsl #26
     9d8:	0e030c3f 	mcreq	12, 0, r0, cr3, cr15, {1}
     9dc:	0b3b0b3a 	bleq	ec36cc <__standby_start+0xec36cc>
     9e0:	13490c27 	movtne	r0, #39975	; 0x9c27
     9e4:	01120111 	tsteq	r2, r1, lsl r1
     9e8:	13010a40 	movwne	r0, #6720	; 0x1a40
     9ec:	050e0000 	streq	r0, [lr]
     9f0:	3a0e0300 	bcc	3815f8 <__standby_start+0x3815f8>
     9f4:	490b3b0b 	stmdbmi	fp, {r0, r1, r3, r8, r9, fp, ip, sp}
     9f8:	00060213 	andeq	r0, r6, r3, lsl r2
     9fc:	012e0f00 	teqeq	lr, r0, lsl #30
     a00:	0e030c3f 	mcreq	12, 0, r0, cr3, cr15, {1}
     a04:	0b3b0b3a 	bleq	ec36f4 <__standby_start+0xec36f4>
     a08:	13490c27 	movtne	r0, #39975	; 0x9c27
     a0c:	01120111 	tsteq	r2, r1, lsl r1
     a10:	13010640 	movwne	r0, #5696	; 0x1640
     a14:	05100000 	ldreq	r0, [r0]
     a18:	3a080300 	bcc	201620 <__standby_start+0x201620>
     a1c:	490b3b0b 	stmdbmi	fp, {r0, r1, r3, r8, r9, fp, ip, sp}
     a20:	00060213 	andeq	r0, r6, r3, lsl r2
     a24:	00341100 	eorseq	r1, r4, r0, lsl #2
     a28:	0b3a0e03 	bleq	e8423c <__standby_start+0xe8423c>
     a2c:	13490b3b 	movtne	r0, #39739	; 0x9b3b
     a30:	00000602 	andeq	r0, r0, r2, lsl #12
     a34:	03003412 	movweq	r3, #1042	; 0x412
     a38:	3b0b3a08 	blcc	2cf260 <__standby_start+0x2cf260>
     a3c:	0213490b 	andseq	r4, r3, #180224	; 0x2c000
     a40:	13000006 	movwne	r0, #6
     a44:	0e03000a 	cdpeq	0, 0, cr0, cr3, cr10, {0}
     a48:	053b0b3a 	ldreq	r0, [fp, #-2874]!	; 0xb3a
     a4c:	00000111 	andeq	r0, r0, r1, lsl r1
     a50:	31011d14 	tstcc	r1, r4, lsl sp
     a54:	12011113 	andne	r1, r1, #-1073741820	; 0xc0000004
     a58:	590b5801 	stmdbpl	fp, {r0, fp, ip, lr}
     a5c:	15000005 	strne	r0, [r0, #-5]
     a60:	0111010b 	tsteq	r1, fp, lsl #2
     a64:	00000112 	andeq	r0, r0, r2, lsl r1
     a68:	31003416 	tstcc	r0, r6, lsl r4
     a6c:	00060213 	andeq	r0, r6, r3, lsl r2
     a70:	00341700 	eorseq	r1, r4, r0, lsl #14
     a74:	0a021331 	beq	85740 <__standby_start+0x85740>
     a78:	0f180000 	svceq	0x00180000
     a7c:	490b0b00 	stmdbmi	fp, {r8, r9, fp}
     a80:	19000013 	stmdbne	r0, {r0, r1, r4}
     a84:	0c3f002e 	ldceq	0, cr0, [pc], #-184	; 0xffffff48
     a88:	0b3a0e03 	bleq	e8429c <__standby_start+0xe8429c>
     a8c:	0c270b3b 	stceq	11, cr0, [r7], #-236	; 0xffffff14
     a90:	01111349 	tsteq	r1, r9, asr #6
     a94:	06400112 	undefined instruction 0x06400112
     a98:	011a0000 	tsteq	sl, r0
     a9c:	01134901 	tsteq	r3, r1, lsl #18
     aa0:	1b000013 	blne	af4 <__standby_start+0xaf4>
     aa4:	13490021 	movtne	r0, #36897	; 0x9021
     aa8:	00000b2f 	andeq	r0, r0, pc, lsr #22
     aac:	0300341c 	movweq	r3, #1052	; 0x41c
     ab0:	3b0b3a0e 	blcc	2cf2f0 <__standby_start+0x2cf2f0>
     ab4:	0213490b 	andseq	r4, r3, #180224	; 0x2c000
     ab8:	1d00000a 	stcne	0, cr0, [r0, #-40]	; 0xffffffd8
     abc:	13490026 	movtne	r0, #36902	; 0x9026
     ac0:	01000000 	tsteq	r0, r0
     ac4:	0e250111 	mcreq	1, 1, r0, cr5, cr1, {0}
     ac8:	0e030b13 	vmoveq.32	d3[0], r0
     acc:	01110e1b 	tsteq	r1, fp, lsl lr
     ad0:	06100112 	undefined instruction 0x06100112
     ad4:	24020000 	strcs	r0, [r2]
     ad8:	3e0b0b00 	vmlacc.f64	d0, d11, d0
     adc:	000e030b 	andeq	r0, lr, fp, lsl #6
     ae0:	00240300 	eoreq	r0, r4, r0, lsl #6
     ae4:	0b3e0b0b 	bleq	f83718 <__standby_start+0xf83718>
     ae8:	00000803 	andeq	r0, r0, r3, lsl #16
     aec:	0b002404 	bleq	9b04 <__standby_start+0x9b04>
     af0:	000b3e0b 	andeq	r3, fp, fp, lsl #28
     af4:	00160500 	andseq	r0, r6, r0, lsl #10
     af8:	0b3a0e03 	bleq	e8430c <__standby_start+0xe8430c>
     afc:	13490b3b 	movtne	r0, #39739	; 0x9b3b
     b00:	2e060000 	cdpcs	0, 0, cr0, cr6, cr0, {0}
     b04:	030c3f00 	movweq	r3, #52992	; 0xcf00
     b08:	3b0b3a0e 	blcc	2cf348 <__standby_start+0x2cf348>
     b0c:	490c270b 	stmdbmi	ip, {r0, r1, r3, r8, r9, sl, sp}
     b10:	12011113 	andne	r1, r1, #-1073741820	; 0xc0000004
     b14:	000a4001 	andeq	r4, sl, r1
     b18:	012e0700 	teqeq	lr, r0, lsl #14
     b1c:	0e030c3f 	mcreq	12, 0, r0, cr3, cr15, {1}
     b20:	0b3b0b3a 	bleq	ec3810 <__standby_start+0xec3810>
     b24:	13490c27 	movtne	r0, #39975	; 0x9c27
     b28:	01120111 	tsteq	r2, r1, lsl r1
     b2c:	13010a40 	movwne	r0, #6720	; 0x1a40
     b30:	05080000 	streq	r0, [r8]
     b34:	3a0e0300 	bcc	38173c <__standby_start+0x38173c>
     b38:	490b3b0b 	stmdbmi	fp, {r0, r1, r3, r8, r9, fp, ip, sp}
     b3c:	00060213 	andeq	r0, r6, r3, lsl r2
     b40:	11010000 	tstne	r1, r0
     b44:	11061000 	tstne	r6, r0
     b48:	03011201 	movweq	r1, #4609	; 0x1201
     b4c:	25081b08 	strcs	r1, [r8, #-2824]	; 0xb08
     b50:	00051308 	andeq	r1, r5, r8, lsl #6
     b54:	11010000 	tstne	r1, r0
     b58:	130e2501 	movwne	r2, #58625	; 0xe501
     b5c:	1b0e030b 	blne	381790 <__standby_start+0x381790>
     b60:	1201110e 	andne	r1, r1, #-2147483645	; 0x80000003
     b64:	00061001 	andeq	r1, r6, r1
     b68:	00240200 	eoreq	r0, r4, r0, lsl #4
     b6c:	0b3e0b0b 	bleq	f837a0 <__standby_start+0xf837a0>
     b70:	00000e03 	andeq	r0, r0, r3, lsl #28
     b74:	03001603 	movweq	r1, #1539	; 0x603
     b78:	3b0b3a0e 	blcc	2cf3b8 <__standby_start+0x2cf3b8>
     b7c:	0013490b 	andseq	r4, r3, fp, lsl #18
     b80:	00240400 	eoreq	r0, r4, r0, lsl #8
     b84:	0b3e0b0b 	bleq	f837b8 <__standby_start+0xf837b8>
     b88:	00000803 	andeq	r0, r0, r3, lsl #16
     b8c:	0b002405 	bleq	9ba8 <__standby_start+0x9ba8>
     b90:	000b3e0b 	andeq	r3, fp, fp, lsl #28
     b94:	012e0600 	teqeq	lr, r0, lsl #12
     b98:	0e030c3f 	mcreq	12, 0, r0, cr3, cr15, {1}
     b9c:	0b3b0b3a 	bleq	ec388c <__standby_start+0xec388c>
     ba0:	13490c27 	movtne	r0, #39975	; 0x9c27
     ba4:	13010b20 	movwne	r0, #6944	; 0x1b20
     ba8:	34070000 	strcc	r0, [r7]
     bac:	3a0e0300 	bcc	3817b4 <__standby_start+0x3817b4>
     bb0:	490b3b0b 	stmdbmi	fp, {r0, r1, r3, r8, r9, fp, ip, sp}
     bb4:	08000013 	stmdaeq	r0, {r0, r1, r4}
     bb8:	0e03012e 	adfeqsp	f0, f3, #0.5
     bbc:	0b3b0b3a 	bleq	ec38ac <__standby_start+0xec38ac>
     bc0:	13490c27 	movtne	r0, #39975	; 0x9c27
     bc4:	13010b20 	movwne	r0, #6944	; 0x1b20
     bc8:	05090000 	streq	r0, [r9]
     bcc:	3a0e0300 	bcc	3817d4 <__standby_start+0x3817d4>
     bd0:	490b3b0b 	stmdbmi	fp, {r0, r1, r3, r8, r9, fp, ip, sp}
     bd4:	0a000013 	beq	c28 <__standby_start+0xc28>
     bd8:	0c3f012e 	ldfeqs	f0, [pc], #-184	; 0xffffff48
     bdc:	0b3a0e03 	bleq	e843f0 <__standby_start+0xe843f0>
     be0:	0c270b3b 	stceq	11, cr0, [r7], #-236	; 0xffffff14
     be4:	01120111 	tsteq	r2, r1, lsl r1
     be8:	13010640 	movwne	r0, #5696	; 0x1640
     bec:	340b0000 	strcc	r0, [fp]
     bf0:	3a0e0300 	bcc	3817f8 <__standby_start+0x3817f8>
     bf4:	490b3b0b 	stmdbmi	fp, {r0, r1, r3, r8, r9, fp, ip, sp}
     bf8:	00060213 	andeq	r0, r6, r3, lsl r2
     bfc:	00350c00 	eorseq	r0, r5, r0, lsl #24
     c00:	00001349 	andeq	r1, r0, r9, asr #6
     c04:	3f012e0d 	svccc	0x00012e0d
     c08:	3a0e030c 	bcc	381840 <__standby_start+0x381840>
     c0c:	270b3b0b 	strcs	r3, [fp, -fp, lsl #22]
     c10:	1201110c 	andne	r1, r1, #3
     c14:	010a4001 	tsteq	sl, r1
     c18:	0e000013 	mcreq	0, 0, r0, cr0, cr3, {0}
     c1c:	0e030034 	mcreq	0, 0, r0, cr3, cr4, {1}
     c20:	0b3b0b3a 	bleq	ec3910 <__standby_start+0xec3910>
     c24:	0a021349 	beq	85950 <__standby_start+0x85950>
     c28:	050f0000 	streq	r0, [pc, #0]	; c30 <__standby_start+0xc30>
     c2c:	3a080300 	bcc	201834 <__standby_start+0x201834>
     c30:	490b3b0b 	stmdbmi	fp, {r0, r1, r3, r8, r9, fp, ip, sp}
     c34:	000a0213 	andeq	r0, sl, r3, lsl r2
     c38:	002e1000 	eoreq	r1, lr, r0
     c3c:	0e030c3f 	mcreq	12, 0, r0, cr3, cr15, {1}
     c40:	0b3b0b3a 	bleq	ec3930 <__standby_start+0xec3930>
     c44:	13490c27 	movtne	r0, #39975	; 0x9c27
     c48:	01120111 	tsteq	r2, r1, lsl r1
     c4c:	00000a40 	andeq	r0, r0, r0, asr #20
     c50:	3f012e11 	svccc	0x00012e11
     c54:	3a0e030c 	bcc	38188c <__standby_start+0x38188c>
     c58:	270b3b0b 	strcs	r3, [fp, -fp, lsl #22]
     c5c:	1113490c 	tstne	r3, ip, lsl #18
     c60:	40011201 	andmi	r1, r1, r1, lsl #4
     c64:	00130106 	andseq	r0, r3, r6, lsl #2
     c68:	00051200 	andeq	r1, r5, r0, lsl #4
     c6c:	0b3a0803 	bleq	e82c80 <__standby_start+0xe82c80>
     c70:	13490b3b 	movtne	r0, #39739	; 0x9b3b
     c74:	00000602 	andeq	r0, r0, r2, lsl #12
     c78:	03003413 	movweq	r3, #1043	; 0x413
     c7c:	3b0b3a08 	blcc	2cf4a4 <__standby_start+0x2cf4a4>
     c80:	0213490b 	andseq	r4, r3, #180224	; 0x2c000
     c84:	14000006 	strne	r0, [r0], #-6
     c88:	1331012e 	teqne	r1, #-2147483637	; 0x8000000b
     c8c:	01120111 	tsteq	r2, r1, lsl r1
     c90:	13010a40 	movwne	r0, #6720	; 0x1a40
     c94:	34150000 	ldrcc	r0, [r5]
     c98:	02133100 	andseq	r3, r3, #0
     c9c:	16000006 	strne	r0, [r0], -r6
     ca0:	0c3f002e 	ldceq	0, cr0, [pc], #-184	; 0xffffff48
     ca4:	0b3a0e03 	bleq	e844b8 <__standby_start+0xe844b8>
     ca8:	0c270b3b 	stceq	11, cr0, [r7], #-236	; 0xffffff14
     cac:	01120111 	tsteq	r2, r1, lsl r1
     cb0:	00000a40 	andeq	r0, r0, r0, asr #20
     cb4:	03000517 	movweq	r0, #1303	; 0x517
     cb8:	3b0b3a0e 	blcc	2cf4f8 <__standby_start+0x2cf4f8>
     cbc:	0213490b 	andseq	r4, r3, #180224	; 0x2c000
     cc0:	18000006 	stmdane	r0, {r1, r2}
     cc4:	0e030005 	cdpeq	0, 0, cr0, cr3, cr5, {0}
     cc8:	0b3b0b3a 	bleq	ec39b8 <__standby_start+0xec39b8>
     ccc:	0a021349 	beq	859f8 <__standby_start+0x859f8>
     cd0:	1d190000 	ldcne	0, cr0, [r9]
     cd4:	11133101 	tstne	r3, r1, lsl #2
     cd8:	58011201 	stmdapl	r1, {r0, r9, ip}
     cdc:	010b590b 	tsteq	fp, fp, lsl #18
     ce0:	1a000013 	bne	d34 <__standby_start+0xd34>
     ce4:	0111010b 	tsteq	r1, fp, lsl #2
     ce8:	00000112 	andeq	r0, r0, r2, lsl r1
     cec:	3100341b 	tstcc	r0, fp, lsl r4
     cf0:	1c000013 	stcne	0, cr0, [r0], {19}
     cf4:	1331011d 	teqne	r1, #1073741831	; 0x40000007
     cf8:	06550152 	undefined instruction 0x06550152
     cfc:	0b590b58 	bleq	1643a64 <__standby_start+0x1643a64>
     d00:	051d0000 	ldreq	r0, [sp]
     d04:	00133100 	andseq	r3, r3, r0, lsl #2
     d08:	00051e00 	andeq	r1, r5, r0, lsl #28
     d0c:	0a021331 	beq	859d8 <__standby_start+0x859d8>
     d10:	0b1f0000 	bleq	7c0d18 <__standby_start+0x7c0d18>
     d14:	00065501 	andeq	r5, r6, r1, lsl #10
     d18:	00342000 	eorseq	r2, r4, r0
     d1c:	0a021331 	beq	859e8 <__standby_start+0x859e8>
     d20:	1d210000 	stcne	0, cr0, [r1]
     d24:	11133101 	tstne	r3, r1, lsl #2
     d28:	58011201 	stmdapl	r1, {r0, r9, ip}
     d2c:	000b590b 	andeq	r5, fp, fp, lsl #18
     d30:	012e2200 	teqeq	lr, r0, lsl #4
     d34:	0e030c3f 	mcreq	12, 0, r0, cr3, cr15, {1}
     d38:	053b0b3a 	ldreq	r0, [fp, #-2874]!	; 0xb3a
     d3c:	01110c27 	tsteq	r1, r7, lsr #24
     d40:	0a400112 	beq	1001190 <__standby_start+0x1001190>
     d44:	00001301 	andeq	r1, r0, r1, lsl #6
     d48:	03000523 	movweq	r0, #1315	; 0x523
     d4c:	3b0b3a08 	blcc	2cf574 <__standby_start+0x2cf574>
     d50:	02134905 	andseq	r4, r3, #81920	; 0x14000
     d54:	24000006 	strcs	r0, [r0], #-6
     d58:	0c3f002e 	ldceq	0, cr0, [pc], #-184	; 0xffffff48
     d5c:	0b3a0e03 	bleq	e84570 <__standby_start+0xe84570>
     d60:	0c27053b 	cfstr32eq	mvfx0, [r7], #-236	; 0xffffff14
     d64:	01120111 	tsteq	r2, r1, lsl r1
     d68:	00000a40 	andeq	r0, r0, r0, asr #20
     d6c:	03003425 	movweq	r3, #1061	; 0x425
     d70:	3b0b3a0e 	blcc	2cf5b0 <__standby_start+0x2cf5b0>
     d74:	02134905 	andseq	r4, r3, #81920	; 0x14000
     d78:	2600000a 	strcs	r0, [r0], -sl
     d7c:	0c3f012e 	ldfeqs	f0, [pc], #-184	; 0xffffff48
     d80:	0b3a0e03 	bleq	e84594 <__standby_start+0xe84594>
     d84:	0c27053b 	cfstr32eq	mvfx0, [r7], #-236	; 0xffffff14
     d88:	01120111 	tsteq	r2, r1, lsl r1
     d8c:	13010640 	movwne	r0, #5696	; 0x1640
     d90:	34270000 	strtcc	r0, [r7]
     d94:	3a0e0300 	bcc	38199c <__standby_start+0x38199c>
     d98:	49053b0b 	stmdbmi	r5, {r0, r1, r3, r8, r9, fp, ip, sp}
     d9c:	00060213 	andeq	r0, r6, r3, lsl r2
     da0:	11010000 	tstne	r1, r0
     da4:	130e2501 	movwne	r2, #58625	; 0xe501
     da8:	1b0e030b 	blne	3819dc <__standby_start+0x3819dc>
     dac:	1201110e 	andne	r1, r1, #-2147483645	; 0x80000003
     db0:	00061001 	andeq	r1, r6, r1
     db4:	00240200 	eoreq	r0, r4, r0, lsl #4
     db8:	0b3e0b0b 	bleq	f839ec <__standby_start+0xf839ec>
     dbc:	00000e03 	andeq	r0, r0, r3, lsl #28
     dc0:	0b002403 	bleq	9dd4 <__standby_start+0x9dd4>
     dc4:	000b3e0b 	andeq	r3, fp, fp, lsl #28
     dc8:	00240400 	eoreq	r0, r4, r0, lsl #8
     dcc:	0b3e0b0b 	bleq	f83a00 <__standby_start+0xf83a00>
     dd0:	00000803 	andeq	r0, r0, r3, lsl #16
     dd4:	03001605 	movweq	r1, #1541	; 0x605
     dd8:	3b0b3a0e 	blcc	2cf618 <__standby_start+0x2cf618>
     ddc:	0013490b 	andseq	r4, r3, fp, lsl #18
     de0:	012e0600 	teqeq	lr, r0, lsl #12
     de4:	0e030c3f 	mcreq	12, 0, r0, cr3, cr15, {1}
     de8:	0b3b0b3a 	bleq	ec3ad8 <__standby_start+0xec3ad8>
     dec:	0b200c27 	bleq	803e90 <__standby_start+0x803e90>
     df0:	00001301 	andeq	r1, r0, r1, lsl #6
     df4:	03000507 	movweq	r0, #1287	; 0x507
     df8:	3b0b3a0e 	blcc	2cf638 <__standby_start+0x2cf638>
     dfc:	0013490b 	andseq	r4, r3, fp, lsl #18
     e00:	00050800 	andeq	r0, r5, r0, lsl #16
     e04:	0b3a0803 	bleq	e82e18 <__standby_start+0xe82e18>
     e08:	13490b3b 	movtne	r0, #39739	; 0x9b3b
     e0c:	34090000 	strcc	r0, [r9]
     e10:	3a0e0300 	bcc	381a18 <__standby_start+0x381a18>
     e14:	490b3b0b 	stmdbmi	fp, {r0, r1, r3, r8, r9, fp, ip, sp}
     e18:	0a000013 	beq	e6c <__standby_start+0xe6c>
     e1c:	0c3f012e 	ldfeqs	f0, [pc], #-184	; 0xffffff48
     e20:	0b3a0e03 	bleq	e84634 <__standby_start+0xe84634>
     e24:	0c270b3b 	stceq	11, cr0, [r7], #-236	; 0xffffff14
     e28:	0b201349 	bleq	805b54 <__standby_start+0x805b54>
     e2c:	00001301 	andeq	r1, r0, r1, lsl #6
     e30:	3f002e0b 	svccc	0x00002e0b
     e34:	3a0e030c 	bcc	381a6c <__standby_start+0x381a6c>
     e38:	270b3b0b 	strcs	r3, [fp, -fp, lsl #22]
     e3c:	000b200c 	andeq	r2, fp, ip
     e40:	012e0c00 	teqeq	lr, r0, lsl #24
     e44:	01111331 	tsteq	r1, r1, lsr r3
     e48:	0a400112 	beq	1001298 <__standby_start+0x1001298>
     e4c:	00001301 	andeq	r1, r0, r1, lsl #6
     e50:	3100050d 	tstcc	r0, sp, lsl #10
     e54:	000a0213 	andeq	r0, sl, r3, lsl r2
     e58:	00340e00 	eorseq	r0, r4, r0, lsl #28
     e5c:	0a021331 	beq	85b28 <__standby_start+0x85b28>
     e60:	050f0000 	streq	r0, [pc, #0]	; e68 <__standby_start+0xe68>
     e64:	02133100 	andseq	r3, r3, #0
     e68:	10000006 	andne	r0, r0, r6
     e6c:	0c3f012e 	ldfeqs	f0, [pc], #-184	; 0xffffff48
     e70:	0b3a0e03 	bleq	e84684 <__standby_start+0xe84684>
     e74:	0c270b3b 	stceq	11, cr0, [r7], #-236	; 0xffffff14
     e78:	01120111 	tsteq	r2, r1, lsl r1
     e7c:	13010640 	movwne	r0, #5696	; 0x1640
     e80:	05110000 	ldreq	r0, [r1]
     e84:	3a0e0300 	bcc	381a8c <__standby_start+0x381a8c>
     e88:	490b3b0b 	stmdbmi	fp, {r0, r1, r3, r8, r9, fp, ip, sp}
     e8c:	000a0213 	andeq	r0, sl, r3, lsl r2
     e90:	00051200 	andeq	r1, r5, r0, lsl #4
     e94:	0b3a0e03 	bleq	e846a8 <__standby_start+0xe846a8>
     e98:	13490b3b 	movtne	r0, #39739	; 0x9b3b
     e9c:	00000602 	andeq	r0, r0, r2, lsl #12
     ea0:	03003413 	movweq	r3, #1043	; 0x413
     ea4:	3b0b3a0e 	blcc	2cf6e4 <__standby_start+0x2cf6e4>
     ea8:	0213490b 	andseq	r4, r3, #180224	; 0x2c000
     eac:	14000006 	strne	r0, [r0], #-6
     eb0:	0c3f012e 	ldfeqs	f0, [pc], #-184	; 0xffffff48
     eb4:	0b3a0e03 	bleq	e846c8 <__standby_start+0xe846c8>
     eb8:	0c27053b 	cfstr32eq	mvfx0, [r7], #-236	; 0xffffff14
     ebc:	01120111 	tsteq	r2, r1, lsl r1
     ec0:	13010a40 	movwne	r0, #6720	; 0x1a40
     ec4:	05150000 	ldreq	r0, [r5]
     ec8:	3a0e0300 	bcc	381ad0 <__standby_start+0x381ad0>
     ecc:	49053b0b 	stmdbmi	r5, {r0, r1, r3, r8, r9, fp, ip, sp}
     ed0:	000a0213 	andeq	r0, sl, r3, lsl r2
     ed4:	00051600 	andeq	r1, r5, r0, lsl #12
     ed8:	0b3a0803 	bleq	e82eec <__standby_start+0xe82eec>
     edc:	1349053b 	movtne	r0, #38203	; 0x953b
     ee0:	00000a02 	andeq	r0, r0, r2, lsl #20
     ee4:	31011d17 	tstcc	r1, r7, lsl sp
     ee8:	12011113 	andne	r1, r1, #-1073741820	; 0xc0000004
     eec:	590b5801 	stmdbpl	fp, {r0, fp, ip, lr}
     ef0:	18000005 	stmdane	r0, {r0, r2}
     ef4:	13310005 	teqne	r1, #5
     ef8:	0b190000 	bleq	640f00 <__standby_start+0x640f00>
     efc:	12011101 	andne	r1, r1, #1073741824	; 0x40000000
     f00:	1a000001 	bne	f0c <__standby_start+0xf0c>
     f04:	0c3f012e 	ldfeqs	f0, [pc], #-184	; 0xffffff48
     f08:	0b3a0e03 	bleq	e8471c <__standby_start+0xe8471c>
     f0c:	0c27053b 	cfstr32eq	mvfx0, [r7], #-236	; 0xffffff14
     f10:	01111349 	tsteq	r1, r9, asr #6
     f14:	0a400112 	beq	1001364 <__standby_start+0x1001364>
     f18:	00001301 	andeq	r1, r0, r1, lsl #6
     f1c:	0300051b 	movweq	r0, #1307	; 0x51b
     f20:	3b0b3a0e 	blcc	2cf760 <__standby_start+0x2cf760>
     f24:	02134905 	andseq	r4, r3, #81920	; 0x14000
     f28:	1c000006 	stcne	0, cr0, [r0], {6}
     f2c:	0c3f012e 	ldfeqs	f0, [pc], #-184	; 0xffffff48
     f30:	0b3a0e03 	bleq	e84744 <__standby_start+0xe84744>
     f34:	0c270b3b 	stceq	11, cr0, [r7], #-236	; 0xffffff14
     f38:	01111349 	tsteq	r1, r9, asr #6
     f3c:	06400112 	undefined instruction 0x06400112
     f40:	00001301 	andeq	r1, r0, r1, lsl #6
     f44:	0300341d 	movweq	r3, #1053	; 0x41d
     f48:	3b0b3a08 	blcc	2cf770 <__standby_start+0x2cf770>
     f4c:	0013490b 	andseq	r4, r3, fp, lsl #18
     f50:	012e1e00 	teqeq	lr, r0, lsl #28
     f54:	0e030c3f 	mcreq	12, 0, r0, cr3, cr15, {1}
     f58:	0b3b0b3a 	bleq	ec3c48 <__standby_start+0xec3c48>
     f5c:	01110c27 	tsteq	r1, r7, lsr #24
     f60:	0a400112 	beq	10013b0 <__standby_start+0x10013b0>
     f64:	00001301 	andeq	r1, r0, r1, lsl #6
     f68:	3f002e1f 	svccc	0x00002e1f
     f6c:	3a0e030c 	bcc	381ba4 <__standby_start+0x381ba4>
     f70:	27053b0b 	strcs	r3, [r5, -fp, lsl #22]
     f74:	1201110c 	andne	r1, r1, #3
     f78:	000a4001 	andeq	r4, sl, r1
     f7c:	002e2000 	eoreq	r2, lr, r0
     f80:	01111331 	tsteq	r1, r1, lsr r3
     f84:	0a400112 	beq	10013d4 <__standby_start+0x10013d4>
     f88:	1d210000 	stcne	0, cr0, [r1]
     f8c:	11133100 	tstne	r3, r0, lsl #2
     f90:	58011201 	stmdapl	r1, {r0, r9, ip}
     f94:	0005590b 	andeq	r5, r5, fp, lsl #18
     f98:	00342200 	eorseq	r2, r4, r0, lsl #4
     f9c:	0b3a0803 	bleq	e82fb0 <__standby_start+0xe82fb0>
     fa0:	13490b3b 	movtne	r0, #39739	; 0x9b3b
     fa4:	00000a02 	andeq	r0, r0, r2, lsl #20
     fa8:	31011d23 	tstcc	r1, r3, lsr #26
     fac:	55015213 	strpl	r5, [r1, #-531]	; 0x213
     fb0:	590b5806 	stmdbpl	fp, {r1, r2, fp, ip, lr}
     fb4:	2400000b 	strcs	r0, [r0], #-11
     fb8:	0655010b 	ldrbeq	r0, [r5], -fp, lsl #2
     fbc:	34250000 	strtcc	r0, [r5]
     fc0:	3a080300 	bcc	201bc8 <__standby_start+0x201bc8>
     fc4:	490b3b0b 	stmdbmi	fp, {r0, r1, r3, r8, r9, fp, ip, sp}
     fc8:	00060213 	andeq	r0, r6, r3, lsl r2
     fcc:	00342600 	eorseq	r2, r4, r0, lsl #12
     fd0:	06021331 	undefined instruction 0x06021331
     fd4:	2e270000 	cdpcs	0, 2, cr0, cr7, cr0, {0}
     fd8:	030c3f01 	movweq	r3, #52993	; 0xcf01
     fdc:	3b0b3a0e 	blcc	2cf81c <__standby_start+0x2cf81c>
     fe0:	490c2705 	stmdbmi	ip, {r0, r2, r8, r9, sl, sp}
     fe4:	12011113 	andne	r1, r1, #-1073741820	; 0xc0000004
     fe8:	01064001 	tsteq	r6, r1
     fec:	28000013 	stmdacs	r0, {r0, r1, r4}
     ff0:	0e030034 	mcreq	0, 0, r0, cr3, cr4, {1}
     ff4:	053b0b3a 	ldreq	r0, [fp, #-2874]!	; 0xb3a
     ff8:	00001349 	andeq	r1, r0, r9, asr #6
     ffc:	03003429 	movweq	r3, #1065	; 0x429
    1000:	3b0b3a08 	blcc	2cf828 <__standby_start+0x2cf828>
    1004:	00134905 	andseq	r4, r3, r5, lsl #18
    1008:	00342a00 	eorseq	r2, r4, r0, lsl #20
    100c:	0b3a0e03 	bleq	e84820 <__standby_start+0xe84820>
    1010:	1349053b 	movtne	r0, #38203	; 0x953b
    1014:	00000602 	andeq	r0, r0, r2, lsl #12
    1018:	0300342b 	movweq	r3, #1067	; 0x42b
    101c:	3b0b3a0e 	blcc	2cf85c <__standby_start+0x2cf85c>
    1020:	02134905 	andseq	r4, r3, #81920	; 0x14000
    1024:	2c00000a 	stccs	0, cr0, [r0], {10}
    1028:	0c3f002e 	ldceq	0, cr0, [pc], #-184	; 0xffffff48
    102c:	0b3a0e03 	bleq	e84840 <__standby_start+0xe84840>
    1030:	0c27053b 	cfstr32eq	mvfx0, [r7], #-236	; 0xffffff14
    1034:	01111349 	tsteq	r1, r9, asr #6
    1038:	0a400112 	beq	1001488 <__standby_start+0x1001488>
    103c:	01000000 	tsteq	r0, r0
    1040:	0e250111 	mcreq	1, 1, r0, cr5, cr1, {0}
    1044:	0e030b13 	vmoveq.32	d3[0], r0
    1048:	01110e1b 	tsteq	r1, fp, lsl lr
    104c:	06100112 	undefined instruction 0x06100112
    1050:	24020000 	strcs	r0, [r2]
    1054:	3e0b0b00 	vmlacc.f64	d0, d11, d0
    1058:	000e030b 	andeq	r0, lr, fp, lsl #6
    105c:	00240300 	eoreq	r0, r4, r0, lsl #6
    1060:	0b3e0b0b 	bleq	f83c94 <__standby_start+0xf83c94>
    1064:	13040000 	movwne	r0, #16384	; 0x4000
    1068:	0b0e0301 	bleq	381c74 <__standby_start+0x381c74>
    106c:	3b0b3a0b 	blcc	2cf8a0 <__standby_start+0x2cf8a0>
    1070:	0013010b 	andseq	r0, r3, fp, lsl #2
    1074:	000d0500 	andeq	r0, sp, r0, lsl #10
    1078:	0b3a0e03 	bleq	e8488c <__standby_start+0xe8488c>
    107c:	13490b3b 	movtne	r0, #39739	; 0x9b3b
    1080:	00000a38 	andeq	r0, r0, r8, lsr sl
    1084:	0b002406 	bleq	a0a4 <__standby_start+0xa0a4>
    1088:	030b3e0b 	movweq	r3, #48651	; 0xbe0b
    108c:	07000008 	streq	r0, [r0, -r8]
    1090:	0e030016 	mcreq	0, 0, r0, cr3, cr6, {0}
    1094:	0b3b0b3a 	bleq	ec3d84 <__standby_start+0xec3d84>
    1098:	00001349 	andeq	r1, r0, r9, asr #6
    109c:	3f002e08 	svccc	0x00002e08
    10a0:	3a0e030c 	bcc	381cd8 <__standby_start+0x381cd8>
    10a4:	27053b0b 	strcs	r3, [r5, -fp, lsl #22]
    10a8:	2013490c 	andscs	r4, r3, ip, lsl #18
    10ac:	0900000b 	stmdbeq	r0, {r0, r1, r3}
    10b0:	0c3f012e 	ldfeqs	f0, [pc], #-184	; 0xffffff48
    10b4:	0b3a0e03 	bleq	e848c8 <__standby_start+0xe848c8>
    10b8:	0c270b3b 	stceq	11, cr0, [r7], #-236	; 0xffffff14
    10bc:	13010b20 	movwne	r0, #6944	; 0x1b20
    10c0:	340a0000 	strcc	r0, [sl]
    10c4:	3a0e0300 	bcc	381ccc <__standby_start+0x381ccc>
    10c8:	490b3b0b 	stmdbmi	fp, {r0, r1, r3, r8, r9, fp, ip, sp}
    10cc:	0b000013 	bleq	1120 <__standby_start+0x1120>
    10d0:	0c3f012e 	ldfeqs	f0, [pc], #-184	; 0xffffff48
    10d4:	0b3a0e03 	bleq	e848e8 <__standby_start+0xe848e8>
    10d8:	0c27053b 	cfstr32eq	mvfx0, [r7], #-236	; 0xffffff14
    10dc:	13010b20 	movwne	r0, #6944	; 0x1b20
    10e0:	050c0000 	streq	r0, [ip]
    10e4:	3a080300 	bcc	201cec <__standby_start+0x201cec>
    10e8:	49053b0b 	stmdbmi	r5, {r0, r1, r3, r8, r9, fp, ip, sp}
    10ec:	0d000013 	stceq	0, cr0, [r0, #-76]	; 0xffffffb4
    10f0:	0e030034 	mcreq	0, 0, r0, cr3, cr4, {1}
    10f4:	053b0b3a 	ldreq	r0, [fp, #-2874]!	; 0xb3a
    10f8:	00001349 	andeq	r1, r0, r9, asr #6
    10fc:	3f012e0e 	svccc	0x00012e0e
    1100:	3a0e030c 	bcc	381d38 <__standby_start+0x381d38>
    1104:	27053b0b 	strcs	r3, [r5, -fp, lsl #22]
    1108:	2013490c 	andscs	r4, r3, ip, lsl #18
    110c:	0013010b 	andseq	r0, r3, fp, lsl #2
    1110:	012e0f00 	teqeq	lr, r0, lsl #30
    1114:	0b3a0e03 	bleq	e84928 <__standby_start+0xe84928>
    1118:	0c270b3b 	stceq	11, cr0, [r7], #-236	; 0xffffff14
    111c:	0b201349 	bleq	805e48 <__standby_start+0x805e48>
    1120:	00001301 	andeq	r1, r0, r1, lsl #6
    1124:	03000510 	movweq	r0, #1296	; 0x510
    1128:	3b0b3a0e 	blcc	2cf968 <__standby_start+0x2cf968>
    112c:	0013490b 	andseq	r4, r3, fp, lsl #18
    1130:	00341100 	eorseq	r1, r4, r0, lsl #2
    1134:	0b3a0803 	bleq	e83148 <__standby_start+0xe83148>
    1138:	13490b3b 	movtne	r0, #39739	; 0x9b3b
    113c:	2e120000 	cdpcs	0, 1, cr0, cr2, cr0, {0}
    1140:	11133101 	tstne	r3, r1, lsl #2
    1144:	40011201 	andmi	r1, r1, r1, lsl #4
    1148:	0013010a 	andseq	r0, r3, sl, lsl #2
    114c:	00341300 	eorseq	r1, r4, r0, lsl #6
    1150:	0a021331 	beq	85e1c <__standby_start+0x85e1c>
    1154:	2e140000 	cdpcs	0, 1, cr0, cr4, cr0, {0}
    1158:	030c3f01 	movweq	r3, #52993	; 0xcf01
    115c:	3b0b3a0e 	blcc	2cf99c <__standby_start+0x2cf99c>
    1160:	110c270b 	tstne	ip, fp, lsl #14
    1164:	40011201 	andmi	r1, r1, r1, lsl #4
    1168:	0013010a 	andseq	r0, r3, sl, lsl #2
    116c:	00341500 	eorseq	r1, r4, r0, lsl #10
    1170:	0b3a0e03 	bleq	e84984 <__standby_start+0xe84984>
    1174:	13490b3b 	movtne	r0, #39739	; 0x9b3b
    1178:	00000a02 	andeq	r0, r0, r2, lsl #20
    117c:	31002e16 	tstcc	r0, r6, lsl lr
    1180:	12011113 	andne	r1, r1, #-1073741820	; 0xc0000004
    1184:	000a4001 	andeq	r4, sl, r1
    1188:	00341700 	eorseq	r1, r4, r0, lsl #14
    118c:	06021331 	undefined instruction 0x06021331
    1190:	05180000 	ldreq	r0, [r8]
    1194:	02133100 	andseq	r3, r3, #0
    1198:	1900000a 	stmdbne	r0, {r1, r3}
    119c:	13310034 	teqne	r1, #52	; 0x34
    11a0:	2e1a0000 	cdpcs	0, 1, cr0, cr10, cr0, {0}
    11a4:	030c3f01 	movweq	r3, #52993	; 0xcf01
    11a8:	3b0b3a0e 	blcc	2cf9e8 <__standby_start+0x2cf9e8>
    11ac:	490c2705 	stmdbmi	ip, {r0, r2, r8, r9, sl, sp}
    11b0:	12011113 	andne	r1, r1, #-1073741820	; 0xc0000004
    11b4:	010a4001 	tsteq	sl, r1
    11b8:	1b000013 	blne	120c <__standby_start+0x120c>
    11bc:	0e030034 	mcreq	0, 0, r0, cr3, cr4, {1}
    11c0:	053b0b3a 	ldreq	r0, [fp, #-2874]!	; 0xb3a
    11c4:	06021349 	streq	r1, [r2], -r9, asr #6
    11c8:	2e1c0000 	cdpcs	0, 1, cr0, cr12, cr0, {0}
    11cc:	030c3f00 	movweq	r3, #52992	; 0xcf00
    11d0:	3b0b3a0e 	blcc	2cfa10 <__standby_start+0x2cfa10>
    11d4:	490c2705 	stmdbmi	ip, {r0, r2, r8, r9, sl, sp}
    11d8:	12011113 	andne	r1, r1, #-1073741820	; 0xc0000004
    11dc:	000a4001 	andeq	r4, sl, r1
    11e0:	012e1d00 	teqeq	lr, r0, lsl #26
    11e4:	0e030c3f 	mcreq	12, 0, r0, cr3, cr15, {1}
    11e8:	053b0b3a 	ldreq	r0, [fp, #-2874]!	; 0xb3a
    11ec:	01110c27 	tsteq	r1, r7, lsr #24
    11f0:	0a400112 	beq	1001640 <__standby_start+0x1001640>
    11f4:	00001301 	andeq	r1, r0, r1, lsl #6
    11f8:	31011d1e 	tstcc	r1, lr, lsl sp
    11fc:	12011113 	andne	r1, r1, #-1073741820	; 0xc0000004
    1200:	590b5801 	stmdbpl	fp, {r0, fp, ip, lr}
    1204:	1f000005 	svcne	0x00000005
    1208:	0111010b 	tsteq	r1, fp, lsl #2
    120c:	00000112 	andeq	r0, r0, r2, lsl r1
    1210:	03000520 	movweq	r0, #1312	; 0x520
    1214:	3b0b3a08 	blcc	2cfa3c <__standby_start+0x2cfa3c>
    1218:	02134905 	andseq	r4, r3, #81920	; 0x14000
    121c:	2100000a 	tstcs	r0, sl
    1220:	13310005 	teqne	r1, #5
    1224:	2e220000 	cdpcs	0, 2, cr0, cr2, cr0, {0}
    1228:	030c3f01 	movweq	r3, #52993	; 0xcf01
    122c:	3b0b3a0e 	blcc	2cfa6c <__standby_start+0x2cfa6c>
    1230:	110c270b 	tstne	ip, fp, lsl #14
    1234:	40011201 	andmi	r1, r1, r1, lsl #4
    1238:	00130106 	andseq	r0, r3, r6, lsl #2
    123c:	00052300 	andeq	r2, r5, r0, lsl #6
    1240:	0b3a0803 	bleq	e83254 <__standby_start+0xe83254>
    1244:	13490b3b 	movtne	r0, #39739	; 0x9b3b
    1248:	00000602 	andeq	r0, r0, r2, lsl #12
    124c:	03003424 	movweq	r3, #1060	; 0x424
    1250:	3b0b3a0e 	blcc	2cfa90 <__standby_start+0x2cfa90>
    1254:	0213490b 	andseq	r4, r3, #180224	; 0x2c000
    1258:	25000006 	strcs	r0, [r0, #-6]
    125c:	1331011d 	teqne	r1, #1073741831	; 0x40000007
    1260:	06550152 	undefined instruction 0x06550152
    1264:	0b590b58 	bleq	1643fcc <__standby_start+0x1643fcc>
    1268:	0b260000 	bleq	981270 <__standby_start+0x981270>
    126c:	00065501 	andeq	r5, r6, r1, lsl #10
    1270:	00052700 	andeq	r2, r5, r0, lsl #14
    1274:	0b3a0803 	bleq	e83288 <__standby_start+0xe83288>
    1278:	1349053b 	movtne	r0, #38203	; 0x953b
    127c:	00000602 	andeq	r0, r0, r2, lsl #12
    1280:	03000528 	movweq	r0, #1320	; 0x528
    1284:	3b0b3a0e 	blcc	2cfac4 <__standby_start+0x2cfac4>
    1288:	0213490b 	andseq	r4, r3, #180224	; 0x2c000
    128c:	29000006 	stmdbcs	r0, {r1, r2}
    1290:	08030034 	stmdaeq	r3, {r2, r4, r5}
    1294:	0b3b0b3a 	bleq	ec3f84 <__standby_start+0xec3f84>
    1298:	06021349 	streq	r1, [r2], -r9, asr #6
    129c:	2e2a0000 	cdpcs	0, 2, cr0, cr10, cr0, {0}
    12a0:	030c3f01 	movweq	r3, #52993	; 0xcf01
    12a4:	3b0b3a0e 	blcc	2cfae4 <__standby_start+0x2cfae4>
    12a8:	490c270b 	stmdbmi	ip, {r0, r1, r3, r8, r9, sl, sp}
    12ac:	12011113 	andne	r1, r1, #-1073741820	; 0xc0000004
    12b0:	01064001 	tsteq	r6, r1
    12b4:	2b000013 	blcs	1308 <__standby_start+0x1308>
    12b8:	1331011d 	teqne	r1, #1073741831	; 0x40000007
    12bc:	01120111 	tsteq	r2, r1, lsl r1
    12c0:	0b590b58 	bleq	1644028 <__standby_start+0x1644028>
    12c4:	00001301 	andeq	r1, r0, r1, lsl #6
    12c8:	31011d2c 	tstcc	r1, ip, lsr #26
    12cc:	12011113 	andne	r1, r1, #-1073741820	; 0xc0000004
    12d0:	590b5801 	stmdbpl	fp, {r0, fp, ip, lr}
    12d4:	00130105 	andseq	r0, r3, r5, lsl #2
    12d8:	011d2d00 	tsteq	sp, r0, lsl #26
    12dc:	01521331 	cmpeq	r2, r1, lsr r3
    12e0:	0b580655 	bleq	1602c3c <__standby_start+0x1602c3c>
    12e4:	13010559 	movwne	r0, #5465	; 0x1559
    12e8:	0f2e0000 	svceq	0x002e0000
    12ec:	490b0b00 	stmdbmi	fp, {r8, r9, fp}
    12f0:	2f000013 	svccs	0x00000013
    12f4:	13490101 	movtne	r0, #37121	; 0x9101
    12f8:	00001301 	andeq	r1, r0, r1, lsl #6
    12fc:	49002130 	stmdbmi	r0, {r4, r5, r8, sp}
    1300:	000b2f13 	andeq	r2, fp, r3, lsl pc
    1304:	00343100 	eorseq	r3, r4, r0, lsl #2
    1308:	0b3a0e03 	bleq	e84b1c <__standby_start+0xe84b1c>
    130c:	13490b3b 	movtne	r0, #39739	; 0x9b3b
    1310:	0a020c3f 	beq	84414 <__standby_start+0x84414>
    1314:	Address 0x00001314 is out of bounds.


Disassembly of section .debug_info:

00000000 <.debug_info>:
       0:	000003d8 	ldrdeq	r0, [r0], -r8
       4:	00000002 	andeq	r0, r0, r2
       8:	01040000 	tsteq	r4, r0
       c:	0000035d 	andeq	r0, r0, sp, asr r3
      10:	00024501 	andeq	r4, r2, r1, lsl #10
      14:	00027400 	andeq	r7, r2, r0, lsl #8
      18:	00000000 	andeq	r0, r0, r0
      1c:	0003b8f0 	strdeq	fp, [r3], -r0
      20:	000000f0 	strdeq	r0, [r0], -r0
      24:	01720200 	cmneq	r2, r0, lsl #4
      28:	02080000 	andeq	r0, r8, #0
      2c:	00004e34 	andeq	r4, r0, r4, lsr lr
      30:	01420300 	cmpeq	r2, r0, lsl #6
      34:	35020000 	strcc	r0, [r2]
      38:	0000004e 	andeq	r0, r0, lr, asr #32
      3c:	03002302 	movweq	r2, #770	; 0x302
      40:	00000216 	andeq	r0, r0, r6, lsl r2
      44:	00553602 	subseq	r3, r5, r2, lsl #12
      48:	23020000 	movwcs	r0, #8192	; 0x2000
      4c:	04040004 	streq	r0, [r4], #-4
      50:	0001ff07 	andeq	pc, r1, r7, lsl #30
      54:	08010400 	stmdaeq	r1, {sl}
      58:	00000190 	muleq	r0, r0, r1
      5c:	00031702 	andeq	r1, r3, r2, lsl #14
      60:	4102d400 	tstmi	r2, r0, lsl #8
      64:	000000ce 	andeq	r0, r0, lr, asr #1
      68:	001a6d03 	andseq	r6, sl, r3, lsl #26
      6c:	4e420200 	cdpmi	2, 4, cr0, cr2, cr0, {0}
      70:	02000000 	andeq	r0, r0, #0
      74:	0c030023 	stceq	0, cr0, [r3], {35}	; 0x23
      78:	02000002 	andeq	r0, r0, #2
      7c:	00004e43 	andeq	r4, r0, r3, asr #28
      80:	04230200 	strteq	r0, [r3], #-512	; 0x200
      84:	00008803 	andeq	r8, r0, r3, lsl #16
      88:	ce440200 	cdpgt	2, 4, cr0, cr4, cr0, {0}
      8c:	02000000 	andeq	r0, r0, #0
      90:	eb030823 	bl	c2124 <__standby_start+0xc2124>
      94:	02000001 	andeq	r0, r0, #1
      98:	0000d545 	andeq	sp, r0, r5, asr #10
      9c:	0c230200 	sfmeq	f0, 4, [r3]	; (stceq 2, cr0, [r3])
      a0:	00035103 	andeq	r5, r3, r3, lsl #2
      a4:	4e460200 	cdpmi	2, 4, cr0, cr6, cr0, {0}
      a8:	03000000 	movweq	r0, #0
      ac:	03018c23 	movweq	r8, #7203	; 0x1c23
      b0:	0000006d 	andeq	r0, r0, sp, rrx
      b4:	00e84702 	rsceq	r4, r8, r2, lsl #14
      b8:	23030000 	movwcs	r0, #12288	; 0x3000
      bc:	d0030190 	mulle	r3, r0, r1
      c0:	02000000 	andeq	r0, r0, #0
      c4:	00004e48 	andeq	r4, r0, r8, asr #28
      c8:	d0230300 	eorle	r0, r3, r0, lsl #6
      cc:	04050001 	streq	r0, [r5], #-1
      d0:	746e6905 	strbtvc	r6, [lr], #-2309	; 0x905
      d4:	00550600 	subseq	r0, r5, r0, lsl #12
      d8:	00e50000 	rsceq	r0, r5, r0
      dc:	e5070000 	str	r0, [r7]
      e0:	7f000000 	svcvc	0x00000000
      e4:	07040800 	streq	r0, [r4, -r0, lsl #16]
      e8:	00005506 	andeq	r5, r0, r6, lsl #10
      ec:	0000f800 	andeq	pc, r0, r0, lsl #16
      f0:	00e50700 	rsceq	r0, r5, r0, lsl #14
      f4:	003f0000 	eorseq	r0, pc, r0
      f8:	00022902 	andeq	r2, r2, r2, lsl #18
      fc:	5802dc00 	stmdapl	r2, {sl, fp, ip, lr, pc}
     100:	00000122 	andeq	r0, r0, r2, lsr #2
     104:	00031a03 	andeq	r1, r3, r3, lsl #20
     108:	5c590200 	lfmpl	f0, 2, [r9], {0}	; (ldclpl 2, cr0, [r9], {0})
     10c:	02000000 	andeq	r0, r0, #0
     110:	75030023 	strvc	r0, [r3, #-35]	; 0x23
     114:	02000001 	andeq	r0, r0, #1
     118:	0000255a 	andeq	r2, r0, sl, asr r5
     11c:	d4230300 	strtle	r0, [r3], #-768	; 0x300
     120:	01040001 	tsteq	r4, r1
     124:	00019206 	andeq	r9, r1, r6, lsl #4
     128:	02cd0900 	sbceq	r0, sp, #0
     12c:	16030000 	strne	r0, [r3], -r0
     130:	00000055 	andeq	r0, r0, r5, asr r0
     134:	b4050204 	strlt	r0, [r5], #-516	; 0x204
     138:	04000001 	streq	r0, [r0], #-1
     13c:	02610702 	rsbeq	r0, r1, #524288	; 0x80000
     140:	3c090000 	stccc	0, cr0, [r9], {0}
     144:	03000001 	movweq	r0, #1
     148:	00004e1a 	andeq	r4, r0, sl, lsl lr
     14c:	05080400 	streq	r0, [r8, #-1024]	; 0x400
     150:	00000153 	andeq	r0, r0, r3, asr r1
     154:	f5070804 	undefined instruction 0xf5070804
     158:	02000001 	andeq	r0, r0, #1
     15c:	000000bb 	strheq	r0, [r0], -fp
     160:	bd190404 	cfldrslt	mvf0, [r9, #-16]
     164:	0a000001 	beq	170 <__standby_start+0x170>
     168:	00000021 	andeq	r0, r0, r1, lsr #32
     16c:	01421a04 	cmpeq	r2, r4, lsl #20
     170:	04040000 	streq	r0, [r4]
     174:	0023021c 	eoreq	r0, r3, ip, lsl r2
     178:	0000dd0a 	andeq	sp, r0, sl, lsl #26
     17c:	421b0400 	andsmi	r0, fp, #0
     180:	04000001 	streq	r0, [r0], #-1
     184:	23021804 	movwcs	r1, #10244	; 0x2804
     188:	01610a00 	cmneq	r1, r0, lsl #20
     18c:	1c040000 	stcne	0, cr0, [r4], {0}
     190:	00000142 	andeq	r0, r0, r2, asr #2
     194:	02140404 	andseq	r0, r4, #67108864	; 0x4000000
     198:	4b0a0023 	blmi	28022c <__standby_start+0x28022c>
     19c:	04000001 	streq	r0, [r0], #-1
     1a0:	0001421d 	andeq	r4, r1, sp, lsl r2
     1a4:	10040400 	andne	r0, r4, r0, lsl #8
     1a8:	0a002302 	beq	8db8 <__standby_start+0x8db8>
     1ac:	00000169 	andeq	r0, r0, r9, ror #2
     1b0:	01421e04 	cmpeq	r2, r4, lsl #28
     1b4:	10040000 	andne	r0, r4, r0
     1b8:	00230200 	eoreq	r0, r3, r0, lsl #4
     1bc:	02340b00 	eorseq	r0, r4, #0
     1c0:	05040000 	streq	r0, [r4]
     1c4:	0001f417 	andeq	pc, r1, r7, lsl r4
     1c8:	010c0c00 	tsteq	ip, r0, lsl #24
     1cc:	0c000000 	stceq	0, cr0, [r0], {0}
     1d0:	0000011c 	andeq	r0, r0, ip, lsl r1
     1d4:	012c0c01 	teqeq	ip, r1, lsl #24
     1d8:	0c020000 	stceq	0, cr0, [r2], {0}
     1dc:	000001be 	undefined instruction 0x000001be
     1e0:	01cd0c03 	biceq	r0, sp, r3, lsl #24
     1e4:	0c040000 	stceq	0, cr0, [r4], {0}
     1e8:	000001dc 	ldrdeq	r0, [r0], -ip
     1ec:	02ad0c05 	adceq	r0, sp, #1280	; 0x500
     1f0:	00060000 	andeq	r0, r6, r0
     1f4:	0000f90b 	andeq	pc, r0, fp, lsl #18
     1f8:	19060400 	stmdbne	r6, {sl}
     1fc:	0000025d 	andeq	r0, r0, sp, asr r2
     200:	00024f0c 	andeq	r4, r2, ip, lsl #30
     204:	330c0000 	movwcc	r0, #49152	; 0xc000
     208:	05000003 	streq	r0, [r0, #-3]
     20c:	0003420c 	andeq	r4, r3, ip, lsl #4
     210:	050c0600 	streq	r0, [ip, #-1536]	; 0x600
     214:	15000003 	strne	r0, [r0, #-3]
     218:	0002e10c 	andeq	lr, r2, ip, lsl #2
     21c:	f30c1600 	vmax.u8	d1, d12, d0
     220:	17000002 	strne	r0, [r0, -r2]
     224:	0003690c 	andeq	r6, r3, ip, lsl #18
     228:	d20c1800 	andle	r1, ip, #0
     22c:	1c000002 	stcne	0, cr0, [r0], {2}
     230:	0000e50c 	andeq	lr, r0, ip, lsl #10
     234:	bc0c1d00 	stclt	13, cr1, [ip], {0}
     238:	1f000002 	svcne	0x00000002
     23c:	0000360c 	andeq	r3, r0, ip, lsl #12
     240:	460c2600 	strmi	r2, [ip], -r0, lsl #12
     244:	27000000 	strcs	r0, [r0, -r0]
     248:	0000910c 	andeq	r9, r0, ip, lsl #2
     24c:	a10c2800 	tstge	ip, r0, lsl #16
     250:	c0000000 	andgt	r0, r0, r0
     254:	00780c00 	rsbseq	r0, r8, r0, lsl #24
     258:	00c10000 	sbceq	r0, r1, r0
     25c:	00290200 	eoreq	r0, r9, r0, lsl #4
     260:	07080000 	streq	r0, [r8, -r0]
     264:	0002b018 	andeq	fp, r2, r8, lsl r0
     268:	00110300 	andseq	r0, r1, r0, lsl #6
     26c:	19070000 	stmdbne	r7, {}
     270:	00000129 	andeq	r0, r0, r9, lsr #2
     274:	03002302 	movweq	r2, #770	; 0x302
     278:	0000037a 	andeq	r0, r0, sl, ror r3
     27c:	01291a07 	teqeq	r9, r7, lsl #20
     280:	23020000 	movwcs	r0, #8192	; 0x2000
     284:	00090301 	andeq	r0, r9, r1, lsl #6
     288:	1b070000 	blne	1c0290 <__standby_start+0x1c0290>
     28c:	00000129 	andeq	r0, r0, r9, lsr #2
     290:	03022302 	movweq	r2, #8962	; 0x2302
     294:	00000019 	andeq	r0, r0, r9, lsl r0
     298:	01291c07 	teqeq	r9, r7, lsl #24
     29c:	23020000 	movwcs	r0, #8192	; 0x2000
     2a0:	6c500d03 	mrrcvs	13, 0, r0, r0, cr3
     2a4:	1d07006c 	stcne	0, cr0, [r7, #-432]	; 0xfffffe50
     2a8:	00000142 	andeq	r0, r0, r2, asr #2
     2ac:	00042302 	andeq	r2, r4, r2, lsl #6
     2b0:	00014206 	andeq	r4, r1, r6, lsl #4
     2b4:	0002c000 	andeq	ip, r2, r0
     2b8:	00e50700 	rsceq	r0, r5, r0, lsl #14
     2bc:	000f0000 	andeq	r0, pc, r0
     2c0:	0002a50e 	andeq	sl, r2, lr, lsl #10
     2c4:	01c40100 	biceq	r0, r4, r0, lsl #2
     2c8:	cb010f01 	blgt	43ed4 <__standby_start+0x43ed4>
     2cc:	01000000 	tsteq	r0, r0
     2d0:	00ce013d 	sbceq	r0, lr, sp, lsr r1
     2d4:	00000000 	andeq	r0, r0, r0
     2d8:	03b8f000 	undefined instruction 0x03b8f000
     2dc:	0000f000 	andeq	pc, r0, r0
     2e0:	03140000 	tsteq	r4, #0
     2e4:	61100000 	tstvs	r0, r0
     2e8:	01006772 	tsteq	r0, r2, ror r7
     2ec:	0003143d 	andeq	r1, r3, sp, lsr r4
     2f0:	00001f00 	andeq	r1, r0, r0, lsl #30
     2f4:	017d1100 	cmneq	sp, r0, lsl #2
     2f8:	3f010000 	svccc	0x00010000
     2fc:	0000031a 	andeq	r0, r0, sl, lsl r3
     300:	0000003d 	andeq	r0, r0, sp, lsr r0
     304:	0002c012 	andeq	ip, r2, r2, lsl r0
     308:	00013800 	andeq	r3, r1, r0, lsl #16
     30c:	000000f0 	strdeq	r0, [r0], -r0
     310:	00840100 	addeq	r0, r4, r0, lsl #2
     314:	00f80413 	rscseq	r0, r8, r3, lsl r4
     318:	04130000 	ldreq	r0, [r3]
     31c:	00000320 	andeq	r0, r0, r0, lsr #6
     320:	99080104 	stmdbls	r8, {r2, r8}
     324:	14000001 	strne	r0, [r0], #-1
     328:	0000021f 	andeq	r0, r0, pc, lsl r2
     32c:	01421e01 	cmpeq	r2, r1, lsl #28
     330:	03050000 	movweq	r0, #20480	; 0x5000
     334:	f0002a54 	undefined instruction 0xf0002a54
     338:	00032714 	andeq	r2, r3, r4, lsl r7
     33c:	42200100 	eormi	r0, r0, #0
     340:	05000001 	streq	r0, [r0, #-1]
     344:	002a6803 	eoreq	r6, sl, r3, lsl #16
     348:	032d14f0 	teqeq	sp, #-268435456	; 0xf0000000
     34c:	20010000 	andcs	r0, r1, r0
     350:	00000142 	andeq	r0, r0, r2, asr #2
     354:	2a6c0305 	bcs	1b00f70 <__standby_start+0x1b00f70>
     358:	0014f000 	andseq	pc, r4, r0
     35c:	01000000 	tsteq	r0, r0
     360:	00025d21 	andeq	r5, r2, r1, lsr #26
     364:	58030500 	stmdapl	r3, {r8, sl}
     368:	14f0002a 	ldrbtne	r0, [r0], #42	; 0x2a
     36c:	000001aa 	andeq	r0, r0, sl, lsr #3
     370:	025d2201 	subseq	r2, sp, #268435456	; 0x10000000
     374:	03050000 	movweq	r0, #20480	; 0x5000
     378:	f0002a60 	undefined instruction 0xf0002a60
     37c:	00018814 	andeq	r8, r1, r4, lsl r8
     380:	5b240100 	blpl	900788 <__standby_start+0x900788>
     384:	05000001 	streq	r0, [r0, #-1]
     388:	002a7003 	eoreq	r7, sl, r3
     38c:	018414f0 	strdeq	r1, [r4, r0]
     390:	25010000 	strcs	r0, [r1]
     394:	0000015b 	andeq	r0, r0, fp, asr r1
     398:	2a740305 	bcs	1d00fb4 <__standby_start+0x1d00fb4>
     39c:	5614f000 	ldrpl	pc, [r4], -r0
     3a0:	01000000 	tsteq	r0, r0
     3a4:	0002b02c 	andeq	fp, r2, ip, lsr #32
     3a8:	14030500 	strne	r0, [r3], #-1280	; 0x500
     3ac:	15f0002a 	ldrbne	r0, [r0, #42]!	; 0x2a
     3b0:	0000022c 	andeq	r0, r0, ip, lsr #4
     3b4:	00f82801 	rscseq	r2, r8, r1, lsl #16
     3b8:	05010000 	streq	r0, [r1]
     3bc:	002b0c03 	eoreq	r0, fp, r3, lsl #24
     3c0:	019e16f0 	undefined instruction 0x019e16f0
     3c4:	19010000 	stmdbne	r1, {}
     3c8:	0000031a 	andeq	r0, r0, sl, lsl r3
     3cc:	b1160101 	tstlt	r6, r1, lsl #2
     3d0:	01000000 	tsteq	r0, r0
     3d4:	00031a1a 	andeq	r1, r3, sl, lsl sl
     3d8:	00010100 	andeq	r0, r1, r0, lsl #2
     3dc:	000000fd 	strdeq	r0, [r0], -sp
     3e0:	013b0002 	teqeq	fp, r2
     3e4:	01040000 	tsteq	r4, r0
     3e8:	0000035d 	andeq	r0, r0, sp, asr r3
     3ec:	0003c401 	andeq	ip, r3, r1, lsl #8
     3f0:	00027400 	andeq	r7, r2, r0, lsl #8
     3f4:	0003b800 	andeq	fp, r3, r0, lsl #16
     3f8:	000400f0 	strdeq	r0, [r4], -r0
     3fc:	00014ff0 	strdeq	r4, [r1], -r0
     400:	07040200 	streq	r0, [r4, -r0, lsl #4]
     404:	000001ff 	strdeq	r0, [r0], -pc
     408:	90080102 	andls	r0, r8, r2, lsl #2
     40c:	03000001 	movweq	r0, #1
     410:	6e690504 	cdpvs	5, 6, cr0, cr9, cr4, {0}
     414:	04040074 	streq	r0, [r4], #-116	; 0x74
     418:	06010207 	streq	r0, [r1], -r7, lsl #4
     41c:	00000192 	muleq	r0, r2, r1
     420:	b4050202 	strlt	r0, [r5], #-514	; 0x202
     424:	02000001 	andeq	r0, r0, #1
     428:	02610702 	rsbeq	r0, r1, #524288	; 0x80000
     42c:	3c050000 	stccc	0, cr0, [r5], {0}
     430:	02000001 	andeq	r0, r0, #1
     434:	0000251a 	andeq	r2, r0, sl, lsl r5
     438:	05080200 	streq	r0, [r8, #-512]	; 0x200
     43c:	00000153 	andeq	r0, r0, r3, asr r1
     440:	f5070802 	undefined instruction 0xf5070802
     444:	06000001 	streq	r0, [r0], -r1
     448:	ad010704 	stcge	7, cr0, [r1, #-16]
     44c:	01000003 	tsteq	r0, r3
     450:	03b80123 	undefined instruction 0x03b80123
     454:	03ecf000 	mvneq	pc, #0
     458:	5d01f000 	stcpl	0, cr15, [r1]
     45c:	000000c0 	andeq	r0, r0, r0, asr #1
     460:	00038208 	andeq	r8, r3, r8, lsl #4
     464:	6b230100 	blvs	8c086c <__standby_start+0x8c086c>
     468:	01000000 	tsteq	r0, r0
     46c:	72730950 	rsbsvc	r0, r3, #1310720	; 0x140000
     470:	23010063 	movwcs	r0, #4195	; 0x1063
     474:	0000006b 	andeq	r0, r0, fp, rrx
     478:	6e095101 	adfvse	f5, f1, f1
     47c:	33230100 	teqcc	r3, #0
     480:	01000000 	tsteq	r0, r0
     484:	03bc0a52 	undefined instruction 0x03bc0a52
     488:	25010000 	strcs	r0, [r1]
     48c:	000000c0 	andeq	r0, r0, r0, asr #1
     490:	0003960a 	andeq	r9, r3, sl, lsl #12
     494:	c0260100 	eorgt	r0, r6, r0, lsl #2
     498:	00000000 	andeq	r0, r0, r0
     49c:	00c6040b 	sbceq	r0, r6, fp, lsl #8
     4a0:	01020000 	tsteq	r2, r0
     4a4:	00019908 	andeq	r9, r1, r8, lsl #18
     4a8:	87010700 	strhi	r0, [r1, -r0, lsl #14]
     4ac:	01000003 	tsteq	r0, r3
     4b0:	03ec0143 	mvneq	r0, #-1073741808	; 0xc0000010
     4b4:	0400f000 	streq	pc, [r0]
     4b8:	5d01f000 	stcpl	0, cr15, [r1]
     4bc:	000000f3 	strdeq	r0, [r0], -r3
     4c0:	00736d0c 	rsbseq	r6, r3, ip, lsl #26
     4c4:	00334301 	eorseq	r4, r3, r1, lsl #6
     4c8:	00500000 	subseq	r0, r0, r0
     4cc:	0d000000 	stceq	0, cr0, [r0]
     4d0:	0000039e 	muleq	r0, lr, r3
     4d4:	00523503 	subseq	r3, r2, r3, lsl #10
     4d8:	01010000 	tsteq	r1, r0
     4dc:	00006500 	andeq	r6, r0, r0, lsl #10
     4e0:	ed000200 	sfm	f0, 4, [r0]	; (stc 2, cr0, [r0])
     4e4:	04000001 	streq	r0, [r0], #-1
     4e8:	0001af01 	andeq	sl, r1, r1, lsl #30
     4ec:	00040000 	andeq	r0, r4, r0
     4f0:	000524f0 	strdeq	r2, [r5], -r0
     4f4:	617473f0 	ldrshvs	r7, [r4, #-48]!	; 0xffffffd0
     4f8:	532e6b63 	teqpl	lr, #101376	; 0x18c00
     4fc:	6f682f00 	svcvs	0x00682f00
     500:	6d2f656d 	cfstr32vs	mvfx6, [pc, #-436]!	; 0xfffffe4c
     504:	2f656b69 	svccs	0x00656b69
     508:	6b726f77 	blvs	1c9c2ec <__standby_start+0x1c9c2ec>
     50c:	6e696c2f 	cdpvs	12, 6, cr6, cr9, cr15, {1}
     510:	365f7875 	undefined instruction 0x365f7875
     514:	612f3432 	teqvs	pc, r2, lsr r4
     518:	2f686372 	svccs	0x00686372
     51c:	2f6d7261 	svccs	0x006d7261
     520:	6863616d 	stmdavs	r3!, {r0, r2, r3, r5, r6, r8, sp, lr}^
     524:	6e75732d 	cdpvs	3, 7, cr7, cr5, cr13, {1}
     528:	702f6935 	eorvc	r6, pc, r5, lsr r9
     52c:	74732f6d 	ldrbtvc	r2, [r3], #-3949	; 0xf6d
     530:	62646e61 	rsbvs	r6, r4, #1552	; 0x610
     534:	4e470079 	mcrmi	0, 2, r0, cr7, cr9, {3}
     538:	53412055 	movtpl	r2, #4181	; 0x1055
     53c:	322e3220 	eorcc	r3, lr, #2
     540:	00312e30 	eorseq	r2, r1, r0, lsr lr
     544:	21d58001 	bicscs	r8, r5, r1
     548:	00020000 	andeq	r0, r2, r0
     54c:	00000201 	andeq	r0, r0, r1, lsl #4
     550:	035d0104 	cmpeq	sp, #1
     554:	61010000 	tstvs	r1, r0
     558:	7400000b 	strvc	r0, [r0], #-11
     55c:	24000002 	strcs	r0, [r0], #-2
     560:	84f00005 	ldrbthi	r0, [r0], #5
     564:	1df0000a 	ldclne	0, cr0, [r0, #40]!	; 0x28
     568:	02000002 	andeq	r0, r0, #2
     56c:	01ff0704 	mvnseq	r0, r4, lsl #14
     570:	01020000 	tsteq	r2, r0
     574:	00019008 	andeq	r9, r1, r8
     578:	05040300 	streq	r0, [r4, #-768]	; 0x300
     57c:	00746e69 	rsbseq	r6, r4, r9, ror #28
     580:	02070404 	andeq	r0, r7, #67108864	; 0x4000000
     584:	01920601 	orrseq	r0, r2, r1, lsl #12
     588:	cd050000 	stcgt	0, cr0, [r5]
     58c:	02000002 	andeq	r0, r0, #2
     590:	00002c16 	andeq	r2, r0, r6, lsl ip
     594:	05020200 	streq	r0, [r2, #-512]	; 0x200
     598:	000001b4 	undefined instruction 0x000001b4
     59c:	61070202 	tstvs	r7, r2, lsl #4
     5a0:	05000002 	streq	r0, [r0, #-2]
     5a4:	00000dc0 	andeq	r0, r0, r0, asr #27
     5a8:	00331902 	eorseq	r1, r3, r2, lsl #18
     5ac:	3c050000 	stccc	0, cr0, [r5], {0}
     5b0:	02000001 	andeq	r0, r0, #1
     5b4:	0000251a 	andeq	r2, r0, sl, lsl r5
     5b8:	05080200 	streq	r0, [r8, #-512]	; 0x200
     5bc:	00000153 	andeq	r0, r0, r3, asr r1
     5c0:	f5070802 	undefined instruction 0xf5070802
     5c4:	06000001 	streq	r0, [r0], -r1
     5c8:	00000c98 	muleq	r0, r8, ip
     5cc:	7c170304 	ldcvc	3, cr0, [r7], {4}
     5d0:	07000001 	streq	r0, [r0, -r1]
     5d4:	00000009 	andeq	r0, r0, r9
     5d8:	00681803 	rsbeq	r1, r8, r3, lsl #16
     5dc:	02040000 	andeq	r0, r4, #0
     5e0:	0023021e 	eoreq	r0, r3, lr, lsl r2
     5e4:	000ad007 	andeq	sp, sl, r7
     5e8:	68190300 	ldmdavs	r9, {r8, r9}
     5ec:	04000000 	streq	r0, [r0]
     5f0:	23021d01 	movwcs	r1, #11521	; 0x2d01
     5f4:	0e960700 	cdpeq	7, 9, cr0, cr6, cr0, {0}
     5f8:	1a030000 	bne	c0600 <__standby_start+0xc0600>
     5fc:	00000068 	andeq	r0, r0, r8, rrx
     600:	021c0104 	andseq	r0, ip, #1
     604:	7a070023 	bvc	1c0698 <__standby_start+0x1c0698>
     608:	03000003 	movweq	r0, #3
     60c:	0000681b 	andeq	r6, r0, fp, lsl r8
     610:	1a020400 	bne	81618 <__standby_start+0x81618>
     614:	07002302 	streq	r2, [r0, -r2, lsl #6]
     618:	00000f74 	andeq	r0, r0, r4, ror pc
     61c:	00681c03 	rsbeq	r1, r8, r3, lsl #24
     620:	02040000 	andeq	r0, r4, #0
     624:	00230218 	eoreq	r0, r3, r8, lsl r2
     628:	00001107 	andeq	r1, r0, r7, lsl #2
     62c:	681d0300 	ldmdavs	sp, {r8, r9}
     630:	04000000 	streq	r0, [r0]
     634:	23021305 	movwcs	r1, #8965	; 0x2305
     638:	123c0700 	eorsne	r0, ip, #0
     63c:	1e030000 	cdpne	0, 0, cr0, cr3, cr0, {0}
     640:	00000068 	andeq	r0, r0, r8, rrx
     644:	02100304 	andseq	r0, r0, #268435456	; 0x10000000
     648:	32070023 	andcc	r0, r7, #35	; 0x23
     64c:	03000008 	movweq	r0, #8
     650:	0000681f 	andeq	r6, r0, pc, lsl r8
     654:	0e020400 	cfcpyseq	mvf0, mvf2
     658:	07002302 	streq	r2, [r0, -r2, lsl #6]
     65c:	00000f7e 	andeq	r0, r0, lr, ror pc
     660:	00682003 	rsbeq	r2, r8, r3
     664:	02040000 	andeq	r0, r4, #0
     668:	0023020c 	eoreq	r0, r3, ip, lsl #4
     66c:	00108f07 	andseq	r8, r0, r7, lsl #30
     670:	68210300 	stmdavs	r1!, {r8, r9}
     674:	04000000 	streq	r0, [r0]
     678:	23020705 	movwcs	r0, #9989	; 0x2705
     67c:	0f880700 	svceq	0x00880700
     680:	22030000 	andcs	r0, r3, #0
     684:	00000068 	andeq	r0, r0, r8, rrx
     688:	02060104 	andeq	r0, r6, #1
     68c:	f9070023 	undefined instruction 0xf9070023
     690:	0300000e 	movweq	r0, #14
     694:	00006823 	andeq	r6, r0, r3, lsr #16
     698:	02040400 	andeq	r0, r4, #0
     69c:	07002302 	streq	r2, [r0, -r2, lsl #6]
     6a0:	00000bf0 	strdeq	r0, [r0], -r0
     6a4:	00682403 	rsbeq	r2, r8, r3, lsl #8
     6a8:	01040000 	tsteq	r4, r0
     6ac:	00230201 	eoreq	r0, r3, r1, lsl #4
     6b0:	00102807 	andseq	r2, r0, r7, lsl #16
     6b4:	68250300 	stmdavs	r5!, {r8, r9}
     6b8:	04000000 	streq	r0, [r0]
     6bc:	23020001 	movwcs	r0, #8193	; 0x2001
     6c0:	d7050000 	strle	r0, [r5, -r0]
     6c4:	03000009 	movweq	r0, #9
     6c8:	00008127 	andeq	r8, r0, r7, lsr #2
     6cc:	115e0600 	cmpne	lr, r0, lsl #12
     6d0:	03040000 	movweq	r0, #16384	; 0x4000
     6d4:	0001fa2a 	andeq	pc, r1, sl, lsr #20
     6d8:	0f740700 	svceq	0x00740700
     6dc:	2b030000 	blcs	c06e4 <__standby_start+0xc06e4>
     6e0:	00000068 	andeq	r0, r0, r8, rrx
     6e4:	02101004 	andseq	r1, r0, #4
     6e8:	7c070023 	stcvc	0, cr0, [r7], {35}	; 0x23
     6ec:	03000010 	movweq	r0, #16
     6f0:	0000682c 	andeq	r6, r0, ip, lsr #16
     6f4:	09070400 	stmdbeq	r7, {sl}
     6f8:	07002302 	streq	r2, [r0, -r2, lsl #6]
     6fc:	00000489 	andeq	r0, r0, r9, lsl #9
     700:	00682d03 	rsbeq	r2, r8, r3, lsl #26
     704:	03040000 	movweq	r0, #16384	; 0x4000
     708:	00230206 	eoreq	r0, r3, r6, lsl #4
     70c:	0012b607 	andseq	fp, r2, r7, lsl #12
     710:	682e0300 	stmdavs	lr!, {r8, r9}
     714:	04000000 	streq	r0, [r0]
     718:	23020501 	movwcs	r0, #9473	; 0x2501
     71c:	05e30700 	strbeq	r0, [r3, #1792]!	; 0x700
     720:	2f030000 	svccs	0x00030000
     724:	00000068 	andeq	r0, r0, r8, rrx
     728:	02040104 	andeq	r0, r4, #1
     72c:	8b070023 	blhi	1c07c0 <__standby_start+0x1c07c0>
     730:	03000009 	movweq	r0, #9
     734:	00006830 	andeq	r6, r0, r0, lsr r8
     738:	00040400 	andeq	r0, r4, r0, lsl #8
     73c:	00002302 	andeq	r2, r0, r2, lsl #6
     740:	0006af05 	andeq	sl, r6, r5, lsl #30
     744:	87310300 	ldrhi	r0, [r1, -r0, lsl #6]!
     748:	06000001 	streq	r0, [r0], -r1
     74c:	00000c4f 	andeq	r0, r0, pc, asr #24
     750:	ab350304 	blge	d41368 <__standby_start+0xd41368>
     754:	07000002 	streq	r0, [r0, -r2]
     758:	0000126d 	andeq	r1, r0, sp, ror #4
     75c:	00683603 	rsbeq	r3, r8, r3, lsl #12
     760:	05040000 	streq	r0, [r4]
     764:	0023021b 	eoreq	r0, r3, fp, lsl r2
     768:	000f7407 	andeq	r7, pc, r7, lsl #8
     76c:	68370300 	ldmdavs	r7!, {r8, r9}
     770:	04000000 	streq	r0, [r0]
     774:	23021803 	movwcs	r1, #10243	; 0x2803
     778:	00110700 	andseq	r0, r1, r0, lsl #14
     77c:	38030000 	stmdacc	r3, {}
     780:	00000068 	andeq	r0, r0, r8, rrx
     784:	02110704 	andseq	r0, r1, #1048576	; 0x100000
     788:	7e070023 	cdpvc	0, 0, cr0, cr7, cr3, {1}
     78c:	0300000f 	movweq	r0, #15
     790:	00006839 	andeq	r6, r0, r9, lsr r8
     794:	10010400 	andne	r0, r1, r0, lsl #8
     798:	07002302 	streq	r2, [r0, -r2, lsl #6]
     79c:	0000108f 	andeq	r1, r0, pc, lsl #1
     7a0:	00683a03 	rsbeq	r3, r8, r3, lsl #20
     7a4:	05040000 	streq	r0, [r4]
     7a8:	0023020b 	eoreq	r0, r3, fp, lsl #4
     7ac:	00126507 	andseq	r6, r2, r7, lsl #10
     7b0:	683b0300 	ldmdavs	fp!, {r8, r9}
     7b4:	04000000 	streq	r0, [r0]
     7b8:	23020605 	movwcs	r0, #9733	; 0x2605
     7bc:	05050700 	streq	r0, [r5, #-1792]	; 0x700
     7c0:	3c030000 	stccc	0, cr0, [r3], {0}
     7c4:	00000068 	andeq	r0, r0, r8, rrx
     7c8:	02020404 	andeq	r0, r2, #67108864	; 0x4000000
     7cc:	88070023 	stmdahi	r7, {r0, r1, r5}
     7d0:	0300000f 	movweq	r0, #15
     7d4:	0000683d 	andeq	r6, r0, sp, lsr r8
     7d8:	01010400 	tsteq	r1, r0, lsl #8
     7dc:	07002302 	streq	r2, [r0, -r2, lsl #6]
     7e0:	00001028 	andeq	r1, r0, r8, lsr #32
     7e4:	00683e03 	rsbeq	r3, r8, r3, lsl #28
     7e8:	01040000 	tsteq	r4, r0
     7ec:	00230200 	eoreq	r0, r3, r0, lsl #4
     7f0:	07f60500 	ldrbeq	r0, [r6, r0, lsl #10]!
     7f4:	3f030000 	svccc	0x00030000
     7f8:	00000205 	andeq	r0, r0, r5, lsl #4
     7fc:	00046e06 	andeq	r6, r4, r6, lsl #28
     800:	43030400 	movwmi	r0, #13312	; 0x3400
     804:	00000329 	andeq	r0, r0, r9, lsr #6
     808:	000af107 	andeq	pc, sl, r7, lsl #2
     80c:	68440300 	stmdavs	r4, {r8, r9}^
     810:	04000000 	streq	r0, [r0]
     814:	23020f11 	movwcs	r0, #12049	; 0x2f11
     818:	12dd0700 	sbcsne	r0, sp, #0
     81c:	45030000 	strmi	r0, [r3]
     820:	00000068 	andeq	r0, r0, r8, rrx
     824:	020d0204 	andeq	r0, sp, #1073741824	; 0x40000000
     828:	74070023 	strvc	r0, [r7], #-35	; 0x23
     82c:	0300000f 	movweq	r0, #15
     830:	00006846 	andeq	r6, r0, r6, asr #16
     834:	0c010400 	cfstrseq	mvf0, [r1], {0}
     838:	07002302 	streq	r2, [r0, -r2, lsl #6]
     83c:	000003d6 	ldrdeq	r0, [r0], -r6
     840:	00684703 	rsbeq	r4, r8, r3, lsl #14
     844:	09040000 	stmdbeq	r4, {}
     848:	00230203 	eoreq	r0, r3, r3, lsl #4
     84c:	00082907 	andeq	r2, r8, r7, lsl #18
     850:	68480300 	stmdavs	r8, {r8, r9}^
     854:	04000000 	streq	r0, [r0]
     858:	23020102 	movwcs	r0, #8450	; 0x2102
     85c:	0ad00700 	beq	ff402464 <__bss_end+0xf3ff878>
     860:	49030000 	stmdbmi	r3, {}
     864:	00000068 	andeq	r0, r0, r8, rrx
     868:	02000104 	andeq	r0, r0, #1
     86c:	05000023 	streq	r0, [r0, #-35]	; 0x23
     870:	00000e79 	andeq	r0, r0, r9, ror lr
     874:	02b64b03 	adcseq	r4, r6, #3072	; 0xc00
     878:	ba060000 	blt	180880 <__standby_start+0x180880>
     87c:	0400000e 	streq	r0, [r0], #-14
     880:	03fc4f03 	mvnseq	r4, #12
     884:	09070000 	stmdbeq	r7, {}
     888:	03000000 	movweq	r0, #0
     88c:	00006850 	andeq	r6, r0, r0, asr r8
     890:	19070400 	stmdbne	r7, {sl}
     894:	07002302 	streq	r2, [r0, -r2, lsl #6]
     898:	00000f74 	andeq	r0, r0, r4, ror pc
     89c:	00685103 	rsbeq	r5, r8, r3, lsl #2
     8a0:	01040000 	tsteq	r4, r0
     8a4:	00230218 	eoreq	r0, r3, r8, lsl r2
     8a8:	00108f07 	andseq	r8, r0, r7, lsl #30
     8ac:	68520300 	ldmdavs	r2, {r8, r9}^
     8b0:	04000000 	streq	r0, [r0]
     8b4:	23021305 	movwcs	r1, #8965	; 0x2305
     8b8:	0f7e0700 	svceq	0x007e0700
     8bc:	53030000 	movwpl	r0, #12288	; 0x3000
     8c0:	00000068 	andeq	r0, r0, r8, rrx
     8c4:	02120104 	andseq	r0, r2, #1
     8c8:	c2070023 	andgt	r0, r7, #35	; 0x23
     8cc:	0300000b 	movweq	r0, #11
     8d0:	00006854 	andeq	r6, r0, r4, asr r8
     8d4:	11010400 	tstne	r1, r0, lsl #8
     8d8:	07002302 	streq	r2, [r0, -r2, lsl #6]
     8dc:	00000d9d 	muleq	r0, sp, sp
     8e0:	00685503 	rsbeq	r5, r8, r3, lsl #10
     8e4:	01040000 	tsteq	r4, r0
     8e8:	00230210 	eoreq	r0, r3, r0, lsl r2
     8ec:	000ef907 	andeq	pc, lr, r7, lsl #18
     8f0:	68560300 	ldmdavs	r6, {r8, r9}^
     8f4:	04000000 	streq	r0, [r0]
     8f8:	23020b05 	movwcs	r0, #11013	; 0x2b05
     8fc:	0f880700 	svceq	0x00880700
     900:	57030000 	strpl	r0, [r3, -r0]
     904:	00000068 	andeq	r0, r0, r8, rrx
     908:	02080304 	andeq	r0, r8, #268435456	; 0x10000000
     90c:	8b070023 	blhi	1c09a0 <__standby_start+0x1c09a0>
     910:	03000009 	movweq	r0, #9
     914:	00006858 	andeq	r6, r0, r8, asr r8
     918:	05030400 	streq	r0, [r3, #-1024]	; 0x400
     91c:	07002302 	streq	r2, [r0, -r2, lsl #6]
     920:	00000f92 	muleq	r0, r2, pc
     924:	00685903 	rsbeq	r5, r8, r3, lsl #18
     928:	04040000 	streq	r0, [r4]
     92c:	00230201 	eoreq	r0, r3, r1, lsl #4
     930:	00102807 	andseq	r2, r0, r7, lsl #16
     934:	685a0300 	ldmdavs	sl, {r8, r9}^
     938:	04000000 	streq	r0, [r0]
     93c:	23020001 	movwcs	r0, #8193	; 0x2001
     940:	e4050000 	str	r0, [r5]
     944:	0300000c 	movweq	r0, #12
     948:	0003345b 	andeq	r3, r3, fp, asr r4
     94c:	06cc0600 	strbeq	r0, [ip], r0, lsl #12
     950:	03040000 	movweq	r0, #16384	; 0x4000
     954:	0005025f 	andeq	r0, r5, pc, asr r2
     958:	00090700 	andeq	r0, r9, r0, lsl #14
     95c:	60030000 	andvs	r0, r3, r0
     960:	00000068 	andeq	r0, r0, r8, rrx
     964:	021e0204 	andseq	r0, lr, #1073741824	; 0x40000000
     968:	74070023 	strvc	r0, [r7], #-35	; 0x23
     96c:	0300000f 	movweq	r0, #15
     970:	00006861 	andeq	r6, r0, r1, ror #16
     974:	1c020400 	cfstrsne	mvf0, [r2], {0}
     978:	07002302 	streq	r2, [r0, -r2, lsl #6]
     97c:	0000037a 	andeq	r0, r0, sl, ror r3
     980:	00686203 	rsbeq	r6, r8, r3, lsl #4
     984:	02040000 	andeq	r0, r4, #0
     988:	0023021a 	eoreq	r0, r3, sl, lsl r2
     98c:	000f7e07 	andeq	r7, pc, r7, lsl #28
     990:	68630300 	stmdavs	r3!, {r8, r9}^
     994:	04000000 	streq	r0, [r0]
     998:	23021802 	movwcs	r1, #10242	; 0x2802
     99c:	00110700 	andseq	r0, r1, r0, lsl #14
     9a0:	64030000 	strvs	r0, [r3]
     9a4:	00000068 	andeq	r0, r0, r8, rrx
     9a8:	02130504 	andseq	r0, r3, #16777216	; 0x1000000
     9ac:	88070023 	stmdahi	r7, {r0, r1, r5}
     9b0:	0300000f 	movweq	r0, #15
     9b4:	00006865 	andeq	r6, r0, r5, ror #16
     9b8:	12010400 	andne	r0, r1, #0
     9bc:	07002302 	streq	r2, [r0, -r2, lsl #6]
     9c0:	000009b3 	undefined instruction 0x000009b3
     9c4:	00686603 	rsbeq	r6, r8, r3, lsl #12
     9c8:	02040000 	andeq	r0, r4, #0
     9cc:	00230210 	eoreq	r0, r3, r0, lsl r2
     9d0:	00001907 	andeq	r1, r0, r7, lsl #18
     9d4:	68670300 	stmdavs	r7!, {r8, r9}^
     9d8:	04000000 	streq	r0, [r0]
     9dc:	23020e02 	movwcs	r0, #11778	; 0x2e02
     9e0:	0f920700 	svceq	0x00920700
     9e4:	68030000 	stmdavs	r3, {}
     9e8:	00000068 	andeq	r0, r0, r8, rrx
     9ec:	020d0104 	andeq	r0, sp, #1
     9f0:	b6070023 	strlt	r0, [r7], -r3, lsr #32
     9f4:	03000012 	movweq	r0, #18
     9f8:	00006869 	andeq	r6, r0, r9, ror #16
     9fc:	0c010400 	cfstrseq	mvf0, [r1], {0}
     a00:	07002302 	streq	r2, [r0, -r2, lsl #6]
     a04:	0000108f 	andeq	r1, r0, pc, lsl #1
     a08:	00686a03 	rsbeq	r6, r8, r3, lsl #20
     a0c:	05040000 	streq	r0, [r4]
     a10:	00230207 	eoreq	r0, r3, r7, lsl #4
     a14:	000ef907 	andeq	pc, lr, r7, lsl #18
     a18:	686b0300 	stmdavs	fp!, {r8, r9}^
     a1c:	04000000 	streq	r0, [r0]
     a20:	23020205 	movwcs	r0, #8709	; 0x2205
     a24:	0bad0700 	bleq	feb4262c <__bss_end+0xeb3fa40>
     a28:	6c030000 	stcvs	0, cr0, [r3], {0}
     a2c:	00000068 	andeq	r0, r0, r8, rrx
     a30:	02010104 	andeq	r0, r1, #1
     a34:	28070023 	stmdacs	r7, {r0, r1, r5}
     a38:	03000010 	movweq	r0, #16
     a3c:	0000686d 	andeq	r6, r0, sp, ror #16
     a40:	00010400 	andeq	r0, r1, r0, lsl #8
     a44:	00002302 	andeq	r2, r0, r2, lsl #6
     a48:	00130805 	andseq	r0, r3, r5, lsl #16
     a4c:	076e0300 	strbeq	r0, [lr, -r0, lsl #6]!
     a50:	06000004 	streq	r0, [r0], -r4
     a54:	0000068f 	andeq	r0, r0, pc, lsl #13
     a58:	19720304 	ldmdbne	r2!, {r2, r8, r9}^
     a5c:	07000006 	streq	r0, [r0, -r6]
     a60:	00000009 	andeq	r0, r0, r9
     a64:	00687303 	rsbeq	r7, r8, r3, lsl #6
     a68:	02040000 	andeq	r0, r4, #0
     a6c:	0023021e 	eoreq	r0, r3, lr, lsl r2
     a70:	00112207 	andseq	r2, r1, r7, lsl #4
     a74:	68740300 	ldmdavs	r4!, {r8, r9}^
     a78:	04000000 	streq	r0, [r0]
     a7c:	23021c02 	movwcs	r1, #11266	; 0x2c02
     a80:	037a0700 	cmneq	sl, #0
     a84:	75030000 	strvc	r0, [r3]
     a88:	00000068 	andeq	r0, r0, r8, rrx
     a8c:	021a0204 	andseq	r0, sl, #1073741824	; 0x40000000
     a90:	74070023 	strvc	r0, [r7], #-35	; 0x23
     a94:	0300000f 	movweq	r0, #15
     a98:	00006876 	andeq	r6, r0, r6, ror r8
     a9c:	19010400 	stmdbne	r1, {sl}
     aa0:	07002302 	streq	r2, [r0, -r2, lsl #6]
     aa4:	0000111b 	andeq	r1, r0, fp, lsl r1
     aa8:	00687703 	rsbeq	r7, r8, r3, lsl #14
     aac:	01040000 	tsteq	r4, r0
     ab0:	00230218 	eoreq	r0, r3, r8, lsl r2
     ab4:	00001107 	andeq	r1, r0, r7, lsl #2
     ab8:	68780300 	ldmdavs	r8!, {r8, r9}^
     abc:	04000000 	streq	r0, [r0]
     ac0:	23021305 	movwcs	r1, #8965	; 0x2305
     ac4:	12b60700 	adcsne	r0, r6, #0
     ac8:	79030000 	stmdbvc	r3, {}
     acc:	00000068 	andeq	r0, r0, r8, rrx
     ad0:	02100304 	andseq	r0, r0, #268435456	; 0x10000000
     ad4:	19070023 	stmdbne	r7, {r0, r1, r5}
     ad8:	03000000 	movweq	r0, #0
     adc:	0000687a 	andeq	r6, r0, sl, ror r8
     ae0:	0e020400 	cfcpyseq	mvf0, mvf2
     ae4:	07002302 	streq	r2, [r0, -r2, lsl #6]
     ae8:	000005e3 	andeq	r0, r0, r3, ror #11
     aec:	00687b03 	rsbeq	r7, r8, r3, lsl #22
     af0:	01040000 	tsteq	r4, r0
     af4:	0023020d 	eoreq	r0, r3, sp, lsl #4
     af8:	00052a07 	andeq	r2, r5, r7, lsl #20
     afc:	687c0300 	ldmdavs	ip!, {r8, r9}^
     b00:	04000000 	streq	r0, [r0]
     b04:	23020c01 	movwcs	r0, #11265	; 0x2c01
     b08:	108f0700 	addne	r0, pc, r0, lsl #14
     b0c:	7d030000 	stcvc	0, cr0, [r3]
     b10:	00000068 	andeq	r0, r0, r8, rrx
     b14:	02070504 	andeq	r0, r7, #16777216	; 0x1000000
     b18:	f9070023 	undefined instruction 0xf9070023
     b1c:	0300000e 	movweq	r0, #14
     b20:	0000687e 	andeq	r6, r0, lr, ror r8
     b24:	03040400 	movweq	r0, #17408	; 0x4400
     b28:	07002302 	streq	r2, [r0, -r2, lsl #6]
     b2c:	00000e9e 	muleq	r0, lr, lr
     b30:	00687f03 	rsbeq	r7, r8, r3, lsl #30
     b34:	01040000 	tsteq	r4, r0
     b38:	00230202 	eoreq	r0, r3, r2, lsl #4
     b3c:	000bad07 	andeq	sl, fp, r7, lsl #26
     b40:	68800300 	stmvs	r0, {r8, r9}
     b44:	04000000 	streq	r0, [r0]
     b48:	23020101 	movwcs	r0, #8449	; 0x2101
     b4c:	10280700 	eorne	r0, r8, r0, lsl #14
     b50:	81030000 	tsthi	r3, r0
     b54:	00000068 	andeq	r0, r0, r8, rrx
     b58:	02000104 	andeq	r0, r0, #1
     b5c:	05000023 	streq	r0, [r0, #-35]	; 0x23
     b60:	000007dc 	ldrdeq	r0, [r0], -ip
     b64:	050d8203 	streq	r8, [sp, #-515]	; 0x203
     b68:	9b060000 	blls	180b70 <__standby_start+0x180b70>
     b6c:	04000012 	streq	r0, [r0], #-18
     b70:	06a88603 	strteq	r8, [r8], r3, lsl #12
     b74:	74070000 	strvc	r0, [r7]
     b78:	0300000f 	movweq	r0, #15
     b7c:	00006887 	andeq	r6, r0, r7, lsl #17
     b80:	10100400 	andsne	r0, r0, r0, lsl #8
     b84:	07002302 	streq	r2, [r0, -r2, lsl #6]
     b88:	0000107c 	andeq	r1, r0, ip, ror r0
     b8c:	00688803 	rsbeq	r8, r8, r3, lsl #16
     b90:	07040000 	streq	r0, [r4, -r0]
     b94:	00230209 	eoreq	r0, r3, r9, lsl #4
     b98:	000bf007 	andeq	pc, fp, r7
     b9c:	68890300 	stmvs	r9, {r8, r9}
     ba0:	04000000 	streq	r0, [r0]
     ba4:	23020801 	movwcs	r0, #10241	; 0x2801
     ba8:	123c0700 	eorsne	r0, ip, #0
     bac:	8a030000 	bhi	c0bb4 <__standby_start+0xc0bb4>
     bb0:	00000068 	andeq	r0, r0, r8, rrx
     bb4:	02050304 	andeq	r0, r5, #268435456	; 0x10000000
     bb8:	7e070023 	cdpvc	0, 0, cr0, cr7, cr3, {1}
     bbc:	0300000f 	movweq	r0, #15
     bc0:	0000688b 	andeq	r6, r0, fp, lsl #17
     bc4:	04010400 	streq	r0, [r1], #-1024	; 0x400
     bc8:	07002302 	streq	r2, [r0, -r2, lsl #6]
     bcc:	000010cc 	andeq	r1, r0, ip, asr #1
     bd0:	00688c03 	rsbeq	r8, r8, r3, lsl #24
     bd4:	01040000 	tsteq	r4, r0
     bd8:	00230203 	eoreq	r0, r3, r3, lsl #4
     bdc:	00098b07 	andeq	r8, r9, r7, lsl #22
     be0:	688d0300 	stmvs	sp, {r8, r9}
     be4:	04000000 	streq	r0, [r0]
     be8:	23020003 	movwcs	r0, #8195	; 0x2003
     bec:	7b050000 	blvc	140bf4 <__standby_start+0x140bf4>
     bf0:	0300000c 	movweq	r0, #12
     bf4:	0006248e 	andeq	r2, r6, lr, lsl #9
     bf8:	074d0600 	strbeq	r0, [sp, -r0, lsl #12]
     bfc:	03040000 	movweq	r0, #16384	; 0x4000
     c00:	00078c91 	muleq	r7, r1, ip
     c04:	00090700 	andeq	r0, r9, r0, lsl #14
     c08:	92030000 	andls	r0, r3, #0
     c0c:	00000068 	andeq	r0, r0, r8, rrx
     c10:	021e0204 	andseq	r0, lr, #1073741824	; 0x40000000
     c14:	74070023 	strvc	r0, [r7], #-35	; 0x23
     c18:	0300000f 	movweq	r0, #15
     c1c:	00006893 	muleq	r0, r3, r8
     c20:	1c020400 	cfstrsne	mvf0, [r2], {0}
     c24:	07002302 	streq	r2, [r0, -r2, lsl #6]
     c28:	0000037a 	andeq	r0, r0, sl, ror r3
     c2c:	00689403 	rsbeq	r9, r8, r3, lsl #8
     c30:	02040000 	andeq	r0, r4, #0
     c34:	0023021a 	eoreq	r0, r3, sl, lsl r2
     c38:	00098b07 	andeq	r8, r9, r7, lsl #22
     c3c:	68950300 	ldmvs	r5, {r8, r9}
     c40:	04000000 	streq	r0, [r0]
     c44:	23021802 	movwcs	r1, #10242	; 0x2802
     c48:	00110700 	andseq	r0, r1, r0, lsl #14
     c4c:	96030000 	strls	r0, [r3], -r0
     c50:	00000068 	andeq	r0, r0, r8, rrx
     c54:	02130504 	andseq	r0, r3, #16777216	; 0x1000000
     c58:	7e070023 	cdpvc	0, 0, cr0, cr7, cr3, {1}
     c5c:	0300000f 	movweq	r0, #15
     c60:	00006897 	muleq	r0, r7, r8
     c64:	11020400 	tstne	r2, r0, lsl #8
     c68:	07002302 	streq	r2, [r0, -r2, lsl #6]
     c6c:	000005e3 	andeq	r0, r0, r3, ror #11
     c70:	00689803 	rsbeq	r9, r8, r3, lsl #16
     c74:	01040000 	tsteq	r4, r0
     c78:	00230210 	eoreq	r0, r3, r0, lsl r2
     c7c:	000f8807 	andeq	r8, pc, r7, lsl #16
     c80:	68990300 	ldmvs	r9, {r8, r9}
     c84:	04000000 	streq	r0, [r0]
     c88:	23020c04 	movwcs	r0, #11268	; 0x2c04
     c8c:	108f0700 	addne	r0, pc, r0, lsl #14
     c90:	9a030000 	bls	c0c98 <__standby_start+0xc0c98>
     c94:	00000068 	andeq	r0, r0, r8, rrx
     c98:	02070504 	andeq	r0, r7, #16777216	; 0x1000000
     c9c:	f9070023 	undefined instruction 0xf9070023
     ca0:	0300000e 	movweq	r0, #14
     ca4:	0000689b 	muleq	r0, fp, r8
     ca8:	02050400 	andeq	r0, r5, #0
     cac:	07002302 	streq	r2, [r0, -r2, lsl #6]
     cb0:	00000bad 	andeq	r0, r0, sp, lsr #23
     cb4:	00689c03 	rsbeq	r9, r8, r3, lsl #24
     cb8:	01040000 	tsteq	r4, r0
     cbc:	00230201 	eoreq	r0, r3, r1, lsl #4
     cc0:	00102807 	andseq	r2, r0, r7, lsl #16
     cc4:	689d0300 	ldmvs	sp, {r8, r9}
     cc8:	04000000 	streq	r0, [r0]
     ccc:	23020001 	movwcs	r0, #8193	; 0x2001
     cd0:	c8050000 	stmdagt	r5, {}
     cd4:	03000005 	movweq	r0, #5
     cd8:	0006b39e 	muleq	r6, lr, r3
     cdc:	0da50600 	stceq	6, cr0, [r5]
     ce0:	03040000 	movweq	r0, #16384	; 0x4000
     ce4:	00085fa2 	andeq	r5, r8, r2, lsr #31
     ce8:	00090700 	andeq	r0, r9, r0, lsl #14
     cec:	a3030000 	movwge	r0, #12288	; 0x3000
     cf0:	00000068 	andeq	r0, r0, r8, rrx
     cf4:	02190704 	andseq	r0, r9, #1048576	; 0x100000
     cf8:	74070023 	strvc	r0, [r7], #-35	; 0x23
     cfc:	0300000f 	movweq	r0, #15
     d00:	000068a4 	andeq	r6, r0, r4, lsr #17
     d04:	18010400 	stmdane	r1, {sl}
     d08:	07002302 	streq	r2, [r0, -r2, lsl #6]
     d0c:	0000108f 	andeq	r1, r0, pc, lsl #1
     d10:	0068a503 	rsbeq	sl, r8, r3, lsl #10
     d14:	05040000 	streq	r0, [r4]
     d18:	00230213 	eoreq	r0, r3, r3, lsl r2
     d1c:	000f7e07 	andeq	r7, pc, r7, lsl #28
     d20:	68a60300 	stmiavs	r6!, {r8, r9}
     d24:	04000000 	streq	r0, [r0]
     d28:	23021201 	movwcs	r1, #8705	; 0x2201
     d2c:	0bc20700 	bleq	ff082934 <__bss_end+0xf07fd48>
     d30:	a7030000 	strge	r0, [r3, -r0]
     d34:	00000068 	andeq	r0, r0, r8, rrx
     d38:	02110104 	andseq	r0, r1, #1
     d3c:	9d070023 	stcls	0, cr0, [r7, #-140]	; 0xffffff74
     d40:	0300000d 	movweq	r0, #13
     d44:	000068a8 	andeq	r6, r0, r8, lsr #17
     d48:	10010400 	andne	r0, r1, r0, lsl #8
     d4c:	07002302 	streq	r2, [r0, -r2, lsl #6]
     d50:	00000ef9 	strdeq	r0, [r0], -r9
     d54:	0068a903 	rsbeq	sl, r8, r3, lsl #18
     d58:	05040000 	streq	r0, [r4]
     d5c:	0023020b 	eoreq	r0, r3, fp, lsl #4
     d60:	000f8807 	andeq	r8, pc, r7, lsl #16
     d64:	68aa0300 	stmiavs	sl!, {r8, r9}
     d68:	04000000 	streq	r0, [r0]
     d6c:	23020803 	movwcs	r0, #10243	; 0x2803
     d70:	098b0700 	stmibeq	fp, {r8, r9, sl}
     d74:	ab030000 	blge	c0d7c <__standby_start+0xc0d7c>
     d78:	00000068 	andeq	r0, r0, r8, rrx
     d7c:	02050304 	andeq	r0, r5, #268435456	; 0x10000000
     d80:	92070023 	andls	r0, r7, #35	; 0x23
     d84:	0300000f 	movweq	r0, #15
     d88:	000068ac 	andeq	r6, r0, ip, lsr #17
     d8c:	01040400 	tsteq	r4, r0, lsl #8
     d90:	07002302 	streq	r2, [r0, -r2, lsl #6]
     d94:	00001028 	andeq	r1, r0, r8, lsr #32
     d98:	0068ad03 	rsbeq	sl, r8, r3, lsl #26
     d9c:	01040000 	tsteq	r4, r0
     da0:	00230200 	eoreq	r0, r3, r0, lsl #4
     da4:	0d770500 	cfldr64eq	mvdx0, [r7]
     da8:	ae030000 	cdpge	0, 0, cr0, cr3, cr0, {0}
     dac:	00000797 	muleq	r0, r7, r7
     db0:	000fa606 	andeq	sl, pc, r6, lsl #12
     db4:	b2030400 	andlt	r0, r3, #0
     db8:	000008dd 	ldrdeq	r0, [r0], -sp
     dbc:	000af107 	andeq	pc, sl, r7, lsl #2
     dc0:	68b30300 	ldmvs	r3!, {r8, r9}
     dc4:	04000000 	streq	r0, [r0]
     dc8:	23020f11 	movwcs	r0, #12049	; 0x2f11
     dcc:	12dd0700 	sbcsne	r0, sp, #0
     dd0:	b4030000 	strlt	r0, [r3]
     dd4:	00000068 	andeq	r0, r0, r8, rrx
     dd8:	020d0204 	andeq	r0, sp, #1073741824	; 0x40000000
     ddc:	74070023 	strvc	r0, [r7], #-35	; 0x23
     de0:	0300000f 	movweq	r0, #15
     de4:	000068b5 	undefined instruction 0x000068b5
     de8:	0c010400 	cfstrseq	mvf0, [r1], {0}
     dec:	07002302 	streq	r2, [r0, -r2, lsl #6]
     df0:	000003d6 	ldrdeq	r0, [r0], -r6
     df4:	0068b603 	rsbeq	fp, r8, r3, lsl #12
     df8:	09040000 	stmdbeq	r4, {}
     dfc:	00230203 	eoreq	r0, r3, r3, lsl #4
     e00:	00082907 	andeq	r2, r8, r7, lsl #18
     e04:	68b70300 	ldmvs	r7!, {r8, r9}
     e08:	04000000 	streq	r0, [r0]
     e0c:	23020102 	movwcs	r0, #8450	; 0x2102
     e10:	0ad00700 	beq	ff402a18 <__bss_end+0xf3ffe2c>
     e14:	b8030000 	stmdalt	r3, {}
     e18:	00000068 	andeq	r0, r0, r8, rrx
     e1c:	02000104 	andeq	r0, r0, #1
     e20:	05000023 	streq	r0, [r0, #-35]	; 0x23
     e24:	0000057d 	andeq	r0, r0, sp, ror r5
     e28:	086ab903 	stmdaeq	sl!, {r0, r1, r8, fp, ip, sp, pc}^
     e2c:	d4060000 	strle	r0, [r6]
     e30:	0400000e 	streq	r0, [r0], #-14
     e34:	095bbd03 	ldmdbeq	fp, {r0, r1, r8, sl, fp, ip, sp, pc}^
     e38:	f1070000 	undefined instruction 0xf1070000
     e3c:	0300000a 	movweq	r0, #10
     e40:	000068be 	undefined instruction 0x000068be
     e44:	0f110400 	svceq	0x00110400
     e48:	07002302 	streq	r2, [r0, -r2, lsl #6]
     e4c:	000012dd 	ldrdeq	r1, [r0], -sp
     e50:	0068bf03 	rsbeq	fp, r8, r3, lsl #30
     e54:	02040000 	andeq	r0, r4, #0
     e58:	0023020d 	eoreq	r0, r3, sp, lsl #4
     e5c:	000f7407 	andeq	r7, pc, r7, lsl #8
     e60:	68c00300 	stmiavs	r0, {r8, r9}^
     e64:	04000000 	streq	r0, [r0]
     e68:	23020c01 	movwcs	r0, #11265	; 0x2c01
     e6c:	03d60700 	bicseq	r0, r6, #0
     e70:	c1030000 	tstgt	r3, r0
     e74:	00000068 	andeq	r0, r0, r8, rrx
     e78:	02030904 	andeq	r0, r3, #65536	; 0x10000
     e7c:	29070023 	stmdbcs	r7, {r0, r1, r5}
     e80:	03000008 	movweq	r0, #8
     e84:	000068c2 	andeq	r6, r0, r2, asr #17
     e88:	01020400 	tsteq	r2, r0, lsl #8
     e8c:	07002302 	streq	r2, [r0, -r2, lsl #6]
     e90:	00000ad0 	ldrdeq	r0, [r0], -r0
     e94:	0068c303 	rsbeq	ip, r8, r3, lsl #6
     e98:	01040000 	tsteq	r4, r0
     e9c:	00230200 	eoreq	r0, r3, r0, lsl #4
     ea0:	10d70500 	sbcsne	r0, r7, r0, lsl #10
     ea4:	c4030000 	strgt	r0, [r3]
     ea8:	000008e8 	andeq	r0, r0, r8, ror #17
     eac:	000e0406 	andeq	r0, lr, r6, lsl #8
     eb0:	c8030400 	stmdagt	r3, {sl}
     eb4:	00000a1d 	andeq	r0, r0, sp, lsl sl
     eb8:	00101707 	andseq	r1, r0, r7, lsl #14
     ebc:	68c90300 	stmiavs	r9, {r8, r9}^
     ec0:	04000000 	streq	r0, [r0]
     ec4:	23021f01 	movwcs	r1, #12033	; 0x2f01
     ec8:	0d4e0700 	stcleq	7, cr0, [lr]
     ecc:	ca030000 	bgt	c0ed4 <__standby_start+0xc0ed4>
     ed0:	00000068 	andeq	r0, r0, r8, rrx
     ed4:	021e0104 	andseq	r0, lr, #1
     ed8:	74070023 	strvc	r0, [r7], #-35	; 0x23
     edc:	0300000f 	movweq	r0, #15
     ee0:	000068cb 	andeq	r6, r0, fp, asr #17
     ee4:	1c020400 	cfstrsne	mvf0, [r2], {0}
     ee8:	07002302 	streq	r2, [r0, -r2, lsl #6]
     eec:	00000907 	andeq	r0, r0, r7, lsl #18
     ef0:	0068cc03 	rsbeq	ip, r8, r3, lsl #24
     ef4:	01040000 	tsteq	r4, r0
     ef8:	0023021b 	eoreq	r0, r3, fp, lsl r2
     efc:	000f7e07 	andeq	r7, pc, r7, lsl #28
     f00:	68cd0300 	stmiavs	sp, {r8, r9}^
     f04:	04000000 	streq	r0, [r0]
     f08:	2302110a 	movwcs	r1, #8458	; 0x210a
     f0c:	0c450700 	mcrreq	7, 0, r0, r5, cr0
     f10:	ce030000 	cdpgt	0, 0, cr0, cr3, cr0, {0}
     f14:	00000068 	andeq	r0, r0, r8, rrx
     f18:	02100104 	andseq	r0, r0, #1
     f1c:	c2070023 	andgt	r0, r7, #35	; 0x23
     f20:	03000005 	movweq	r0, #5
     f24:	000068cf 	andeq	r6, r0, pc, asr #17
     f28:	0f010400 	svceq	0x00010400
     f2c:	07002302 	streq	r2, [r0, -r2, lsl #6]
     f30:	00000534 	andeq	r0, r0, r4, lsr r5
     f34:	0068d003 	rsbeq	sp, r8, r3
     f38:	01040000 	tsteq	r4, r0
     f3c:	0023020e 	eoreq	r0, r3, lr, lsl #4
     f40:	00071a07 	andeq	r1, r7, r7, lsl #20
     f44:	68d10300 	ldmvs	r1, {r8, r9}^
     f48:	04000000 	streq	r0, [r0]
     f4c:	23020b03 	movwcs	r0, #11011	; 0x2b03
     f50:	0e360700 	cdpeq	7, 3, cr0, cr6, cr0, {0}
     f54:	d2030000 	andle	r0, r3, #0
     f58:	00000068 	andeq	r0, r0, r8, rrx
     f5c:	02000b04 	andeq	r0, r0, #4096	; 0x1000
     f60:	05000023 	streq	r0, [r0, #-35]	; 0x23
     f64:	0000078b 	andeq	r0, r0, fp, lsl #15
     f68:	0966d503 	stmdbeq	r6!, {r0, r1, r8, sl, ip, lr, pc}^
     f6c:	48060000 	stmdami	r6, {}
     f70:	04000010 	streq	r0, [r0], #-16
     f74:	0abdd903 	beq	fef77388 <__bss_end+0xef7479c>
     f78:	91070000 	tstls	r7, r0
     f7c:	03000012 	movweq	r0, #18
     f80:	000068da 	ldrdeq	r6, [r0], -sl
     f84:	1e020400 	cfcpysne	mvf0, mvf2
     f88:	07002302 	streq	r2, [r0, -r2, lsl #6]
     f8c:	00000f74 	andeq	r0, r0, r4, ror pc
     f90:	0068db03 	rsbeq	sp, r8, r3, lsl #22
     f94:	02040000 	andeq	r0, r4, #0
     f98:	0023021c 	eoreq	r0, r3, ip, lsl r2
     f9c:	00089807 	andeq	r9, r8, r7, lsl #16
     fa0:	68dc0300 	ldmvs	ip, {r8, r9}^
     fa4:	04000000 	streq	r0, [r0]
     fa8:	23021a02 	movwcs	r1, #10754	; 0x2a02
     fac:	132c0700 	teqne	ip, #0
     fb0:	dd030000 	stcle	0, cr0, [r3]
     fb4:	00000068 	andeq	r0, r0, r8, rrx
     fb8:	02180204 	andseq	r0, r8, #1073741824	; 0x40000000
     fbc:	21070023 	tstcs	r7, r3, lsr #32
     fc0:	03000013 	movweq	r0, #19
     fc4:	000068de 	ldrdeq	r6, [r0], -lr
     fc8:	16020400 	strne	r0, [r2], -r0, lsl #8
     fcc:	07002302 	streq	r2, [r0, -r2, lsl #6]
     fd0:	00000f7e 	andeq	r0, r0, lr, ror pc
     fd4:	0068df03 	rsbeq	sp, r8, r3, lsl #30
     fd8:	06040000 	streq	r0, [r4], -r0
     fdc:	00230210 	eoreq	r0, r3, r0, lsl r2
     fe0:	0012d107 	andseq	sp, r2, r7, lsl #2
     fe4:	68e00300 	stmiavs	r0!, {r8, r9}^
     fe8:	04000000 	streq	r0, [r0]
     fec:	23020e02 	movwcs	r0, #11778	; 0x2e02
     ff0:	0f880700 	svceq	0x00880700
     ff4:	e1030000 	tst	r3, r0
     ff8:	00000068 	andeq	r0, r0, r8, rrx
     ffc:	02000e04 	andeq	r0, r0, #64	; 0x40
    1000:	05000023 	streq	r0, [r0, #-35]	; 0x23
    1004:	000011bc 	undefined instruction 0x000011bc
    1008:	0a28e203 	beq	a3981c <__standby_start+0xa3981c>
    100c:	57060000 	strpl	r0, [r6, -r0]
    1010:	0400000f 	streq	r0, [r0], #-15
    1014:	0b3be503 	bleq	efa428 <__standby_start+0xefa428>
    1018:	25070000 	strcs	r0, [r7]
    101c:	03000013 	movweq	r0, #19
    1020:	000068e6 	andeq	r6, r0, r6, ror #17
    1024:	1b050400 	blne	14202c <__standby_start+0x14202c>
    1028:	07002302 	streq	r2, [r0, -r2, lsl #6]
    102c:	00000f74 	andeq	r0, r0, r4, ror pc
    1030:	0068e703 	rsbeq	lr, r8, r3, lsl #14
    1034:	0b040000 	bleq	10103c <__standby_start+0x10103c>
    1038:	00230210 	eoreq	r0, r3, r0, lsl r2
    103c:	00052307 	andeq	r2, r5, r7, lsl #6
    1040:	68e80300 	stmiavs	r8!, {r8, r9}^
    1044:	04000000 	streq	r0, [r0]
    1048:	23020e02 	movwcs	r0, #11778	; 0x2e02
    104c:	0f7e0700 	svceq	0x007e0700
    1050:	e9030000 	stmdb	r3, {}
    1054:	00000068 	andeq	r0, r0, r8, rrx
    1058:	02080604 	andeq	r0, r8, #4194304	; 0x400000
    105c:	d6070023 	strle	r0, [r7], -r3, lsr #32
    1060:	03000012 	movweq	r0, #18
    1064:	000068ea 	andeq	r6, r0, sl, ror #17
    1068:	06020400 	streq	r0, [r2], -r0, lsl #8
    106c:	07002302 	streq	r2, [r0, -r2, lsl #6]
    1070:	00000f88 	andeq	r0, r0, r8, lsl #31
    1074:	0068eb03 	rsbeq	lr, r8, r3, lsl #22
    1078:	06040000 	streq	r0, [r4], -r0
    107c:	00230200 	eoreq	r0, r3, r0, lsl #4
    1080:	06e30500 	strbteq	r0, [r3], r0, lsl #10
    1084:	ec030000 	stc	0, cr0, [r3], {0}
    1088:	00000ac8 	andeq	r0, r0, r8, asr #21
    108c:	000bf906 	andeq	pc, fp, r6, lsl #18
    1090:	f0030400 	undefined instruction 0xf0030400
    1094:	00000b75 	andeq	r0, r0, r5, ror fp
    1098:	000d0007 	andeq	r0, sp, r7
    109c:	68f10300 	ldmvs	r1!, {r8, r9}^
    10a0:	04000000 	streq	r0, [r0]
    10a4:	23021f01 	movwcs	r1, #12033	; 0x2f01
    10a8:	0f740700 	svceq	0x00740700
    10ac:	f2030000 	vhadd.s8	d0, d3, d0
    10b0:	00000068 	andeq	r0, r0, r8, rrx
    10b4:	02001f04 	andeq	r1, r0, #16
    10b8:	05000023 	streq	r0, [r0, #-35]	; 0x23
    10bc:	000010fe 	strdeq	r1, [r0], -lr
    10c0:	0b46f303 	bleq	11bdcd4 <__standby_start+0x11bdcd4>
    10c4:	30060000 	andcc	r0, r6, r0
    10c8:	04000004 	streq	r0, [r0], #-4
    10cc:	0d59f703 	ldcleq	7, cr15, [r9, #-12]
    10d0:	d3070000 	movwle	r0, #28672	; 0x7000
    10d4:	03000007 	movweq	r0, #7
    10d8:	000068f8 	strdeq	r6, [r0], -r8
    10dc:	1f010400 	svcne	0x00010400
    10e0:	07002302 	streq	r2, [r0, -r2, lsl #6]
    10e4:	00001072 	andeq	r1, r0, r2, ror r0
    10e8:	0068f903 	rsbeq	pc, r8, r3, lsl #18
    10ec:	01040000 	tsteq	r4, r0
    10f0:	0023021e 	eoreq	r0, r3, lr, lsl r2
    10f4:	000dc607 	andeq	ip, sp, r7, lsl #12
    10f8:	68fa0300 	ldmvs	sl!, {r8, r9}^
    10fc:	04000000 	streq	r0, [r0]
    1100:	23021d01 	movwcs	r1, #11521	; 0x2d01
    1104:	0f740700 	svceq	0x00740700
    1108:	fb030000 	blx	c1112 <__standby_start+0xc1112>
    110c:	00000068 	andeq	r0, r0, r8, rrx
    1110:	021b0204 	andseq	r0, fp, #1073741824	; 0x40000000
    1114:	a0070023 	andge	r0, r7, r3, lsr #32
    1118:	03000010 	movweq	r0, #16
    111c:	000068fc 	strdeq	r6, [r0], -ip
    1120:	1a010400 	bne	42128 <__standby_start+0x42128>
    1124:	07002302 	streq	r2, [r0, -r2, lsl #6]
    1128:	00001020 	andeq	r1, r0, r0, lsr #32
    112c:	0068fd03 	rsbeq	pc, r8, r3, lsl #26
    1130:	01040000 	tsteq	r4, r0
    1134:	00230219 	eoreq	r0, r3, r9, lsl r2
    1138:	00087e07 	andeq	r7, r8, r7, lsl #28
    113c:	68fe0300 	ldmvs	lr!, {r8, r9}^
    1140:	04000000 	streq	r0, [r0]
    1144:	23021801 	movwcs	r1, #10241	; 0x2801
    1148:	08a20700 	stmiaeq	r2!, {r8, r9, sl}
    114c:	ff030000 	undefined instruction 0xff030000
    1150:	00000068 	andeq	r0, r0, r8, rrx
    1154:	02170104 	andseq	r0, r7, #1
    1158:	3f080023 	svccc	0x00080023
    115c:	03000013 	movweq	r0, #19
    1160:	00680100 	rsbeq	r0, r8, r0, lsl #2
    1164:	01040000 	tsteq	r4, r0
    1168:	00230216 	eoreq	r0, r3, r6, lsl r2
    116c:	000d6c08 	andeq	r6, sp, r8, lsl #24
    1170:	01010300 	tsteq	r1, r0, lsl #6
    1174:	00000068 	andeq	r0, r0, r8, rrx
    1178:	02150104 	andseq	r0, r5, #1
    117c:	7e080023 	cdpvc	0, 0, cr0, cr8, cr3, {1}
    1180:	0300000f 	movweq	r0, #15
    1184:	00680102 	rsbeq	r0, r8, r2, lsl #2
    1188:	01040000 	tsteq	r4, r0
    118c:	00230214 	eoreq	r0, r3, r4, lsl r2
    1190:	00073d08 	andeq	r3, r7, r8, lsl #26
    1194:	01030300 	tsteq	r3, r0, lsl #6
    1198:	00000068 	andeq	r0, r0, r8, rrx
    119c:	02130104 	andseq	r0, r3, #1
    11a0:	97080023 	strls	r0, [r8, -r3, lsr #32]
    11a4:	03000010 	movweq	r0, #16
    11a8:	00680104 	rsbeq	r0, r8, r4, lsl #2
    11ac:	01040000 	tsteq	r4, r0
    11b0:	00230212 	eoreq	r0, r3, r2, lsl r2
    11b4:	000d0008 	andeq	r0, sp, r8
    11b8:	01050300 	tsteq	r5, r0, lsl #6
    11bc:	00000068 	andeq	r0, r0, r8, rrx
    11c0:	02110104 	andseq	r0, r1, #1
    11c4:	88080023 	stmdahi	r8, {r0, r1, r5}
    11c8:	0300000f 	movweq	r0, #15
    11cc:	00680106 	rsbeq	r0, r8, r6, lsl #2
    11d0:	02040000 	andeq	r0, r4, #0
    11d4:	0023020f 	eoreq	r0, r3, pc, lsl #4
    11d8:	000e2d08 	andeq	r2, lr, r8, lsl #26
    11dc:	01070300 	tsteq	r7, r0, lsl #6
    11e0:	00000068 	andeq	r0, r0, r8, rrx
    11e4:	020e0104 	andeq	r0, lr, #1
    11e8:	54080023 	strpl	r0, [r8], #-35	; 0x23
    11ec:	03000004 	movweq	r0, #4
    11f0:	00680108 	rsbeq	r0, r8, r8, lsl #2
    11f4:	01040000 	tsteq	r4, r0
    11f8:	0023020d 	eoreq	r0, r3, sp, lsl #4
    11fc:	000f9208 	andeq	r9, pc, r8, lsl #4
    1200:	01090300 	tsteq	r9, r0, lsl #6
    1204:	00000068 	andeq	r0, r0, r8, rrx
    1208:	020c0104 	andeq	r0, ip, #1
    120c:	0d080023 	stceq	0, cr0, [r8, #-140]	; 0xffffff74
    1210:	03000005 	movweq	r0, #5
    1214:	0068010a 	rsbeq	r0, r8, sl, lsl #2
    1218:	01040000 	tsteq	r4, r0
    121c:	0023020b 	eoreq	r0, r3, fp, lsl #4
    1220:	00087508 	andeq	r7, r8, r8, lsl #10
    1224:	010b0300 	tsteq	fp, r0, lsl #6
    1228:	00000068 	andeq	r0, r0, r8, rrx
    122c:	020a0104 	andeq	r0, sl, #1
    1230:	a1080023 	tstge	r8, r3, lsr #32
    1234:	03000009 	movweq	r0, #9
    1238:	0068010c 	rsbeq	r0, r8, ip, lsl #2
    123c:	01040000 	tsteq	r4, r0
    1240:	00230209 	eoreq	r0, r3, r9, lsl #4
    1244:	000f9c08 	andeq	r9, pc, r8, lsl #24
    1248:	010d0300 	tsteq	sp, r0, lsl #6
    124c:	00000068 	andeq	r0, r0, r8, rrx
    1250:	02060304 	andeq	r0, r6, #268435456	; 0x10000000
    1254:	ff080023 	undefined instruction 0xff080023
    1258:	03000011 	movweq	r0, #17
    125c:	0068010e 	rsbeq	r0, r8, lr, lsl #2
    1260:	01040000 	tsteq	r4, r0
    1264:	00230205 	eoreq	r0, r3, r5, lsl #4
    1268:	00066608 	andeq	r6, r6, r8, lsl #12
    126c:	010f0300 	tsteq	pc, r0, lsl #6
    1270:	00000068 	andeq	r0, r0, r8, rrx
    1274:	02040104 	andeq	r0, r4, #1
    1278:	24080023 	strcs	r0, [r8], #-35	; 0x23
    127c:	0300000e 	movweq	r0, #14
    1280:	00680110 	rsbeq	r0, r8, r0, lsl r1
    1284:	01040000 	tsteq	r4, r0
    1288:	00230203 	eoreq	r0, r3, r3, lsl #4
    128c:	000fc208 	andeq	ip, pc, r8, lsl #4
    1290:	01110300 	tsteq	r1, r0, lsl #6
    1294:	00000068 	andeq	r0, r0, r8, rrx
    1298:	02000304 	andeq	r0, r0, #268435456	; 0x10000000
    129c:	09000023 	stmdbeq	r0, {r0, r1, r5}
    12a0:	000003df 	ldrdeq	r0, [r0], -pc
    12a4:	80011203 	andhi	r1, r1, r3, lsl #4
    12a8:	0a00000b 	beq	12dc <__standby_start+0x12dc>
    12ac:	00000859 	andeq	r0, r0, r9, asr r8
    12b0:	01160304 	tsteq	r6, r4, lsl #6
    12b4:	00000e93 	muleq	r0, r3, lr
    12b8:	000b9e08 	andeq	r9, fp, r8, lsl #28
    12bc:	01170300 	tsteq	r7, r0, lsl #6
    12c0:	00000068 	andeq	r0, r0, r8, rrx
    12c4:	021f0104 	andseq	r0, pc, #1
    12c8:	74080023 	strvc	r0, [r8], #-35	; 0x23
    12cc:	0300000f 	movweq	r0, #15
    12d0:	00680118 	rsbeq	r0, r8, r8, lsl r1
    12d4:	01040000 	tsteq	r4, r0
    12d8:	0023021e 	eoreq	r0, r3, lr, lsl r2
    12dc:	0009bd08 	andeq	fp, r9, r8, lsl #26
    12e0:	01190300 	tsteq	r9, r0, lsl #6
    12e4:	00000068 	andeq	r0, r0, r8, rrx
    12e8:	021d0104 	andseq	r0, sp, #1
    12ec:	7e080023 	cdpvc	0, 0, cr0, cr8, cr3, {1}
    12f0:	0300000f 	movweq	r0, #15
    12f4:	0068011a 	rsbeq	r0, r8, sl, lsl r1
    12f8:	01040000 	tsteq	r4, r0
    12fc:	0023021c 	eoreq	r0, r3, ip, lsl r2
    1300:	0007c508 	andeq	ip, r7, r8, lsl #10
    1304:	011b0300 	tsteq	fp, r0, lsl #6
    1308:	00000068 	andeq	r0, r0, r8, rrx
    130c:	021b0104 	andseq	r0, fp, #1
    1310:	88080023 	stmdahi	r8, {r0, r1, r5}
    1314:	0300000f 	movweq	r0, #15
    1318:	0068011c 	rsbeq	r0, r8, ip, lsl r1
    131c:	03040000 	movweq	r0, #16384	; 0x4000
    1320:	00230218 	eoreq	r0, r3, r8, lsl r2
    1324:	00133608 	andseq	r3, r3, r8, lsl #12
    1328:	011d0300 	tsteq	sp, r0, lsl #6
    132c:	00000068 	andeq	r0, r0, r8, rrx
    1330:	02170104 	andseq	r0, r7, #1
    1334:	92080023 	andls	r0, r8, #35	; 0x23
    1338:	0300000f 	movweq	r0, #15
    133c:	0068011e 	rsbeq	r0, r8, lr, lsl r1
    1340:	02040000 	andeq	r0, r4, #0
    1344:	00230215 	eoreq	r0, r3, r5, lsl r2
    1348:	0010c208 	andseq	ip, r0, r8, lsl #4
    134c:	011f0300 	tsteq	pc, r0, lsl #6
    1350:	00000068 	andeq	r0, r0, r8, rrx
    1354:	02140104 	andseq	r0, r4, #1
    1358:	15080023 	strne	r0, [r8, #-35]	; 0x23
    135c:	0300000f 	movweq	r0, #15
    1360:	00680120 	rsbeq	r0, r8, r0, lsr #2
    1364:	01040000 	tsteq	r4, r0
    1368:	00230213 	eoreq	r0, r3, r3, lsl r2
    136c:	000f9c08 	andeq	r9, pc, r8, lsl #24
    1370:	01210300 	teqeq	r1, r0, lsl #6
    1374:	00000068 	andeq	r0, r0, r8, rrx
    1378:	02120104 	andseq	r0, r2, #1
    137c:	e5080023 	str	r0, [r8, #-35]	; 0x23
    1380:	03000011 	movweq	r0, #17
    1384:	00680122 	rsbeq	r0, r8, r2, lsr #2
    1388:	01040000 	tsteq	r4, r0
    138c:	00230211 	eoreq	r0, r3, r1, lsl r2
    1390:	00066608 	andeq	r6, r6, r8, lsl #12
    1394:	01230300 	teqeq	r3, r0, lsl #6
    1398:	00000068 	andeq	r0, r0, r8, rrx
    139c:	020d0404 	andeq	r0, sp, #67108864	; 0x4000000
    13a0:	2b080023 	blcs	201434 <__standby_start+0x201434>
    13a4:	0300000b 	movweq	r0, #11
    13a8:	00680124 	rsbeq	r0, r8, r4, lsr #2
    13ac:	01040000 	tsteq	r4, r0
    13b0:	0023020c 	eoreq	r0, r3, ip, lsl #4
    13b4:	000a2708 	andeq	r2, sl, r8, lsl #14
    13b8:	01250300 	teqeq	r5, r0, lsl #6
    13bc:	00000068 	andeq	r0, r0, r8, rrx
    13c0:	020b0104 	andeq	r0, fp, #1
    13c4:	c2080023 	andgt	r0, r8, #35	; 0x23
    13c8:	0300000f 	movweq	r0, #15
    13cc:	00680126 	rsbeq	r0, r8, r6, lsr #2
    13d0:	0b040000 	bleq	1013d8 <__standby_start+0x1013d8>
    13d4:	00230200 	eoreq	r0, r3, r0, lsl #4
    13d8:	08ad0900 	stmiaeq	sp!, {r8, fp}
    13dc:	27030000 	strcs	r0, [r3, -r0]
    13e0:	000d6501 	andeq	r6, sp, r1, lsl #10
    13e4:	134a0a00 	movtne	r0, #43520	; 0xaa00
    13e8:	03040000 	movweq	r0, #16384	; 0x4000
    13ec:	0f61012b 	svceq	0x0061012b
    13f0:	f0080000 	undefined instruction 0xf0080000
    13f4:	0300000e 	movweq	r0, #14
    13f8:	0068012c 	rsbeq	r0, r8, ip, lsr #2
    13fc:	01040000 	tsteq	r4, r0
    1400:	0023021f 	eoreq	r0, r3, pc, lsl r2
    1404:	000ae708 	andeq	lr, sl, r8, lsl #14
    1408:	012d0300 	teqeq	sp, r0, lsl #6
    140c:	00000068 	andeq	r0, r0, r8, rrx
    1410:	021e0104 	andseq	r0, lr, #1
    1414:	74080023 	strvc	r0, [r8], #-35	; 0x23
    1418:	0300000f 	movweq	r0, #15
    141c:	0068012e 	rsbeq	r0, r8, lr, lsr #2
    1420:	01040000 	tsteq	r4, r0
    1424:	0023021d 	eoreq	r0, r3, sp, lsl r2
    1428:	00100f08 	andseq	r0, r0, r8, lsl #30
    142c:	012f0300 	teqeq	pc, r0, lsl #6
    1430:	00000068 	andeq	r0, r0, r8, rrx
    1434:	021c0104 	andseq	r0, ip, #1
    1438:	7e080023 	cdpvc	0, 0, cr0, cr8, cr3, {1}
    143c:	0300000f 	movweq	r0, #15
    1440:	00680130 	rsbeq	r0, r8, r0, lsr r1
    1444:	01040000 	tsteq	r4, r0
    1448:	0023021b 	eoreq	r0, r3, fp, lsl r2
    144c:	00055708 	andeq	r5, r5, r8, lsl #14
    1450:	01310300 	teqeq	r1, r0, lsl #6
    1454:	00000068 	andeq	r0, r0, r8, rrx
    1458:	021a0104 	andseq	r0, sl, #1
    145c:	d0080023 	andle	r0, r8, r3, lsr #32
    1460:	0300000d 	movweq	r0, #13
    1464:	00680132 	rsbeq	r0, r8, r2, lsr r1
    1468:	01040000 	tsteq	r4, r0
    146c:	00230219 	eoreq	r0, r3, r9, lsl r2
    1470:	000f8808 	andeq	r8, pc, r8, lsl #16
    1474:	01330300 	teqeq	r3, r0, lsl #6
    1478:	00000068 	andeq	r0, r0, r8, rrx
    147c:	02160304 	andseq	r0, r6, #268435456	; 0x10000000
    1480:	96080023 	strls	r0, [r8], -r3, lsr #32
    1484:	03000009 	movweq	r0, #9
    1488:	00680134 	rsbeq	r0, r8, r4, lsr r1
    148c:	01040000 	tsteq	r4, r0
    1490:	00230215 	eoreq	r0, r3, r5, lsl r2
    1494:	000f9208 	andeq	r9, pc, r8, lsl #4
    1498:	01350300 	teqeq	r5, r0, lsl #6
    149c:	00000068 	andeq	r0, r0, r8, rrx
    14a0:	02001504 	andeq	r1, r0, #16777216	; 0x1000000
    14a4:	09000023 	stmdbeq	r0, {r0, r1, r5}
    14a8:	00000d13 	andeq	r0, r0, r3, lsl sp
    14ac:	9f013603 	svcls	0x00013603
    14b0:	0a00000e 	beq	14f0 <__standby_start+0x14f0>
    14b4:	00001275 	andeq	r1, r0, r5, ror r2
    14b8:	013a0304 	teqeq	sl, r4, lsl #6
    14bc:	0000101d 	andeq	r1, r0, sp, lsl r0
    14c0:	00083a08 	andeq	r3, r8, r8, lsl #20
    14c4:	013b0300 	teqeq	fp, r0, lsl #6
    14c8:	00000068 	andeq	r0, r0, r8, rrx
    14cc:	021f0104 	andseq	r0, pc, #1
    14d0:	e7080023 	str	r0, [r8, -r3, lsr #32]
    14d4:	03000012 	movweq	r0, #18
    14d8:	0068013c 	rsbeq	r0, r8, ip, lsr r1
    14dc:	01040000 	tsteq	r4, r0
    14e0:	0023021e 	eoreq	r0, r3, lr, lsl r2
    14e4:	000d0a08 	andeq	r0, sp, r8, lsl #20
    14e8:	013d0300 	teqeq	sp, r0, lsl #6
    14ec:	00000068 	andeq	r0, r0, r8, rrx
    14f0:	021d0104 	andseq	r0, sp, #1
    14f4:	74080023 	strvc	r0, [r8], #-35	; 0x23
    14f8:	0300000f 	movweq	r0, #15
    14fc:	0068013e 	rsbeq	r0, r8, lr, lsr r1
    1500:	0d040000 	stceq	0, cr0, [r4]
    1504:	00230210 	eoreq	r0, r3, r0, lsl r2
    1508:	00125b08 	andseq	r5, r2, r8, lsl #22
    150c:	013f0300 	teqeq	pc, r0, lsl #6
    1510:	00000068 	andeq	r0, r0, r8, rrx
    1514:	020f0104 	andeq	r0, pc, #1
    1518:	b2080023 	andlt	r0, r8, #35	; 0x23
    151c:	0300000c 	movweq	r0, #12
    1520:	00680140 	rsbeq	r0, r8, r0, asr #2
    1524:	01040000 	tsteq	r4, r0
    1528:	0023020e 	eoreq	r0, r3, lr, lsl #4
    152c:	00076608 	andeq	r6, r7, r8, lsl #12
    1530:	01410300 	cmpeq	r1, r0, lsl #6
    1534:	00000068 	andeq	r0, r0, r8, rrx
    1538:	020d0104 	andeq	r0, sp, #1
    153c:	db080023 	blle	2015d0 <__standby_start+0x2015d0>
    1540:	03000011 	movweq	r0, #17
    1544:	00680142 	rsbeq	r0, r8, r2, asr #2
    1548:	01040000 	tsteq	r4, r0
    154c:	0023020c 	eoreq	r0, r3, ip, lsl #4
    1550:	000f7e08 	andeq	r7, pc, r8, lsl #28
    1554:	01430300 	cmpeq	r3, r0, lsl #6
    1558:	00000068 	andeq	r0, r0, r8, rrx
    155c:	02000c04 	andeq	r0, r0, #1024	; 0x400
    1560:	09000023 	stmdbeq	r0, {r0, r1, r5}
    1564:	00000bca 	andeq	r0, r0, sl, asr #23
    1568:	6d014403 	cfstrsvs	mvf4, [r1, #-12]
    156c:	0a00000f 	beq	15b0 <__standby_start+0x15b0>
    1570:	00000b18 	andeq	r0, r0, r8, lsl fp
    1574:	014a0304 	cmpeq	sl, r4, lsl #6
    1578:	000010b5 	strheq	r1, [r0], -r5
    157c:	00132508 	andseq	r2, r3, r8, lsl #10
    1580:	014b0300 	cmpeq	fp, r0, lsl #6
    1584:	00000068 	andeq	r0, r0, r8, rrx
    1588:	021c0404 	andseq	r0, ip, #67108864	; 0x4000000
    158c:	74080023 	strvc	r0, [r8], #-35	; 0x23
    1590:	0300000f 	movweq	r0, #15
    1594:	0068014c 	rsbeq	r0, r8, ip, asr #2
    1598:	0c040000 	stceq	0, cr0, [r4], {0}
    159c:	00230210 	eoreq	r0, r3, r0, lsl r2
    15a0:	00052008 	andeq	r2, r5, r8
    15a4:	014d0300 	cmpeq	sp, r0, lsl #6
    15a8:	00000068 	andeq	r0, r0, r8, rrx
    15ac:	020e0204 	andeq	r0, lr, #1073741824	; 0x40000000
    15b0:	7e080023 	cdpvc	0, 0, cr0, cr8, cr3, {1}
    15b4:	0300000f 	movweq	r0, #15
    15b8:	0068014e 	rsbeq	r0, r8, lr, asr #2
    15bc:	06040000 	streq	r0, [r4], -r0
    15c0:	00230208 	eoreq	r0, r3, r8, lsl #4
    15c4:	0012d608 	andseq	sp, r2, r8, lsl #12
    15c8:	014f0300 	cmpeq	pc, r0, lsl #6
    15cc:	00000068 	andeq	r0, r0, r8, rrx
    15d0:	02060204 	andeq	r0, r6, #1073741824	; 0x40000000
    15d4:	88080023 	stmdahi	r8, {r0, r1, r5}
    15d8:	0300000f 	movweq	r0, #15
    15dc:	00680150 	rsbeq	r0, r8, r0, asr r1
    15e0:	05040000 	streq	r0, [r4]
    15e4:	00230201 	eoreq	r0, r3, r1, lsl #4
    15e8:	00115208 	andseq	r5, r1, r8, lsl #4
    15ec:	01510300 	cmpeq	r1, r0, lsl #6
    15f0:	00000068 	andeq	r0, r0, r8, rrx
    15f4:	02000104 	andeq	r0, r0, #1
    15f8:	09000023 	stmdbeq	r0, {r0, r1, r5}
    15fc:	00000def 	andeq	r0, r0, pc, ror #27
    1600:	29015203 	stmdbcs	r1, {r0, r1, r9, ip, lr}
    1604:	0a000010 	beq	164c <__standby_start+0x164c>
    1608:	0000059b 	muleq	r0, fp, r5
    160c:	01580304 	cmpeq	r8, r4, lsl #6
    1610:	00001117 	andeq	r1, r0, r7, lsl r1
    1614:	000f7408 	andeq	r7, pc, r8, lsl #8
    1618:	01590300 	cmpeq	r9, r0, lsl #6
    161c:	00000068 	andeq	r0, r0, r8, rrx
    1620:	02101004 	andseq	r1, r0, #4
    1624:	25080023 	strcs	r0, [r8, #-35]	; 0x23
    1628:	03000013 	movweq	r0, #19
    162c:	0068015a 	rsbeq	r0, r8, sl, asr r1
    1630:	02040000 	andeq	r0, r4, #0
    1634:	0023020e 	eoreq	r0, r3, lr, lsl #4
    1638:	000f7e08 	andeq	r7, pc, r8, lsl #28
    163c:	015b0300 	cmpeq	fp, r0, lsl #6
    1640:	00000068 	andeq	r0, r0, r8, rrx
    1644:	02010d04 	andeq	r0, r1, #256	; 0x100
    1648:	52080023 	andpl	r0, r8, #35	; 0x23
    164c:	03000011 	movweq	r0, #17
    1650:	0068015c 	rsbeq	r0, r8, ip, asr r1
    1654:	01040000 	tsteq	r4, r0
    1658:	00230200 	eoreq	r0, r3, r0, lsl #4
    165c:	07760900 	ldrbeq	r0, [r6, -r0, lsl #18]!
    1660:	5e030000 	cdppl	0, 0, cr0, cr3, cr0, {0}
    1664:	0010c101 	andseq	ip, r0, r1, lsl #2
    1668:	102e0a00 	eorne	r0, lr, r0, lsl #20
    166c:	03040000 	movweq	r0, #16384	; 0x4000
    1670:	11af0162 	undefined instruction 0x11af0162
    1674:	25080000 	strcs	r0, [r8]
    1678:	03000013 	movweq	r0, #19
    167c:	00680163 	rsbeq	r0, r8, r3, ror #2
    1680:	05040000 	streq	r0, [r4]
    1684:	0023021b 	eoreq	r0, r3, fp, lsl r2
    1688:	000f7408 	andeq	r7, pc, r8, lsl #8
    168c:	01640300 	cmneq	r4, r0, lsl #6
    1690:	00000068 	andeq	r0, r0, r8, rrx
    1694:	02100b04 	andseq	r0, r0, #4096	; 0x1000
    1698:	20080023 	andcs	r0, r8, r3, lsr #32
    169c:	03000005 	movweq	r0, #5
    16a0:	00680165 	rsbeq	r0, r8, r5, ror #2
    16a4:	02040000 	andeq	r0, r4, #0
    16a8:	0023020e 	eoreq	r0, r3, lr, lsl #4
    16ac:	000f7e08 	andeq	r7, pc, r8, lsl #28
    16b0:	01660300 	cmneq	r6, r0, lsl #6
    16b4:	00000068 	andeq	r0, r0, r8, rrx
    16b8:	02080604 	andeq	r0, r8, #4194304	; 0x400000
    16bc:	d6080023 	strle	r0, [r8], -r3, lsr #32
    16c0:	03000012 	movweq	r0, #18
    16c4:	00680167 	rsbeq	r0, r8, r7, ror #2
    16c8:	02040000 	andeq	r0, r4, #0
    16cc:	00230206 	eoreq	r0, r3, r6, lsl #4
    16d0:	000f8808 	andeq	r8, pc, r8, lsl #16
    16d4:	01680300 	cmneq	r8, r0, lsl #6
    16d8:	00000068 	andeq	r0, r0, r8, rrx
    16dc:	02010504 	andeq	r0, r1, #16777216	; 0x1000000
    16e0:	52080023 	andpl	r0, r8, #35	; 0x23
    16e4:	03000011 	movweq	r0, #17
    16e8:	00680169 	rsbeq	r0, r8, r9, ror #2
    16ec:	01040000 	tsteq	r4, r0
    16f0:	00230200 	eoreq	r0, r3, r0, lsl #4
    16f4:	09670900 	stmdbeq	r7!, {r8, fp}^
    16f8:	6a030000 	bvs	c1700 <__standby_start+0xc1700>
    16fc:	00112301 	andseq	r2, r1, r1, lsl #6
    1700:	0a820a00 	beq	fe083f08 <__bss_end+0xe08131c>
    1704:	03040000 	movweq	r0, #16384	; 0x4000
    1708:	1247016e 	subne	r0, r7, #-2147483621	; 0x8000001b
    170c:	61080000 	tstvs	r8, r0
    1710:	0300000d 	movweq	r0, #13
    1714:	0068016f 	rsbeq	r0, r8, pc, ror #2
    1718:	01040000 	tsteq	r4, r0
    171c:	0023021f 	eoreq	r0, r3, pc, lsl r2
    1720:	0011b108 	andseq	fp, r1, r8, lsl #2
    1724:	01700300 	cmneq	r0, r0, lsl #6
    1728:	00000068 	andeq	r0, r0, r8, rrx
    172c:	021e0104 	andseq	r0, lr, #1
    1730:	74080023 	strvc	r0, [r8], #-35	; 0x23
    1734:	0300000f 	movweq	r0, #15
    1738:	00680171 	rsbeq	r0, r8, r1, ror r1
    173c:	04040000 	streq	r0, [r4]
    1740:	0023021a 	eoreq	r0, r3, sl, lsl r2
    1744:	00114d08 	andseq	r4, r1, r8, lsl #26
    1748:	01720300 	cmneq	r2, r0, lsl #6
    174c:	00000068 	andeq	r0, r0, r8, rrx
    1750:	02190104 	andseq	r0, r9, #1
    1754:	7e080023 	cdpvc	0, 0, cr0, cr8, cr3, {1}
    1758:	0300000f 	movweq	r0, #15
    175c:	00680173 	rsbeq	r0, r8, r3, ror r1
    1760:	01040000 	tsteq	r4, r0
    1764:	00230218 	eoreq	r0, r3, r8, lsl r2
    1768:	000ad808 	andeq	sp, sl, r8, lsl #16
    176c:	01740300 	cmneq	r4, r0, lsl #6
    1770:	00000068 	andeq	r0, r0, r8, rrx
    1774:	02170104 	andseq	r0, r7, #1
    1778:	88080023 	stmdahi	r8, {r0, r1, r5}
    177c:	0300000f 	movweq	r0, #15
    1780:	00680175 	rsbeq	r0, r8, r5, ror r1
    1784:	17040000 	strne	r0, [r4, -r0]
    1788:	00230200 	eoreq	r0, r3, r0, lsl #4
    178c:	07240900 	streq	r0, [r4, -r0, lsl #18]!
    1790:	76030000 	strvc	r0, [r3], -r0
    1794:	0011bb01 	andseq	fp, r1, r1, lsl #22
    1798:	0dd80a00 	vldreq	s1, [r8]
    179c:	03040000 	movweq	r0, #16384	; 0x4000
    17a0:	12cd017a 	sbcne	r0, sp, #-2147483618	; 0x8000001e
    17a4:	ce080000 	cdpgt	0, 0, cr0, cr8, cr0, {0}
    17a8:	03000007 	movweq	r0, #7
    17ac:	0068017b 	rsbeq	r0, r8, fp, ror r1
    17b0:	03040000 	movweq	r0, #16384	; 0x4000
    17b4:	0023021d 	eoreq	r0, r3, sp, lsl r2
    17b8:	000f7408 	andeq	r7, pc, r8, lsl #8
    17bc:	017c0300 	cmneq	ip, r0, lsl #6
    17c0:	00000068 	andeq	r0, r0, r8, rrx
    17c4:	02081504 	andeq	r1, r8, #16777216	; 0x1000000
    17c8:	d6080023 	strle	r0, [r8], -r3, lsr #32
    17cc:	03000012 	movweq	r0, #18
    17d0:	0068017d 	rsbeq	r0, r8, sp, ror r1
    17d4:	02040000 	andeq	r0, r4, #0
    17d8:	00230206 	eoreq	r0, r3, r6, lsl #4
    17dc:	000f7e08 	andeq	r7, pc, r8, lsl #28
    17e0:	017e0300 	cmneq	lr, r0, lsl #6
    17e4:	00000068 	andeq	r0, r0, r8, rrx
    17e8:	02020404 	andeq	r0, r2, #67108864	; 0x4000000
    17ec:	ab080023 	blge	201880 <__standby_start+0x201880>
    17f0:	03000011 	movweq	r0, #17
    17f4:	0068017f 	rsbeq	r0, r8, pc, ror r1
    17f8:	01040000 	tsteq	r4, r0
    17fc:	00230201 	eoreq	r0, r3, r1, lsl #4
    1800:	00115208 	andseq	r5, r1, r8, lsl #4
    1804:	01800300 	orreq	r0, r0, r0, lsl #6
    1808:	00000068 	andeq	r0, r0, r8, rrx
    180c:	02000104 	andeq	r0, r0, #1
    1810:	09000023 	stmdbeq	r0, {r0, r1, r5}
    1814:	00000926 	andeq	r0, r0, r6, lsr #18
    1818:	53018103 	movwpl	r8, #4355	; 0x1103
    181c:	0a000012 	beq	186c <__standby_start+0x186c>
    1820:	000004b7 	undefined instruction 0x000004b7
    1824:	01850304 	orreq	r0, r5, r4, lsl #6
    1828:	000013ad 	andeq	r1, r0, sp, lsr #7
    182c:	000b9e08 	andeq	r9, fp, r8, lsl #28
    1830:	01860300 	orreq	r0, r6, r0, lsl #6
    1834:	00000068 	andeq	r0, r0, r8, rrx
    1838:	021f0104 	andseq	r0, pc, #1
    183c:	36080023 	strcc	r0, [r8], -r3, lsr #32
    1840:	03000013 	movweq	r0, #19
    1844:	00680187 	rsbeq	r0, r8, r7, lsl #3
    1848:	01040000 	tsteq	r4, r0
    184c:	0023021e 	eoreq	r0, r3, lr, lsl r2
    1850:	000f7408 	andeq	r7, pc, r8, lsl #8
    1854:	01880300 	orreq	r0, r8, r0, lsl #6
    1858:	00000068 	andeq	r0, r0, r8, rrx
    185c:	021d0104 	andseq	r0, sp, #1
    1860:	54080023 	strpl	r0, [r8], #-35	; 0x23
    1864:	03000004 	movweq	r0, #4
    1868:	00680189 	rsbeq	r0, r8, r9, lsl #3
    186c:	01040000 	tsteq	r4, r0
    1870:	0023021c 	eoreq	r0, r3, ip, lsl r2
    1874:	000f7e08 	andeq	r7, pc, r8, lsl #28
    1878:	018a0300 	orreq	r0, sl, r0, lsl #6
    187c:	00000068 	andeq	r0, r0, r8, rrx
    1880:	021b0104 	andseq	r0, fp, #1
    1884:	bd080023 	stclt	0, cr0, [r8, #-140]	; 0xffffff74
    1888:	03000009 	movweq	r0, #9
    188c:	0068018b 	rsbeq	r0, r8, fp, lsl #3
    1890:	01040000 	tsteq	r4, r0
    1894:	0023021a 	eoreq	r0, r3, sl, lsl r2
    1898:	000f8808 	andeq	r8, pc, r8, lsl #16
    189c:	018c0300 	orreq	r0, ip, r0, lsl #6
    18a0:	00000068 	andeq	r0, r0, r8, rrx
    18a4:	02071304 	andeq	r1, r7, #268435456	; 0x10000000
    18a8:	e5080023 	str	r0, [r8, #-35]	; 0x23
    18ac:	03000011 	movweq	r0, #17
    18b0:	0068018d 	rsbeq	r0, r8, sp, lsl #3
    18b4:	01040000 	tsteq	r4, r0
    18b8:	00230206 	eoreq	r0, r3, r6, lsl #4
    18bc:	000f1508 	andeq	r1, pc, r8, lsl #10
    18c0:	018e0300 	orreq	r0, lr, r0, lsl #6
    18c4:	00000068 	andeq	r0, r0, r8, rrx
    18c8:	02050104 	andeq	r0, r5, #1
    18cc:	92080023 	andls	r0, r8, #35	; 0x23
    18d0:	0300000f 	movweq	r0, #15
    18d4:	0068018f 	rsbeq	r0, r8, pc, lsl #3
    18d8:	04040000 	streq	r0, [r4]
    18dc:	00230201 	eoreq	r0, r3, r1, lsl #4
    18e0:	000b2b08 	andeq	r2, fp, r8, lsl #22
    18e4:	01900300 	orrseq	r0, r0, r0, lsl #6
    18e8:	00000068 	andeq	r0, r0, r8, rrx
    18ec:	02000104 	andeq	r0, r0, #1
    18f0:	09000023 	stmdbeq	r0, {r0, r1, r5}
    18f4:	000004ea 	andeq	r0, r0, sl, ror #9
    18f8:	d9019103 	stmdble	r1, {r0, r1, r8, ip, pc}
    18fc:	0a000012 	beq	194c <__standby_start+0x194c>
    1900:	000004a5 	andeq	r0, r0, r5, lsr #9
    1904:	01970304 	orrseq	r0, r7, r4, lsl #6
    1908:	00001433 	andeq	r1, r0, r3, lsr r4
    190c:	00132508 	andseq	r2, r3, r8, lsl #10
    1910:	01980300 	orrseq	r0, r8, r0, lsl #6
    1914:	00000068 	andeq	r0, r0, r8, rrx
    1918:	021c0404 	andseq	r0, ip, #67108864	; 0x4000000
    191c:	74080023 	strvc	r0, [r8], #-35	; 0x23
    1920:	0300000f 	movweq	r0, #15
    1924:	00680199 	mlseq	r8, r9, r1, r0
    1928:	14040000 	strne	r0, [r4]
    192c:	00230208 	eoreq	r0, r3, r8, lsl #4
    1930:	0012d608 	andseq	sp, r2, r8, lsl #12
    1934:	019a0300 	orrseq	r0, sl, r0, lsl #6
    1938:	00000068 	andeq	r0, r0, r8, rrx
    193c:	02060204 	andeq	r0, r6, #1073741824	; 0x40000000
    1940:	7e080023 	cdpvc	0, 0, cr0, cr8, cr3, {1}
    1944:	0300000f 	movweq	r0, #15
    1948:	0068019b 	mlseq	r8, fp, r1, r0
    194c:	04040000 	streq	r0, [r4]
    1950:	00230202 	eoreq	r0, r3, r2, lsl #4
    1954:	0011ab08 	andseq	sl, r1, r8, lsl #22
    1958:	019c0300 	orrseq	r0, ip, r0, lsl #6
    195c:	00000068 	andeq	r0, r0, r8, rrx
    1960:	02010104 	andeq	r0, r1, #1
    1964:	52080023 	andpl	r0, r8, #35	; 0x23
    1968:	03000011 	movweq	r0, #17
    196c:	0068019d 	mlseq	r8, sp, r1, r0
    1970:	01040000 	tsteq	r4, r0
    1974:	00230200 	eoreq	r0, r3, r0, lsl #4
    1978:	10a70900 	adcne	r0, r7, r0, lsl #18
    197c:	9f030000 	svcls	0x00030000
    1980:	0013b901 	andseq	fp, r3, r1, lsl #18
    1984:	122a0a00 	eorne	r0, sl, #0
    1988:	03040000 	movweq	r0, #16384	; 0x4000
    198c:	14b901a5 	ldrtne	r0, [r9], #421	; 0x1a5
    1990:	74080000 	strvc	r0, [r8]
    1994:	0300000f 	movweq	r0, #15
    1998:	006801a6 	rsbeq	r0, r8, r6, lsr #3
    199c:	18040000 	stmdane	r4, {}
    19a0:	00230208 	eoreq	r0, r3, r8, lsl #4
    19a4:	0012d608 	andseq	sp, r2, r8, lsl #12
    19a8:	01a70300 	undefined instruction 0x01a70300
    19ac:	00000068 	andeq	r0, r0, r8, rrx
    19b0:	02060204 	andeq	r0, r6, #1073741824	; 0x40000000
    19b4:	7e080023 	cdpvc	0, 0, cr0, cr8, cr3, {1}
    19b8:	0300000f 	movweq	r0, #15
    19bc:	006801a8 	rsbeq	r0, r8, r8, lsr #3
    19c0:	03040000 	movweq	r0, #16384	; 0x4000
    19c4:	00230203 	eoreq	r0, r3, r3, lsl #4
    19c8:	00040d08 	andeq	r0, r4, r8, lsl #26
    19cc:	01a90300 	undefined instruction 0x01a90300
    19d0:	00000068 	andeq	r0, r0, r8, rrx
    19d4:	02020104 	andeq	r0, r2, #1
    19d8:	a8080023 	stmdage	r8, {r0, r1, r5}
    19dc:	03000011 	movweq	r0, #17
    19e0:	006801aa 	rsbeq	r0, r8, sl, lsr #3
    19e4:	01040000 	tsteq	r4, r0
    19e8:	00230201 	eoreq	r0, r3, r1, lsl #4
    19ec:	00115208 	andseq	r5, r1, r8, lsl #4
    19f0:	01ab0300 	undefined instruction 0x01ab0300
    19f4:	00000068 	andeq	r0, r0, r8, rrx
    19f8:	02000104 	andeq	r0, r0, #1
    19fc:	09000023 	stmdbeq	r0, {r0, r1, r5}
    1a00:	00000615 	andeq	r0, r0, r5, lsl r6
    1a04:	3f01ad03 	svccc	0x0001ad03
    1a08:	0a000014 	beq	1a60 <__standby_start+0x1a60>
    1a0c:	00000c69 	andeq	r0, r0, r9, ror #24
    1a10:	01b30304 	undefined instruction 0x01b30304
    1a14:	00001575 	andeq	r1, r0, r5, ror r5
    1a18:	00132508 	andseq	r2, r3, r8, lsl #10
    1a1c:	01b40300 	undefined instruction 0x01b40300
    1a20:	00000068 	andeq	r0, r0, r8, rrx
    1a24:	021c0404 	andseq	r0, ip, #67108864	; 0x4000000
    1a28:	74080023 	strvc	r0, [r8], #-35	; 0x23
    1a2c:	0300000f 	movweq	r0, #15
    1a30:	006801b5 	strhteq	r0, [r8], #-21	; 0xffffffeb
    1a34:	07040000 	streq	r0, [r4, -r0]
    1a38:	00230215 	eoreq	r0, r3, r5, lsl r2
    1a3c:	00068308 	andeq	r8, r6, r8, lsl #6
    1a40:	01b60300 	undefined instruction 0x01b60300
    1a44:	00000068 	andeq	r0, r0, r8, rrx
    1a48:	02140104 	andseq	r0, r4, #1
    1a4c:	7e080023 	cdpvc	0, 0, cr0, cr8, cr3, {1}
    1a50:	0300000f 	movweq	r0, #15
    1a54:	006801b7 	strhteq	r0, [r8], #-23	; 0xffffffe9
    1a58:	03040000 	movweq	r0, #16384	; 0x4000
    1a5c:	00230211 	eoreq	r0, r3, r1, lsl r2
    1a60:	000fd608 	andeq	sp, pc, r8, lsl #12
    1a64:	01b80300 	undefined instruction 0x01b80300
    1a68:	00000068 	andeq	r0, r0, r8, rrx
    1a6c:	02100104 	andseq	r0, r0, #1
    1a70:	88080023 	stmdahi	r8, {r0, r1, r5}
    1a74:	0300000f 	movweq	r0, #15
    1a78:	006801b9 	strhteq	r0, [r8], #-25	; 0xffffffe7
    1a7c:	08040000 	stmdaeq	r4, {}
    1a80:	00230208 	eoreq	r0, r3, r8, lsl #4
    1a84:	000fed08 	andeq	lr, pc, r8, lsl #26
    1a88:	01ba0300 	undefined instruction 0x01ba0300
    1a8c:	00000068 	andeq	r0, r0, r8, rrx
    1a90:	02060204 	andeq	r0, r6, #1073741824	; 0x40000000
    1a94:	92080023 	andls	r0, r8, #35	; 0x23
    1a98:	0300000f 	movweq	r0, #15
    1a9c:	006801bb 	strhteq	r0, [r8], #-27	; 0xffffffe5
    1aa0:	05040000 	streq	r0, [r4]
    1aa4:	00230201 	eoreq	r0, r3, r1, lsl #4
    1aa8:	0009f208 	andeq	pc, r9, r8, lsl #4
    1aac:	01bc0300 	undefined instruction 0x01bc0300
    1ab0:	00000068 	andeq	r0, r0, r8, rrx
    1ab4:	02000104 	andeq	r0, r0, #1
    1ab8:	09000023 	stmdbeq	r0, {r0, r1, r5}
    1abc:	00000f01 	andeq	r0, r0, r1, lsl #30
    1ac0:	c501be03 	strgt	fp, [r1, #-3587]	; 0xe03
    1ac4:	0a000014 	beq	1b1c <__standby_start+0x1b1c>
    1ac8:	00000958 	andeq	r0, r0, r8, asr r9
    1acc:	01c40304 	biceq	r0, r4, r4, lsl #6
    1ad0:	000015fb 	strdeq	r1, [r0], -fp
    1ad4:	00132508 	andseq	r2, r3, r8, lsl #10
    1ad8:	01c50300 	biceq	r0, r5, r0, lsl #6
    1adc:	00000068 	andeq	r0, r0, r8, rrx
    1ae0:	021b0504 	andseq	r0, fp, #16777216	; 0x1000000
    1ae4:	74080023 	strvc	r0, [r8], #-35	; 0x23
    1ae8:	0300000f 	movweq	r0, #15
    1aec:	006801c6 	rsbeq	r0, r8, r6, asr #3
    1af0:	13040000 	movwne	r0, #16384	; 0x4000
    1af4:	00230208 	eoreq	r0, r3, r8, lsl #4
    1af8:	0012d608 	andseq	sp, r2, r8, lsl #12
    1afc:	01c70300 	biceq	r0, r7, r0, lsl #6
    1b00:	00000068 	andeq	r0, r0, r8, rrx
    1b04:	02050304 	andeq	r0, r5, #268435456	; 0x10000000
    1b08:	7e080023 	cdpvc	0, 0, cr0, cr8, cr3, {1}
    1b0c:	0300000f 	movweq	r0, #15
    1b10:	006801c8 	rsbeq	r0, r8, r8, asr #3
    1b14:	03040000 	movweq	r0, #16384	; 0x4000
    1b18:	00230202 	eoreq	r0, r3, r2, lsl #4
    1b1c:	0011ab08 	andseq	sl, r1, r8, lsl #22
    1b20:	01c90300 	biceq	r0, r9, r0, lsl #6
    1b24:	00000068 	andeq	r0, r0, r8, rrx
    1b28:	02010104 	andeq	r0, r1, #1
    1b2c:	52080023 	andpl	r0, r8, #35	; 0x23
    1b30:	03000011 	movweq	r0, #17
    1b34:	006801ca 	rsbeq	r0, r8, sl, asr #3
    1b38:	01040000 	tsteq	r4, r0
    1b3c:	00230200 	eoreq	r0, r3, r0, lsl #4
    1b40:	08870900 	stmeq	r7, {r8, fp}
    1b44:	cb030000 	blgt	c1b4c <__standby_start+0xc1b4c>
    1b48:	00158101 	andseq	r8, r5, r1, lsl #2
    1b4c:	12450a00 	subne	r0, r5, #0
    1b50:	03040000 	movweq	r0, #16384	; 0x4000
    1b54:	166f01cf 	strbtne	r0, [pc], -pc, asr #3
    1b58:	ab080000 	blge	201b60 <__standby_start+0x201b60>
    1b5c:	03000011 	movweq	r0, #17
    1b60:	006801d0 	ldrdeq	r0, [r8], #-16
    1b64:	01040000 	tsteq	r4, r0
    1b68:	0023021f 	eoreq	r0, r3, pc, lsl r2
    1b6c:	000f7408 	andeq	r7, pc, r8, lsl #8
    1b70:	01d10300 	bicseq	r0, r1, r0, lsl #6
    1b74:	00000068 	andeq	r0, r0, r8, rrx
    1b78:	02100f04 	andseq	r0, r0, #16
    1b7c:	25080023 	strcs	r0, [r8, #-35]	; 0x23
    1b80:	03000013 	movweq	r0, #19
    1b84:	006801d2 	ldrdeq	r0, [r8], #-18	; 0xffffffee
    1b88:	03040000 	movweq	r0, #16384	; 0x4000
    1b8c:	0023020d 	eoreq	r0, r3, sp, lsl #4
    1b90:	000f7e08 	andeq	r7, pc, r8, lsl #28
    1b94:	01d30300 	bicseq	r0, r3, r0, lsl #6
    1b98:	00000068 	andeq	r0, r0, r8, rrx
    1b9c:	02010c04 	andeq	r0, r1, #1024	; 0x400
    1ba0:	52080023 	andpl	r0, r8, #35	; 0x23
    1ba4:	03000011 	movweq	r0, #17
    1ba8:	006801d4 	ldrdeq	r0, [r8], #-20	; 0xffffffec
    1bac:	01040000 	tsteq	r4, r0
    1bb0:	00230200 	eoreq	r0, r3, r0, lsl #4
    1bb4:	0e610900 	cdpeq	9, 6, cr0, cr1, cr0, {0}
    1bb8:	d5030000 	strle	r0, [r3]
    1bbc:	00160701 	andseq	r0, r6, r1, lsl #14
    1bc0:	0cc30a00 	vstmiaeq	r3, {s1-s0}
    1bc4:	03040000 	movweq	r0, #16384	; 0x4000
    1bc8:	16ad01d8 	ssatne	r0, #14, r8, asr #3
    1bcc:	74080000 	strvc	r0, [r8]
    1bd0:	0300000f 	movweq	r0, #15
    1bd4:	006801d9 	ldrdeq	r0, [r8], #-25	; 0xffffffe7
    1bd8:	1f040000 	svcne	0x00040000
    1bdc:	00230201 	eoreq	r0, r3, r1, lsl #4
    1be0:	00115208 	andseq	r5, r1, r8, lsl #4
    1be4:	01da0300 	bicseq	r0, sl, r0, lsl #6
    1be8:	00000068 	andeq	r0, r0, r8, rrx
    1bec:	02000104 	andeq	r0, r0, #1
    1bf0:	09000023 	stmdbeq	r0, {r0, r1, r5}
    1bf4:	000004d0 	ldrdeq	r0, [r0], -r0
    1bf8:	7b01db03 	blvc	7880c <__standby_start+0x7880c>
    1bfc:	0a000016 	beq	1c5c <__standby_start+0x1c5c>
    1c00:	00000812 	andeq	r0, r0, r2, lsl r8
    1c04:	01de0304 	bicseq	r0, lr, r4, lsl #6
    1c08:	000016eb 	andeq	r1, r0, fp, ror #13
    1c0c:	000f7408 	andeq	r7, pc, r8, lsl #8
    1c10:	01df0300 	bicseq	r0, pc, r0, lsl #6
    1c14:	00000068 	andeq	r0, r0, r8, rrx
    1c18:	02011f04 	andeq	r1, r1, #16
    1c1c:	52080023 	andpl	r0, r8, #35	; 0x23
    1c20:	03000011 	movweq	r0, #17
    1c24:	006801e0 	rsbeq	r0, r8, r0, ror #3
    1c28:	01040000 	tsteq	r4, r0
    1c2c:	00230200 	eoreq	r0, r3, r0, lsl #4
    1c30:	11800900 	orrne	r0, r0, r0, lsl #18
    1c34:	e1030000 	tst	r3, r0
    1c38:	0016b901 	andseq	fp, r6, r1, lsl #18
    1c3c:	053f0a00 	ldreq	r0, [pc, #-2560]!	; 1244 <__standby_start+0x1244>
    1c40:	03040000 	movweq	r0, #16384	; 0x4000
    1c44:	172901e5 	strne	r0, [r9, -r5, ror #3]!
    1c48:	ab080000 	blge	201c50 <__standby_start+0x201c50>
    1c4c:	03000011 	movweq	r0, #17
    1c50:	006801e6 	rsbeq	r0, r8, r6, ror #3
    1c54:	01040000 	tsteq	r4, r0
    1c58:	0023021f 	eoreq	r0, r3, pc, lsl r2
    1c5c:	00016908 	andeq	r6, r1, r8, lsl #18
    1c60:	01e70300 	mvneq	r0, r0, lsl #6
    1c64:	00000068 	andeq	r0, r0, r8, rrx
    1c68:	02001f04 	andeq	r1, r0, #16
    1c6c:	09000023 	stmdbeq	r0, {r0, r1, r5}
    1c70:	00000e3f 	andeq	r0, r0, pc, lsr lr
    1c74:	f701e803 	undefined instruction 0xf701e803
    1c78:	0a000016 	beq	1cd8 <__standby_start+0x1cd8>
    1c7c:	0000064e 	andeq	r0, r0, lr, asr #12
    1c80:	01ec0304 	mvneq	r0, r4, lsl #6
    1c84:	0000179d 	muleq	r0, sp, r7
    1c88:	00132508 	andseq	r2, r3, r8, lsl #10
    1c8c:	01ed0300 	mvneq	r0, r0, lsl #6
    1c90:	00000068 	andeq	r0, r0, r8, rrx
    1c94:	021c0404 	andseq	r0, ip, #67108864	; 0x4000000
    1c98:	74080023 	strvc	r0, [r8], #-35	; 0x23
    1c9c:	0300000f 	movweq	r0, #15
    1ca0:	006801ee 	rsbeq	r0, r8, lr, ror #3
    1ca4:	14040000 	strne	r0, [r4]
    1ca8:	00230208 	eoreq	r0, r3, r8, lsl #4
    1cac:	0012d608 	andseq	sp, r2, r8, lsl #12
    1cb0:	01ef0300 	mvneq	r0, r0, lsl #6
    1cb4:	00000068 	andeq	r0, r0, r8, rrx
    1cb8:	02060204 	andeq	r0, r6, #1073741824	; 0x40000000
    1cbc:	7e080023 	cdpvc	0, 0, cr0, cr8, cr3, {1}
    1cc0:	0300000f 	movweq	r0, #15
    1cc4:	006801f0 	strdeq	r0, [r8], #-16
    1cc8:	05040000 	streq	r0, [r4]
    1ccc:	00230201 	eoreq	r0, r3, r1, lsl #4
    1cd0:	00115208 	andseq	r5, r1, r8, lsl #4
    1cd4:	01f10300 	mvnseq	r0, r0, lsl #6
    1cd8:	00000068 	andeq	r0, r0, r8, rrx
    1cdc:	02000104 	andeq	r0, r0, #1
    1ce0:	09000023 	stmdbeq	r0, {r0, r1, r5}
    1ce4:	00000416 	andeq	r0, r0, r6, lsl r4
    1ce8:	3501f203 	strcc	pc, [r1, #-515]	; 0x203
    1cec:	0a000017 	beq	1d50 <__standby_start+0x1d50>
    1cf0:	00000a30 	andeq	r0, r0, r0, lsr sl
    1cf4:	01f60304 	mvnseq	r0, r4, lsl #6
    1cf8:	00001823 	andeq	r1, r0, r3, lsr #16
    1cfc:	00132508 	andseq	r2, r3, r8, lsl #10
    1d00:	01f70300 	mvnseq	r0, r0, lsl #6
    1d04:	00000068 	andeq	r0, r0, r8, rrx
    1d08:	021c0404 	andseq	r0, ip, #67108864	; 0x4000000
    1d0c:	74080023 	strvc	r0, [r8], #-35	; 0x23
    1d10:	0300000f 	movweq	r0, #15
    1d14:	006801f8 	strdeq	r0, [r8], #-24	; 0xffffffe8
    1d18:	14040000 	strne	r0, [r4]
    1d1c:	00230208 	eoreq	r0, r3, r8, lsl #4
    1d20:	0012d608 	andseq	sp, r2, r8, lsl #12
    1d24:	01f90300 	mvnseq	r0, r0, lsl #6
    1d28:	00000068 	andeq	r0, r0, r8, rrx
    1d2c:	02050304 	andeq	r0, r5, #268435456	; 0x10000000
    1d30:	7e080023 	cdpvc	0, 0, cr0, cr8, cr3, {1}
    1d34:	0300000f 	movweq	r0, #15
    1d38:	006801fa 	strdeq	r0, [r8], #-26	; 0xffffffe6
    1d3c:	03040000 	movweq	r0, #16384	; 0x4000
    1d40:	00230202 	eoreq	r0, r3, r2, lsl #4
    1d44:	0011ab08 	andseq	sl, r1, r8, lsl #22
    1d48:	01fb0300 	mvnseq	r0, r0, lsl #6
    1d4c:	00000068 	andeq	r0, r0, r8, rrx
    1d50:	02010104 	andeq	r0, r1, #1
    1d54:	52080023 	andpl	r0, r8, #35	; 0x23
    1d58:	03000011 	movweq	r0, #17
    1d5c:	006801fc 	strdeq	r0, [r8], #-28	; 0xffffffe4
    1d60:	01040000 	tsteq	r4, r0
    1d64:	00230200 	eoreq	r0, r3, r0, lsl #4
    1d68:	08cb0900 	stmiaeq	fp, {r8, fp}^
    1d6c:	fd030000 	stc2	0, cr0, [r3]
    1d70:	0017a901 	andseq	sl, r7, r1, lsl #18
    1d74:	07ad0a00 	streq	r0, [sp, r0, lsl #20]!
    1d78:	03040000 	movweq	r0, #16384	; 0x4000
    1d7c:	18bb0201 	ldmne	fp!, {r0, r9}
    1d80:	25080000 	strcs	r0, [r8]
    1d84:	03000013 	movweq	r0, #19
    1d88:	00680202 	rsbeq	r0, r8, r2, lsl #4
    1d8c:	04040000 	streq	r0, [r4]
    1d90:	0023021c 	eoreq	r0, r3, ip, lsl r2
    1d94:	000f7408 	andeq	r7, pc, r8, lsl #8
    1d98:	02030300 	andeq	r0, r3, #0
    1d9c:	00000068 	andeq	r0, r0, r8, rrx
    1da0:	02100c04 	andseq	r0, r0, #1024	; 0x400
    1da4:	23080023 	movwcs	r0, #32803	; 0x8023
    1da8:	03000005 	movweq	r0, #5
    1dac:	00680204 	rsbeq	r0, r8, r4, lsl #4
    1db0:	02040000 	andeq	r0, r4, #0
    1db4:	0023020e 	eoreq	r0, r3, lr, lsl #4
    1db8:	000f7e08 	andeq	r7, pc, r8, lsl #28
    1dbc:	02050300 	andeq	r0, r5, #0
    1dc0:	00000068 	andeq	r0, r0, r8, rrx
    1dc4:	02080604 	andeq	r0, r8, #4194304	; 0x400000
    1dc8:	d6080023 	strle	r0, [r8], -r3, lsr #32
    1dcc:	03000012 	movweq	r0, #18
    1dd0:	00680206 	rsbeq	r0, r8, r6, lsl #4
    1dd4:	02040000 	andeq	r0, r4, #0
    1dd8:	00230206 	eoreq	r0, r3, r6, lsl #4
    1ddc:	000f8808 	andeq	r8, pc, r8, lsl #16
    1de0:	02070300 	andeq	r0, r7, #0
    1de4:	00000068 	andeq	r0, r0, r8, rrx
    1de8:	02010504 	andeq	r0, r1, #16777216	; 0x1000000
    1dec:	56080023 	strpl	r0, [r8], -r3, lsr #32
    1df0:	03000011 	movweq	r0, #17
    1df4:	00680208 	rsbeq	r0, r8, r8, lsl #4
    1df8:	01040000 	tsteq	r4, r0
    1dfc:	00230200 	eoreq	r0, r3, r0, lsl #4
    1e00:	06340900 	ldrteq	r0, [r4], -r0, lsl #18
    1e04:	0a030000 	beq	c1e0c <__standby_start+0xc1e0c>
    1e08:	00182f02 	andseq	r2, r8, r2, lsl #30
    1e0c:	0f290a00 	svceq	0x00290a00
    1e10:	03040000 	movweq	r0, #16384	; 0x4000
    1e14:	190b020e 	stmdbne	fp, {r1, r2, r3, r9}
    1e18:	69080000 	stmdbvs	r8, {}
    1e1c:	03000001 	movweq	r0, #1
    1e20:	0068020f 	rsbeq	r0, r8, pc, lsl #4
    1e24:	1e040000 	cdpne	0, 0, cr0, cr4, cr0, {0}
    1e28:	00230202 	eoreq	r0, r3, r2, lsl #4
    1e2c:	0011ab08 	andseq	sl, r1, r8, lsl #22
    1e30:	02100300 	andseq	r0, r0, #0
    1e34:	00000068 	andeq	r0, r0, r8, rrx
    1e38:	02010104 	andeq	r0, r1, #1
    1e3c:	56080023 	strpl	r0, [r8], -r3, lsr #32
    1e40:	03000011 	movweq	r0, #17
    1e44:	00680211 	rsbeq	r0, r8, r1, lsl r2
    1e48:	01040000 	tsteq	r4, r0
    1e4c:	00230200 	eoreq	r0, r3, r0, lsl #4
    1e50:	0b480900 	bleq	1204258 <__standby_start+0x1204258>
    1e54:	13030000 	movwne	r0, #12288	; 0x3000
    1e58:	0018c702 	andseq	ip, r8, r2, lsl #14
    1e5c:	12f80b00 	rscsne	r0, r8, #0
    1e60:	01640000 	cmneq	r4, r0
    1e64:	7c021603 	stcvc	6, cr1, [r2], {3}
    1e68:	0c00001d 	stceq	0, cr0, [r0], {29}
    1e6c:	00000983 	andeq	r0, r0, r3, lsl #19
    1e70:	7c021703 	stcvc	7, cr1, [r2], {3}
    1e74:	0200001d 	andeq	r0, r0, #29
    1e78:	430c0023 	movwmi	r0, #49187	; 0xc023
    1e7c:	03000008 	movweq	r0, #8
    1e80:	1d810218 	sfmne	f0, 4, [r1, #96]	; (stcne 2, cr0, [r1, #96])	; 0x60
    1e84:	23020000 	movwcs	r0, #8192	; 0x2000
    1e88:	12f00c04 	rscsne	r0, r0, #1024	; 0x400
    1e8c:	19030000 	stmdbne	r3, {}
    1e90:	001d8602 	andseq	r8, sp, r2, lsl #12
    1e94:	08230200 	stmdaeq	r3!, {r9}
    1e98:	0010f50c 	andseq	pc, r0, ip, lsl #10
    1e9c:	021a0300 	andseq	r0, sl, #0
    1ea0:	00001d8b 	andeq	r1, r0, fp, lsl #27
    1ea4:	0c0c2302 	stceq	3, cr2, [ip], {2}
    1ea8:	000011ef 	andeq	r1, r0, pc, ror #3
    1eac:	90021b03 	andls	r1, r2, r3, lsl #22
    1eb0:	0200001d 	andeq	r0, r0, #29
    1eb4:	740c1023 	strvc	r1, [ip], #-35	; 0x23
    1eb8:	0300000f 	movweq	r0, #15
    1ebc:	1d95021c 	lfmne	f0, 4, [r5, #112]	; (ldcne 2, cr0, [r5, #112])	; 0x70
    1ec0:	23020000 	movwcs	r0, #8192	; 0x2000
    1ec4:	055f0c14 	ldrbeq	r0, [pc, #-3092]	; 12b8 <__standby_start+0x12b8>
    1ec8:	1d030000 	stcne	0, cr0, [r3]
    1ecc:	001d9a02 	andseq	r9, sp, r2, lsl #20
    1ed0:	18230200 	stmdane	r3!, {r9}
    1ed4:	000f7e0c 	andeq	r7, pc, ip, lsl #28
    1ed8:	021e0300 	andseq	r0, lr, #0
    1edc:	00001d95 	muleq	r0, r5, sp
    1ee0:	0c1c2302 	ldceq	3, cr2, [ip], {2}
    1ee4:	00000e59 	andeq	r0, r0, r9, asr lr
    1ee8:	9f021f03 	svcls	0x00021f03
    1eec:	0200001d 	andeq	r0, r0, #29
    1ef0:	cd0c2023 	stcgt	0, cr2, [ip, #-140]	; 0xffffff74
    1ef4:	03000003 	movweq	r0, #3
    1ef8:	1da40220 	sfmne	f0, 4, [r4, #128]!	; (stcne 2, cr0, [r4, #128]!)	; 0x80
    1efc:	23020000 	movwcs	r0, #8192	; 0x2000
    1f00:	12220c24 	eorne	r0, r2, #9216	; 0x2400
    1f04:	21030000 	tstcs	r3, r0
    1f08:	001da902 	andseq	sl, sp, r2, lsl #18
    1f0c:	28230200 	stmdacs	r3!, {r9}
    1f10:	000f880c 	andeq	r8, pc, ip, lsl #16
    1f14:	02220300 	eoreq	r0, r2, #0
    1f18:	00001d95 	muleq	r0, r5, sp
    1f1c:	0c2c2302 	stceq	3, cr2, [ip], #-8
    1f20:	0000112b 	andeq	r1, r0, fp, lsr #2
    1f24:	ae022303 	cdpge	3, 0, cr2, cr2, cr3, {0}
    1f28:	0200001d 	andeq	r0, r0, #29
    1f2c:	920c3023 	andls	r3, ip, #35	; 0x23
    1f30:	0300000f 	movweq	r0, #15
    1f34:	1d950224 	lfmne	f0, 4, [r5, #144]	; (ldcne 2, cr0, [r5, #144])	; 0x90
    1f38:	23020000 	movwcs	r0, #8192	; 0x2000
    1f3c:	0e1a0c34 	mrceq	12, 0, r0, cr10, cr4, {1}
    1f40:	25030000 	strcs	r0, [r3]
    1f44:	001db302 	andseq	fp, sp, r2, lsl #6
    1f48:	38230200 	stmdacc	r3!, {r9}
    1f4c:	0003fd0c 	andeq	pc, r3, ip, lsl #26
    1f50:	02260300 	eoreq	r0, r6, #0
    1f54:	00001db8 	undefined instruction 0x00001db8
    1f58:	0c3c2302 	ldceq	3, cr2, [ip], #-8
    1f5c:	00000f9c 	muleq	r0, ip, pc
    1f60:	cd022703 	stcgt	7, cr2, [r2, #-12]
    1f64:	0200001d 	andeq	r0, r0, #29
    1f68:	a70c4023 	strge	r4, [ip, -r3, lsr #32]
    1f6c:	03000006 	movweq	r0, #6
    1f70:	1dd20228 	lfmne	f0, 2, [r2, #160]	; (ldclne 2, cr0, [r2, #160])	; 0xa0
    1f74:	23020000 	movwcs	r0, #8192	; 0x2000
    1f78:	0c140c50 	ldceq	12, cr0, [r4], {80}	; 0x50
    1f7c:	29030000 	stmdbcs	r3, {}
    1f80:	001dd702 	andseq	sp, sp, r2, lsl #14
    1f84:	54230200 	strtpl	r0, [r3], #-512	; 0x200
    1f88:	000a060c 	andeq	r0, sl, ip, lsl #12
    1f8c:	022a0300 	eoreq	r0, sl, #0
    1f90:	00001ddc 	ldrdeq	r1, [r0], -ip
    1f94:	0c582302 	mrrceq	3, 0, r2, r8, cr2
    1f98:	000011f7 	strdeq	r1, [r0], -r7
    1f9c:	e1022b03 	tst	r2, r3, lsl #22
    1fa0:	0200001d 	andeq	r0, r0, #29
    1fa4:	3f0c5c23 	svccc	0x000c5c23
    1fa8:	03000009 	movweq	r0, #9
    1fac:	1de6022c 	sfmne	f0, 2, [r6, #176]!	; (stclne 2, cr0, [r6, #176]!)	; 0xb0
    1fb0:	23020000 	movwcs	r0, #8192	; 0x2000
    1fb4:	09480c60 	stmdbeq	r8, {r5, r6, sl, fp}^
    1fb8:	2d030000 	stccs	0, cr0, [r3]
    1fbc:	001deb02 	andseq	lr, sp, r2, lsl #22
    1fc0:	64230200 	strtvs	r0, [r3], #-512	; 0x200
    1fc4:	0006700c 	andeq	r7, r6, ip
    1fc8:	022e0300 	eoreq	r0, lr, #0
    1fcc:	00001df0 	strdeq	r1, [r0], -r0
    1fd0:	0c682302 	stcleq	3, cr2, [r8], #-8
    1fd4:	00000744 	andeq	r0, r0, r4, asr #14
    1fd8:	f5022f03 	undefined instruction 0xf5022f03
    1fdc:	0200001d 	andeq	r0, r0, #29
    1fe0:	660c6c23 	strvs	r6, [ip], -r3, lsr #24
    1fe4:	03000006 	movweq	r0, #6
    1fe8:	1dfa0230 	lfmne	f0, 2, [sl, #192]!	; (ldclne 2, cr0, [sl, #192]!)	; 0xc0
    1fec:	23020000 	movwcs	r0, #8192	; 0x2000
    1ff0:	11450c70 	cmpne	r5, r0, ror ip
    1ff4:	31030000 	tstcc	r3, r0
    1ff8:	001dff02 	andseq	pc, sp, r2, lsl #30
    1ffc:	80230300 	eorhi	r0, r3, r0, lsl #6
    2000:	07700c01 	ldrbeq	r0, [r0, -r1, lsl #24]!
    2004:	32030000 	andcc	r0, r3, #0
    2008:	001dff02 	andseq	pc, sp, r2, lsl #30
    200c:	84230300 	strthi	r0, [r3], #-768	; 0x300
    2010:	05160c01 	ldreq	r0, [r6, #-3073]	; 0xc01
    2014:	33030000 	movwcc	r0, #12288	; 0x3000
    2018:	001dff02 	andseq	pc, sp, r2, lsl #30
    201c:	88230300 	stmdahi	r3!, {r8, r9}
    2020:	0f1f0c01 	svceq	0x001f0c01
    2024:	34030000 	strcc	r0, [r3]
    2028:	001dff02 	andseq	pc, sp, r2, lsl #30
    202c:	8c230300 	stchi	3, cr0, [r3]
    2030:	07a30c01 	streq	r0, [r3, r1, lsl #24]!
    2034:	35030000 	strcc	r0, [r3]
    2038:	001dff02 	andseq	pc, sp, r2, lsl #30
    203c:	90230300 	eorls	r0, r3, r0, lsl #6
    2040:	0fc20c01 	svceq	0x00c20c01
    2044:	36030000 	strcc	r0, [r3], -r0
    2048:	001d9502 	andseq	r9, sp, r2, lsl #10
    204c:	94230300 	strtls	r0, [r3], #-768	; 0x300
    2050:	106c0c01 	rsbne	r0, ip, r1, lsl #24
    2054:	37030000 	strcc	r0, [r3, -r0]
    2058:	001dff02 	andseq	pc, sp, r2, lsl #30
    205c:	98230300 	stmdals	r3!, {r8, r9}
    2060:	06080c01 	streq	r0, [r8], -r1, lsl #24
    2064:	38030000 	stmdacc	r3, {}
    2068:	001dff02 	andseq	pc, sp, r2, lsl #30
    206c:	9c230300 	stcls	3, cr0, [r3]
    2070:	0b100c01 	bleq	40507c <__standby_start+0x40507c>
    2074:	39030000 	stmdbcc	r3, {}
    2078:	001dff02 	andseq	pc, sp, r2, lsl #30
    207c:	a0230300 	eorge	r0, r3, r0, lsl #6
    2080:	045b0c01 	ldrbeq	r0, [fp], #-3073	; 0xc01
    2084:	3a030000 	bcc	c208c <__standby_start+0xc208c>
    2088:	001dff02 	andseq	pc, sp, r2, lsl #30
    208c:	a4230300 	strtge	r0, [r3], #-768	; 0x300
    2090:	0d310c01 	ldceq	12, cr0, [r1, #-4]!
    2094:	3b030000 	blcc	c209c <__standby_start+0xc209c>
    2098:	001dff02 	andseq	pc, sp, r2, lsl #30
    209c:	a8230300 	stmdage	r3!, {r8, r9}
    20a0:	0fcc0c01 	svceq	0x00cc0c01
    20a4:	3c030000 	stccc	0, cr0, [r3], {0}
    20a8:	001d9502 	andseq	r9, sp, r2, lsl #10
    20ac:	ac230300 	stcge	3, cr0, [r3]
    20b0:	09ff0c01 	ldmibeq	pc!, {r0, sl, fp}^
    20b4:	3d030000 	stccc	0, cr0, [r3]
    20b8:	001dff02 	andseq	pc, sp, r2, lsl #30
    20bc:	b0230300 	eorlt	r0, r3, r0, lsl #6
    20c0:	06790c01 	ldrbteq	r0, [r9], -r1, lsl #24
    20c4:	3e030000 	cdpcc	0, 0, cr0, cr3, cr0, {0}
    20c8:	001d9502 	andseq	r9, sp, r2, lsl #10
    20cc:	b4230300 	strtlt	r0, [r3], #-768	; 0x300
    20d0:	09510c01 	ldmdbeq	r1, {r0, sl, fp}^
    20d4:	3f030000 	svccc	0x00030000
    20d8:	001e0402 	andseq	r0, lr, r2, lsl #8
    20dc:	b8230300 	stmdalt	r3!, {r8, r9}
    20e0:	0fe30c01 	svceq	0x00e30c01
    20e4:	40030000 	andmi	r0, r3, r0
    20e8:	001d9502 	andseq	r9, sp, r2, lsl #10
    20ec:	bc230300 	stclt	3, cr0, [r3]
    20f0:	0cdb0c01 	ldcleq	12, cr0, [fp], {1}
    20f4:	41030000 	tstmi	r3, r0
    20f8:	001e0402 	andseq	r0, lr, r2, lsl #8
    20fc:	c0230300 	eorgt	r0, r3, r0, lsl #6
    2100:	10850c01 	addne	r0, r5, r1, lsl #24
    2104:	42030000 	andmi	r0, r3, #0
    2108:	001e0902 	andseq	r0, lr, r2, lsl #18
    210c:	c4230300 	strtgt	r0, [r3], #-768	; 0x300
    2110:	0a610c01 	beq	184511c <__standby_start+0x184511c>
    2114:	43030000 	movwmi	r0, #12288	; 0x3000
    2118:	001d9502 	andseq	r9, sp, r2, lsl #10
    211c:	c8230300 	stmdagt	r3!, {r8, r9}
    2120:	060e0c01 	streq	r0, [lr], -r1, lsl #24
    2124:	44030000 	strmi	r0, [r3]
    2128:	001e0e02 	andseq	r0, lr, r2, lsl #28
    212c:	cc230300 	stcgt	3, cr0, [r3]
    2130:	0cbc0c01 	ldceq	12, cr0, [ip], #4
    2134:	45030000 	strmi	r0, [r3]
    2138:	001e1302 	andseq	r1, lr, r2, lsl #6
    213c:	d0230300 	eorle	r0, r3, r0, lsl #6
    2140:	0a6c0c01 	beq	1b0514c <__standby_start+0x1b0514c>
    2144:	46030000 	strmi	r0, [r3], -r0
    2148:	001d9502 	andseq	r9, sp, r2, lsl #10
    214c:	d4230300 	strtle	r0, [r3], #-768	; 0x300
    2150:	0a770c01 	beq	1dc515c <__standby_start+0x1dc515c>
    2154:	47030000 	strmi	r0, [r3, -r0]
    2158:	001e2802 	andseq	r2, lr, r2, lsl #16
    215c:	d8230300 	stmdale	r3!, {r8, r9}
    2160:	0d580c01 	ldcleq	12, cr0, [r8, #-4]
    2164:	48030000 	stmdami	r3, {}
    2168:	001e2d02 	andseq	r2, lr, r2, lsl #26
    216c:	80230300 	eorhi	r0, r3, r0, lsl #6
    2170:	0d940c02 	ldceq	12, cr0, [r4, #8]
    2174:	49030000 	stmdbmi	r3, {}
    2178:	001e3202 	andseq	r3, lr, r2, lsl #4
    217c:	84230300 	strthi	r0, [r3], #-768	; 0x300
    2180:	0bb70c02 	bleq	fedc5190 <__bss_end+0xedc25a4>
    2184:	4a030000 	bmi	c218c <__standby_start+0xc218c>
    2188:	001d9502 	andseq	r9, sp, r2, lsl #10
    218c:	88230300 	stmdahi	r3!, {r8, r9}
    2190:	09aa0c02 	stmibeq	sl!, {r1, sl, fp}
    2194:	4b030000 	blmi	c219c <__standby_start+0xc219c>
    2198:	001e3202 	andseq	r3, lr, r2, lsl #4
    219c:	8c230300 	stchi	3, cr0, [r3]
    21a0:	0a990c02 	beq	fe6451b0 <__bss_end+0xe6425c4>
    21a4:	4c030000 	stcmi	0, cr0, [r3], {0}
    21a8:	001d9502 	andseq	r9, sp, r2, lsl #10
    21ac:	90230300 	eorls	r0, r3, r0, lsl #6
    21b0:	0aa40c02 	beq	fe9051c0 <__bss_end+0xe9025d4>
    21b4:	4d030000 	stcmi	0, cr0, [r3]
    21b8:	001d9502 	andseq	r9, sp, r2, lsl #10
    21bc:	94230300 	strtls	r0, [r3], #-768	; 0x300
    21c0:	04630c02 	strbteq	r0, [r3], #-3074	; 0xc02
    21c4:	4e030000 	cdpmi	0, 0, cr0, cr3, cr0, {0}
    21c8:	001e3702 	andseq	r3, lr, r2, lsl #14
    21cc:	98230300 	stmdals	r3!, {r8, r9}
    21d0:	0aaf0c02 	beq	febc51e0 <__bss_end+0xebc25f4>
    21d4:	4f030000 	svcmi	0x00030000
    21d8:	001e3c02 	andseq	r3, lr, r2, lsl #24
    21dc:	9c230300 	stcls	3, cr0, [r3]
    21e0:	06290c02 	strteq	r0, [r9], -r2, lsl #24
    21e4:	50030000 	andpl	r0, r3, r0
    21e8:	001e4102 	andseq	r4, lr, r2, lsl #2
    21ec:	ac230300 	stcge	3, cr0, [r3]
    21f0:	0aba0c02 	beq	fee85200 <__bss_end+0xee82614>
    21f4:	51030000 	tstpl	r3, r0
    21f8:	001d9502 	andseq	r9, sp, r2, lsl #10
    21fc:	b0230300 	eorlt	r0, r3, r0, lsl #6
    2200:	08e80c02 	stmiaeq	r8!, {r1, sl, fp}^
    2204:	52030000 	andpl	r0, r3, #0
    2208:	001e4602 	andseq	r4, lr, r2, lsl #12
    220c:	b4230300 	strtlt	r0, [r3], #-768	; 0x300
    2210:	0ac50c02 	beq	ff145220 <__bss_end+0xf142634>
    2214:	53030000 	movwpl	r0, #12288	; 0x3000
    2218:	001d9502 	andseq	r9, sp, r2, lsl #10
    221c:	b8230300 	stmdalt	r3!, {r8, r9}
    2220:	04070c02 	streq	r0, [r7], #-3074	; 0xc02
    2224:	54030000 	strpl	r0, [r3]
    2228:	001e4b02 	andseq	r4, lr, r2, lsl #22
    222c:	bc230300 	stclt	3, cr0, [r3]
    2230:	10640c02 	rsbne	r0, r4, r2, lsl #24
    2234:	55030000 	strpl	r0, [r3]
    2238:	001e5002 	andseq	r5, lr, r2
    223c:	c0230300 	eorgt	r0, r3, r0, lsl #6
    2240:	11a10c02 	undefined instruction 0x11a10c02
    2244:	56030000 	strpl	r0, [r3], -r0
    2248:	001e5502 	andseq	r5, lr, r2, lsl #10
    224c:	c4230300 	strtgt	r0, [r3], #-768	; 0x300
    2250:	0b710c02 	bleq	1c45260 <__standby_start+0x1c45260>
    2254:	57030000 	strpl	r0, [r3, -r0]
    2258:	001d9502 	andseq	r9, sp, r2, lsl #10
    225c:	c8230300 	stmdagt	r3!, {r8, r9}
    2260:	0be80c02 	bleq	ffa05270 <__bss_end+0xfa02684>
    2264:	58030000 	stmdapl	r3, {}
    2268:	001e5a02 	andseq	r5, lr, r2, lsl #20
    226c:	cc230300 	stcgt	3, cr0, [r3]
    2270:	0ba50c02 	bleq	fe945280 <__bss_end+0xe942694>
    2274:	59030000 	stmdbpl	r3, {}
    2278:	001e5f02 	andseq	r5, lr, r2, lsl #30
    227c:	d0230300 	eorle	r0, r3, r0, lsl #6
    2280:	11990c02 	orrsne	r0, r9, r2, lsl #24
    2284:	5a030000 	bpl	c228c <__standby_start+0xc228c>
    2288:	001e6402 	andseq	r6, lr, r2, lsl #8
    228c:	d4230300 	strtle	r0, [r3], #-768	; 0x300
    2290:	0b7c0c02 	bleq	1f052a0 <__standby_start+0x1f052a0>
    2294:	5b030000 	blpl	c229c <__standby_start+0xc229c>
    2298:	001d9502 	andseq	r9, sp, r2, lsl #10
    229c:	d8230300 	stmdale	r3!, {r8, r9}
    22a0:	044c0c02 	strbeq	r0, [ip], #-3074	; 0xc02
    22a4:	5c030000 	stcpl	0, cr0, [r3], {0}
    22a8:	001e6902 	andseq	r6, lr, r2, lsl #18
    22ac:	dc230300 	stcle	3, cr0, [r3]
    22b0:	11790c02 	cmnne	r9, r2, lsl #24
    22b4:	5d030000 	stcpl	0, cr0, [r3]
    22b8:	001e6e02 	andseq	r6, lr, r2, lsl #28
    22bc:	e0230300 	eor	r0, r3, r0, lsl #6
    22c0:	7c0d0002 	stcvc	0, cr0, [sp], {2}
    22c4:	0d000001 	stceq	0, cr0, [r0, #-4]
    22c8:	000001fa 	strdeq	r0, [r0], -sl
    22cc:	0002ab0d 	andeq	sl, r2, sp, lsl #22
    22d0:	03290d00 	teqeq	r9, #0
    22d4:	fc0d0000 	stc2	0, cr0, [sp], {0}
    22d8:	0d000003 	stceq	0, cr0, [r0, #-12]
    22dc:	00000068 	andeq	r0, r0, r8, rrx
    22e0:	0005020d 	andeq	r0, r5, sp, lsl #4
    22e4:	06190d00 	ldreq	r0, [r9], -r0, lsl #26
    22e8:	a80d0000 	stmdage	sp, {}
    22ec:	0d000006 	stceq	0, cr0, [r0, #-24]	; 0xffffffe8
    22f0:	0000078c 	andeq	r0, r0, ip, lsl #15
    22f4:	00085f0d 	andeq	r5, r8, sp, lsl #30
    22f8:	08dd0d00 	ldmeq	sp, {r8, sl, fp}^
    22fc:	5b0d0000 	blpl	342304 <__standby_start+0x342304>
    2300:	0e000009 	cdpeq	0, 0, cr0, cr0, cr9, {0}
    2304:	00000068 	andeq	r0, r0, r8, rrx
    2308:	00001dcd 	andeq	r1, r0, sp, asr #27
    230c:	00003a0f 	andeq	r3, r0, pc, lsl #20
    2310:	0d000300 	stceq	3, cr0, [r0]
    2314:	00001dbd 	undefined instruction 0x00001dbd
    2318:	000a1d0d 	andeq	r1, sl, sp, lsl #26
    231c:	0abd0d00 	beq	fef45724 <__bss_end+0xef42b38>
    2320:	3b0d0000 	blcc	342328 <__standby_start+0x342328>
    2324:	0d00000b 	stceq	0, cr0, [r0, #-44]	; 0xffffffd4
    2328:	00000b75 	andeq	r0, r0, r5, ror fp
    232c:	000d590d 	andeq	r5, sp, sp, lsl #18
    2330:	0e930d00 	cdpeq	13, 9, cr0, cr3, cr0, {0}
    2334:	610d0000 	tstvs	sp, r0
    2338:	0d00000f 	stceq	0, cr0, [r0, #-60]	; 0xffffffc4
    233c:	0000101d 	andeq	r1, r0, sp, lsl r0
    2340:	001dbd0d 	andseq	fp, sp, sp, lsl #26
    2344:	10b50d00 	adcsne	r0, r5, r0, lsl #26
    2348:	170d0000 	strne	r0, [sp, -r0]
    234c:	0d000011 	stceq	0, cr0, [r0, #-68]	; 0xffffffbc
    2350:	000011af 	andeq	r1, r0, pc, lsr #3
    2354:	0012470d 	andseq	r4, r2, sp, lsl #14
    2358:	12cd0d00 	sbcne	r0, sp, #0
    235c:	680e0000 	stmdavs	lr, {}
    2360:	28000000 	stmdacs	r0, {}
    2364:	0f00001e 	svceq	0x0000001e
    2368:	0000003a 	andeq	r0, r0, sl, lsr r0
    236c:	180d0009 	stmdane	sp, {r0, r3}
    2370:	0d00001e 	stceq	0, cr0, [r0, #-120]	; 0xffffff88
    2374:	000013ad 	andeq	r1, r0, sp, lsr #7
    2378:	0014330d 	andseq	r3, r4, sp, lsl #6
    237c:	14b90d00 	ldrtne	r0, [r9], #3328	; 0xd00
    2380:	bd0d0000 	stclt	0, cr0, [sp]
    2384:	0d00001d 	stceq	0, cr0, [r0, #-116]	; 0xffffff8c
    2388:	00001575 	andeq	r1, r0, r5, ror r5
    238c:	0015fb0d 	andseq	pc, r5, sp, lsl #22
    2390:	166f0d00 	strbtne	r0, [pc], -r0, lsl #26
    2394:	ad0d0000 	stcge	0, cr0, [sp]
    2398:	0d000016 	stceq	0, cr0, [r0, #-88]	; 0xffffffa8
    239c:	000016eb 	andeq	r1, r0, fp, ror #13
    23a0:	0017290d 	andseq	r2, r7, sp, lsl #18
    23a4:	179d0d00 	ldrne	r0, [sp, r0, lsl #26]
    23a8:	230d0000 	movwcs	r0, #53248	; 0xd000
    23ac:	0d000018 	stceq	0, cr0, [r0, #-96]	; 0xffffffa0
    23b0:	000018bb 	undefined instruction 0x000018bb
    23b4:	00190b0d 	andseq	r0, r9, sp, lsl #22
    23b8:	11330900 	teqne	r3, r0, lsl #18
    23bc:	5f030000 	svcpl	0x00030000
    23c0:	00191702 	andseq	r1, r9, r2, lsl #14
    23c4:	00bb0600 	adcseq	r0, fp, r0, lsl #12
    23c8:	04040000 	streq	r0, [r4]
    23cc:	001ee119 	andseq	lr, lr, r9, lsl r1
    23d0:	00210700 	eoreq	r0, r1, r0, lsl #14
    23d4:	1a040000 	bne	1023dc <__standby_start+0x1023dc>
    23d8:	00000068 	andeq	r0, r0, r8, rrx
    23dc:	021c0404 	andseq	r0, ip, #67108864	; 0x4000000
    23e0:	dd070023 	stcle	0, cr0, [r7, #-140]	; 0xffffff74
    23e4:	04000000 	streq	r0, [r0]
    23e8:	0000681b 	andeq	r6, r0, fp, lsl r8
    23ec:	18040400 	stmdane	r4, {sl}
    23f0:	07002302 	streq	r2, [r0, -r2, lsl #6]
    23f4:	00000161 	andeq	r0, r0, r1, ror #2
    23f8:	00681c04 	rsbeq	r1, r8, r4, lsl #24
    23fc:	04040000 	streq	r0, [r4]
    2400:	00230214 	eoreq	r0, r3, r4, lsl r2
    2404:	00014b07 	andeq	r4, r1, r7, lsl #22
    2408:	681d0400 	ldmdavs	sp, {sl}
    240c:	04000000 	streq	r0, [r0]
    2410:	23021004 	movwcs	r1, #8196	; 0x2004
    2414:	01690700 	cmneq	r9, r0, lsl #14
    2418:	1e040000 	cdpne	0, 0, cr0, cr4, cr0, {0}
    241c:	00000068 	andeq	r0, r0, r8, rrx
    2420:	02001004 	andeq	r1, r0, #4
    2424:	06000023 	streq	r0, [r0], -r3, lsr #32
    2428:	00000029 	andeq	r0, r0, r9, lsr #32
    242c:	34180508 	ldrcc	r0, [r8], #-1288	; 0x508
    2430:	1000001f 	andne	r0, r0, pc, lsl r0
    2434:	00000011 	andeq	r0, r0, r1, lsl r0
    2438:	00441905 	subeq	r1, r4, r5, lsl #18
    243c:	23020000 	movwcs	r0, #8192	; 0x2000
    2440:	037a1000 	cmneq	sl, #0
    2444:	1a050000 	bne	14244c <__standby_start+0x14244c>
    2448:	00000044 	andeq	r0, r0, r4, asr #32
    244c:	10012302 	andne	r2, r1, r2, lsl #6
    2450:	00000009 	andeq	r0, r0, r9
    2454:	00441b05 	subeq	r1, r4, r5, lsl #22
    2458:	23020000 	movwcs	r0, #8192	; 0x2000
    245c:	00191002 	andseq	r1, r9, r2
    2460:	1c050000 	stcne	0, cr0, [r5], {0}
    2464:	00000044 	andeq	r0, r0, r4, asr #32
    2468:	11032302 	tstne	r3, r2, lsl #6
    246c:	006c6c50 	rsbeq	r6, ip, r0, asr ip
    2470:	00681d05 	rsbeq	r1, r8, r5, lsl #26
    2474:	23020000 	movwcs	r0, #8192	; 0x2000
    2478:	01120004 	tsteq	r2, r4
    247c:	000009c6 	andeq	r0, r0, r6, asr #19
    2480:	5d012f01 	stcpl	15, cr2, [r1, #-4]
    2484:	24000000 	strcs	r0, [r0]
    2488:	a8f00005 	ldmge	r0!, {r0, r2}^
    248c:	63f00005 	mvnsvs	r0, #5
    2490:	13000000 	movwne	r0, #0
    2494:	00049401 	andeq	r9, r4, r1, lsl #8
    2498:	01510100 	cmpeq	r1, r0, lsl #2
    249c:	0000005d 	andeq	r0, r0, sp, asr r0
    24a0:	f00005a8 	undefined instruction 0xf00005a8
    24a4:	f00005ec 	undefined instruction 0xf00005ec
    24a8:	01135d01 	tsteq	r3, r1, lsl #26
    24ac:	00000a4b 	andeq	r0, r0, fp, asr #20
    24b0:	5d016b01 	vstrpl	d6, [r1, #-4]
    24b4:	ec000000 	stc	0, cr0, [r0], {0}
    24b8:	1cf00005 	ldclne	0, cr0, [r0], #20
    24bc:	01f00006 	mvnseq	r0, r6
    24c0:	6701135d 	smlsdvs	r1, sp, r3, r1
    24c4:	01000005 	tsteq	r0, r5
    24c8:	005d0180 	subseq	r0, sp, r0, lsl #3
    24cc:	061c0000 	ldreq	r0, [ip], -r0
    24d0:	0650f000 	ldrbeq	pc, [r0], -r0
    24d4:	5d01f000 	stcpl	0, cr15, [r1]
    24d8:	09110113 	ldmdbeq	r1, {r0, r1, r4, r8}
    24dc:	95010000 	strls	r0, [r1]
    24e0:	00005d01 	andeq	r5, r0, r1, lsl #26
    24e4:	00065000 	andeq	r5, r6, r0
    24e8:	000684f0 	strdeq	r8, [r6], -r0
    24ec:	135d01f0 	cmpne	sp, #60	; 0x3c
    24f0:	000c1e01 	andeq	r1, ip, r1, lsl #28
    24f4:	01aa0100 	undefined instruction 0x01aa0100
    24f8:	0000005d 	andeq	r0, r0, sp, asr r0
    24fc:	f0000684 	undefined instruction 0xf0000684
    2500:	f00006ec 	undefined instruction 0xf00006ec
    2504:	01135d01 	tsteq	r3, r1, lsl #26
    2508:	00000ff9 	strdeq	r0, [r0], -r9
    250c:	5d01c301 	stcpl	3, cr12, [r1, #-4]
    2510:	ec000000 	stc	0, cr0, [r0], {0}
    2514:	54f00006 	ldrbtpl	r0, [r0], #6
    2518:	01f00007 	mvnseq	r0, r7
    251c:	0201135d 	andeq	r1, r1, #1946157057	; 0x74000001
    2520:	01000007 	tsteq	r0, r7
    2524:	005d01dc 	ldrsbeq	r0, [sp], #-28	; 0xffffffe4
    2528:	07540000 	ldrbeq	r0, [r4, -r0]
    252c:	0774f000 	ldrbeq	pc, [r4, -r0]!
    2530:	5d01f000 	stcpl	0, cr15, [r1]
    2534:	0f400113 	svceq	0x00400113
    2538:	ee010000 	cdp	0, 0, cr0, cr1, cr0, {0}
    253c:	00005d01 	andeq	r5, r0, r1, lsl #26
    2540:	00077400 	andeq	r7, r7, r0, lsl #8
    2544:	000794f0 	strdeq	r9, [r7], -r0
    2548:	145d01f0 	ldrbne	r0, [sp], #-496	; 0x1f0
    254c:	000b8701 	andeq	r8, fp, r1, lsl #14
    2550:	01000100 	tsteq	r0, r0, lsl #2
    2554:	00005d01 	andeq	r5, r0, r1, lsl #26
    2558:	00079400 	andeq	r9, r7, r0, lsl #8
    255c:	0007dcf0 	strdeq	sp, [r7], -r0
    2560:	145d01f0 	ldrbne	r0, [sp], #-496	; 0x1f0
    2564:	000a1101 	andeq	r1, sl, r1, lsl #2
    2568:	01150100 	tsteq	r5, r0, lsl #2
    256c:	00005d01 	andeq	r5, r0, r1, lsl #26
    2570:	0007dc00 	andeq	sp, r7, r0, lsl #24
    2574:	000824f0 	strdeq	r2, [r8], -r0
    2578:	155d01f0 	ldrbne	r0, [sp, #-496]	; 0x1f0
    257c:	0012be01 	andseq	fp, r2, r1, lsl #28
    2580:	012a0100 	teqeq	sl, r0, lsl #2
    2584:	00005d01 	andeq	r5, r0, r1, lsl #26
    2588:	00082400 	andeq	r2, r8, r0, lsl #8
    258c:	000880f0 	strdeq	r8, [r8], -r0
    2590:	625d01f0 	subsvs	r0, sp, #60	; 0x3c
    2594:	16000020 	strne	r0, [r0], -r0, lsr #32
    2598:	00000188 	andeq	r0, r0, r8, lsl #3
    259c:	62012a01 	andvs	r2, r1, #4096	; 0x1000
    25a0:	82000020 	andhi	r0, r0, #32
    25a4:	00000000 	andeq	r0, r0, r0
    25a8:	1e7f0417 	mrcne	4, 3, r0, cr15, cr7, {0}
    25ac:	01150000 	tsteq	r5, r0
    25b0:	00000ea7 	andeq	r0, r0, r7, lsr #29
    25b4:	01014401 	tsteq	r1, r1, lsl #8
    25b8:	0000005d 	andeq	r0, r0, sp, asr r0
    25bc:	f0000880 	undefined instruction 0xf0000880
    25c0:	f00008d4 	undefined instruction 0xf00008d4
    25c4:	20955d01 	addscs	r5, r5, r1, lsl #26
    25c8:	88160000 	ldmdahi	r6, {}
    25cc:	01000001 	tsteq	r0, r1
    25d0:	20620144 	rsbcs	r0, r2, r4, asr #2
    25d4:	00a00000 	adceq	r0, r0, r0
    25d8:	15000000 	strne	r0, [r0]
    25dc:	00120701 	andseq	r0, r2, r1, lsl #14
    25e0:	015e0100 	cmpeq	lr, r0, lsl #2
    25e4:	00005d01 	andeq	r5, r0, r1, lsl #26
    25e8:	0008d400 	andeq	sp, r8, r0, lsl #8
    25ec:	000934f0 	strdeq	r3, [r9], -r0
    25f0:	c25d01f0 	subsgt	r0, sp, #60	; 0x3c
    25f4:	16000020 	strne	r0, [r0], -r0, lsr #32
    25f8:	000005fd 	strdeq	r0, [r0], -sp
    25fc:	c2015e01 	andgt	r5, r1, #16
    2600:	be000020 	cdplt	0, 0, cr0, cr0, cr0, {1}
    2604:	00000000 	andeq	r0, r0, r0
    2608:	1ee10417 	mcrne	4, 7, r0, cr1, cr7, {0}
    260c:	01150000 	tsteq	r5, r0
    2610:	000005ed 	andeq	r0, r0, sp, ror #11
    2614:	01017b01 	tsteq	r1, r1, lsl #22
    2618:	0000005d 	andeq	r0, r0, sp, asr r0
    261c:	f0000934 	undefined instruction 0xf0000934
    2620:	f0000984 	undefined instruction 0xf0000984
    2624:	20f55d01 	rscscs	r5, r5, r1, lsl #26
    2628:	fd160000 	ldc2	0, cr0, [r6]
    262c:	01000005 	tsteq	r0, r5
    2630:	20c2017b 	sbccs	r0, r2, fp, ror r1
    2634:	00dc0000 	sbcseq	r0, ip, r0
    2638:	18000000 	stmdane	r0, {}
    263c:	0008f001 	andeq	pc, r8, r1
    2640:	01970100 	orrseq	r0, r7, r0, lsl #2
    2644:	00098401 	andeq	r8, r9, r1, lsl #8
    2648:	0009b4f0 	strdeq	fp, [r9], -r0
    264c:	1c5d01f0 	ldfnee	f0, [sp], {240}	; 0xf0
    2650:	19000021 	stmdbne	r0, {r0, r5}
    2654:	00000c3f 	andeq	r0, r0, pc, lsr ip
    2658:	33019701 	movwcc	r9, #5889	; 0x1701
    265c:	01000000 	tsteq	r0, r0
    2660:	01140050 	tsteq	r4, r0, asr r0
    2664:	00000d39 	andeq	r0, r0, r9, lsr sp
    2668:	0101ad01 	tsteq	r1, r1, lsl #26
    266c:	0000005d 	andeq	r0, r0, sp, asr r0
    2670:	f00009b4 	undefined instruction 0xf00009b4
    2674:	f00009d8 	undefined instruction 0xf00009d8
    2678:	01145d01 	tsteq	r4, r1, lsl #26
    267c:	00000b33 	andeq	r0, r0, r3, lsr fp
    2680:	0101bf01 	tsteq	r1, r1, lsl #30
    2684:	0000005d 	andeq	r0, r0, sp, asr r0
    2688:	f00009d8 	undefined instruction 0xf00009d8
    268c:	f00009f8 	undefined instruction 0xf00009f8
    2690:	01145d01 	tsteq	r4, r1, lsl #26
    2694:	00000afc 	strdeq	r0, [r0], -ip
    2698:	0101d301 	tsteq	r1, r1, lsl #6
    269c:	0000005d 	andeq	r0, r0, sp, asr r0
    26a0:	f00009f8 	undefined instruction 0xf00009f8
    26a4:	f0000a38 	undefined instruction 0xf0000a38
    26a8:	01145d01 	tsteq	r4, r1, lsl #26
    26ac:	000005ae 	andeq	r0, r0, lr, lsr #11
    26b0:	0101e901 	tsteq	r1, r1, lsl #18
    26b4:	0000005d 	andeq	r0, r0, sp, asr r0
    26b8:	f0000a38 	undefined instruction 0xf0000a38
    26bc:	f0000a84 	undefined instruction 0xf0000a84
    26c0:	bb1a5d01 	bllt	699acc <__standby_start+0x699acc>
    26c4:	01000010 	tsteq	r0, r0, lsl r0
    26c8:	00218d16 	eoreq	r8, r1, r6, lsl sp
    26cc:	78030500 	stmdavc	r3, {r8, sl}
    26d0:	17f0002a 	ldrbne	r0, [r0, sl, lsr #32]!
    26d4:	001e7304 	andseq	r7, lr, r4, lsl #6
    26d8:	00680e00 	rsbeq	r0, r8, r0, lsl #28
    26dc:	21a30000 	undefined instruction 0x21a30000
    26e0:	3a0f0000 	bcc	3c26e8 <__standby_start+0x3c26e8>
    26e4:	06000000 	streq	r0, [r0], -r0
    26e8:	084c1a00 	stmdaeq	ip, {r9, fp, ip}^
    26ec:	17010000 	strne	r0, [r1, -r0]
    26f0:	00002193 	muleq	r0, r3, r1
    26f4:	2a7c0305 	bcs	1f03310 <__standby_start+0x1f03310>
    26f8:	351bf000 	ldrcc	pc, [fp]
    26fc:	0100000c 	tsteq	r0, ip
    2700:	0b3b01c6 	bleq	ec2e20 <__standby_start+0xec2e20>
    2704:	03050000 	movweq	r0, #20480	; 0x5000
    2708:	f0002a98 	undefined instruction 0xf0002a98
    270c:	00039e1c 	andeq	r9, r3, ip, lsl lr
    2710:	68180100 	ldmdavs	r8, {r8}
    2714:	01000000 	tsteq	r0, r0
    2718:	2be80305 	blcs	ffa03334 <__bss_end+0xfa00748>
    271c:	5200f000 	andpl	pc, r0, #0
    2720:	02000003 	andeq	r0, r0, #3
    2724:	0003b600 	andeq	fp, r3, r0, lsl #12
    2728:	5d010400 	cfstrspl	mvf0, [r1]
    272c:	01000003 	tsteq	r0, r3
    2730:	0000144b 	andeq	r1, r0, fp, asr #8
    2734:	00000274 	andeq	r0, r0, r4, ror r2
    2738:	f0000a84 	undefined instruction 0xf0000a84
    273c:	f0000bf4 	undefined instruction 0xf0000bf4
    2740:	000003c0 	andeq	r0, r0, r0, asr #7
    2744:	ff070402 	undefined instruction 0xff070402
    2748:	02000001 	andeq	r0, r0, #1
    274c:	01900801 	orrseq	r0, r0, r1, lsl #16
    2750:	04030000 	streq	r0, [r3]
    2754:	746e6905 	strbtvc	r6, [lr], #-2309	; 0x905
    2758:	07040400 	streq	r0, [r4, -r0, lsl #8]
    275c:	92060102 	andls	r0, r6, #-2147483648	; 0x80000000
    2760:	02000001 	andeq	r0, r0, #1
    2764:	01b40502 	undefined instruction 0x01b40502
    2768:	02020000 	andeq	r0, r2, #0
    276c:	00026107 	andeq	r6, r2, r7, lsl #2
    2770:	0dc00500 	cfstr64eq	mvdx0, [r0]
    2774:	19020000 	stmdbne	r2, {}
    2778:	00000033 	andeq	r0, r0, r3, lsr r0
    277c:	00013c05 	andeq	r3, r1, r5, lsl #24
    2780:	251a0200 	ldrcs	r0, [sl, #-512]	; 0x200
    2784:	02000000 	andeq	r0, r0, #0
    2788:	01530508 	cmpeq	r3, r8, lsl #10
    278c:	08020000 	stmdaeq	r2, {}
    2790:	0001f507 	andeq	pc, r1, r7, lsl #10
    2794:	005d0600 	subseq	r0, sp, r0, lsl #12
    2798:	5d070000 	stcpl	0, cr0, [r7]
    279c:	8b000000 	blhi	27a4 <__standby_start+0x27a4>
    27a0:	08000000 	stmdaeq	r0, {}
    27a4:	0000003a 	andeq	r0, r0, sl, lsr r0
    27a8:	f9090004 	undefined instruction 0xf9090004
    27ac:	04000000 	streq	r0, [r0]
    27b0:	00f41903 	rscseq	r1, r4, r3, lsl #18
    27b4:	4f0a0000 	svcmi	0x000a0000
    27b8:	00000002 	andeq	r0, r0, r2
    27bc:	0003330a 	andeq	r3, r3, sl, lsl #6
    27c0:	420a0500 	andmi	r0, sl, #0
    27c4:	06000003 	streq	r0, [r0], -r3
    27c8:	0003050a 	andeq	r0, r3, sl, lsl #10
    27cc:	e10a1500 	tst	sl, r0, lsl #10
    27d0:	16000002 	strne	r0, [r0], -r2
    27d4:	0002f30a 	andeq	pc, r2, sl, lsl #6
    27d8:	690a1700 	stmdbvs	sl, {r8, r9, sl, ip}
    27dc:	18000003 	stmdane	r0, {r0, r1}
    27e0:	0002d20a 	andeq	sp, r2, sl, lsl #4
    27e4:	e50a1c00 	str	r1, [sl, #-3072]	; 0xc00
    27e8:	1d000000 	stcne	0, cr0, [r0]
    27ec:	0002bc0a 	andeq	fp, r2, sl, lsl #24
    27f0:	360a1f00 	strcc	r1, [sl], -r0, lsl #30
    27f4:	26000000 	strcs	r0, [r0], -r0
    27f8:	0000460a 	andeq	r4, r0, sl, lsl #12
    27fc:	910a2700 	tstls	sl, r0, lsl #14
    2800:	28000000 	stmdacs	r0, {}
    2804:	0000a10a 	andeq	sl, r0, sl, lsl #2
    2808:	0a00c000 	beq	32810 <__standby_start+0x32810>
    280c:	00000078 	andeq	r0, r0, r8, ror r0
    2810:	0b0000c1 	bleq	2b1c <__standby_start+0x2b1c>
    2814:	00001415 	andeq	r1, r0, r5, lsl r4
    2818:	0c2e0394 	stceq	3, cr0, [lr], #-592	; 0xfffffdb0
    281c:	0c000002 	stceq	0, cr0, [r0], {2}
    2820:	000013fd 	strdeq	r1, [r0], -sp
    2824:	00763003 	rsbseq	r3, r6, r3
    2828:	23020000 	movwcs	r0, #8192	; 0x2000
    282c:	14040c00 	strne	r0, [r4], #-3072	; 0xc00
    2830:	31030000 	tstcc	r3, r0
    2834:	00000076 	andeq	r0, r0, r6, ror r0
    2838:	0c042302 	stceq	3, cr2, [r4], {2}
    283c:	00000f74 	andeq	r0, r0, r4, ror pc
    2840:	00763203 	rsbseq	r3, r6, r3, lsl #4
    2844:	23020000 	movwcs	r0, #8192	; 0x2000
    2848:	13ee0c08 	mvnne	r0, #2048	; 0x800
    284c:	33030000 	movwcc	r0, #12288	; 0x3000
    2850:	00000076 	andeq	r0, r0, r6, ror r0
    2854:	0c0c2302 	stceq	3, cr2, [ip], {2}
    2858:	00001376 	andeq	r1, r0, r6, ror r3
    285c:	021c3503 	andseq	r3, ip, #12582912	; 0xc00000
    2860:	23020000 	movwcs	r0, #8192	; 0x2000
    2864:	0f7e0c10 	svceq	0x007e0c10
    2868:	36030000 	strcc	r0, [r3], -r0
    286c:	00000076 	andeq	r0, r0, r6, ror r0
    2870:	0c1c2302 	ldceq	3, cr2, [ip], {2}
    2874:	00001366 	andeq	r1, r0, r6, ror #6
    2878:	02213803 	eoreq	r3, r1, #196608	; 0x30000
    287c:	23020000 	movwcs	r0, #8192	; 0x2000
    2880:	0f880c20 	svceq	0x00880c20
    2884:	39030000 	stmdbcc	r3, {}
    2888:	00000076 	andeq	r0, r0, r6, ror r0
    288c:	0c2c2302 	stceq	3, cr2, [ip], #-8
    2890:	000013ce 	andeq	r1, r0, lr, asr #7
    2894:	02263b03 	eoreq	r3, r6, #3072	; 0xc00
    2898:	23020000 	movwcs	r0, #8192	; 0x2000
    289c:	0f920c30 	svceq	0x00920c30
    28a0:	3c030000 	stccc	0, cr0, [r3], {0}
    28a4:	00000076 	andeq	r0, r0, r6, ror r0
    28a8:	0c3c2302 	ldceq	3, cr2, [ip], #-8
    28ac:	000016f4 	strdeq	r1, [r0], -r4
    28b0:	022b3e03 	eoreq	r3, fp, #48	; 0x30
    28b4:	23020000 	movwcs	r0, #8192	; 0x2000
    28b8:	0f9c0c40 	svceq	0x009c0c40
    28bc:	3f030000 	svccc	0x00030000
    28c0:	00000076 	andeq	r0, r0, r6, ror r0
    28c4:	0c4c2302 	mcrreq	3, 0, r2, ip, cr2
    28c8:	0000140d 	andeq	r1, r0, sp, lsl #8
    28cc:	02304103 	eorseq	r4, r0, #-1073741824	; 0xc0000000
    28d0:	23020000 	movwcs	r0, #8192	; 0x2000
    28d4:	06660c50 	undefined instruction 0x06660c50
    28d8:	42030000 	andmi	r0, r3, #0
    28dc:	00000076 	andeq	r0, r0, r6, ror r0
    28e0:	0c5c2302 	mrrceq	3, 0, r2, ip, cr2
    28e4:	000013a1 	andeq	r1, r0, r1, lsr #7
    28e8:	02354403 	eorseq	r4, r5, #50331648	; 0x3000000
    28ec:	23020000 	movwcs	r0, #8192	; 0x2000
    28f0:	0fc20c60 	svceq	0x00c20c60
    28f4:	45030000 	strmi	r0, [r3]
    28f8:	00000076 	andeq	r0, r0, r6, ror r0
    28fc:	0c6c2302 	stcleq	3, cr2, [ip], #-8
    2900:	0000137e 	andeq	r1, r0, lr, ror r3
    2904:	023a4703 	eorseq	r4, sl, #786432	; 0xc0000
    2908:	23020000 	movwcs	r0, #8192	; 0x2000
    290c:	0fcc0c70 	svceq	0x00cc0c70
    2910:	48030000 	stmdami	r3, {}
    2914:	00000076 	andeq	r0, r0, r6, ror r0
    2918:	0c7c2302 	ldcleq	3, cr2, [ip], #-8
    291c:	0000136e 	andeq	r1, r0, lr, ror #6
    2920:	023f4a03 	eorseq	r4, pc, #12288	; 0x3000
    2924:	23030000 	movwcs	r0, #12288	; 0x3000
    2928:	07000180 	streq	r0, [r0, -r0, lsl #3]
    292c:	0000005d 	andeq	r0, r0, sp, asr r0
    2930:	0000021c 	andeq	r0, r0, ip, lsl r2
    2934:	00003a08 	andeq	r3, r0, r8, lsl #20
    2938:	06000200 	streq	r0, [r0], -r0, lsl #4
    293c:	0000020c 	andeq	r0, r0, ip, lsl #4
    2940:	00020c06 	andeq	r0, r2, r6, lsl #24
    2944:	020c0600 	andeq	r0, ip, #0
    2948:	0c060000 	stceq	0, cr0, [r6], {0}
    294c:	06000002 	streq	r0, [r0], -r2
    2950:	0000020c 	andeq	r0, r0, ip, lsl #4
    2954:	00020c06 	andeq	r0, r2, r6, lsl #24
    2958:	020c0600 	andeq	r0, ip, #0
    295c:	7b060000 	blvc	182964 <__standby_start+0x182964>
    2960:	0d000000 	stceq	0, cr0, [r0]
    2964:	0013d601 	andseq	sp, r3, r1, lsl #12
    2968:	01250100 	teqeq	r5, r0, lsl #2
    296c:	00000052 	andeq	r0, r0, r2, asr r0
    2970:	f0000a84 	undefined instruction 0xf0000a84
    2974:	f0000b20 	undefined instruction 0xf0000b20
    2978:	000000fa 	strdeq	r0, [r0], -sl
    297c:	1390010e 	orrsne	r0, r0, #-2147483645	; 0x80000003
    2980:	51010000 	tstpl	r1, r0
    2984:	00005201 	andeq	r5, r0, r1, lsl #4
    2988:	000b2000 	andeq	r2, fp, r0
    298c:	000b7cf0 	strdeq	r7, [fp], -r0
    2990:	0f5d01f0 	svceq	0x005d01f0
    2994:	0013bb01 	andseq	fp, r3, r1, lsl #22
    2998:	016d0100 	cmneq	sp, r0, lsl #2
    299c:	00000052 	andeq	r0, r0, r2, asr r0
    29a0:	f0000b7c 	undefined instruction 0xf0000b7c
    29a4:	f0000bc4 	undefined instruction 0xf0000bc4
    29a8:	00000119 	andeq	r0, r0, r9, lsl r1
    29ac:	000002bb 	undefined instruction 0x000002bb
    29b0:	63727310 	cmnvs	r2, #1073741824	; 0x40000000
    29b4:	8b6d0100 	blhi	1b42dbc <__standby_start+0x1b42dbc>
    29b8:	38000000 	stmdacc	r0, {}
    29bc:	11000001 	tstne	r0, r1
    29c0:	00001427 	andeq	r1, r0, r7, lsr #8
    29c4:	005d6f01 	subseq	r6, sp, r1, lsl #30
    29c8:	014b0000 	cmpeq	fp, r0
    29cc:	e7120000 	ldr	r0, [r2, -r0]
    29d0:	01000013 	tsteq	r0, r3, lsl r0
    29d4:	00005d70 	andeq	r5, r0, r0, ror sp
    29d8:	01130000 	tsteq	r3, r0
    29dc:	000013a9 	andeq	r1, r0, r9, lsr #7
    29e0:	52018501 	andpl	r8, r1, #4194304	; 0x400000
    29e4:	c4000000 	strgt	r0, [r0]
    29e8:	f4f0000b 	undefined instruction 0xf4f0000b
    29ec:	01f0000b 	mvnseq	r0, fp
    29f0:	00030b5d 	andeq	r0, r3, sp, asr fp
    29f4:	72731000 	rsbsvc	r1, r3, #0
    29f8:	85010063 	strhi	r0, [r1, #-99]	; 0x63
    29fc:	0000008b 	andeq	r0, r0, fp, lsl #1
    2a00:	0000015e 	andeq	r0, r0, lr, asr r1
    2a04:	0013f612 	andseq	pc, r3, r2, lsl r6
    2a08:	52870100 	addpl	r0, r7, #0
    2a0c:	11000000 	tstne	r0, r0
    2a10:	00001427 	andeq	r1, r0, r7, lsr #8
    2a14:	005d8801 	subseq	r8, sp, r1, lsl #16
    2a18:	01710000 	cmneq	r1, r0
    2a1c:	e7120000 	ldr	r0, [r2, -r0]
    2a20:	01000013 	tsteq	r0, r3, lsl r0
    2a24:	00005d89 	andeq	r5, r0, r9, lsl #27
    2a28:	87140000 	ldrhi	r0, [r4, -r0]
    2a2c:	01000013 	tsteq	r0, r3, lsl r0
    2a30:	00020c14 	andeq	r0, r2, r4, lsl ip
    2a34:	a0030500 	andge	r0, r3, r0, lsl #10
    2a38:	14f0002a 	ldrbtne	r0, [r0], #42	; 0x2a
    2a3c:	0000142e 	andeq	r1, r0, lr, lsr #8
    2a40:	020c1401 	andeq	r1, ip, #16777216	; 0x1000000
    2a44:	03050000 	movweq	r0, #20480	; 0x5000
    2a48:	f0002aac 	undefined instruction 0xf0002aac
    2a4c:	00144114 	andseq	r4, r4, r4, lsl r1
    2a50:	0c140100 	ldfeqs	f0, [r4], {0}
    2a54:	05000002 	streq	r0, [r0, #-2]
    2a58:	002ab803 	eoreq	fp, sl, r3, lsl #16
    2a5c:	143914f0 	ldrtne	r1, [r9], #-1264	; 0x4f0
    2a60:	15010000 	strne	r0, [r1]
    2a64:	0000034f 	andeq	r0, r0, pc, asr #6
    2a68:	2a9c0305 	bcs	fe703684 <__bss_end+0xe700a98>
    2a6c:	0415f000 	ldreq	pc, [r5]
    2a70:	000000f4 	strdeq	r0, [r0], -r4
    2a74:	0000c400 	andeq	ip, r0, r0, lsl #8
    2a78:	e8000200 	stmda	r0, {r9}
    2a7c:	04000004 	streq	r0, [r0], #-4
    2a80:	00035d01 	andeq	r5, r3, r1, lsl #26
    2a84:	14590100 	ldrbne	r0, [r9], #-256	; 0x100
    2a88:	02740000 	rsbseq	r0, r4, #0
    2a8c:	0bf40000 	bleq	ffd02a94 <__bss_end+0xfcffea8>
    2a90:	0c14f000 	ldceq	0, cr15, [r4], {0}
    2a94:	0481f000 	streq	pc, [r1]
    2a98:	04020000 	streq	r0, [r2]
    2a9c:	0001ff07 	andeq	pc, r1, r7, lsl #30
    2aa0:	08010200 	stmdaeq	r1, {r9}
    2aa4:	00000190 	muleq	r0, r0, r1
    2aa8:	69050403 	stmdbvs	r5, {r0, r1, sl}
    2aac:	0400746e 	streq	r7, [r0], #-1134	; 0x46e
    2ab0:	01020704 	tsteq	r2, r4, lsl #14
    2ab4:	00019206 	andeq	r9, r1, r6, lsl #4
    2ab8:	05020200 	streq	r0, [r2, #-512]	; 0x200
    2abc:	000001b4 	undefined instruction 0x000001b4
    2ac0:	61070202 	tstvs	r7, r2, lsl #4
    2ac4:	05000002 	streq	r0, [r0, #-2]
    2ac8:	00000dc0 	andeq	r0, r0, r0, asr #27
    2acc:	00331902 	eorseq	r1, r3, r2, lsl #18
    2ad0:	08020000 	stmdaeq	r2, {}
    2ad4:	00015305 	andeq	r5, r1, r5, lsl #6
    2ad8:	07080200 	streq	r0, [r8, -r0, lsl #4]
    2adc:	000001f5 	strdeq	r0, [r0], -r5
    2ae0:	14880106 	strne	r0, [r8], #262	; 0x106
    2ae4:	23010000 	movwcs	r0, #4096	; 0x1000
    2ae8:	00005201 	andeq	r5, r0, r1, lsl #4
    2aec:	000bf400 	andeq	pc, fp, r0, lsl #8
    2af0:	000bfcf0 	strdeq	pc, [fp], -r0
    2af4:	065d01f0 	undefined instruction 0x065d01f0
    2af8:	00146601 	andseq	r6, r4, r1, lsl #12
    2afc:	01360100 	teqeq	r6, r0, lsl #2
    2b00:	00000052 	andeq	r0, r0, r2, asr r0
    2b04:	f0000bfc 	undefined instruction 0xf0000bfc
    2b08:	f0000c04 	undefined instruction 0xf0000c04
    2b0c:	01065d01 	tsteq	r6, r1, lsl #26
    2b10:	00001498 	muleq	r0, r8, r4
    2b14:	52014901 	andpl	r4, r1, #16384	; 0x4000
    2b18:	04000000 	streq	r0, [r0]
    2b1c:	0cf0000c 	ldcleq	0, cr0, [r0], #48	; 0x30
    2b20:	01f0000c 	mvnseq	r0, ip
    2b24:	7601065d 	undefined instruction 0x7601065d
    2b28:	01000014 	tsteq	r0, r4, lsl r0
    2b2c:	0052015b 	subseq	r0, r2, fp, asr r1
    2b30:	0c0c0000 	stceq	0, cr0, [ip], {0}
    2b34:	0c14f000 	ldceq	0, cr15, [r4], {0}
    2b38:	5d01f000 	stcpl	0, cr15, [r1]
    2b3c:	00017700 	andeq	r7, r1, r0, lsl #14
    2b40:	3f000200 	svccc	0x00000200
    2b44:	04000005 	streq	r0, [r0], #-5
    2b48:	00035d01 	andeq	r5, r3, r1, lsl #26
    2b4c:	14d10100 	ldrbne	r0, [r1], #256	; 0x100
    2b50:	02740000 	rsbseq	r0, r4, #0
    2b54:	0c140000 	ldceq	0, cr0, [r4], {0}
    2b58:	0cb0f000 	ldceq	0, cr15, [r0]
    2b5c:	04d6f000 	ldrbeq	pc, [r6]
    2b60:	04020000 	streq	r0, [r2]
    2b64:	0001ff07 	andeq	pc, r1, r7, lsl #30
    2b68:	08010200 	stmdaeq	r1, {r9}
    2b6c:	00000190 	muleq	r0, r0, r1
    2b70:	69050403 	stmdbvs	r5, {r0, r1, sl}
    2b74:	0400746e 	streq	r7, [r0], #-1134	; 0x46e
    2b78:	01020704 	tsteq	r2, r4, lsl #14
    2b7c:	00019206 	andeq	r9, r1, r6, lsl #4
    2b80:	05020200 	streq	r0, [r2, #-512]	; 0x200
    2b84:	000001b4 	undefined instruction 0x000001b4
    2b88:	61070202 	tstvs	r7, r2, lsl #4
    2b8c:	05000002 	streq	r0, [r0, #-2]
    2b90:	00000dc0 	andeq	r0, r0, r0, asr #27
    2b94:	00331902 	eorseq	r1, r3, r2, lsl #18
    2b98:	3c050000 	stccc	0, cr0, [r5], {0}
    2b9c:	02000001 	andeq	r0, r0, #1
    2ba0:	0000251a 	andeq	r2, r0, sl, lsl r5
    2ba4:	05080200 	streq	r0, [r8, #-512]	; 0x200
    2ba8:	00000153 	andeq	r0, r0, r3, asr r1
    2bac:	f5070802 	undefined instruction 0xf5070802
    2bb0:	06000001 	streq	r0, [r0], -r1
    2bb4:	0000005d 	andeq	r0, r0, sp, asr r0
    2bb8:	00155607 	andseq	r5, r5, r7, lsl #12
    2bbc:	18031400 	stmdane	r3, {sl, ip}
    2bc0:	000000ce 	andeq	r0, r0, lr, asr #1
    2bc4:	00151408 	andseq	r1, r5, r8, lsl #8
    2bc8:	761a0300 	ldrvc	r0, [sl], -r0, lsl #6
    2bcc:	02000000 	andeq	r0, r0, #0
    2bd0:	e6080023 	str	r0, [r8], -r3, lsr #32
    2bd4:	03000014 	movweq	r0, #20
    2bd8:	0000761b 	andeq	r7, r0, fp, lsl r6
    2bdc:	04230200 	strteq	r0, [r3], #-512	; 0x200
    2be0:	0014aa08 	andseq	sl, r4, r8, lsl #20
    2be4:	761c0300 	ldrvc	r0, [ip], -r0, lsl #6
    2be8:	02000000 	andeq	r0, r0, #0
    2bec:	68080823 	stmdavs	r8, {r0, r1, r5, fp}
    2bf0:	03000015 	movweq	r0, #21
    2bf4:	0000761d 	andeq	r7, r0, sp, lsl r6
    2bf8:	0c230200 	sfmeq	f0, 4, [r3]	; (stceq 2, cr0, [r3])
    2bfc:	00151f08 	andseq	r1, r5, r8, lsl #30
    2c00:	761e0300 	ldrvc	r0, [lr], -r0, lsl #6
    2c04:	02000000 	andeq	r0, r0, #0
    2c08:	05001023 	streq	r1, [r0, #-35]	; 0x23
    2c0c:	000014b5 	undefined instruction 0x000014b5
    2c10:	007b1f03 	rsbseq	r1, fp, r3, lsl #30
    2c14:	01090000 	tsteq	r9, r0
    2c18:	000014f1 	strdeq	r1, [r0], -r1
    2c1c:	52014401 	andpl	r4, r1, #16777216	; 0x1000000
    2c20:	14000000 	strne	r0, [r0]
    2c24:	34f0000c 	ldrbtcc	r0, [r0], #12
    2c28:	01f0000c 	mvnseq	r0, ip
    2c2c:	4401095d 	strmi	r0, [r1], #-2397	; 0x95d
    2c30:	01000015 	tsteq	r0, r5, lsl r0
    2c34:	00520157 	subseq	r0, r2, r7, asr r1
    2c38:	0c340000 	ldceq	0, cr0, [r4]
    2c3c:	0c5cf000 	mraeq	pc, ip, acc0
    2c40:	5d01f000 	stcpl	0, cr15, [r1]
    2c44:	152b010a 	strne	r0, [fp, #-266]!	; 0x10a
    2c48:	27010000 	strcs	r0, [r1, -r0]
    2c4c:	00005201 	andeq	r5, r0, r1, lsl #4
    2c50:	000c5c00 	andeq	r5, ip, r0, lsl #24
    2c54:	000cb0f0 	strdeq	fp, [ip], -r0
    2c58:	000184f0 	strdeq	r8, [r1], -r0
    2c5c:	14df0b00 	ldrbne	r0, [pc], #2816	; 2c64 <__standby_start+0x2c64>
    2c60:	14010000 	strne	r0, [r1]
    2c64:	00000131 	andeq	r0, r0, r1, lsr r1
    2c68:	2ac40305 	bcs	ff103884 <__bss_end+0xf100c98>
    2c6c:	040cf000 	streq	pc, [ip]
    2c70:	000000ce 	andeq	r0, r0, lr, asr #1
    2c74:	0015740b 	andseq	r7, r5, fp, lsl #8
    2c78:	5d150100 	ldfpls	f0, [r5]
    2c7c:	05000000 	streq	r0, [r0]
    2c80:	002ac803 	eoreq	ip, sl, r3, lsl #16
    2c84:	153c0bf0 	ldrne	r0, [ip, #-3056]!	; 0xbf0
    2c88:	15010000 	strne	r0, [r1]
    2c8c:	0000005d 	andeq	r0, r0, sp, asr r0
    2c90:	2acc0305 	bcs	ff3038ac <__bss_end+0xf300cc0>
    2c94:	c90df000 	stmdbgt	sp, {ip, sp, lr, pc}
    2c98:	01000014 	tsteq	r0, r4, lsl r0
    2c9c:	00005d15 	andeq	r5, r0, r5, lsl sp
    2ca0:	15020d00 	strne	r0, [r2, #-3328]	; 0xd00
    2ca4:	15010000 	strne	r0, [r1]
    2ca8:	0000005d 	andeq	r0, r0, sp, asr r0
    2cac:	00150b0d 	andseq	r0, r5, sp, lsl #22
    2cb0:	5d150100 	ldfpls	f0, [r5]
    2cb4:	00000000 	andeq	r0, r0, r0
    2cb8:	0000045c 	andeq	r0, r0, ip, asr r4
    2cbc:	05f70002 	ldrbeq	r0, [r7, #2]!
    2cc0:	01040000 	tsteq	r4, r0
    2cc4:	0000035d 	andeq	r0, r0, sp, asr r3
    2cc8:	0015c401 	andseq	ip, r5, r1, lsl #8
    2ccc:	00027400 	andeq	r7, r2, r0, lsl #8
    2cd0:	000cb000 	andeq	fp, ip, r0
    2cd4:	0013d8f0 	undefined instruction 0x0013d8f0
    2cd8:	000557f0 	strdeq	r5, [r5], -r0
    2cdc:	07040200 	streq	r0, [r4, -r0, lsl #4]
    2ce0:	000001ff 	strdeq	r0, [r0], -pc
    2ce4:	90080102 	andls	r0, r8, r2, lsl #2
    2ce8:	03000001 	movweq	r0, #1
    2cec:	6e690504 	cdpvs	5, 6, cr0, cr9, cr4, {0}
    2cf0:	04040074 	streq	r0, [r4], #-116	; 0x74
    2cf4:	06010207 	streq	r0, [r1], -r7, lsl #4
    2cf8:	00000192 	muleq	r0, r2, r1
    2cfc:	0002cd05 	andeq	ip, r2, r5, lsl #26
    2d00:	2c160300 	ldccs	3, cr0, [r6], {0}
    2d04:	02000000 	andeq	r0, r0, #0
    2d08:	01b40502 	undefined instruction 0x01b40502
    2d0c:	02020000 	andeq	r0, r2, #0
    2d10:	00026107 	andeq	r6, r2, r7, lsl #2
    2d14:	0dc00500 	cfstr64eq	mvdx0, [r0]
    2d18:	19030000 	stmdbne	r3, {}
    2d1c:	00000033 	andeq	r0, r0, r3, lsr r0
    2d20:	00013c05 	andeq	r3, r1, r5, lsl #24
    2d24:	251a0300 	ldrcs	r0, [sl, #-768]	; 0x300
    2d28:	02000000 	andeq	r0, r0, #0
    2d2c:	01530508 	cmpeq	r3, r8, lsl #10
    2d30:	08020000 	stmdaeq	r2, {}
    2d34:	0001f507 	andeq	pc, r1, r7, lsl #10
    2d38:	02340600 	eorseq	r0, r4, #0
    2d3c:	04040000 	streq	r0, [r4]
    2d40:	0000b817 	andeq	fp, r0, r7, lsl r8
    2d44:	010c0700 	tsteq	ip, r0, lsl #14
    2d48:	07000000 	streq	r0, [r0, -r0]
    2d4c:	0000011c 	andeq	r0, r0, ip, lsl r1
    2d50:	012c0701 	teqeq	ip, r1, lsl #14
    2d54:	07020000 	streq	r0, [r2, -r0]
    2d58:	000001be 	undefined instruction 0x000001be
    2d5c:	01cd0703 	biceq	r0, sp, r3, lsl #14
    2d60:	07040000 	streq	r0, [r4, -r0]
    2d64:	000001dc 	ldrdeq	r0, [r0], -ip
    2d68:	02ad0705 	adceq	r0, sp, #1310720	; 0x140000
    2d6c:	00060000 	andeq	r0, r6, r0
    2d70:	00161608 	andseq	r1, r6, r8, lsl #12
    2d74:	4d041c00 	stcmi	12, cr1, [r4]
    2d78:	00000126 	andeq	r0, r0, r6, lsr #2
    2d7c:	00646909 	rsbeq	r6, r4, r9, lsl #18
    2d80:	00814e04 	addeq	r4, r1, r4, lsl #28
    2d84:	23020000 	movwcs	r0, #8192	; 0x2000
    2d88:	16870a00 	strne	r0, [r7], r0, lsl #20
    2d8c:	4f040000 	svcmi	0x00040000
    2d90:	00000033 	andeq	r0, r0, r3, lsr r0
    2d94:	0a042302 	beq	10b9a4 <__standby_start+0x10b9a4>
    2d98:	000015b6 	undefined instruction 0x000015b6
    2d9c:	00335004 	eorseq	r5, r3, r4
    2da0:	23020000 	movwcs	r0, #8192	; 0x2000
    2da4:	16520a08 	ldrbne	r0, [r2], -r8, lsl #20
    2da8:	51040000 	tstpl	r4, r0
    2dac:	00000033 	andeq	r0, r0, r3, lsr r0
    2db0:	0a0c2302 	beq	30b9c0 <__standby_start+0x30b9c0>
    2db4:	0000166a 	andeq	r1, r0, sl, ror #12
    2db8:	00335204 	eorseq	r5, r3, r4, lsl #4
    2dbc:	23020000 	movwcs	r0, #8192	; 0x2000
    2dc0:	16010a10 	undefined instruction 0x16010a10
    2dc4:	53040000 	movwpl	r0, #16384	; 0x4000
    2dc8:	00000033 	andeq	r0, r0, r3, lsr r0
    2dcc:	0a142302 	beq	50b9dc <__standby_start+0x50b9dc>
    2dd0:	000015e3 	andeq	r1, r0, r3, ror #11
    2dd4:	00335404 	eorseq	r5, r3, r4, lsl #8
    2dd8:	23020000 	movwcs	r0, #8192	; 0x2000
    2ddc:	3c060018 	stccc	0, cr0, [r6], {24}
    2de0:	04000016 	streq	r0, [r0], #-22
    2de4:	013f2905 	teqeq	pc, r5, lsl #18
    2de8:	1f070000 	svcne	0x00070000
    2dec:	00000016 	andeq	r0, r0, r6, lsl r0
    2df0:	0015d907 	andseq	sp, r5, r7, lsl #18
    2df4:	0b000100 	bleq	31fc <__standby_start+0x31fc>
    2df8:	00001599 	muleq	r0, r9, r5
    2dfc:	6e01d401 	cdpvs	4, 0, cr13, cr1, cr1, {0}
    2e00:	03000001 	movweq	r0, #1
    2e04:	0000016e 	andeq	r0, r0, lr, ror #2
    2e08:	0064690c 	rsbeq	r6, r4, ip, lsl #18
    2e0c:	0033d401 	eorseq	sp, r3, r1, lsl #8
    2e10:	720d0000 	andvc	r0, sp, #0
    2e14:	d6010069 	strle	r0, [r1], -r9, rrx
    2e18:	0000016e 	andeq	r0, r0, lr, ror #2
    2e1c:	0100690d 	tsteq	r0, sp, lsl #18
    2e20:	000033d7 	ldrdeq	r3, [r0], -r7
    2e24:	040e0000 	streq	r0, [lr]
    2e28:	000000b8 	strheq	r0, [r0], -r8
    2e2c:	00167b0b 	andseq	r7, r6, fp, lsl #22
    2e30:	01bd0100 	undefined instruction 0x01bd0100
    2e34:	00000033 	andeq	r0, r0, r3, lsr r0
    2e38:	00019c03 	andeq	r9, r1, r3, lsl #24
    2e3c:	16110f00 	ldrne	r0, [r1], -r0, lsl #30
    2e40:	bd010000 	stclt	0, cr0, [r1]
    2e44:	0000016e 	andeq	r0, r0, lr, ror #2
    2e48:	0015880f 	andseq	r8, r5, pc, lsl #16
    2e4c:	5dbd0100 	ldfpls	f0, [sp]
    2e50:	00000000 	andeq	r0, r0, r0
    2e54:	0016a10b 	andseq	sl, r6, fp, lsl #2
    2e58:	01480200 	cmpeq	r8, r0, lsl #4
    2e5c:	00000068 	andeq	r0, r0, r8, rrx
    2e60:	0001e503 	andeq	lr, r1, r3, lsl #10
    2e64:	16720f00 	ldrbtne	r0, [r2], -r0, lsl #30
    2e68:	48020000 	stmdami	r2, {}
    2e6c:	00000068 	andeq	r0, r0, r8, rrx
    2e70:	0015900f 	andseq	r9, r5, pc
    2e74:	68480200 	stmdavs	r8, {r9}^
    2e78:	10000000 	andne	r0, r0, r0
    2e7c:	000015bd 	undefined instruction 0x000015bd
    2e80:	00684a02 	rsbeq	r4, r8, r2, lsl #20
    2e84:	34100000 	ldrcc	r0, [r0]
    2e88:	02000016 	andeq	r0, r0, #22
    2e8c:	0000684b 	andeq	r6, r0, fp, asr #16
    2e90:	16051000 	strne	r1, [r5], -r0
    2e94:	4c020000 	stcmi	0, cr0, [r2], {0}
    2e98:	0000005d 	andeq	r0, r0, sp, asr r0
    2e9c:	7c011100 	stfvcs	f1, [r1], {0}
    2ea0:	01000015 	tsteq	r0, r5, lsl r0
    2ea4:	68010131 	stmdavs	r1, {r0, r4, r5, r8}
    2ea8:	b0000000 	andlt	r0, r0, r0
    2eac:	50f0000c 	rscspl	r0, r0, ip
    2eb0:	a3f0000d 	mvnsge	r0, #13
    2eb4:	64000001 	strvs	r0, [r0], #-1
    2eb8:	12000002 	andne	r0, r0, #2
    2ebc:	0000219f 	muleq	r0, pc, r1
    2ec0:	81013101 	tsthi	r1, r1, lsl #2
    2ec4:	c2000000 	andgt	r0, r0, #0
    2ec8:	13000001 	movwne	r0, #1
    2ecc:	00001611 	andeq	r1, r0, r1, lsl r6
    2ed0:	6e013301 	cdpvs	3, 0, cr3, cr1, cr1, {0}
    2ed4:	01000001 	tsteq	r0, r1
    2ed8:	61761454 	cmnvs	r6, r4, asr r4
    2edc:	3401006c 	strcc	r0, [r1], #-108	; 0x6c
    2ee0:	00004401 	andeq	r4, r0, r1, lsl #8
    2ee4:	0001eb00 	andeq	lr, r1, r0, lsl #22
    2ee8:	15d41500 	ldrbne	r1, [r4, #1280]	; 0x500
    2eec:	34010000 	strcc	r0, [r1]
    2ef0:	00004401 	andeq	r4, r0, r1, lsl #8
    2ef4:	013f1600 	teqeq	pc, r0, lsl #12
    2ef8:	0cc40000 	stcleq	0, cr0, [r4], {0}
    2efc:	0018f000 	andseq	pc, r8, r0
    2f00:	36010000 	strcc	r0, [r1], -r0
    2f04:	01501701 	cmpeq	r0, r1, lsl #14
    2f08:	30180000 	andscc	r0, r8, r0
    2f0c:	19000000 	stmdbne	r0, {}
    2f10:	0000015a 	andeq	r0, r0, sl, asr r1
    2f14:	00016419 	andeq	r6, r1, r9, lsl r4
    2f18:	00000000 	andeq	r0, r0, r0
    2f1c:	15ed011a 	strbne	r0, [sp, #282]!	; 0x11a
    2f20:	f0010000 	undefined instruction 0xf0010000
    2f24:	000d5001 	andeq	r5, sp, r1
    2f28:	000f30f0 	strdeq	r3, [pc], -r0
    2f2c:	000215f0 	strdeq	r1, [r2], -r0
    2f30:	0003a000 	andeq	sl, r3, r0
    2f34:	219f1b00 	orrscs	r1, pc, r0, lsl #22
    2f38:	f0010000 	undefined instruction 0xf0010000
    2f3c:	00000081 	andeq	r0, r0, r1, lsl #1
    2f40:	00000234 	andeq	r0, r0, r4, lsr r2
    2f44:	0015881b 	andseq	r8, r5, fp, lsl r8
    2f48:	5df00100 	ldfple	f0, [r0]
    2f4c:	73000000 	movwvc	r0, #0
    2f50:	1c000002 	stcne	0, cr0, [r0], {2}
    2f54:	00001611 	andeq	r1, r0, r1, lsl r6
    2f58:	016ef201 	msreq	SPSR_fsx, r1, lsl #4
    2f5c:	54010000 	strpl	r0, [r1]
    2f60:	6c61761d 	stclvs	6, cr7, [r1], #-116	; 0xffffff8c
    2f64:	44f30100 	ldrbtmi	r0, [r3], #256	; 0x100
    2f68:	b2000000 	andlt	r0, r0, #0
    2f6c:	1e000002 	cdpne	0, 0, cr0, cr0, cr2, {0}
    2f70:	000015d4 	ldrdeq	r1, [r0], -r4
    2f74:	0044f301 	subeq	pc, r4, r1, lsl #6
    2f78:	03070000 	movweq	r0, #28672	; 0x7000
    2f7c:	4a1e0000 	bmi	782f84 <__standby_start+0x782f84>
    2f80:	01000016 	tsteq	r0, r6, lsl r0
    2f84:	000044f3 	strdeq	r4, [r0], -r3
    2f88:	00032500 	andeq	r2, r3, r0, lsl #10
    2f8c:	013f1f00 	teqeq	pc, r0, lsl #30
    2f90:	0d600000 	stcleq	0, cr0, [r0]
    2f94:	0048f000 	subeq	pc, r8, r0
    2f98:	f5010000 	undefined instruction 0xf5010000
    2f9c:	000002fe 	strdeq	r0, [r0], -lr
    2fa0:	00015017 	andeq	r5, r1, r7, lsl r0
    2fa4:	00601800 	rsbeq	r1, r0, r0, lsl #16
    2fa8:	5a190000 	bpl	642fb0 <__standby_start+0x642fb0>
    2fac:	19000001 	stmdbne	r0, {r0}
    2fb0:	00000164 	andeq	r0, r0, r4, ror #2
    2fb4:	74200000 	strtvc	r0, [r0]
    2fb8:	88000001 	stmdahi	r0, {r0}
    2fbc:	a4f0000d 	ldrbtge	r0, [r0], #13
    2fc0:	01f0000d 	mvnseq	r0, sp
    2fc4:	00031cfa 	strdeq	r1, [r3], -sl
    2fc8:	01901700 	orrseq	r1, r0, r0, lsl #14
    2fcc:	85170000 	ldrhi	r0, [r7]
    2fd0:	00000001 	andeq	r0, r0, r1
    2fd4:	00019c1f 	andeq	r9, r1, pc, lsl ip
    2fd8:	000da800 	andeq	sl, sp, r0, lsl #16
    2fdc:	000078f0 	strdeq	r7, [r0], -r0
    2fe0:	5fff0100 	svcpl	0x00ff0100
    2fe4:	17000003 	strne	r0, [r0, -r3]
    2fe8:	000001b8 	undefined instruction 0x000001b8
    2fec:	0001ad21 	andeq	sl, r1, r1, lsr #26
    2ff0:	00035100 	andeq	r5, r3, r0, lsl #2
    2ff4:	00981800 	addseq	r1, r8, r0, lsl #16
    2ff8:	c3220000 	teqgt	r2, #0
    2ffc:	7a000001 	bvc	3008 <__standby_start+0x3008>
    3000:	22000003 	andcs	r0, r0, #3
    3004:	000001ce 	andeq	r0, r0, lr, asr #3
    3008:	000003a3 	andeq	r0, r0, r3, lsr #7
    300c:	0001d922 	andeq	sp, r1, r2, lsr #18
    3010:	0003ed00 	andeq	lr, r3, r0, lsl #26
    3014:	16000000 	strne	r0, [r0], -r0
    3018:	0000019c 	muleq	r0, ip, r1
    301c:	f0000e14 	undefined instruction 0xf0000e14
    3020:	000000b8 	strheq	r0, [r0], -r8
    3024:	17010501 	strne	r0, [r1, -r1, lsl #10]
    3028:	000001b8 	undefined instruction 0x000001b8
    302c:	0001ad21 	andeq	sl, r1, r1, lsr #26
    3030:	00041600 	andeq	r1, r4, r0, lsl #12
    3034:	00d81800 	sbcseq	r1, r8, r0, lsl #16
    3038:	c3220000 	teqgt	r2, #0
    303c:	34000001 	strcc	r0, [r0], #-1
    3040:	22000004 	andcs	r0, r0, #4
    3044:	000001ce 	andeq	r0, r0, lr, asr #3
    3048:	00000447 	andeq	r0, r0, r7, asr #8
    304c:	0001d922 	andeq	sp, r1, r2, lsr #18
    3050:	00048600 	andeq	r8, r4, r0, lsl #12
    3054:	00000000 	andeq	r0, r0, r0
    3058:	168e0123 	strne	r0, [lr], r3, lsr #2
    305c:	79010000 	stmdbvc	r1, {}
    3060:	00005d01 	andeq	r5, r0, r1, lsl #26
    3064:	000f3000 	andeq	r3, pc, r0
    3068:	00116cf0 	undefined instruction 0x00116cf0
    306c:	000499f0 	strdeq	r9, [r4], -r0
    3070:	0003dc00 	andeq	sp, r3, r0, lsl #24
    3074:	16291b00 	strtne	r1, [r9], -r0, lsl #22
    3078:	79010000 	stmdbvc	r1, {}
    307c:	00000068 	andeq	r0, r0, r8, rrx
    3080:	000004b8 	undefined instruction 0x000004b8
    3084:	00164a1e 	andseq	r4, r6, lr, lsl sl
    3088:	447b0100 	ldrbtmi	r0, [fp], #-256	; 0x100
    308c:	ec000000 	stc	0, cr0, [r0], {0}
    3090:	00000004 	andeq	r0, r0, r4
    3094:	15a30123 	strne	r0, [r3, #291]!	; 0x123
    3098:	25010000 	strcs	r0, [r1]
    309c:	00005d01 	andeq	r5, r0, r1, lsl #26
    30a0:	00116c00 	andseq	r6, r1, r0, lsl #24
    30a4:	0013d8f0 	undefined instruction 0x0013d8f0
    30a8:	0005adf0 	strdeq	sl, [r5], -r0
    30ac:	00041800 	andeq	r1, r4, r0, lsl #16
    30b0:	16291b00 	strtne	r1, [r9], -r0, lsl #22
    30b4:	25010000 	strcs	r0, [r1]
    30b8:	00000068 	andeq	r0, r0, r8, rrx
    30bc:	000005cc 	andeq	r0, r0, ip, asr #11
    30c0:	00164a1e 	andseq	r4, r6, lr, lsl sl
    30c4:	44270100 	strtmi	r0, [r7], #-256	; 0x100
    30c8:	00000000 	andeq	r0, r0, r0
    30cc:	00000006 	andeq	r0, r0, r6
    30d0:	00003324 	andeq	r3, r0, r4, lsr #6
    30d4:	00042800 	andeq	r2, r4, r0, lsl #16
    30d8:	003a2500 	eorseq	r2, sl, r0, lsl #10
    30dc:	000f0000 	andeq	r0, pc, r0
    30e0:	00165a1c 	andseq	r5, r6, ip, lsl sl
    30e4:	39c50100 	stmibcc	r5, {r8}^
    30e8:	05000004 	streq	r0, [r0, #-4]
    30ec:	0028a003 	eoreq	sl, r8, r3
    30f0:	041826f0 	ldreq	r2, [r8], #-1776	; 0x6f0
    30f4:	b8240000 	stmdalt	r4!, {}
    30f8:	4e000000 	cdpmi	0, 0, cr0, cr0, cr0, {0}
    30fc:	25000004 	strcs	r0, [r0, #-4]
    3100:	0000003a 	andeq	r0, r0, sl, lsr r0
    3104:	0b1c0005 	bleq	703120 <__standby_start+0x703120>
    3108:	01000016 	tsteq	r0, r6, lsl r0
    310c:	00043ecb 	andeq	r3, r4, fp, asr #29
    3110:	ec030500 	cfstr32	mvfx0, [r3], {0}
    3114:	00f00028 	rscseq	r0, r0, r8, lsr #32
    3118:	00000534 	andeq	r0, r0, r4, lsr r5
    311c:	07fc0002 	ldrbeq	r0, [ip, r2]!
    3120:	01040000 	tsteq	r4, r0
    3124:	0000035d 	andeq	r0, r0, sp, asr r3
    3128:	00188201 	andseq	r8, r8, r1, lsl #4
    312c:	00027400 	andeq	r7, r2, r0, lsl #8
    3130:	0013d800 	andseq	sp, r3, r0, lsl #16
    3134:	0015ccf0 	undefined instruction 0x0015ccf0
    3138:	000706f0 	strdeq	r0, [r7], -r0
    313c:	07040200 	streq	r0, [r4, -r0, lsl #4]
    3140:	000001ff 	strdeq	r0, [r0], -pc
    3144:	90080102 	andls	r0, r8, r2, lsl #2
    3148:	03000001 	movweq	r0, #1
    314c:	6e690504 	cdpvs	5, 6, cr0, cr9, cr4, {0}
    3150:	04040074 	streq	r0, [r4], #-116	; 0x74
    3154:	06010207 	streq	r0, [r1], -r7, lsl #4
    3158:	00000192 	muleq	r0, r2, r1
    315c:	b4050202 	strlt	r0, [r5], #-514	; 0x202
    3160:	02000001 	andeq	r0, r0, #1
    3164:	02610702 	rsbeq	r0, r1, #524288	; 0x80000
    3168:	c0050000 	andgt	r0, r5, r0
    316c:	0200000d 	andeq	r0, r0, #13
    3170:	00003319 	andeq	r3, r0, r9, lsl r3
    3174:	013c0500 	teqeq	ip, r0, lsl #10
    3178:	1a020000 	bne	83180 <__standby_start+0x83180>
    317c:	00000025 	andeq	r0, r0, r5, lsr #32
    3180:	53050802 	movwpl	r0, #22530	; 0x5802
    3184:	02000001 	andeq	r0, r0, #1
    3188:	01f50708 	mvnseq	r0, r8, lsl #14
    318c:	5d060000 	stcpl	0, cr0, [r6]
    3190:	07000000 	streq	r0, [r0, -r0]
    3194:	0000005d 	andeq	r0, r0, sp, asr r0
    3198:	0000008b 	andeq	r0, r0, fp, lsl #1
    319c:	00003a08 	andeq	r3, r0, r8, lsl #20
    31a0:	09000300 	stmdbeq	r0, {r8, r9}
    31a4:	0000176d 	andeq	r1, r0, sp, ror #14
    31a8:	1a030130 	bne	c3670 <__standby_start+0xc3670>
    31ac:	00000331 	andeq	r0, r0, r1, lsr r3
    31b0:	00185f0a 	andseq	r5, r8, sl, lsl #30
    31b4:	761c0300 	ldrvc	r0, [ip], -r0, lsl #6
    31b8:	02000000 	andeq	r0, r0, #0
    31bc:	2f0a0023 	svccs	0x000a0023
    31c0:	03000018 	movweq	r0, #24
    31c4:	0000761d 	andeq	r7, r0, sp, lsl r6
    31c8:	04230200 	strteq	r0, [r3], #-512	; 0x200
    31cc:	000f740a 	andeq	r7, pc, sl, lsl #8
    31d0:	411e0300 	tstmi	lr, r0, lsl #6
    31d4:	02000003 	andeq	r0, r0, #3
    31d8:	f30a0823 	vsub.i8	d0, d10, d19
    31dc:	03000018 	movweq	r0, #24
    31e0:	00007620 	andeq	r7, r0, r0, lsr #12
    31e4:	10230200 	eorne	r0, r3, r0, lsl #4
    31e8:	0017100a 	andseq	r1, r7, sl
    31ec:	76210300 	strtvc	r0, [r1], -r0, lsl #6
    31f0:	02000000 	andeq	r0, r0, #0
    31f4:	3e0a1423 	cdpcc	4, 0, cr1, cr10, cr3, {1}
    31f8:	03000017 	movweq	r0, #23
    31fc:	00007622 	andeq	r7, r0, r2, lsr #12
    3200:	18230200 	stmdane	r3!, {r9}
    3204:	000f7e0a 	andeq	r7, pc, sl, lsl #28
    3208:	76230300 	strtvc	r0, [r3], -r0, lsl #6
    320c:	02000000 	andeq	r0, r0, #0
    3210:	360a1c23 	strcc	r1, [sl], -r3, lsr #24
    3214:	03000017 	movweq	r0, #23
    3218:	00007625 	andeq	r7, r0, r5, lsr #12
    321c:	20230200 	eorcs	r0, r3, r0, lsl #4
    3220:	00180e0a 	andseq	r0, r8, sl, lsl #28
    3224:	76260300 	strtvc	r0, [r6], -r0, lsl #6
    3228:	02000000 	andeq	r0, r0, #0
    322c:	3f0a2423 	svccc	0x000a2423
    3230:	03000018 	movweq	r0, #24
    3234:	00007627 	andeq	r7, r0, r7, lsr #12
    3238:	28230200 	stmdacs	r3!, {r9}
    323c:	000f880a 	andeq	r8, pc, sl, lsl #16
    3240:	76280300 	strtvc	r0, [r8], -r0, lsl #6
    3244:	02000000 	andeq	r0, r0, #0
    3248:	b00a2c23 	andlt	r2, sl, r3, lsr #24
    324c:	03000017 	movweq	r0, #23
    3250:	0000762a 	andeq	r7, r0, sl, lsr #12
    3254:	30230200 	eorcc	r0, r3, r0, lsl #4
    3258:	0017620a 	andseq	r6, r7, sl, lsl #4
    325c:	762b0300 	strtvc	r0, [fp], -r0, lsl #6
    3260:	02000000 	andeq	r0, r0, #0
    3264:	7f0a3423 	svcvc	0x000a3423
    3268:	03000017 	movweq	r0, #23
    326c:	0000762c 	andeq	r7, r0, ip, lsr #12
    3270:	38230200 	stmdacc	r3!, {r9}
    3274:	000f920a 	andeq	r9, pc, sl, lsl #4
    3278:	762d0300 	strtvc	r0, [sp], -r0, lsl #6
    327c:	02000000 	andeq	r0, r0, #0
    3280:	200a3c23 	andcs	r3, sl, r3, lsr #24
    3284:	03000018 	movweq	r0, #24
    3288:	0000762f 	andeq	r7, r0, pc, lsr #12
    328c:	40230200 	eormi	r0, r3, r0, lsl #4
    3290:	0018770a 	andseq	r7, r8, sl, lsl #14
    3294:	76300300 	ldrtvc	r0, [r0], -r0, lsl #6
    3298:	02000000 	andeq	r0, r0, #0
    329c:	9c0a4423 	cfstrsls	mvf4, [sl], {35}	; 0x23
    32a0:	0300000f 	movweq	r0, #15
    32a4:	00034631 	andeq	r4, r3, r1, lsr r6
    32a8:	48230200 	stmdami	r3!, {r9}
    32ac:	0018fb0a 	andseq	pc, r8, sl, lsl #22
    32b0:	76330300 	ldrtvc	r0, [r3], -r0, lsl #6
    32b4:	02000000 	andeq	r0, r0, #0
    32b8:	8a0a5023 	bhi	29734c <__standby_start+0x29734c>
    32bc:	03000017 	movweq	r0, #23
    32c0:	00007634 	andeq	r7, r0, r4, lsr r6
    32c4:	54230200 	strtpl	r0, [r3], #-512	; 0x200
    32c8:	0017950a 	andseq	r9, r7, sl, lsl #10
    32cc:	76350300 	ldrtvc	r0, [r5], -r0, lsl #6
    32d0:	02000000 	andeq	r0, r0, #0
    32d4:	660a5823 	strvs	r5, [sl], -r3, lsr #16
    32d8:	03000006 	movweq	r0, #6
    32dc:	00007636 	andeq	r7, r0, r6, lsr r6
    32e0:	5c230200 	sfmpl	f0, 4, [r3]	; (stcpl 2, cr0, [r3])
    32e4:	00175a0a 	andseq	r5, r7, sl, lsl #20
    32e8:	76380300 	ldrtvc	r0, [r8], -r0, lsl #6
    32ec:	02000000 	andeq	r0, r0, #0
    32f0:	c40a6023 	strgt	r6, [sl], #-35	; 0x23
    32f4:	03000018 	movweq	r0, #24
    32f8:	00007639 	andeq	r7, r0, r9, lsr r6
    32fc:	64230200 	strtvs	r0, [r3], #-512	; 0x200
    3300:	0018e10a 	andseq	lr, r8, sl, lsl #2
    3304:	763a0300 	ldrtvc	r0, [sl], -r0, lsl #6
    3308:	02000000 	andeq	r0, r0, #0
    330c:	c20a6823 	andgt	r6, sl, #2293760	; 0x230000
    3310:	0300000f 	movweq	r0, #15
    3314:	00035b3b 	andeq	r5, r3, fp, lsr fp
    3318:	6c230200 	sfmvs	f0, 4, [r3]	; (stcvs 2, cr0, [r3])
    331c:	0018280a 	andseq	r2, r8, sl, lsl #16
    3320:	763d0300 	ldrtvc	r0, [sp], -r0, lsl #6
    3324:	03000000 	movweq	r0, #0
    3328:	0a018023 	beq	633bc <__standby_start+0x633bc>
    332c:	000018bc 	undefined instruction 0x000018bc
    3330:	00763e03 	rsbseq	r3, r6, r3, lsl #28
    3334:	23030000 	movwcs	r0, #12288	; 0x3000
    3338:	e70a0184 	str	r0, [sl, -r4, lsl #3]
    333c:	03000016 	movweq	r0, #22
    3340:	0000763f 	andeq	r7, r0, pc, lsr r6
    3344:	88230300 	stmdahi	r3!, {r8, r9}
    3348:	18190a01 	ldmdane	r9, {r0, r9, fp}
    334c:	40030000 	andmi	r0, r3, r0
    3350:	00000076 	andeq	r0, r0, r6, ror r0
    3354:	018c2303 	orreq	r2, ip, r3, lsl #6
    3358:	0017020a 	andseq	r0, r7, sl, lsl #4
    335c:	76420300 	strbvc	r0, [r2], -r0, lsl #6
    3360:	03000000 	movweq	r0, #0
    3364:	0a019023 	beq	673f8 <__standby_start+0x673f8>
    3368:	000017d5 	ldrdeq	r1, [r0], -r5
    336c:	00764303 	rsbseq	r4, r6, r3, lsl #6
    3370:	23030000 	movwcs	r0, #12288	; 0x3000
    3374:	cc0a0194 	stfgts	f0, [sl], {148}	; 0x94
    3378:	0300000f 	movweq	r0, #15
    337c:	00036044 	andeq	r6, r3, r4, asr #32
    3380:	98230300 	stmdals	r3!, {r8, r9}
    3384:	18050a01 	stmdane	r5, {r0, r9, fp}
    3388:	46030000 	strmi	r0, [r3], -r0
    338c:	00000076 	andeq	r0, r0, r6, ror r0
    3390:	01a02303 	lsleq	r2, r3, #6
    3394:	0017dd0a 	andseq	sp, r7, sl, lsl #26
    3398:	76470300 	strbvc	r0, [r7], -r0, lsl #6
    339c:	03000000 	movweq	r0, #0
    33a0:	0a01a423 	beq	6c434 <__standby_start+0x6c434>
    33a4:	000017a8 	andeq	r1, r0, r8, lsr #15
    33a8:	00764803 	rsbseq	r4, r6, r3, lsl #16
    33ac:	23030000 	movwcs	r0, #12288	; 0x3000
    33b0:	790a01a8 	stmdbvc	sl, {r3, r5, r7, r8}
    33b4:	03000006 	movweq	r0, #6
    33b8:	00037549 	andeq	r7, r3, r9, asr #10
    33bc:	ac230300 	stcge	3, cr0, [r3]
    33c0:	17fd0a01 	ldrbne	r0, [sp, r1, lsl #20]!
    33c4:	4b030000 	blmi	c33cc <__standby_start+0xc33cc>
    33c8:	00000076 	andeq	r0, r0, r6, ror r0
    33cc:	02802303 	addeq	r2, r0, #201326592	; 0xc000000
    33d0:	0017090a 	andseq	r0, r7, sl, lsl #18
    33d4:	764c0300 	strbvc	r0, [ip], -r0, lsl #6
    33d8:	03000000 	movweq	r0, #0
    33dc:	0a028423 	beq	a4470 <__standby_start+0xa4470>
    33e0:	0000171b 	andeq	r1, r0, fp, lsl r7
    33e4:	00764d03 	rsbseq	r4, r6, r3, lsl #26
    33e8:	23030000 	movwcs	r0, #12288	; 0x3000
    33ec:	fa0a0288 	blx	283e14 <__standby_start+0x283e14>
    33f0:	03000016 	movweq	r0, #22
    33f4:	0000764e 	andeq	r7, r0, lr, asr #12
    33f8:	8c230300 	stchi	3, cr0, [r3]
    33fc:	16c10a02 	strbne	r0, [r1], r2, lsl #20
    3400:	50030000 	andpl	r0, r3, r0
    3404:	00000076 	andeq	r0, r0, r6, ror r0
    3408:	02902303 	addseq	r2, r0, #201326592	; 0xc000000
    340c:	0017a00a 	andseq	sl, r7, sl
    3410:	76510300 	ldrbvc	r0, [r1], -r0, lsl #6
    3414:	03000000 	movweq	r0, #0
    3418:	0a029423 	beq	a84ac <__standby_start+0xa84ac>
    341c:	000016ef 	andeq	r1, r0, pc, ror #13
    3420:	00765203 	rsbseq	r5, r6, r3, lsl #4
    3424:	23030000 	movwcs	r0, #12288	; 0x3000
    3428:	cb0a0298 	blgt	283e90 <__standby_start+0x283e90>
    342c:	03000016 	movweq	r0, #22
    3430:	00007653 	andeq	r7, r0, r3, asr r6
    3434:	9c230300 	stcls	3, cr0, [r3]
    3438:	18360a02 	ldmdane	r6!, {r1, r9, fp}
    343c:	55030000 	strpl	r0, [r3]
    3440:	0000037a 	andeq	r0, r0, sl, ror r3
    3444:	02a02303 	adceq	r2, r0, #201326592	; 0xc000000
    3448:	005d0700 	subseq	r0, sp, r0, lsl #14
    344c:	03410000 	movteq	r0, #4096	; 0x1000
    3450:	3a080000 	bcc	203458 <__standby_start+0x203458>
    3454:	01000000 	tsteq	r0, r0
    3458:	03310600 	teqeq	r1, #0
    345c:	31060000 	tstcc	r6, r0
    3460:	07000003 	streq	r0, [r0, -r3]
    3464:	0000005d 	andeq	r0, r0, sp, asr r0
    3468:	0000035b 	andeq	r0, r0, fp, asr r3
    346c:	00003a08 	andeq	r3, r0, r8, lsl #20
    3470:	06000400 	streq	r0, [r0], -r0, lsl #8
    3474:	0000034b 	andeq	r0, r0, fp, asr #6
    3478:	00033106 	andeq	r3, r3, r6, lsl #2
    347c:	005d0700 	subseq	r0, sp, r0, lsl #14
    3480:	03750000 	cmneq	r5, #0
    3484:	3a080000 	bcc	20348c <__standby_start+0x20348c>
    3488:	14000000 	strne	r0, [r0]
    348c:	03650600 	cmneq	r5, #0
    3490:	7b060000 	blvc	183498 <__standby_start+0x183498>
    3494:	05000000 	streq	r0, [r0]
    3498:	00001722 	andeq	r1, r0, r2, lsr #14
    349c:	008b5703 	addeq	r5, fp, r3, lsl #14
    34a0:	490b0000 	stmdbmi	fp, {}
    34a4:	04000017 	streq	r0, [r0], #-23
    34a8:	03a35a03 	undefined instruction 0x03a35a03
    34ac:	ae0c0000 	cdpge	0, 0, cr0, cr12, cr0, {0}
    34b0:	00000016 	andeq	r0, r0, r6, lsl r0
    34b4:	0016d70c 	andseq	sp, r6, ip, lsl #14
    34b8:	0d000100 	stfeqs	f0, [r0]
    34bc:	0017ec01 	andseq	lr, r7, r1, lsl #24
    34c0:	014e0100 	cmpeq	lr, r0, lsl #2
    34c4:	00000052 	andeq	r0, r0, r2, asr r0
    34c8:	f00013d8 	undefined instruction 0xf00013d8
    34cc:	f0001424 	undefined instruction 0xf0001424
    34d0:	000006ef 	andeq	r0, r0, pc, ror #13
    34d4:	000003ca 	andeq	r0, r0, sl, asr #7
    34d8:	0100690e 	tsteq	r0, lr, lsl #18
    34dc:	00005250 	andeq	r5, r0, r0, asr r2
    34e0:	010f0000 	mrseq	r0, CPSR
    34e4:	000018ac 	andeq	r1, r0, ip, lsr #17
    34e8:	52016d01 	andpl	r6, r1, #64	; 0x40
    34ec:	24000000 	strcs	r0, [r0]
    34f0:	74f00014 	ldrbtvc	r0, [r0], #20
    34f4:	01f00014 	mvnseq	r0, r4, lsl r0
    34f8:	0003f55d 	andeq	pc, r3, sp, asr r5
    34fc:	17e51000 	strbne	r1, [r5, r0]!
    3500:	6d010000 	stcvs	0, cr0, [r1]
    3504:	0000005d 	andeq	r0, r0, sp, asr r0
    3508:	0000070e 	andeq	r0, r0, lr, lsl #14
    350c:	90011100 	andls	r1, r1, r0, lsl #2
    3510:	01000018 	tsteq	r0, r8, lsl r0
    3514:	1474018c 	ldrbtne	r0, [r4], #-396	; 0x18c
    3518:	1498f000 	ldrne	pc, [r8]
    351c:	5d01f000 	stcpl	0, cr15, [r1]
    3520:	17b80111 	undefined instruction 0x17b80111
    3524:	a3010000 	movwge	r0, #4096	; 0x1000
    3528:	00149801 	andseq	r9, r4, r1, lsl #16
    352c:	0014c0f0 	ldrsheq	ip, [r4], -r0
    3530:	0f5d01f0 	svceq	0x005d01f0
    3534:	0018cf01 	andseq	ip, r8, r1, lsl #30
    3538:	01ba0100 	undefined instruction 0x01ba0100
    353c:	00000052 	andeq	r0, r0, r2, asr r0
    3540:	f00014c0 	undefined instruction 0xf00014c0
    3544:	f00014f0 	undefined instruction 0xf00014f0
    3548:	04515d01 	ldrbeq	r5, [r1], #-3329	; 0xd01
    354c:	9f100000 	svcls	0x00100000
    3550:	01000021 	tsteq	r0, r1, lsr #32
    3554:	00038aba 	undefined instruction 0x00038aba
    3558:	00072100 	andeq	r2, r7, r0, lsl #2
    355c:	13f61200 	mvnsne	r1, #0
    3560:	bc010000 	stclt	0, cr0, [r1], {0}
    3564:	00000052 	andeq	r0, r0, r2, asr r0
    3568:	4a011300 	bmi	48170 <__standby_start+0x48170>
    356c:	01000018 	tsteq	r0, r8, lsl r0
    3570:	14f001e1 	ldrbtne	r0, [r0], #481	; 0x1e1
    3574:	1544f000 	strbne	pc, [r4]
    3578:	0734f000 	ldreq	pc, [r4, -r0]!
    357c:	04820000 	streq	r0, [r2]
    3580:	6d140000 	ldcvs	0, cr0, [r4]
    3584:	e1010073 	tst	r1, r3, ror r0
    3588:	00000033 	andeq	r0, r0, r3, lsr r0
    358c:	00000753 	andeq	r0, r0, r3, asr r7
    3590:	0100690e 	tsteq	r0, lr, lsl #18
    3594:	000033e3 	andeq	r3, r0, r3, ror #7
    3598:	010d0000 	tsteq	sp, r0
    359c:	00001866 	andeq	r1, r0, r6, ror #16
    35a0:	52012501 	andpl	r2, r1, #4194304	; 0x400000
    35a4:	44000000 	strmi	r0, [r0]
    35a8:	ccf00015 	ldclgt	0, cr0, [r0], #84	; 0x54
    35ac:	71f00015 	mvnsvc	r0, r5, lsl r0
    35b0:	a9000007 	stmdbge	r0, {r0, r1, r2}
    35b4:	0e000004 	cdpeq	0, 0, cr0, cr0, cr4, {0}
    35b8:	27010069 	strcs	r0, [r1, -r9, rrx]
    35bc:	00000052 	andeq	r0, r0, r2, asr r0
    35c0:	18ec1500 	stmiane	ip!, {r8, sl, ip}^
    35c4:	13010000 	movwne	r0, #4096	; 0x1000
    35c8:	000004ba 	undefined instruction 0x000004ba
    35cc:	2ad00305 	bcs	ff4041e8 <__bss_end+0xf4015fc>
    35d0:	0416f000 	ldreq	pc, [r6]
    35d4:	0000037f 	andeq	r0, r0, pc, ror r3
    35d8:	00185c15 	andseq	r5, r8, r5, lsl ip
    35dc:	5d140100 	ldfpls	f0, [r4]
    35e0:	05000000 	streq	r0, [r0]
    35e4:	002aec03 	eoreq	lr, sl, r3, lsl #24
    35e8:	18f315f0 	ldmne	r3!, {r4, r5, r6, r7, r8, sl, ip}^
    35ec:	14010000 	strne	r0, [r1]
    35f0:	0000005d 	andeq	r0, r0, sp, asr r0
    35f4:	2adc0305 	bcs	ff704210 <__bss_end+0xf701624>
    35f8:	1015f000 	andsne	pc, r5, r0
    35fc:	01000017 	tsteq	r0, r7, lsl r0
    3600:	00005d14 	andeq	r5, r0, r4, lsl sp
    3604:	d4030500 	strle	r0, [r3], #-1280	; 0x500
    3608:	15f0002a 	ldrbne	r0, [r0, #42]!	; 0x2a
    360c:	0000173e 	andeq	r1, r0, lr, lsr r7
    3610:	005d1401 	subseq	r1, sp, r1, lsl #8
    3614:	03050000 	movweq	r0, #20480	; 0x5000
    3618:	f0002ad8 	undefined instruction 0xf0002ad8
    361c:	00173615 	andseq	r3, r7, r5, lsl r6
    3620:	5d140100 	ldfpls	f0, [r4]
    3624:	05000000 	streq	r0, [r0]
    3628:	002ae803 	eoreq	lr, sl, r3, lsl #16
    362c:	180e15f0 	stmdane	lr, {r4, r5, r6, r7, r8, sl, ip}
    3630:	14010000 	strne	r0, [r1]
    3634:	0000005d 	andeq	r0, r0, sp, asr r0
    3638:	2ae00305 	bcs	ff804254 <__bss_end+0xf801668>
    363c:	3f15f000 	svccc	0x0015f000
    3640:	01000018 	tsteq	r0, r8, lsl r0
    3644:	00005d14 	andeq	r5, r0, r4, lsl sp
    3648:	e4030500 	str	r0, [r3], #-1280	; 0x500
    364c:	00f0002a 	rscseq	r0, r0, sl, lsr #32
    3650:	000002bc 	undefined instruction 0x000002bc
    3654:	09390002 	ldmdbeq	r9!, {r1}
    3658:	01040000 	tsteq	r4, r0
    365c:	0000035d 	andeq	r0, r0, sp, asr r3
    3660:	0019a801 	andseq	sl, r9, r1, lsl #16
    3664:	00027400 	andeq	r7, r2, r0, lsl #8
    3668:	0015cc00 	andseq	ip, r5, r0, lsl #24
    366c:	001900f0 	ldrsheq	r0, [r9], -r0
    3670:	0007e1f0 	strdeq	lr, [r7], -r0
    3674:	07040200 	streq	r0, [r4, -r0, lsl #4]
    3678:	000001ff 	strdeq	r0, [r0], -pc
    367c:	90080102 	andls	r0, r8, r2, lsl #2
    3680:	03000001 	movweq	r0, #1
    3684:	6e690504 	cdpvs	5, 6, cr0, cr9, cr4, {0}
    3688:	04040074 	streq	r0, [r4], #-116	; 0x74
    368c:	06010207 	streq	r0, [r1], -r7, lsl #4
    3690:	00000192 	muleq	r0, r2, r1
    3694:	0002cd05 	andeq	ip, r2, r5, lsl #26
    3698:	2c160200 	lfmcs	f0, 4, [r6], {0}	; (ldccs 2, cr0, [r6], {0})
    369c:	02000000 	andeq	r0, r0, #0
    36a0:	01b40502 	undefined instruction 0x01b40502
    36a4:	02020000 	andeq	r0, r2, #0
    36a8:	00026107 	andeq	r6, r2, r7, lsl #2
    36ac:	0dc00500 	cfstr64eq	mvdx0, [r0]
    36b0:	19020000 	stmdbne	r2, {}
    36b4:	00000033 	andeq	r0, r0, r3, lsr r0
    36b8:	00013c05 	andeq	r3, r1, r5, lsl #24
    36bc:	251a0200 	ldrcs	r0, [sl, #-512]	; 0x200
    36c0:	02000000 	andeq	r0, r0, #0
    36c4:	01530508 	cmpeq	r3, r8, lsl #10
    36c8:	08020000 	stmdaeq	r2, {}
    36cc:	0001f507 	andeq	pc, r1, r7, lsl #10
    36d0:	19ea0600 	stmibne	sl!, {r9, sl}^
    36d4:	03240000 	teqeq	r4, #0
    36d8:	00010c1a 	andeq	r0, r1, sl, lsl ip
    36dc:	19f70700 	ldmibne	r7!, {r8, r9, sl}^
    36e0:	1b030000 	blne	c36e8 <__standby_start+0xc36e8>
    36e4:	0000010c 	andeq	r0, r0, ip, lsl #2
    36e8:	07002302 	streq	r2, [r0, -r2, lsl #6]
    36ec:	00001990 	muleq	r0, r0, r9
    36f0:	010c1c03 	tsteq	ip, r3, lsl #24
    36f4:	23020000 	movwcs	r0, #8192	; 0x2000
    36f8:	19690704 	stmdbne	r9!, {r2, r8, r9, sl}^
    36fc:	1d030000 	stcne	0, cr0, [r3]
    3700:	0000010c 	andeq	r0, r0, ip, lsl #2
    3704:	07082302 	streq	r2, [r8, -r2, lsl #6]
    3708:	000019d1 	ldrdeq	r1, [r0], -r1
    370c:	010c1e03 	tsteq	ip, r3, lsl #28
    3710:	23020000 	movwcs	r0, #8192	; 0x2000
    3714:	1a0a070c 	bne	28534c <__standby_start+0x28534c>
    3718:	1f030000 	svcne	0x00030000
    371c:	0000010c 	andeq	r0, r0, ip, lsl #2
    3720:	07102302 	ldreq	r2, [r0, -r2, lsl #6]
    3724:	00001960 	andeq	r1, r0, r0, ror #18
    3728:	010c2003 	tsteq	ip, r3
    372c:	23020000 	movwcs	r0, #8192	; 0x2000
    3730:	19290714 	stmdbne	r9!, {r2, r4, r8, r9, sl}
    3734:	21030000 	tstcs	r3, r0
    3738:	0000010c 	andeq	r0, r0, ip, lsl #2
    373c:	07182302 	ldreq	r2, [r8, -r2, lsl #6]
    3740:	0000190b 	andeq	r1, r0, fp, lsl #18
    3744:	010c2203 	tsteq	ip, r3, lsl #4
    3748:	23020000 	movwcs	r0, #8192	; 0x2000
    374c:	1a01071c 	bne	453c4 <__standby_start+0x453c4>
    3750:	23030000 	movwcs	r0, #12288	; 0x3000
    3754:	0000010c 	andeq	r0, r0, ip, lsl #2
    3758:	00202302 	eoreq	r2, r0, r2, lsl #6
    375c:	00002508 	andeq	r2, r0, r8, lsl #10
    3760:	19530500 	ldmdbne	r3, {r8, sl}^
    3764:	25030000 	strcs	r0, [r3]
    3768:	00000081 	andeq	r0, r0, r1, lsl #1
    376c:	00163c09 	andseq	r3, r6, r9, lsl #24
    3770:	29030400 	stmdbcs	r3, {sl}
    3774:	00000135 	andeq	r0, r0, r5, lsr r1
    3778:	00161f0a 	andseq	r1, r6, sl, lsl #30
    377c:	d90a0000 	stmdble	sl, {}
    3780:	01000015 	tsteq	r0, r5, lsl r0
    3784:	19330b00 	ldmdbne	r3!, {r8, r9, fp}
    3788:	64010000 	strvs	r0, [r1]
    378c:	00003301 	andeq	r3, r0, r1, lsl #6
    3790:	015d0100 	cmpeq	sp, r0, lsl #2
    3794:	200c0000 	andcs	r0, ip, r0
    3798:	01000019 	tsteq	r0, r9, lsl r0
    379c:	00002566 	andeq	r2, r0, r6, ror #10
    37a0:	19030c00 	stmdbne	r3, {sl, fp}
    37a4:	67010000 	strvs	r0, [r1, -r0]
    37a8:	00000025 	andeq	r0, r0, r5, lsr #32
    37ac:	d9010d00 	stmdble	r1, {r8, sl, fp}
    37b0:	01000019 	tsteq	r0, r9, lsl r0
    37b4:	005d012e 	subseq	r0, sp, lr, lsr #2
    37b8:	15cc0000 	strbne	r0, [ip]
    37bc:	161cf000 	ldrne	pc, [ip], -r0
    37c0:	5d01f000 	stcpl	0, cr15, [r1]
    37c4:	00000188 	andeq	r0, r0, r8, lsl #3
    37c8:	0019450e 	andseq	r4, r9, lr, lsl #10
    37cc:	332e0100 	teqcc	lr, #0
    37d0:	90000000 	andls	r0, r0, r0
    37d4:	00000007 	andeq	r0, r0, r7
    37d8:	19b6010f 	ldmibne	r6!, {r0, r1, r2, r3, r8}
    37dc:	96010000 	strls	r0, [r1], -r0
    37e0:	00005d01 	andeq	r5, r0, r1, lsl #26
    37e4:	00161c00 	andseq	r1, r6, r0, lsl #24
    37e8:	0018b8f0 	undefined instruction 0x0018b8f0
    37ec:	0007a3f0 	strdeq	sl, [r7], -r0
    37f0:	00024100 	andeq	r4, r2, r0, lsl #2
    37f4:	706f1000 	rsbvc	r1, pc, r0
    37f8:	1c960100 	ldfnes	f0, [r6], {0}
    37fc:	c2000001 	andgt	r0, r0, #1
    3800:	0e000007 	cdpeq	0, 0, cr0, cr0, cr7, {0}
    3804:	000019fb 	strdeq	r1, [r0], -fp
    3808:	00449601 	subeq	r9, r4, r1, lsl #12
    380c:	07eb0000 	strbeq	r0, [fp, r0]!
    3810:	c20e0000 	andgt	r0, lr, #0
    3814:	01000019 	tsteq	r0, r9, lsl r0
    3818:	00004496 	muleq	r0, r6, r4
    381c:	00080900 	andeq	r0, r8, r0, lsl #18
    3820:	16650e00 	strbtne	r0, [r5], -r0, lsl #28
    3824:	96010000 	strls	r0, [r1], -r0
    3828:	00000241 	andeq	r0, r0, r1, asr #4
    382c:	00000827 	andeq	r0, r0, r7, lsr #16
    3830:	001a150c 	andseq	r1, sl, ip, lsl #10
    3834:	2c980100 	ldfcss	f0, [r8], {0}
    3838:	11000000 	tstne	r0, r0
    383c:	00001903 	andeq	r1, r0, r3, lsl #18
    3840:	00259901 	eoreq	r9, r5, r1, lsl #18
    3844:	08500000 	ldmdaeq	r0, {}^
    3848:	72120000 	andsvc	r0, r2, #0
    384c:	01007465 	tsteq	r0, r5, ror #8
    3850:	0000339a 	muleq	r0, sl, r3
    3854:	0008bb00 	andeq	fp, r8, r0, lsl #22
    3858:	19c81300 	stmibne	r8, {r8, r9, ip}^
    385c:	17010000 	strne	r0, [r1, -r0]
    3860:	00183401 	andseq	r3, r8, r1, lsl #8
    3864:	013514f0 	undefined instruction 0x013514f0
    3868:	18380000 	ldmdane	r8!, {}
    386c:	18b0f000 	ldmne	r0!, {ip, sp, lr, pc}
    3870:	1a01f000 	bne	7f878 <__standby_start+0x7f878>
    3874:	18381501 	ldmdane	r8!, {r0, r8, sl, ip}
    3878:	18b0f000 	ldmne	r0!, {ip, sp, lr, pc}
    387c:	4616f000 	ldrmi	pc, [r6], -r0
    3880:	ce000001 	cdpgt	0, 0, cr0, cr0, cr1, {0}
    3884:	17000008 	strne	r0, [r0, -r8]
    3888:	00000151 	andeq	r0, r0, r1, asr r1
    388c:	00005301 	andeq	r5, r0, r1, lsl #6
    3890:	44041800 	strmi	r1, [r4], #-2048	; 0x800
    3894:	19000000 	stmdbne	r0, {}
    3898:	00197f01 	andseq	r7, r9, r1, lsl #30
    389c:	01490100 	cmpeq	r9, r0, lsl #2
    38a0:	0000005d 	andeq	r0, r0, sp, asr r0
    38a4:	f00018b8 	undefined instruction 0xf00018b8
    38a8:	f0001900 	undefined instruction 0xf0001900
    38ac:	000008e1 	andeq	r0, r0, r1, ror #17
    38b0:	0002701a 	andeq	r7, r2, sl, lsl r0
    38b4:	00027000 	andeq	r7, r2, r0
    38b8:	003a1b00 	eorseq	r1, sl, r0, lsl #22
    38bc:	00020000 	andeq	r0, r2, r0
    38c0:	01110418 	tsteq	r1, r8, lsl r4
    38c4:	721c0000 	andsvc	r0, ip, #0
    38c8:	01000019 	tsteq	r0, r9, lsl r0
    38cc:	00028716 	andeq	r8, r2, r6, lsl r7
    38d0:	e0030500 	and	r0, r3, r0, lsl #10
    38d4:	1df00028 	ldclne	0, cr0, [r0, #160]!	; 0xa0
    38d8:	00000260 	andeq	r0, r0, r0, ror #4
    38dc:	00199b1c 	andseq	r9, r9, ip, lsl fp
    38e0:	681c0100 	ldmdavs	ip, {r8}
    38e4:	05000000 	streq	r0, [r0]
    38e8:	002af403 	eoreq	pc, sl, r3, lsl #8
    38ec:	19131cf0 	ldmdbne	r3, {r4, r5, r6, r7, sl, fp, ip}
    38f0:	1d010000 	stcne	0, cr0, [r1]
    38f4:	00000068 	andeq	r0, r0, r8, rrx
    38f8:	2af80305 	bcs	ffe04514 <__bss_end+0xfe01928>
    38fc:	4b1cf000 	blmi	73f904 <__standby_start+0x73f904>
    3900:	01000019 	tsteq	r0, r9, lsl r0
    3904:	0002701e 	andeq	r7, r2, lr, lsl r0
    3908:	f0030500 	undefined instruction 0xf0030500
    390c:	00f0002a 	rscseq	r0, r0, sl, lsr #32
    3910:	000000e3 	andeq	r0, r0, r3, ror #1
    3914:	0ac30002 	beq	ff0c3924 <__bss_end+0xf0c0d38>
    3918:	01040000 	tsteq	r4, r0
    391c:	0000035d 	andeq	r0, r0, sp, asr r3
    3920:	001a1f01 	andseq	r1, sl, r1, lsl #30
    3924:	00027400 	andeq	r7, r2, r0, lsl #8
    3928:	00190000 	andseq	r0, r9, r0
    392c:	001920f0 	ldrsheq	r2, [r9], -r0
    3930:	0008a6f0 	strdeq	sl, [r8], -r0
    3934:	07040200 	streq	r0, [r4, -r0, lsl #4]
    3938:	000001ff 	strdeq	r0, [r0], -pc
    393c:	90080102 	andls	r0, r8, r2, lsl #2
    3940:	03000001 	movweq	r0, #1
    3944:	6e690504 	cdpvs	5, 6, cr0, cr9, cr4, {0}
    3948:	04040074 	streq	r0, [r4], #-116	; 0x74
    394c:	06010207 	streq	r0, [r1], -r7, lsl #4
    3950:	00000192 	muleq	r0, r2, r1
    3954:	b4050202 	strlt	r0, [r5], #-514	; 0x202
    3958:	02000001 	andeq	r0, r0, #1
    395c:	02610702 	rsbeq	r0, r1, #524288	; 0x80000
    3960:	c0050000 	andgt	r0, r5, r0
    3964:	0200000d 	andeq	r0, r0, #13
    3968:	00003319 	andeq	r3, r0, r9, lsl r3
    396c:	013c0500 	teqeq	ip, r0, lsl #10
    3970:	1a020000 	bne	83978 <__standby_start+0x83978>
    3974:	00000025 	andeq	r0, r0, r5, lsr #32
    3978:	53050802 	movwpl	r0, #22530	; 0x5802
    397c:	02000001 	andeq	r0, r0, #1
    3980:	01f50708 	mvnseq	r0, r8, lsl #14
    3984:	01060000 	tsteq	r6, r0
    3988:	00001a73 	andeq	r1, r0, r3, ror sl
    398c:	52012601 	andpl	r2, r1, #1048576	; 0x100000
    3990:	00000000 	andeq	r0, r0, r0
    3994:	08f00019 	ldmeq	r0!, {r0, r3, r4}^
    3998:	01f00019 	mvnseq	r0, r9, lsl r0
    399c:	2d01065d 	stccs	6, cr0, [r1, #-372]	; 0xfffffe8c
    39a0:	0100001a 	tsteq	r0, sl, lsl r0
    39a4:	00520137 	subseq	r0, r2, r7, lsr r1
    39a8:	19080000 	stmdbne	r8, {}
    39ac:	1910f000 	ldmdbne	r0, {ip, sp, lr, pc}
    39b0:	5d01f000 	stcpl	0, cr15, [r1]
    39b4:	1a3e0107 	bne	f83dd8 <__standby_start+0xf83dd8>
    39b8:	4b010000 	blmi	439c0 <__standby_start+0x439c0>
    39bc:	00005201 	andeq	r5, r0, r1, lsl #4
    39c0:	00191000 	andseq	r1, r9, r0
    39c4:	001918f0 	undefined instruction 0x001918f0
    39c8:	cf5d01f0 	svcgt	0x005d01f0
    39cc:	08000000 	stmdaeq	r0, {}
    39d0:	00000146 	andeq	r0, r0, r6, asr #2
    39d4:	005d4b01 	subseq	r4, sp, r1, lsl #22
    39d8:	09000000 	stmdbeq	r0, {}
    39dc:	06000000 	streq	r0, [r0], -r0
    39e0:	001a5b01 	andseq	r5, sl, r1, lsl #22
    39e4:	015e0100 	cmpeq	lr, r0, lsl #2
    39e8:	00000052 	andeq	r0, r0, r2, asr r0
    39ec:	f0001918 	undefined instruction 0xf0001918
    39f0:	f0001920 	undefined instruction 0xf0001920
    39f4:	6d005d01 	stcvs	13, cr5, [r0, #-4]
    39f8:	02000000 	andeq	r0, r0, #0
    39fc:	000b4200 	andeq	r4, fp, r0, lsl #4
    3a00:	fc010400 	stc2	4, cr0, [r1], {0}
    3a04:	20000008 	andcs	r0, r0, r8
    3a08:	54f00019 	ldrbtpl	r0, [r0], #25
    3a0c:	73f00019 	mvnsvc	r0, #25
    3a10:	646e6174 	strbtvs	r6, [lr], #-372	; 0x174
    3a14:	645f7962 	ldrbvs	r7, [pc], #2402	; 3a1c <__standby_start+0x3a1c>
    3a18:	79616c65 	stmdbvc	r1!, {r0, r2, r5, r6, sl, fp, sp, lr}^
    3a1c:	2f00532e 	svccs	0x0000532e
    3a20:	656d6f68 	strbvs	r6, [sp, #-3944]!	; 0xf68
    3a24:	6b696d2f 	blvs	1a5eee8 <__standby_start+0x1a5eee8>
    3a28:	6f772f65 	svcvs	0x00772f65
    3a2c:	6c2f6b72 	stcvs	11, cr6, [pc], #-456	; 0xfffffe38
    3a30:	78756e69 	ldmdavc	r5!, {r0, r3, r5, r6, r9, sl, fp, sp, lr}^
    3a34:	3432365f 	ldrtcc	r3, [r2], #-1631	; 0x65f
    3a38:	6372612f 	cmnvs	r2, #-1073741813	; 0xc000000b
    3a3c:	72612f68 	rsbvc	r2, r1, #416	; 0x1a0
    3a40:	616d2f6d 	cmnvs	sp, sp, ror #30
    3a44:	732d6863 	teqvc	sp, #6488064	; 0x630000
    3a48:	69356e75 	ldmdbvs	r5!, {r0, r2, r4, r5, r6, r9, sl, fp, sp, lr}
    3a4c:	2f6d702f 	svccs	0x006d702f
    3a50:	6e617473 	mcrvs	4, 3, r7, cr1, cr3, {3}
    3a54:	00796264 	rsbseq	r6, r9, r4, ror #4
    3a58:	20554e47 	subscs	r4, r5, r7, asr #28
    3a5c:	32205341 	eorcc	r5, r0, #67108865	; 0x4000001
    3a60:	2e30322e 	cdpcs	2, 3, cr3, cr0, cr14, {1}
    3a64:	80010031 	andhi	r0, r1, r1, lsr r0
    3a68:	000005c0 	andeq	r0, r0, r0, asr #11
    3a6c:	0b560002 	bleq	1583a7c <__standby_start+0x1583a7c>
    3a70:	01040000 	tsteq	r4, r0
    3a74:	0000035d 	andeq	r0, r0, sp, asr r3
    3a78:	001a8d01 	andseq	r8, sl, r1, lsl #26
    3a7c:	00027400 	andeq	r7, r2, r0, lsl #8
    3a80:	00195400 	andseq	r5, r9, r0, lsl #8
    3a84:	001cd8f0 	undefined instruction 0x001cd8f0
    3a88:	000945f0 	strdeq	r4, [r9], -r0
    3a8c:	06010200 	streq	r0, [r1], -r0, lsl #4
    3a90:	00000192 	muleq	r0, r2, r1
    3a94:	90080102 	andls	r0, r8, r2, lsl #2
    3a98:	02000001 	andeq	r0, r0, #1
    3a9c:	01b40502 	undefined instruction 0x01b40502
    3aa0:	02020000 	andeq	r0, r2, #0
    3aa4:	00026107 	andeq	r6, r2, r7, lsl #2
    3aa8:	0dc00300 	stcleq	3, cr0, [r0]
    3aac:	12030000 	andne	r0, r3, #0
    3ab0:	0000004c 	andeq	r0, r0, ip, asr #32
    3ab4:	69050404 	stmdbvs	r5, {r2, sl}
    3ab8:	0300746e 	movweq	r7, #1134	; 0x46e
    3abc:	0000013c 	andeq	r0, r0, ip, lsr r1
    3ac0:	005e1303 	subseq	r1, lr, r3, lsl #6
    3ac4:	04020000 	streq	r0, [r2]
    3ac8:	0001ff07 	andeq	pc, r1, r7, lsl #30
    3acc:	05080200 	streq	r0, [r8, #-512]	; 0x200
    3ad0:	00000153 	andeq	r0, r0, r3, asr r1
    3ad4:	f5070802 	undefined instruction 0xf5070802
    3ad8:	05000001 	streq	r0, [r0, #-1]
    3adc:	01060704 	tsteq	r6, r4, lsl #14
    3ae0:	00001c14 	andeq	r1, r0, r4, lsl ip
    3ae4:	53015401 	movwpl	r5, #5121	; 0x1401
    3ae8:	01000000 	tsteq	r0, r0
    3aec:	00000094 	muleq	r0, r4, r0
    3af0:	00218607 	eoreq	r8, r1, r7, lsl #12
    3af4:	53560100 	cmppl	r6, #0
    3af8:	00000000 	andeq	r0, r0, r0
    3afc:	0016a108 	andseq	sl, r6, r8, lsl #2
    3b00:	01480200 	cmpeq	r8, r0, lsl #4
    3b04:	00000053 	andeq	r0, r0, r3, asr r0
    3b08:	0000dd03 	andeq	sp, r0, r3, lsl #26
    3b0c:	16720900 	ldrbtne	r0, [r2], -r0, lsl #18
    3b10:	48020000 	stmdami	r2, {}
    3b14:	00000053 	andeq	r0, r0, r3, asr r0
    3b18:	00159009 	andseq	r9, r5, r9
    3b1c:	53480200 	movtpl	r0, #33280	; 0x8200
    3b20:	07000000 	streq	r0, [r0, -r0]
    3b24:	000015bd 	undefined instruction 0x000015bd
    3b28:	00534a02 	subseq	r4, r3, r2, lsl #20
    3b2c:	34070000 	strcc	r0, [r7]
    3b30:	02000016 	andeq	r0, r0, #22
    3b34:	0000534b 	andeq	r5, r0, fp, asr #6
    3b38:	16050700 	strne	r0, [r5], -r0, lsl #14
    3b3c:	4c020000 	stcmi	0, cr0, [r2], {0}
    3b40:	00000041 	andeq	r0, r0, r1, asr #32
    3b44:	a2010a00 	andge	r0, r1, #0
    3b48:	0100001b 	tsteq	r0, fp, lsl r0
    3b4c:	19540112 	ldmdbne	r4, {r1, r4, r8}^
    3b50:	1974f000 	ldmdbne	r4!, {ip, sp, lr, pc}^
    3b54:	0913f000 	ldmdbeq	r3, {ip, sp, lr, pc}
    3b58:	01060000 	tsteq	r6, r0
    3b5c:	ee0b0000 	cdp	0, 0, cr0, cr11, cr0, {0}
    3b60:	0100001a 	tsteq	r0, sl, lsl r0
    3b64:	00010615 	andeq	r0, r1, r5, lsl r6
    3b68:	00093200 	andeq	r3, r9, r0, lsl #4
    3b6c:	530c0000 	movwpl	r0, #49152	; 0xc000
    3b70:	0a000000 	beq	3b78 <__standby_start+0x3b78>
    3b74:	001b9d01 	andseq	r9, fp, r1, lsl #26
    3b78:	011c0100 	tsteq	ip, r0, lsl #2
    3b7c:	f0001974 	undefined instruction 0xf0001974
    3b80:	f0001994 	undefined instruction 0xf0001994
    3b84:	00000952 	andeq	r0, r0, r2, asr r9
    3b88:	00000134 	andeq	r0, r0, r4, lsr r1
    3b8c:	001aee0b 	andseq	lr, sl, fp, lsl #28
    3b90:	061f0100 	ldreq	r0, [pc], -r0, lsl #2
    3b94:	71000001 	tstvc	r0, r1
    3b98:	00000009 	andeq	r0, r0, r9
    3b9c:	1b64010d 	blne	1903fd8 <__standby_start+0x1903fd8>
    3ba0:	2a010000 	bcs	43ba8 <__standby_start+0x43ba8>
    3ba4:	00199401 	andseq	r9, r9, r1, lsl #8
    3ba8:	0019acf0 	undefined instruction 0x0019acf0
    3bac:	595d01f0 	ldmdbpl	sp, {r4, r5, r6, r7, r8}^
    3bb0:	0e000001 	cdpeq	0, 0, cr0, cr0, cr1, {0}
    3bb4:	00001c62 	andeq	r1, r0, r2, ror #24
    3bb8:	00532c01 	subseq	r2, r3, r1, lsl #24
    3bbc:	52010000 	andpl	r0, r1, #0
    3bc0:	6d010a00 	vstrvs	s0, [r1]
    3bc4:	0100001c 	tsteq	r0, ip, lsl r0
    3bc8:	19ac0133 	stmibne	ip!, {r0, r1, r4, r5, r8}
    3bcc:	19bcf000 	ldmibne	ip!, {ip, sp, lr, pc}
    3bd0:	0991f000 	ldmibeq	r1, {ip, sp, lr, pc}
    3bd4:	01800000 	orreq	r0, r0, r0
    3bd8:	760f0000 	strvc	r0, [pc], -r0
    3bdc:	01006c61 	tsteq	r0, r1, ror #24
    3be0:	00010633 	andeq	r0, r1, r3, lsr r6
    3be4:	00500100 	subseq	r0, r0, r0, lsl #2
    3be8:	1be90110 	blne	ffa44030 <__bss_end+0xfa41444>
    3bec:	39010000 	stmdbcc	r1, {}
    3bf0:	00005301 	andeq	r5, r0, r1, lsl #6
    3bf4:	0019bc00 	andseq	fp, r9, r0, lsl #24
    3bf8:	0019ccf0 	undefined instruction 0x0019ccf0
    3bfc:	0a5d01f0 	beq	17443c4 <__standby_start+0x17443c4>
    3c00:	001b2701 	andseq	r2, fp, r1, lsl #14
    3c04:	013e0100 	teqeq	lr, r0, lsl #2
    3c08:	f00019cc 	undefined instruction 0xf00019cc
    3c0c:	f00019dc 	undefined instruction 0xf00019dc
    3c10:	000009b0 	undefined instruction 0x000009b0
    3c14:	000001be 	undefined instruction 0x000001be
    3c18:	6c61760f 	stclvs	6, cr7, [r1], #-60	; 0xffffffc4
    3c1c:	063e0100 	ldrteq	r0, [lr], -r0, lsl #2
    3c20:	01000001 	tsteq	r0, r1
    3c24:	01110050 	tsteq	r1, r0, asr r0
    3c28:	00001a9d 	muleq	r0, sp, sl
    3c2c:	53014401 	movwpl	r4, #5121	; 0x1401
    3c30:	dc000000 	stcle	0, cr0, [r0], {0}
    3c34:	00f00019 	rscseq	r0, r0, r9, lsl r0
    3c38:	cff0001a 	svcgt	0x00f0001a
    3c3c:	fa000009 	blx	3c68 <__standby_start+0x3c68>
    3c40:	12000001 	andne	r0, r0, #1
    3c44:	006c6176 	rsbeq	r6, ip, r6, ror r1
    3c48:	01064401 	tsteq	r6, r1, lsl #8
    3c4c:	09ee0000 	stmibeq	lr!, {}^
    3c50:	74130000 	ldrvc	r0, [r3]
    3c54:	0100706d 	tsteq	r0, sp, rrx
    3c58:	00005346 	andeq	r5, r0, r6, asr #6
    3c5c:	000a0d00 	andeq	r0, sl, r0, lsl #26
    3c60:	01110000 	tsteq	r1, r0
    3c64:	00001bf8 	strdeq	r1, [r0], -r8
    3c68:	53014c01 	movwpl	r4, #7169	; 0x1c01
    3c6c:	00000000 	andeq	r0, r0, r0
    3c70:	24f0001a 	ldrbtcs	r0, [r0], #26
    3c74:	20f0001a 	rscscs	r0, r0, sl, lsl r0
    3c78:	3600000a 	strcc	r0, [r0], -sl
    3c7c:	12000002 	andne	r0, r0, #2
    3c80:	006c6176 	rsbeq	r6, ip, r6, ror r1
    3c84:	01064c01 	tsteq	r6, r1, lsl #24
    3c88:	0a3f0000 	beq	fc3c90 <__standby_start+0xfc3c90>
    3c8c:	74130000 	ldrvc	r0, [r3]
    3c90:	0100706d 	tsteq	r0, sp, rrx
    3c94:	0000534e 	andeq	r5, r0, lr, asr #6
    3c98:	000a5e00 	andeq	r5, sl, r0, lsl #28
    3c9c:	76140000 	ldrvc	r0, [r4], -r0
    3ca0:	24000000 	strcs	r0, [r0]
    3ca4:	2cf0001a 	ldclcs	0, cr0, [r0], #104	; 0x68
    3ca8:	01f0001a 	mvnseq	r0, sl, lsl r0
    3cac:	0002535d 	andeq	r5, r2, sp, asr r3
    3cb0:	00881500 	addeq	r1, r8, r0, lsl #10
    3cb4:	0a710000 	beq	1c43cbc <__standby_start+0x1c43cbc>
    3cb8:	16000000 	strne	r0, [r0], -r0
    3cbc:	001b7a01 	andseq	r7, fp, r1, lsl #20
    3cc0:	015c0100 	cmpeq	ip, r0, lsl #2
    3cc4:	f0001a2c 	undefined instruction 0xf0001a2c
    3cc8:	f0001a48 	undefined instruction 0xf0001a48
    3ccc:	010d5d01 	tsteq	sp, r1, lsl #26
    3cd0:	00001c2c 	andeq	r1, r0, ip, lsr #24
    3cd4:	48016601 	stmdami	r1, {r0, r9, sl, sp, lr}
    3cd8:	74f0001a 	ldrbtvc	r0, [r0], #26
    3cdc:	01f0001a 	mvnseq	r0, sl, lsl r0
    3ce0:	0002a95d 	andeq	sl, r2, sp, asr r9
    3ce4:	1b941700 	blne	fe5098ec <__bss_end+0xe506d00>
    3ce8:	66010000 	strvs	r0, [r1], -r0
    3cec:	00000053 	andeq	r0, r0, r3, asr r0
    3cf0:	00000a84 	andeq	r0, r0, r4, lsl #21
    3cf4:	001b0a18 	andseq	r0, fp, r8, lsl sl
    3cf8:	53660100 	cmnpl	r6, #0
    3cfc:	01000000 	tsteq	r0, r0
    3d00:	21860b51 	orrcs	r0, r6, r1, asr fp
    3d04:	69010000 	stmdbvs	r1, {}
    3d08:	00000053 	andeq	r0, r0, r3, asr r0
    3d0c:	00000a97 	muleq	r0, r7, sl
    3d10:	da011600 	ble	49518 <__standby_start+0x49518>
    3d14:	0100001a 	tsteq	r0, sl, lsl r0
    3d18:	1a740184 	bne	1d04330 <__standby_start+0x1d04330>
    3d1c:	1a94f000 	bne	fe53fd24 <__bss_end+0xe53d138>
    3d20:	5d01f000 	stcpl	0, cr15, [r1]
    3d24:	1b19010d 	blne	644160 <__standby_start+0x644160>
    3d28:	8f010000 	svchi	0x00010000
    3d2c:	001a9401 	andseq	r9, sl, r1, lsl #8
    3d30:	001aa8f0 	undefined instruction 0x001aa8f0
    3d34:	df5d01f0 	svcle	0x005d01f0
    3d38:	07000002 	streq	r0, [r0, -r2]
    3d3c:	00002186 	andeq	r2, r0, r6, lsl #3
    3d40:	00539101 	subseq	r9, r3, r1, lsl #2
    3d44:	0a000000 	beq	3d4c <__standby_start+0x3d4c>
    3d48:	001ac701 	andseq	ip, sl, r1, lsl #14
    3d4c:	019a0100 	orrseq	r0, sl, r0, lsl #2
    3d50:	f0001aa8 	undefined instruction 0xf0001aa8
    3d54:	f0001bcc 	undefined instruction 0xf0001bcc
    3d58:	00000aaa 	andeq	r0, r0, sl, lsr #21
    3d5c:	000003e6 	andeq	r0, r0, r6, ror #7
    3d60:	001bd817 	andseq	sp, fp, r7, lsl r8
    3d64:	539a0100 	orrspl	r0, sl, #0
    3d68:	c9000000 	stmdbgt	r0, {}
    3d6c:	0700000a 	streq	r0, [r0, -sl]
    3d70:	00001c50 	andeq	r1, r0, r0, asr ip
    3d74:	00539c01 	subseq	r9, r3, r1, lsl #24
    3d78:	3e070000 	cdpcc	0, 0, cr0, cr7, cr0, {0}
    3d7c:	0100001c 	tsteq	r0, ip, lsl r0
    3d80:	0000539d 	muleq	r0, sp, r3
    3d84:	1c470700 	mcrrne	7, 0, r0, r7, cr0
    3d88:	9e010000 	cdpls	0, 0, cr0, cr1, cr0, {0}
    3d8c:	00000053 	andeq	r0, r0, r3, asr r0
    3d90:	001c5907 	andseq	r5, ip, r7, lsl #18
    3d94:	539f0100 	orrspl	r0, pc, #0
    3d98:	0b000000 	bleq	3da0 <__standby_start+0x3da0>
    3d9c:	000001a4 	andeq	r0, r0, r4, lsr #3
    3da0:	0053a001 	subseq	sl, r3, r1
    3da4:	0ae70000 	beq	ff9c3dac <__bss_end+0xf9c11c0>
    3da8:	720b0000 	andvc	r0, fp, #0
    3dac:	0100001b 	tsteq	r0, fp, lsl r0
    3db0:	000053a1 	andeq	r5, r0, r1, lsr #7
    3db4:	000afa00 	andeq	pc, sl, r0, lsl #20
    3db8:	164a0b00 	strbne	r0, [sl], -r0, lsl #22
    3dbc:	a2010000 	andge	r0, r1, #0
    3dc0:	00000106 	andeq	r0, r0, r6, lsl #2
    3dc4:	00000b18 	andeq	r0, r0, r8, lsl fp
    3dc8:	00007619 	andeq	r7, r0, r9, lsl r6
    3dcc:	001ac400 	andseq	ip, sl, r0, lsl #8
    3dd0:	001ac8f0 	undefined instruction 0x001ac8f0
    3dd4:	83ac01f0 	undefined instruction 0x83ac01f0
    3dd8:	1a000003 	bne	3dec <__standby_start+0x3dec>
    3ddc:	f0001ac4 	undefined instruction 0xf0001ac4
    3de0:	f0001ac8 	undefined instruction 0xf0001ac8
    3de4:	0000881b 	andeq	r8, r0, fp, lsl r8
    3de8:	19000000 	stmdbne	r0, {}
    3dec:	00000076 	andeq	r0, r0, r6, ror r0
    3df0:	f0001ac8 	undefined instruction 0xf0001ac8
    3df4:	f0001acc 	undefined instruction 0xf0001acc
    3df8:	03aaad01 	undefined instruction 0x03aaad01
    3dfc:	c81a0000 	ldmdagt	sl, {}
    3e00:	ccf0001a 	ldclgt	0, cr0, [r0], #104	; 0x68
    3e04:	15f0001a 	ldrbne	r0, [r0, #26]!
    3e08:	00000088 	andeq	r0, r0, r8, lsl #1
    3e0c:	00000b72 	andeq	r0, r0, r2, ror fp
    3e10:	941c0000 	ldrls	r0, [ip]
    3e14:	58000000 	stmdapl	r0, {}
    3e18:	f8f0001b 	undefined instruction 0xf8f0001b
    3e1c:	01000000 	tsteq	r0, r0
    3e20:	00b01dc5 	adcseq	r1, r0, r5, asr #27
    3e24:	a51e0000 	ldrge	r0, [lr]
    3e28:	01000000 	tsteq	r0, r0
    3e2c:	01101f50 	tsteq	r0, r0, asr pc
    3e30:	bb200000 	bllt	803e38 <__standby_start+0x803e38>
    3e34:	01000000 	tsteq	r0, r0
    3e38:	00c61552 	sbceq	r1, r6, r2, asr r5
    3e3c:	0b900000 	bleq	fe403e44 <__bss_end+0xe401258>
    3e40:	d1150000 	tstle	r5, r0
    3e44:	b9000000 	stmdblt	r0, {}
    3e48:	0000000b 	andeq	r0, r0, fp
    3e4c:	010a0000 	tsteq	sl, r0
    3e50:	00001af8 	strdeq	r1, [r0], -r8
    3e54:	cc01cf01 	stcgt	15, cr12, [r1], {1}
    3e58:	50f0001b 	rscspl	r0, r0, fp, lsl r0
    3e5c:	ccf0001c 	ldclgt	0, cr0, [r0], #112	; 0x70
    3e60:	ba00000b 	blt	3e94 <__standby_start+0x3e94>
    3e64:	0f000004 	svceq	0x00000004
    3e68:	01007375 	tsteq	r0, r5, ror r3
    3e6c:	000053cf 	andeq	r5, r0, pc, asr #7
    3e70:	07500100 	ldrbeq	r0, [r0, -r0, lsl #2]
    3e74:	00001b8d 	andeq	r1, r0, sp, lsl #23
    3e78:	0053d101 	subseq	sp, r3, r1, lsl #2
    3e7c:	63130000 	tstvs	r3, #0
    3e80:	01007275 	tsteq	r0, r5, ror r2
    3e84:	000053d2 	ldrdeq	r5, [r0], -r2
    3e88:	000beb00 	andeq	lr, fp, r0, lsl #22
    3e8c:	1ab30e00 	bne	fecc7694 <__bss_end+0xecc4aa8>
    3e90:	d3010000 	movwle	r0, #4096	; 0x1000
    3e94:	00000053 	andeq	r0, r0, r3, asr r0
    3e98:	94195101 	ldrls	r5, [r9], #-257	; 0x101
    3e9c:	e8000000 	stmda	r0, {}
    3ea0:	1cf0001b 	ldclne	0, cr0, [r0], #108	; 0x6c
    3ea4:	01f0001c 	mvnseq	r0, ip, lsl r0
    3ea8:	000477d8 	ldrdeq	r7, [r4], -r8
    3eac:	00b01d00 	adcseq	r1, r0, r0, lsl #26
    3eb0:	a51e0000 	ldrge	r0, [lr]
    3eb4:	01000000 	tsteq	r0, r0
    3eb8:	1be81a5c 	blne	ffa0a830 <__bss_end+0xfa07c44>
    3ebc:	1c1cf000 	ldcne	0, cr15, [ip], {0}
    3ec0:	bb15f000 	bllt	57fec8 <__standby_start+0x57fec8>
    3ec4:	09000000 	stmdbeq	r0, {}
    3ec8:	1500000c 	strne	r0, [r0, #-12]
    3ecc:	000000c6 	andeq	r0, r0, r6, asr #1
    3ed0:	00000c1c 	andeq	r0, r0, ip, lsl ip
    3ed4:	0000d115 	andeq	sp, r0, r5, lsl r1
    3ed8:	000c5000 	andeq	r5, ip, r0
    3edc:	19000000 	stmdbne	r0, {}
    3ee0:	00000076 	andeq	r0, r0, r6, ror r0
    3ee4:	f0001c1c 	undefined instruction 0xf0001c1c
    3ee8:	f0001c20 	undefined instruction 0xf0001c20
    3eec:	049ade01 	ldreq	sp, [sl], #3585	; 0xe01
    3ef0:	1c1a0000 	ldcne	0, cr0, [sl], {0}
    3ef4:	20f0001c 	rscscs	r0, r0, ip, lsl r0
    3ef8:	1bf0001c 	blne	ffc03f70 <__bss_end+0xfc01384>
    3efc:	00000088 	andeq	r0, r0, r8, lsl #1
    3f00:	76210000 	strtvc	r0, [r1], -r0
    3f04:	38000000 	stmdacc	r0, {}
    3f08:	3cf0001c 	ldclcc	0, cr0, [r0], #112	; 0x70
    3f0c:	01f0001c 	mvnseq	r0, ip, lsl r0
    3f10:	1c381ae3 	ldcne	10, cr1, [r8], #-908	; 0xfffffc74
    3f14:	1c3cf000 	ldcne	0, cr15, [ip]
    3f18:	881bf000 	ldmdahi	fp, {ip, sp, lr, pc}
    3f1c:	00000000 	andeq	r0, r0, r0
    3f20:	01220000 	teqeq	r2, r0
    3f24:	00001a84 	andeq	r1, r0, r4, lsl #21
    3f28:	01010601 	tsteq	r1, r1, lsl #12
    3f2c:	f0001c50 	undefined instruction 0xf0001c50
    3f30:	f0001c5c 	undefined instruction 0xf0001c5c
    3f34:	04e25d01 	strbteq	r5, [r2], #3329	; 0xd01
    3f38:	6d230000 	stcvs	0, cr0, [r3]
    3f3c:	06010073 	undefined instruction 0x06010073
    3f40:	00005301 	andeq	r5, r0, r1, lsl #6
    3f44:	000c6300 	andeq	r6, ip, r0, lsl #6
    3f48:	01240000 	teqeq	r4, r0
    3f4c:	00001be1 	andeq	r1, r0, r1, ror #23
    3f50:	01011001 	tsteq	r1, r1
    3f54:	f0001c5c 	undefined instruction 0xf0001c5c
    3f58:	f0001c74 	undefined instruction 0xf0001c74
    3f5c:	01225d01 	teqeq	r2, r1, lsl #26
    3f60:	00001aba 	undefined instruction 0x00001aba
    3f64:	01011801 	tsteq	r1, r1, lsl #16
    3f68:	f0001c74 	undefined instruction 0xf0001c74
    3f6c:	f0001c8c 	undefined instruction 0xf0001c8c
    3f70:	051d5d01 	ldreq	r5, [sp, #-3329]	; 0xd01
    3f74:	65250000 	strvs	r0, [r5]!
    3f78:	01000016 	tsteq	r0, r6, lsl r0
    3f7c:	0053011a 	subseq	r0, r3, sl, lsl r1
    3f80:	52010000 	andpl	r0, r1, #0
    3f84:	cc012200 	sfmgt	f2, 4, [r1], {0}	; (stcgt 2, cr2, [r1], {0})
    3f88:	0100001b 	tsteq	r0, fp, lsl r0
    3f8c:	8c010124 	stfhis	f0, [r1], {36}	; 0x24
    3f90:	a4f0001c 	ldrbtge	r0, [r0], #28
    3f94:	01f0001c 	mvnseq	r0, ip, lsl r0
    3f98:	0005445d 	andeq	r4, r5, sp, asr r4
    3f9c:	16652500 	strbtne	r2, [r5], -r0, lsl #10
    3fa0:	26010000 	strcs	r0, [r1], -r0
    3fa4:	00005301 	andeq	r5, r0, r1, lsl #6
    3fa8:	00520100 	subseq	r0, r2, r0, lsl #2
    3fac:	1b3d0126 	blne	f4444c <__standby_start+0xf4444c>
    3fb0:	33010000 	movwcc	r0, #4096	; 0x1000
    3fb4:	1ca40101 	stfnes	f0, [r4], #4
    3fb8:	1cd8f000 	ldclne	0, cr15, [r8], {0}
    3fbc:	0c76f000 	ldcleq	0, cr15, [r6]
    3fc0:	057f0000 	ldrbeq	r0, [pc, #0]!	; 3fc8 <__standby_start+0x3fc8>
    3fc4:	6e230000 	cdpvs	0, 2, cr0, cr3, cr0, {0}
    3fc8:	01006d75 	tsteq	r0, r5, ror sp
    3fcc:	004c0133 	subeq	r0, ip, r3, lsr r1
    3fd0:	0c950000 	ldceq	0, cr0, [r5], {0}
    3fd4:	65270000 	strvs	r0, [r7]!
    3fd8:	01000016 	tsteq	r0, r6, lsl r0
    3fdc:	00530135 	subseq	r0, r3, r5, lsr r1
    3fe0:	0ca80000 	stceq	0, cr0, [r8]
    3fe4:	0e000000 	cdpeq	0, 0, cr0, cr0, cr0, {0}
    3fe8:	00001c23 	andeq	r1, r0, r3, lsr #24
    3fec:	00530401 	subseq	r0, r3, r1, lsl #8
    3ff0:	03050000 	movweq	r0, #20480	; 0x5000
    3ff4:	f0002b08 	undefined instruction 0xf0002b08
    3ff8:	001b010e 	andseq	r0, fp, lr, lsl #2
    3ffc:	53050100 	movwpl	r0, #20736	; 0x5100
    4000:	05000000 	streq	r0, [r0]
    4004:	002b0403 	eoreq	r0, fp, r3, lsl #8
    4008:	1baf0ef0 	blne	febc7bd0 <__bss_end+0xebc4fe4>
    400c:	06010000 	streq	r0, [r1], -r0
    4010:	00000053 	andeq	r0, r0, r3, asr r0
    4014:	2afc0305 	bcs	fff04c30 <__bss_end+0xff02044>
    4018:	450ef000 	strmi	pc, [lr]
    401c:	0100001b 	tsteq	r0, fp, lsl r0
    4020:	00005307 	andeq	r5, r0, r7, lsl #6
    4024:	00030500 	andeq	r0, r3, r0, lsl #10
    4028:	00f0002b 	rscseq	r0, r0, fp, lsr #32
    402c:	000005f5 	strdeq	r0, [r0], -r5
    4030:	0da20002 	stceq	0, cr0, [r2, #8]!
    4034:	01040000 	tsteq	r4, r0
    4038:	0000035d 	andeq	r0, r0, sp, asr r3
    403c:	001e1f01 	andseq	r1, lr, r1, lsl #30
    4040:	00027400 	andeq	r7, r2, r0, lsl #8
    4044:	001cd800 	andseq	sp, ip, r0, lsl #16
    4048:	002130f0 	strdeq	r3, [r1], -r0
    404c:	000a62f0 	strdeq	r6, [sl], -r0
    4050:	05040200 	streq	r0, [r4, #-512]	; 0x200
    4054:	00000158 	andeq	r0, r0, r8, asr r1
    4058:	02070403 	andeq	r0, r7, #50331648	; 0x3000000
    405c:	01fa0704 	mvnseq	r0, r4, lsl #14
    4060:	02020000 	andeq	r0, r2, #0
    4064:	00026107 	andeq	r6, r2, r7, lsl #2
    4068:	07040200 	streq	r0, [r4, -r0, lsl #4]
    406c:	000001ff 	strdeq	r0, [r0], -pc
    4070:	99080102 	stmdbls	r8, {r1, r8}
    4074:	02000001 	andeq	r0, r0, #1
    4078:	01900801 	orrseq	r0, r0, r1, lsl #16
    407c:	04040000 	streq	r0, [r4]
    4080:	746e6905 	strbtvc	r6, [lr], #-2309	; 0x905
    4084:	06010200 	streq	r0, [r1], -r0, lsl #4
    4088:	00000192 	muleq	r0, r2, r1
    408c:	b4050202 	strlt	r0, [r5], #-514	; 0x202
    4090:	05000001 	streq	r0, [r0, #-1]
    4094:	00000dc0 	andeq	r0, r0, r0, asr #27
    4098:	00521902 	subseq	r1, r2, r2, lsl #18
    409c:	3c050000 	stccc	0, cr0, [r5], {0}
    40a0:	02000001 	andeq	r0, r0, #1
    40a4:	00003d1a 	andeq	r3, r0, sl, lsl sp
    40a8:	05080200 	streq	r0, [r8, #-512]	; 0x200
    40ac:	00000153 	andeq	r0, r0, r3, asr r1
    40b0:	f5070802 	undefined instruction 0xf5070802
    40b4:	06000001 	streq	r0, [r0], -r1
    40b8:	001c9301 	andseq	r9, ip, r1, lsl #6
    40bc:	01a60100 	undefined instruction 0x01a60100
    40c0:	0000ba01 	andeq	fp, r0, r1, lsl #20
    40c4:	1e600700 	cdpne	7, 6, cr0, cr0, cr0, {0}
    40c8:	a6010000 	strge	r0, [r1], -r0
    40cc:	00000072 	andeq	r0, r0, r2, ror r0
    40d0:	006e6f08 	rsbeq	r6, lr, r8, lsl #30
    40d4:	0072a601 	rsbseq	sl, r2, r1, lsl #12
    40d8:	4a090000 	bmi	2440e0 <__standby_start+0x2440e0>
    40dc:	01000016 	tsteq	r0, r6, lsl r0
    40e0:	000072a8 	andeq	r7, r0, r8, lsr #5
    40e4:	010a0000 	tsteq	sl, r0
    40e8:	00001e90 	muleq	r0, r0, lr
    40ec:	7201c201 	andvc	ip, r1, #268435456	; 0x10000000
    40f0:	01000000 	tsteq	r0, r0
    40f4:	000000e3 	andeq	r0, r0, r3, ror #1
    40f8:	001e6007 	andseq	r6, lr, r7
    40fc:	72c20100 	sbcvc	r0, r2, #0
    4100:	09000000 	stmdbeq	r0, {}
    4104:	0000164a 	andeq	r1, r0, sl, asr #12
    4108:	0072c401 	rsbseq	ip, r2, r1, lsl #8
    410c:	0b000000 	bleq	4114 <__standby_start+0x4114>
    4110:	001d5a01 	andseq	r5, sp, r1, lsl #20
    4114:	01920100 	orrseq	r0, r2, r0, lsl #2
    4118:	008b0c01 	addeq	r0, fp, r1, lsl #24
    411c:	1cd80000 	ldclne	0, cr0, [r8], {0}
    4120:	1d00f000 	stcne	0, cr15, [r0]
    4124:	5d01f000 	stcpl	0, cr15, [r1]
    4128:	00000116 	andeq	r0, r0, r6, lsl r1
    412c:	0000990d 	andeq	r9, r0, sp, lsl #18
    4130:	0d500100 	ldfeqe	f0, [r0]
    4134:	000000a4 	andeq	r0, r0, r4, lsr #1
    4138:	ae0e5101 	adfgee	f5, f6, f1
    413c:	01000000 	tsteq	r0, r0
    4140:	ba0c0052 	blt	304290 <__standby_start+0x304290>
    4144:	00000000 	andeq	r0, r0, r0
    4148:	20f0001d 	rscscs	r0, r0, sp, lsl r0
    414c:	01f0001d 	mvnseq	r0, sp, lsl r0
    4150:	00013a5d 	andeq	r3, r1, sp, asr sl
    4154:	00cc0f00 	sbceq	r0, ip, r0, lsl #30
    4158:	0cc60000 	stcleq	0, cr0, [r6], {0}
    415c:	d70e0000 	strle	r0, [lr, -r0]
    4160:	01000000 	tsteq	r0, r0
    4164:	01100053 	tsteq	r0, r3, asr r0
    4168:	00001d88 	andeq	r1, r0, r8, lsl #27
    416c:	2001df01 	andcs	sp, r1, r1, lsl #30
    4170:	68f0001d 	ldmvs	r0!, {r0, r2, r3, r4}^
    4174:	e4f0001d 	ldrbt	r0, [r0], #29
    4178:	9d00000c 	stcls	0, cr0, [r0, #-48]	; 0xffffffd0
    417c:	11000001 	tstne	r0, r1
    4180:	00001e60 	andeq	r1, r0, r0, ror #28
    4184:	0072df01 	rsbseq	sp, r2, r1, lsl #30
    4188:	50010000 	andpl	r0, r1, r0
    418c:	001eb512 	andseq	fp, lr, r2, lsl r5
    4190:	72df0100 	sbcsvc	r0, pc, #0
    4194:	03000000 	movweq	r0, #0
    4198:	1200000d 	andne	r0, r0, #13
    419c:	00001ceb 	andeq	r1, r0, fp, ror #25
    41a0:	0072df01 	rsbseq	sp, r2, r1, lsl #30
    41a4:	0d160000 	ldceq	0, cr0, [r6]
    41a8:	43120000 	tstmi	r2, #0
    41ac:	0100001e 	tsteq	r0, lr, lsl r0
    41b0:	000072df 	ldrdeq	r7, [r0], -pc
    41b4:	000d2900 	andeq	r2, sp, r0, lsl #18
    41b8:	164a1300 	strbne	r1, [sl], -r0, lsl #6
    41bc:	e1010000 	tst	r1, r0
    41c0:	00000072 	andeq	r0, r0, r2, ror r0
    41c4:	00000d3c 	andeq	r0, r0, ip, lsr sp
    41c8:	d2011400 	andle	r1, r1, #0
    41cc:	0100001d 	tsteq	r0, sp, lsl r0
    41d0:	6801019e 	stmdavs	r1, {r1, r2, r3, r4, r7, r8}
    41d4:	90f0001d 	rscsls	r0, r0, sp, lsl r0
    41d8:	01f0001d 	mvnseq	r0, sp, lsl r0
    41dc:	0001fd5d 	andeq	pc, r1, sp, asr sp
    41e0:	1e601500 	cdpne	5, 6, cr1, cr0, cr0, {0}
    41e4:	9e010000 	cdpls	0, 0, cr0, cr1, cr0, {0}
    41e8:	00007201 	andeq	r7, r0, r1, lsl #4
    41ec:	16500100 	ldrbne	r0, [r0], -r0, lsl #2
    41f0:	01006e6f 	tsteq	r0, pc, ror #28
    41f4:	0072019e 	ldrbteq	r0, [r2], #-30	; 0xffffffe2
    41f8:	51010000 	tstpl	r1, r0
    41fc:	00008b17 	andeq	r8, r0, r7, lsl fp
    4200:	001d6800 	andseq	r6, sp, r0, lsl #16
    4204:	001d90f0 	ldrsheq	r9, [sp], -r0
    4208:	01a001f0 	strdeq	r0, [r0, r0]!
    420c:	00010718 	andeq	r0, r1, r8, lsl r7
    4210:	01001800 	tsteq	r0, r0, lsl #16
    4214:	68190000 	ldmdavs	r9, {}
    4218:	90f0001d 	rscsls	r0, r0, sp, lsl r0
    421c:	0ef0001d 	mrceq	0, 7, r0, cr0, cr13, {0}
    4220:	000000ae 	andeq	r0, r0, lr, lsr #1
    4224:	00005201 	andeq	r5, r0, r1, lsl #4
    4228:	a6011a00 	strge	r1, [r1], -r0, lsl #20
    422c:	0100001d 	tsteq	r0, sp, lsl r0
    4230:	720101a4 	andvc	r0, r1, #41	; 0x29
    4234:	90000000 	andls	r0, r0, r0
    4238:	b0f0001d 	rscslt	r0, r0, sp, lsl r0
    423c:	01f0001d 	mvnseq	r0, sp, lsl r0
    4240:	0002515d 	andeq	r5, r2, sp, asr r1
    4244:	1e601b00 	vmulne.f64	d17, d0, d0
    4248:	a4010000 	strge	r0, [r1]
    424c:	00007201 	andeq	r7, r0, r1, lsl #4
    4250:	000d5a00 	andeq	r5, sp, r0, lsl #20
    4254:	00ba1700 	adcseq	r1, sl, r0, lsl #14
    4258:	1d900000 	ldcne	0, cr0, [r0]
    425c:	1da8f000 	stcne	0, cr15, [r8]
    4260:	a601f000 	strge	pc, [r1], -r0
    4264:	01291801 	teqeq	r9, r1, lsl #16
    4268:	90190000 	andsls	r0, r9, r0
    426c:	a8f0001d 	ldmge	r0!, {r0, r2, r3, r4}^
    4270:	0ef0001d 	mrceq	0, 7, r0, cr0, cr13, {0}
    4274:	000000d7 	ldrdeq	r0, [r0], -r7
    4278:	00005301 	andeq	r5, r0, r1, lsl #6
    427c:	25011400 	strcs	r1, [r1, #-1024]	; 0x400
    4280:	0100001d 	tsteq	r0, sp, lsl r0
    4284:	b00101aa 	andlt	r0, r1, sl, lsr #3
    4288:	b4f0001d 	ldrbtlt	r0, [r0], #29
    428c:	01f0001d 	mvnseq	r0, sp, lsl r0
    4290:	0002aa5d 	andeq	sl, r2, sp, asr sl
    4294:	01461b00 	cmpeq	r6, r0, lsl #22
    4298:	aa010000 	bge	442a0 <__standby_start+0x442a0>
    429c:	00007201 	andeq	r7, r0, r1, lsl #4
    42a0:	000d7800 	andeq	r7, sp, r0, lsl #16
    42a4:	1c7d1b00 	ldclne	11, cr1, [sp]
    42a8:	aa010000 	bge	442b0 <__standby_start+0x442b0>
    42ac:	00007201 	andeq	r7, r0, r1, lsl #4
    42b0:	000d8b00 	andeq	r8, sp, r0, lsl #22
    42b4:	1cf01b00 	vldmiane	r0!, {d17-d16}
    42b8:	aa010000 	bge	442c0 <__standby_start+0x442c0>
    42bc:	00007201 	andeq	r7, r0, r1, lsl #4
    42c0:	000d9e00 	andeq	r9, sp, r0, lsl #28
    42c4:	1e431b00 	vmlane.f64	d17, d3, d0
    42c8:	aa010000 	bge	442d0 <__standby_start+0x442d0>
    42cc:	00007201 	andeq	r7, r0, r1, lsl #4
    42d0:	000db100 	andeq	fp, sp, r0, lsl #2
    42d4:	011c0000 	tsteq	ip, r0
    42d8:	00001d4b 	andeq	r1, r0, fp, asr #26
    42dc:	7201fc01 	andvc	pc, r1, #256	; 0x100
    42e0:	b4000000 	strlt	r0, [r0]
    42e4:	e4f0001d 	ldrbt	r0, [r0], #29
    42e8:	c4f0001d 	ldrbtgt	r0, [r0], #29
    42ec:	e000000d 	and	r0, r0, sp
    42f0:	1d000002 	stcne	0, cr0, [r0, #-8]
    42f4:	fe010069 	cdp2	0, 0, cr0, cr1, cr9, {3}
    42f8:	00000072 	andeq	r0, r0, r2, ror r0
    42fc:	00164a13 	andseq	r4, r6, r3, lsl sl
    4300:	72ff0100 	rscsvc	r0, pc, #0
    4304:	e3000000 	movw	r0, #0
    4308:	0000000d 	andeq	r0, r0, sp
    430c:	1e69011e 	mcrne	1, 3, r0, cr9, cr14, {0}
    4310:	83010000 	movwhi	r0, #4096	; 0x1000
    4314:	001de401 	andseq	lr, sp, r1, lsl #8
    4318:	001e14f0 	undefined instruction 0x001e14f0
    431c:	105d01f0 	ldrshne	r0, [sp], #-16
    4320:	1d000003 	stcne	0, cr0, [r0, #-12]
    4324:	85010069 	strhi	r0, [r1, #-105]	; 0x69
    4328:	00000072 	andeq	r0, r0, r2, ror r0
    432c:	00164a13 	andseq	r4, r6, r3, lsl sl
    4330:	72860100 	addvc	r0, r6, #0
    4334:	01000000 	tsteq	r0, r0
    4338:	0000000e 	andeq	r0, r0, lr
    433c:	1e09011f 	mcrne	1, 0, r0, cr9, cr15, {0}
    4340:	92010000 	andls	r0, r1, #0
    4344:	1e140101 	mufnes	f0, f4, f1
    4348:	1e18f000 	cdpne	0, 1, cr15, cr8, cr0, {0}
    434c:	5d01f000 	stcpl	0, cr15, [r1]
    4350:	1edb011e 	mrcne	1, 6, r0, cr11, cr14, {0}
    4354:	4b010000 	blmi	4435c <__standby_start+0x4435c>
    4358:	001e1801 	andseq	r1, lr, r1, lsl #16
    435c:	001e48f0 	undefined instruction 0x001e48f0
    4360:	545d01f0 	ldrbpl	r0, [sp], #-496	; 0x1f0
    4364:	1d000003 	stcne	0, cr0, [r0, #-12]
    4368:	4d010069 	stcmi	0, cr0, [r1, #-420]	; 0xfffffe5c
    436c:	00000072 	andeq	r0, r0, r2, ror r0
    4370:	00164a13 	andseq	r4, r6, r3, lsl sl
    4374:	724e0100 	subvc	r0, lr, #0
    4378:	14000000 	strne	r0, [r0]
    437c:	0000000e 	andeq	r0, r0, lr
    4380:	0000e320 	andeq	lr, r0, r0, lsr #6
    4384:	001e4800 	andseq	r4, lr, r0, lsl #16
    4388:	001e4cf0 	undefined instruction 0x001e4cf0
    438c:	145d01f0 	ldrbne	r0, [sp], #-496	; 0x1f0
    4390:	001e4b01 	andseq	r4, lr, r1, lsl #22
    4394:	01980100 	orrseq	r0, r8, r0, lsl #2
    4398:	001e4c01 	andseq	r4, lr, r1, lsl #24
    439c:	001e50f0 	ldrsheq	r5, [lr], -r0
    43a0:	8c5d01f0 	ldfhie	f0, [sp], {240}	; 0xf0
    43a4:	21000003 	tstcs	r0, r3
    43a8:	000000e3 	andeq	r0, r0, r3, ror #1
    43ac:	f0001e4c 	undefined instruction 0xf0001e4c
    43b0:	f0001e50 	undefined instruction 0xf0001e50
    43b4:	00019a01 	andeq	r9, r1, r1, lsl #20
    43b8:	1cfb0110 	ldfnee	f0, [fp], #64	; 0x40
    43bc:	5a010000 	bpl	443c4 <__standby_start+0x443c4>
    43c0:	001e5001 	andseq	r5, lr, r1
    43c4:	001ec8f0 	undefined instruction 0x001ec8f0
    43c8:	000e27f0 	strdeq	r2, [lr], -r0
    43cc:	0003e700 	andeq	lr, r3, r0, lsl #14
    43d0:	00692200 	rsbeq	r2, r9, r0, lsl #4
    43d4:	00725c01 	rsbseq	r5, r2, r1, lsl #24
    43d8:	53010000 	movwpl	r0, #4096	; 0x1000
    43dc:	00164a13 	andseq	r4, r6, r3, lsl sl
    43e0:	725d0100 	subsvc	r0, sp, #0
    43e4:	46000000 	strmi	r0, [r0], -r0
    43e8:	2300000e 	movwcs	r0, #14
    43ec:	0000008b 	andeq	r0, r0, fp, lsl #1
    43f0:	f0001e98 	undefined instruction 0xf0001e98
    43f4:	00000128 	andeq	r0, r0, r8, lsr #2
    43f8:	07187201 	ldreq	r7, [r8, -r1, lsl #4]
    43fc:	18000001 	stmdane	r0, {r0}
    4400:	00000100 	andeq	r0, r0, r0, lsl #2
    4404:	00014824 	andeq	r4, r1, r4, lsr #16
    4408:	00ae0e00 	adceq	r0, lr, r0, lsl #28
    440c:	51010000 	tstpl	r1, r0
    4410:	1f000000 	svcne	0x00000000
    4414:	001eea01 	andseq	lr, lr, r1, lsl #20
    4418:	018c0100 	orreq	r0, ip, r0, lsl #2
    441c:	001ec801 	andseq	ip, lr, r1, lsl #16
    4420:	001eccf0 	undefined instruction 0x001eccf0
    4424:	1e5d01f0 	mrcne	1, 2, r0, cr13, cr0, {7}
    4428:	001ccf01 	andseq	ip, ip, r1, lsl #30
    442c:	011e0100 	tsteq	lr, r0, lsl #2
    4430:	f0001ecc 	undefined instruction 0xf0001ecc
    4434:	f0001efc 	undefined instruction 0xf0001efc
    4438:	042b5d01 	strteq	r5, [fp], #-3329	; 0xd01
    443c:	691d0000 	ldmdbvs	sp, {}
    4440:	72200100 	eorvc	r0, r0, #0
    4444:	13000000 	movwne	r0, #0
    4448:	0000164a 	andeq	r1, r0, sl, asr #12
    444c:	00722101 	rsbseq	r2, r2, r1, lsl #2
    4450:	0e640000 	cdpeq	0, 6, cr0, cr4, cr0, {0}
    4454:	10000000 	andne	r0, r0, r0
    4458:	001e2b01 	andseq	r2, lr, r1, lsl #22
    445c:	012d0100 	teqeq	sp, r0, lsl #2
    4460:	f0001efc 	undefined instruction 0xf0001efc
    4464:	f0001f70 	undefined instruction 0xf0001f70
    4468:	00000e77 	andeq	r0, r0, r7, ror lr
    446c:	0000048a 	andeq	r0, r0, sl, lsl #9
    4470:	01006925 	tsteq	r0, r5, lsr #18
    4474:	0000722f 	andeq	r7, r0, pc, lsr #4
    4478:	000e9600 	andeq	r9, lr, r0, lsl #12
    447c:	164a1300 	strbne	r1, [sl], -r0, lsl #6
    4480:	30010000 	andcc	r0, r1, r0
    4484:	00000072 	andeq	r0, r0, r2, ror r0
    4488:	00000ea9 	andeq	r0, r0, r9, lsr #29
    448c:	00008b23 	andeq	r8, r0, r3, lsr #22
    4490:	001f0400 	andseq	r0, pc, r0, lsl #8
    4494:	000168f0 	strdeq	r6, [r1], -r0
    4498:	18350100 	ldmdane	r5!, {r8}
    449c:	00000107 	andeq	r0, r0, r7, lsl #2
    44a0:	00010018 	andeq	r0, r1, r8, lsl r0
    44a4:	01882400 	orreq	r2, r8, r0, lsl #8
    44a8:	ae260000 	cdpge	0, 2, cr0, cr6, cr0, {0}
    44ac:	bc000000 	stclt	0, cr0, [r0], {0}
    44b0:	0000000e 	andeq	r0, r0, lr
    44b4:	011f0000 	tsteq	pc, r0
    44b8:	00001ec4 	andeq	r1, r0, r4, asr #29
    44bc:	01018601 	tsteq	r1, r1, lsl #12
    44c0:	f0001f70 	undefined instruction 0xf0001f70
    44c4:	f0001f74 	undefined instruction 0xf0001f74
    44c8:	01275d01 	teqeq	r7, r1, lsl #26
    44cc:	00001d70 	andeq	r1, r0, r0, ror sp
    44d0:	01017101 	tsteq	r1, r1, lsl #2
    44d4:	00000067 	andeq	r0, r0, r7, rrx
    44d8:	f0001f74 	undefined instruction 0xf0001f74
    44dc:	f0001f8c 	undefined instruction 0xf0001f8c
    44e0:	00000ecf 	andeq	r0, r0, pc, asr #29
    44e4:	000004c9 	andeq	r0, r0, r9, asr #9
    44e8:	00164a28 	andseq	r4, r6, r8, lsr #20
    44ec:	01730100 	cmneq	r3, r0, lsl #2
    44f0:	00000072 	andeq	r0, r0, r2, ror r0
    44f4:	82012700 	andhi	r2, r1, #0
    44f8:	0100001c 	tsteq	r0, ip, lsl r0
    44fc:	6701010b 	strvs	r0, [r1, -fp, lsl #2]
    4500:	8c000000 	stchi	0, cr0, [r0], {0}
    4504:	2cf0001f 	ldclcs	0, cr0, [r0], #124	; 0x7c
    4508:	eef00021 	cdp	0, 15, cr0, cr0, cr1, {1}
    450c:	e000000e 	and	r0, r0, lr
    4510:	29000005 	stmdbcs	r0, {r0, r2}
    4514:	0d010069 	stceq	0, cr0, [r1, #-420]	; 0xfffffe5c
    4518:	00007201 	andeq	r7, r0, r1, lsl #4
    451c:	164a2a00 	strbne	r2, [sl], -r0, lsl #20
    4520:	0e010000 	cdpeq	0, 0, cr0, cr1, cr0, {0}
    4524:	00007201 	andeq	r7, r0, r1, lsl #4
    4528:	000f1a00 	andeq	r1, pc, r0, lsl #20
    452c:	1dca2800 	stclne	8, cr2, [sl]
    4530:	0f010000 	svceq	0x00010000
    4534:	00007201 	andeq	r7, r0, r1, lsl #4
    4538:	1cc72b00 	vstmiane	r7, {d18-d17}
    453c:	10010000 	andne	r0, r1, r0
    4540:	00007201 	andeq	r7, r0, r1, lsl #4
    4544:	1c7d0200 	lfmne	f0, 2, [sp]	; (ldclne 2, cr0, [sp])
    4548:	001ca92b 	andseq	sl, ip, fp, lsr #18
    454c:	01100100 	tsteq	r0, r0, lsl #2
    4550:	00000072 	andeq	r0, r0, r2, ror r0
    4554:	1c2b5b01 	stcne	11, cr5, [fp], #-4
    4558:	0100001d 	tsteq	r0, sp, lsl r0
    455c:	00720110 	rsbseq	r0, r2, r0, lsl r1
    4560:	59010000 	stmdbpl	r1, {}
    4564:	001de72b 	andseq	lr, sp, fp, lsr #14
    4568:	01100100 	tsteq	r0, r0, lsl #2
    456c:	00000072 	andeq	r0, r0, r2, ror r0
    4570:	f02b5a01 	undefined instruction 0xf02b5a01
    4574:	0100001d 	tsteq	r0, sp, lsl r0
    4578:	00720110 	rsbseq	r0, r2, r0, lsl r1
    457c:	7d020000 	stcvc	0, cr0, [r2]
    4580:	1df92a18 	ldclne	10, cr2, [r9, #96]!	; 0x60
    4584:	10010000 	andne	r0, r1, r0
    4588:	00007201 	andeq	r7, r0, r1, lsl #4
    458c:	000f4300 	andeq	r4, pc, r0, lsl #6
    4590:	1e022b00 	vmlane.f64	d2, d2, d0
    4594:	10010000 	andne	r0, r1, r0
    4598:	00007201 	andeq	r7, r0, r1, lsl #4
    459c:	147d0200 	ldrbtne	r0, [sp], #-512	; 0x200
    45a0:	001e802b 	andseq	r8, lr, fp, lsr #32
    45a4:	01100100 	tsteq	r0, r0, lsl #2
    45a8:	00000072 	andeq	r0, r0, r2, ror r0
    45ac:	2b107d02 	blcs	4239bc <__standby_start+0x4239bc>
    45b0:	00001d39 	andeq	r1, r0, r9, lsr sp
    45b4:	72011001 	andvc	r1, r1, #1
    45b8:	02000000 	andeq	r0, r0, #0
    45bc:	422b0c7d 	eormi	r0, fp, #32000	; 0x7d00
    45c0:	0100001d 	tsteq	r0, sp, lsl r0
    45c4:	00720110 	rsbseq	r0, r2, r0, lsl r1
    45c8:	7d020000 	stcvc	0, cr0, [r2]
    45cc:	1d122a08 	vldrne	s4, [r2, #-32]	; 0xffffffe0
    45d0:	11010000 	tstne	r1, r0
    45d4:	00007201 	andeq	r7, r0, r1, lsl #4
    45d8:	000f6c00 	andeq	r6, pc, r0, lsl #24
    45dc:	1d9d2b00 	vldrne	d2, [sp]
    45e0:	11010000 	tstne	r1, r0
    45e4:	00007201 	andeq	r7, r0, r1, lsl #4
    45e8:	047d0200 	ldrbteq	r0, [sp], #-512	; 0x200
    45ec:	001e882b 	andseq	r8, lr, fp, lsr #16
    45f0:	01110100 	tsteq	r1, r0, lsl #2
    45f4:	00000072 	andeq	r0, r0, r2, ror r0
    45f8:	2a007d02 	bcs	23a08 <__standby_start+0x23a08>
    45fc:	00001ce2 	andeq	r1, r0, r2, ror #25
    4600:	72011101 	andvc	r1, r1, #1073741824	; 0x40000000
    4604:	7f000000 	svcvc	0x00000000
    4608:	0000000f 	andeq	r0, r0, pc
    460c:	1cb1012c 	ldfnes	f0, [r1], #176	; 0xb0
    4610:	80010000 	andhi	r0, r1, r0
    4614:	00720101 	rsbseq	r0, r2, r1, lsl #2
    4618:	212c0000 	teqcs	ip, r0
    461c:	2130f000 	teqpcs	r0, r0
    4620:	5d01f000 	stcpl	0, cr15, [r1]
    4624:	00087300 	andeq	r7, r8, r0, lsl #6
    4628:	3f000200 	svccc	0x00000200
    462c:	04000010 	streq	r0, [r0], #-16
    4630:	00035d01 	andeq	r5, r3, r1, lsl #26
    4634:	20f90100 	rscscs	r0, r9, r0, lsl #2
    4638:	02740000 	rsbseq	r0, r4, #0
    463c:	21300000 	teqcs	r0, r0
    4640:	28a0f000 	stmiacs	r0!, {ip, sp, lr, pc}
    4644:	0c33f000 	ldceq	0, cr15, [r3]
    4648:	04020000 	streq	r0, [r2]
    464c:	00015805 	andeq	r5, r1, r5, lsl #16
    4650:	07040300 	streq	r0, [r4, -r0, lsl #6]
    4654:	fa070402 	blx	1c5664 <__standby_start+0x1c5664>
    4658:	02000001 	andeq	r0, r0, #1
    465c:	02610702 	rsbeq	r0, r1, #524288	; 0x80000
    4660:	04020000 	streq	r0, [r2]
    4664:	0001ff07 	andeq	pc, r1, r7, lsl #30
    4668:	08010200 	stmdaeq	r1, {r9}
    466c:	00000199 	muleq	r0, r9, r1
    4670:	001f7304 	andseq	r7, pc, r4, lsl #6
    4674:	1a035000 	bne	d867c <__standby_start+0xd867c>
    4678:	00000170 	andeq	r0, r0, r0, ror r1
    467c:	0020eb05 	eoreq	lr, r0, r5, lsl #22
    4680:	3d1b0300 	ldccc	3, cr0, [fp]
    4684:	02000000 	andeq	r0, r0, #0
    4688:	68050023 	stmdavs	r5, {r0, r1, r5}
    468c:	03000021 	movweq	r0, #33	; 0x21
    4690:	00003d1c 	andeq	r3, r0, ip, lsl sp
    4694:	04230200 	strteq	r0, [r3], #-512	; 0x200
    4698:	00219a05 	eoreq	r9, r1, r5, lsl #20
    469c:	3d1d0300 	ldccc	3, cr0, [sp]
    46a0:	02000000 	andeq	r0, r0, #0
    46a4:	dd050823 	stcle	8, cr0, [r5, #-140]	; 0xffffff74
    46a8:	03000020 	movweq	r0, #32
    46ac:	00003d1e 	andeq	r3, r0, lr, lsl sp
    46b0:	0c230200 	sfmeq	f0, 4, [r3]	; (stceq 2, cr0, [r3])
    46b4:	00203c05 	eoreq	r3, r0, r5, lsl #24
    46b8:	3d1f0300 	ldccc	3, cr0, [pc]
    46bc:	02000000 	andeq	r0, r0, #0
    46c0:	8c051023 	stchi	0, cr1, [r5], {35}	; 0x23
    46c4:	03000021 	movweq	r0, #33	; 0x21
    46c8:	00003d20 	andeq	r3, r0, r0, lsr #26
    46cc:	14230200 	strtne	r0, [r3], #-512	; 0x200
    46d0:	0020b205 	eoreq	fp, r0, r5, lsl #4
    46d4:	3d210300 	stccc	3, cr0, [r1]
    46d8:	02000000 	andeq	r0, r0, #0
    46dc:	ac051823 	stcge	8, cr1, [r5], {35}	; 0x23
    46e0:	03000021 	movweq	r0, #33	; 0x21
    46e4:	00003d22 	andeq	r3, r0, r2, lsr #26
    46e8:	1c230200 	sfmne	f0, 4, [r3]	; (stcne 2, cr0, [r3])
    46ec:	00212305 	eoreq	r2, r1, r5, lsl #6
    46f0:	3d230300 	stccc	3, cr0, [r3]
    46f4:	02000000 	andeq	r0, r0, #0
    46f8:	6a052023 	bvs	14c78c <__standby_start+0x14c78c>
    46fc:	03000020 	movweq	r0, #32
    4700:	00003d24 	andeq	r3, r0, r4, lsr #26
    4704:	24230200 	strtcs	r0, [r3], #-512	; 0x200
    4708:	001f5805 	andseq	r5, pc, r5, lsl #16
    470c:	3d250300 	stccc	3, cr0, [r5]
    4710:	02000000 	andeq	r0, r0, #0
    4714:	bc052823 	stclt	8, cr2, [r5], {35}	; 0x23
    4718:	0300001f 	movweq	r0, #31
    471c:	00003d26 	andeq	r3, r0, r6, lsr #26
    4720:	2c230200 	sfmcs	f0, 4, [r3]	; (stccs 2, cr0, [r3])
    4724:	001fc605 	andseq	ip, pc, r5, lsl #12
    4728:	3d270300 	stccc	3, cr0, [r7]
    472c:	02000000 	andeq	r0, r0, #0
    4730:	d0053023 	andle	r3, r5, r3, lsr #32
    4734:	0300001f 	movweq	r0, #31
    4738:	00003d28 	andeq	r3, r0, r8, lsr #26
    473c:	34230200 	strtcc	r0, [r3], #-512	; 0x200
    4740:	001fda05 	andseq	sp, pc, r5, lsl #20
    4744:	3d290300 	stccc	3, cr0, [r9]
    4748:	02000000 	andeq	r0, r0, #0
    474c:	e4053823 	str	r3, [r5], #-2083	; 0x823
    4750:	0300001f 	movweq	r0, #31
    4754:	00003d2a 	andeq	r3, r0, sl, lsr #26
    4758:	3c230200 	sfmcc	f0, 4, [r3]	; (stccc 2, cr0, [r3])
    475c:	001fee05 	andseq	lr, pc, r5, lsl #28
    4760:	3d2b0300 	stccc	3, cr0, [fp]
    4764:	02000000 	andeq	r0, r0, #0
    4768:	0b054023 	bleq	1547fc <__standby_start+0x1547fc>
    476c:	03000020 	movweq	r0, #32
    4770:	00003d2c 	andeq	r3, r0, ip, lsr #26
    4774:	44230200 	strtmi	r0, [r3], #-512	; 0x200
    4778:	00212b05 	eoreq	r2, r1, r5, lsl #22
    477c:	3d2d0300 	stccc	3, cr0, [sp]
    4780:	02000000 	andeq	r0, r0, #0
    4784:	35054823 	strcc	r4, [r5, #-2083]	; 0x823
    4788:	03000021 	movweq	r0, #33	; 0x21
    478c:	00003d2e 	andeq	r3, r0, lr, lsr #26
    4790:	4c230200 	sfmmi	f0, 4, [r3]	; (stcmi 2, cr0, [r3])
    4794:	08010200 	stmdaeq	r1, {r9}
    4798:	00000190 	muleq	r0, r0, r1
    479c:	69050406 	stmdbvs	r5, {r1, r2, sl}
    47a0:	0200746e 	andeq	r7, r0, #1845493760	; 0x6e000000
    47a4:	01920601 	orrseq	r0, r2, r1, lsl #12
    47a8:	02020000 	andeq	r0, r2, #0
    47ac:	0001b405 	andeq	fp, r1, r5, lsl #8
    47b0:	0dc00700 	stcleq	7, cr0, [r0]
    47b4:	19020000 	stmdbne	r2, {}
    47b8:	00000177 	andeq	r0, r0, r7, ror r1
    47bc:	00013c07 	andeq	r3, r1, r7, lsl #24
    47c0:	3d1a0200 	lfmcc	f0, 4, [sl]	; (ldccc 2, cr0, [sl])
    47c4:	02000000 	andeq	r0, r0, #0
    47c8:	01530508 	cmpeq	r3, r8, lsl #10
    47cc:	2e070000 	cdpcs	0, 0, cr0, cr7, cr0, {0}
    47d0:	0200001f 	andeq	r0, r0, #31
    47d4:	0001b41c 	andeq	fp, r1, ip, lsl r4
    47d8:	07080200 	streq	r0, [r8, -r0, lsl #4]
    47dc:	000001f5 	strdeq	r0, [r0], -r5
    47e0:	001f7107 	andseq	r7, pc, r7, lsl #2
    47e4:	4b120100 	blmi	484bec <__standby_start+0x484bec>
    47e8:	08000000 	stmdaeq	r0, {}
    47ec:	00207601 	eoreq	r7, r0, r1, lsl #12
    47f0:	016e0100 	cmneq	lr, r0, lsl #2
    47f4:	00018c01 	andeq	r8, r1, r1, lsl #24
    47f8:	01090100 	tsteq	r9, r0, lsl #2
    47fc:	0000213f 	andeq	r2, r0, pc, lsr r1
    4800:	01013001 	tsteq	r1, r1
    4804:	000001ef 	andeq	r0, r0, pc, ror #3
    4808:	00164a0a 	andseq	r4, r6, sl, lsl #20
    480c:	97320100 	ldrls	r0, [r2, -r0, lsl #2]!
    4810:	00000001 	andeq	r0, r0, r1
    4814:	20c1010b 	sbccs	r0, r1, fp, lsl #2
    4818:	cb010000 	blgt	44820 <__standby_start+0x44820>
    481c:	23010101 	movwcs	r0, #4353	; 0x1101
    4820:	0c000002 	stceq	0, cr0, [r0], {2}
    4824:	006b6c63 	rsbeq	r6, fp, r3, ror #24
    4828:	9701cb01 	strls	ip, [r1, -r1, lsl #22]
    482c:	0d000001 	stceq	0, cr0, [r0, #-4]
    4830:	0000164a 	andeq	r1, r0, sl, asr #12
    4834:	9701cd01 	strls	ip, [r1, -r1, lsl #26]
    4838:	0d000001 	stceq	0, cr0, [r0, #-4]
    483c:	0000211b 	andeq	r2, r0, fp, lsl r1
    4840:	9701cf01 	strls	ip, [r1, -r1, lsl #30]
    4844:	00000001 	andeq	r0, r0, r1
    4848:	1f9a010e 	svcne	0x009a010e
    484c:	80010000 	andhi	r0, r1, r0
    4850:	018c0101 	orreq	r0, ip, r1, lsl #2
    4854:	43010000 	movwmi	r0, #4096	; 0x1000
    4858:	0d000002 	stceq	0, cr0, [r0, #-8]
    485c:	0000164a 	andeq	r1, r0, sl, asr #12
    4860:	97018201 	strls	r8, [r1, -r1, lsl #4]
    4864:	00000001 	andeq	r0, r0, r1
    4868:	001fae0f 	andseq	sl, pc, pc, lsl #28
    486c:	011f0200 	tsteq	pc, r0, lsl #4
    4870:	000001a9 	andeq	r0, r0, r9, lsr #3
    4874:	00028c03 	andeq	r8, r2, r3, lsl #24
    4878:	16721000 	ldrbtne	r1, [r2], -r0
    487c:	1f020000 	svcne	0x00020000
    4880:	000001a9 	andeq	r0, r0, r9, lsr #3
    4884:	00159010 	andseq	r9, r5, r0, lsl r0
    4888:	971f0200 	ldrls	r0, [pc, -r0, lsl #4]
    488c:	0a000001 	beq	4898 <__standby_start+0x4898>
    4890:	000015bd 	undefined instruction 0x000015bd
    4894:	01a92102 	undefined instruction 0x01a92102
    4898:	340a0000 	strcc	r0, [sl]
    489c:	02000016 	andeq	r0, r0, #22
    48a0:	0001a922 	andeq	sl, r1, r2, lsr #18
    48a4:	16050a00 	strne	r0, [r5], -r0, lsl #20
    48a8:	23020000 	movwcs	r0, #8192	; 0x2000
    48ac:	0000018c 	andeq	r0, r0, ip, lsl #3
    48b0:	9c010b00 	stcls	11, cr0, [r1], {0}
    48b4:	01000020 	tsteq	r0, r0, lsr #32
    48b8:	010101b3 	undefined instruction 0x010101b3
    48bc:	000002b3 	undefined instruction 0x000002b3
    48c0:	006e6f0c 	rsbeq	r6, lr, ip, lsl #30
    48c4:	9701b301 	strls	fp, [r1, -r1, lsl #6]
    48c8:	0d000001 	stceq	0, cr0, [r0, #-4]
    48cc:	0000164a 	andeq	r1, r0, sl, asr #12
    48d0:	9701b501 	strls	fp, [r1, -r1, lsl #10]
    48d4:	00000001 	andeq	r0, r0, r1
    48d8:	210a0109 	tstcs	sl, r9, lsl #2
    48dc:	3b010000 	blcc	448e4 <__standby_start+0x448e4>
    48e0:	02cd0101 	sbceq	r0, sp, #1073741824	; 0x40000000
    48e4:	4a0a0000 	bmi	2848ec <__standby_start+0x2848ec>
    48e8:	01000016 	tsteq	r0, r6, lsl r0
    48ec:	0001973d 	andeq	r9, r1, sp, lsr r7
    48f0:	01090000 	tsteq	r9, r0
    48f4:	00002171 	andeq	r2, r0, r1, ror r1
    48f8:	01014501 	tsteq	r1, r1, lsl #10
    48fc:	000002e7 	andeq	r0, r0, r7, ror #5
    4900:	00164a0a 	andseq	r4, r6, sl, lsl #20
    4904:	97470100 	strbls	r0, [r7, -r0, lsl #2]
    4908:	00000001 	andeq	r0, r0, r1
    490c:	1f160109 	svcne	0x00160109
    4910:	ab010000 	blge	44918 <__standby_start+0x44918>
    4914:	02ff0101 	rscseq	r0, pc, #1073741824	; 0x40000000
    4918:	69110000 	ldmdbvs	r1, {}
    491c:	97ad0100 	strls	r0, [sp, r0, lsl #2]!
    4920:	00000001 	andeq	r0, r0, r1
    4924:	0001d512 	andeq	sp, r1, r2, lsl r5
    4928:	00213000 	eoreq	r3, r1, r0
    492c:	002150f0 	strdeq	r5, [r1], -r0
    4930:	1a5d01f0 	bne	17450f8 <__standby_start+0x17450f8>
    4934:	13000003 	movwne	r0, #3
    4938:	000001e3 	andeq	r0, r0, r3, ror #3
    493c:	12005301 	andne	r5, r0, #67108864	; 0x4000000
    4940:	000002b3 	undefined instruction 0x000002b3
    4944:	f0002150 	undefined instruction 0xf0002150
    4948:	f000216c 	undefined instruction 0xf000216c
    494c:	03355d01 	teqeq	r5, #64	; 0x40
    4950:	c1130000 	tstgt	r3, r0
    4954:	01000002 	tsteq	r0, r2
    4958:	cd120052 	ldcgt	0, cr0, [r2, #-328]	; 0xfffffeb8
    495c:	6c000002 	stcvs	0, cr0, [r0], {2}
    4960:	84f00021 	ldrbthi	r0, [r0], #33	; 0x21
    4964:	01f00021 	mvnseq	r0, r1, lsr #32
    4968:	0003505d 	andeq	r5, r3, sp, asr r0
    496c:	02db1300 	sbcseq	r1, fp, #0
    4970:	52010000 	andpl	r0, r1, #0
    4974:	59011400 	stmdbpl	r1, {sl, ip}
    4978:	01000020 	tsteq	r0, r0, lsr #32
    497c:	21840182 	orrcs	r0, r4, r2, lsl #3
    4980:	21e0f000 	mvncs	pc, r0
    4984:	5d01f000 	stcpl	0, cr15, [r1]
    4988:	00000375 	andeq	r0, r0, r5, ror r3
    498c:	00164a15 	andseq	r4, r6, r5, lsl sl
    4990:	97840100 	strls	r0, [r4, r0, lsl #2]
    4994:	01000001 	tsteq	r0, r1
    4998:	e7120052 	undefined instruction 0xe7120052
    499c:	e0000002 	and	r0, r0, r2
    49a0:	14f00021 	ldrbtne	r0, [r0], #33	; 0x21
    49a4:	01f00022 	mvnseq	r0, r2, lsr #32
    49a8:	0003905d 	andeq	r9, r3, sp, asr r0
    49ac:	02f51300 	rscseq	r1, r5, #0
    49b0:	53010000 	movwpl	r0, #4096	; 0x1000
    49b4:	01c61600 	biceq	r1, r6, r0, lsl #12
    49b8:	22140000 	andscs	r0, r4, #0
    49bc:	221cf000 	andscs	pc, ip, #0
    49c0:	5d01f000 	stcpl	0, cr15, [r1]
    49c4:	00022312 	andeq	r2, r2, r2, lsl r3
    49c8:	00221c00 	eoreq	r1, r2, r0, lsl #24
    49cc:	002254f0 	strdeq	r5, [r2], -r0
    49d0:	bc5d01f0 	ldflte	f0, [sp], {240}	; 0xf0
    49d4:	17000003 	strne	r0, [r0, -r3]
    49d8:	00000236 	andeq	r0, r0, r6, lsr r2
    49dc:	00000f92 	muleq	r0, r2, pc
    49e0:	028c1200 	addeq	r1, ip, #0
    49e4:	22540000 	subscs	r0, r4, #0
    49e8:	2278f000 	rsbscs	pc, r8, #0
    49ec:	5d01f000 	stcpl	0, cr15, [r1]
    49f0:	000003de 	ldrdeq	r0, [r0], -lr
    49f4:	00029b18 	andeq	r9, r2, r8, lsl fp
    49f8:	13500100 	cmpne	r0, #0
    49fc:	000002a6 	andeq	r0, r0, r6, lsr #5
    4a00:	12005301 	andne	r5, r0, #67108864	; 0x4000000
    4a04:	000001ef 	andeq	r0, r0, pc, ror #3
    4a08:	f0002278 	undefined instruction 0xf0002278
    4a0c:	f00022ac 	undefined instruction 0xf00022ac
    4a10:	04055d01 	streq	r5, [r5], #-3329	; 0xd01
    4a14:	fe180000 	cdp2	0, 1, cr0, cr8, cr0, {0}
    4a18:	01000001 	tsteq	r0, r1
    4a1c:	020a1350 	andeq	r1, sl, #1073741825	; 0x40000001
    4a20:	52010000 	andpl	r0, r1, #0
    4a24:	00021619 	andeq	r1, r2, r9, lsl r6
    4a28:	011a0000 	tsteq	sl, r0
    4a2c:	00001f4e 	andeq	r1, r0, lr, asr #30
    4a30:	0101f701 	tstpeq	r1, r1, lsl #14
    4a34:	00000197 	muleq	r0, r7, r1
    4a38:	f00022ac 	undefined instruction 0xf00022ac
    4a3c:	f0002320 	undefined instruction 0xf0002320
    4a40:	04525d01 	ldrbeq	r5, [r2], #-3329	; 0xd01
    4a44:	4a1b0000 	bmi	6c4a4c <__standby_start+0x6c4a4c>
    4a48:	01000016 	tsteq	r0, r6, lsl r0
    4a4c:	019701f9 	undefined instruction 0x019701f9
    4a50:	0fb00000 	svceq	0x00b00000
    4a54:	581b0000 	ldmdapl	fp, {}
    4a58:	0100001f 	tsteq	r0, pc, lsl r0
    4a5c:	019701fa 	undefined instruction 0x019701fa
    4a60:	0fc30000 	svceq	0x00c30000
    4a64:	341b0000 	ldrcc	r0, [fp]
    4a68:	0100001f 	tsteq	r0, pc, lsl r0
    4a6c:	019701fb 	undefined instruction 0x019701fb
    4a70:	0fd60000 	svceq	0x00d60000
    4a74:	1c000000 	stcne	0, cr0, [r0], {0}
    4a78:	00208101 	eoreq	r8, r0, r1, lsl #2
    4a7c:	02170100 	andseq	r0, r7, #0
    4a80:	00018c01 	andeq	r8, r1, r1, lsl #24
    4a84:	00232000 	eoreq	r2, r3, r0
    4a88:	002328f0 	strdeq	r2, [r3], -r0
    4a8c:	1c5d01f0 	ldfnee	f0, [sp], {240}	; 0xf0
    4a90:	00214e01 	eoreq	r4, r1, r1, lsl #28
    4a94:	021d0100 	andseq	r0, sp, #0
    4a98:	00018c01 	andeq	r8, r1, r1, lsl #24
    4a9c:	00232800 	eoreq	r2, r3, r0, lsl #16
    4aa0:	002330f0 	strdeq	r3, [r3], -r0
    4aa4:	1c5d01f0 	ldfnee	f0, [sp], {240}	; 0xf0
    4aa8:	00202401 	eoreq	r2, r0, r1, lsl #8
    4aac:	02220100 	eoreq	r0, r2, #0
    4ab0:	00018c01 	andeq	r8, r1, r1, lsl #24
    4ab4:	00233000 	eoreq	r3, r3, r0
    4ab8:	002334f0 	strdeq	r3, [r3], -r0
    4abc:	1d5d01f0 	ldfnee	f0, [sp, #-960]	; 0xfffffc40
    4ac0:	00201501 	eoreq	r1, r0, r1, lsl #10
    4ac4:	022c0100 	eoreq	r0, ip, #0
    4ac8:	00233401 	eoreq	r3, r3, r1, lsl #8
    4acc:	002354f0 	strdeq	r5, [r3], -r0
    4ad0:	d55d01f0 	ldrble	r0, [sp, #-496]	; 0x1f0
    4ad4:	1e000004 	cdpne	0, 0, cr0, cr0, cr4, {0}
    4ad8:	000001d5 	ldrdeq	r0, [r0], -r5
    4adc:	f0002334 	undefined instruction 0xf0002334
    4ae0:	f000234c 	undefined instruction 0xf000234c
    4ae4:	1f022e01 	svcne	0x00022e01
    4ae8:	f0002334 	undefined instruction 0xf0002334
    4aec:	f000234c 	undefined instruction 0xf000234c
    4af0:	0001e313 	andeq	lr, r1, r3, lsl r3
    4af4:	00530100 	subseq	r0, r3, r0, lsl #2
    4af8:	011d0000 	tsteq	sp, r0
    4afc:	00001f7f 	andeq	r1, r0, pc, ror pc
    4b00:	01023101 	tsteq	r2, r1, lsl #2
    4b04:	f0002354 	undefined instruction 0xf0002354
    4b08:	f0002388 	undefined instruction 0xf0002388
    4b0c:	05285d01 	streq	r5, [r8, #-3329]!	; 0xd01
    4b10:	63200000 	teqvs	r0, #0
    4b14:	01006b6c 	tsteq	r0, ip, ror #22
    4b18:	01970231 	orrseq	r0, r7, r1, lsr r2
    4b1c:	50010000 	andpl	r0, r1, r0
    4b20:	0001ef1e 	andeq	lr, r1, lr, lsl pc
    4b24:	00235400 	eoreq	r5, r3, r0, lsl #8
    4b28:	00237cf0 	strdeq	r7, [r3], -r0
    4b2c:	023301f0 	eorseq	r0, r3, #60	; 0x3c
    4b30:	0003f121 	andeq	pc, r3, r1, lsr #2
    4b34:	23541f00 	cmpcs	r4, #0
    4b38:	237cf000 	cmnpcs	ip, #0
    4b3c:	0a13f000 	beq	500b44 <__standby_start+0x500b44>
    4b40:	01000002 	tsteq	r0, r2
    4b44:	02161952 	andseq	r1, r6, #1343488	; 0x148000
    4b48:	00000000 	andeq	r0, r0, r0
    4b4c:	f8011a00 	undefined instruction 0xf8011a00
    4b50:	0100001f 	tsteq	r0, pc, lsl r0
    4b54:	8c010236 	sfmhi	f0, 4, [r1], {54}	; (stchi 2, cr0, [r1], {54})	; 0x36
    4b58:	88000001 	stmdahi	r0, {r0}
    4b5c:	c0f00023 	rscsgt	r0, r0, r3, lsr #32
    4b60:	01f00023 	mvnseq	r0, r3, lsr #32
    4b64:	0005695d 	andeq	r6, r5, sp, asr r9
    4b68:	02231e00 	eoreq	r1, r3, #0
    4b6c:	23880000 	orrcs	r0, r8, #0
    4b70:	23b0f000 	movscs	pc, #0
    4b74:	3801f000 	stmdacc	r1, {ip, sp, lr, pc}
    4b78:	23881f02 	orrcs	r1, r8, #8
    4b7c:	23b0f000 	movscs	pc, #0
    4b80:	3617f000 	ldrcc	pc, [r7], -r0
    4b84:	15000002 	strne	r0, [r0, #-2]
    4b88:	00000010 	andeq	r0, r0, r0, lsl r0
    4b8c:	01220000 	teqeq	r2, r0
    4b90:	00001f00 	andeq	r1, r0, r0, lsl #30
    4b94:	c001b501 	andgt	fp, r1, r1, lsl #10
    4b98:	ccf00023 	ldclgt	0, cr0, [r0], #140	; 0x8c
    4b9c:	33f00024 	mvnscc	r0, #36	; 0x24
    4ba0:	e3000010 	movw	r0, #16
    4ba4:	23000005 	movwcs	r0, #5
    4ba8:	006b6c63 	rsbeq	r6, fp, r3, ror #24
    4bac:	0197b501 	orrseq	fp, r7, r1, lsl #10
    4bb0:	10520000 	subsne	r0, r2, r0
    4bb4:	4a240000 	bmi	904bbc <__standby_start+0x904bbc>
    4bb8:	01000016 	tsteq	r0, r6, lsl r0
    4bbc:	000197b7 	undefined instruction 0x000197b7
    4bc0:	00107000 	andseq	r7, r0, r0
    4bc4:	02432500 	subeq	r2, r3, #0
    4bc8:	23d80000 	bicscs	r0, r8, #0
    4bcc:	01a8f000 	undefined instruction 0x01a8f000
    4bd0:	c0010000 	andgt	r0, r1, r0
    4bd4:	00025f21 	andeq	r5, r2, r1, lsr #30
    4bd8:	02541800 	subseq	r1, r4, #0
    4bdc:	56060000 	strpl	r0, [r6], -r0
    4be0:	93570493 	cmpls	r7, #-1828716544	; 0x93000000
    4be4:	01c02604 	biceq	r2, r0, r4, lsl #12
    4be8:	6a170000 	bvs	5c4bf0 <__standby_start+0x5c4bf0>
    4bec:	af000002 	svcge	0x00000002
    4bf0:	17000010 	smladne	r0, r0, r0, r0
    4bf4:	00000275 	andeq	r0, r0, r5, ror r2
    4bf8:	000010c7 	andeq	r1, r0, r7, asr #1
    4bfc:	00028017 	andeq	r8, r2, r7, lsl r0
    4c00:	0010ef00 	andseq	lr, r0, r0, lsl #30
    4c04:	00000000 	andeq	r0, r0, r0
    4c08:	1f62011d 	svcne	0x0062011d
    4c0c:	27010000 	strcs	r0, [r1, -r0]
    4c10:	24cc0102 	strbcs	r0, [ip], #258	; 0x102
    4c14:	24d0f000 	ldrbcs	pc, [r0]
    4c18:	5d01f000 	stcpl	0, cr15, [r1]
    4c1c:	0000060c 	andeq	r0, r0, ip, lsl #12
    4c20:	6b6c6327 	blvs	1b1d8c4 <__standby_start+0x1b1d8c4>
    4c24:	02270100 	eoreq	r0, r7, #0
    4c28:	00000177 	andeq	r0, r0, r7, ror r1
    4c2c:	00001102 	andeq	r1, r0, r2, lsl #2
    4c30:	3d012200 	sfmcc	f2, 4, [r1]	; (stccc 2, cr2, [r1])
    4c34:	0100001f 	tsteq	r0, pc, lsl r0
    4c38:	24d0015c 	ldrbcs	r0, [r0], #348	; 0x15c
    4c3c:	25a8f000 	strcs	pc, [r8]!
    4c40:	1115f000 	tstpne	r5, r0
    4c44:	066d0000 	strbteq	r0, [sp], -r0
    4c48:	36280000 	strtcc	r0, [r8], -r0
    4c4c:	01000020 	tsteq	r0, r0, lsr #32
    4c50:	0001975c 	andeq	r9, r1, ip, asr r7
    4c54:	00113400 	andseq	r3, r1, r0, lsl #8
    4c58:	00692900 	rsbeq	r2, r9, r0, lsl #18
    4c5c:	01975e01 	orrseq	r5, r7, r1, lsl #28
    4c60:	11470000 	cmpne	r7, r0
    4c64:	4a240000 	bmi	904c6c <__standby_start+0x904c6c>
    4c68:	01000016 	tsteq	r0, r6, lsl r0
    4c6c:	0001975f 	andeq	r9, r1, pc, asr r7
    4c70:	00117000 	andseq	r7, r1, r0
    4c74:	21a41500 	undefined instruction 0x21a41500
    4c78:	60010000 	andvs	r0, r1, r0
    4c7c:	00000197 	muleq	r0, r7, r1
    4c80:	32245401 	eorcc	r5, r4, #16777216	; 0x1000000
    4c84:	01000020 	tsteq	r0, r0, lsr #32
    4c88:	00019761 	andeq	r9, r1, r1, ror #14
    4c8c:	00118300 	andseq	r8, r1, r0, lsl #6
    4c90:	01220000 	teqeq	r2, r0
    4c94:	0000208b 	andeq	r2, r0, fp, lsl #1
    4c98:	a8014e01 	stmdage	r1, {r0, r9, sl, fp, lr}
    4c9c:	fcf00025 	ldc2l	0, cr0, [r0], #148	; 0x94
    4ca0:	96f00025 	ldrbtls	r0, [r0], r5, lsr #32
    4ca4:	90000011 	andls	r0, r0, r1, lsl r0
    4ca8:	11000006 	tstne	r0, r6
    4cac:	50010069 	andpl	r0, r1, r9, rrx
    4cb0:	00000197 	muleq	r0, r7, r1
    4cb4:	58012200 	stmdapl	r1, {r9, sp}
    4cb8:	01000021 	tsteq	r0, r1, lsr #32
    4cbc:	25fc0123 	ldrbcs	r0, [ip, #291]!	; 0x123
    4cc0:	262cf000 	strtcs	pc, [ip], -r0
    4cc4:	11b5f000 	undefined instruction 0x11b5f000
    4cc8:	06b90000 	ldrteq	r0, [r9], r0
    4ccc:	4a240000 	bmi	904cd4 <__standby_start+0x904cd4>
    4cd0:	01000016 	tsteq	r0, r6, lsl r0
    4cd4:	00019725 	andeq	r9, r1, r5, lsr #14
    4cd8:	0011d400 	andseq	sp, r1, r0, lsl #8
    4cdc:	012a0000 	teqeq	sl, r0
    4ce0:	0000204e 	andeq	r2, r0, lr, asr #32
    4ce4:	8c01db01 	stchi	11, cr13, [r1], {1}
    4ce8:	2c000001 	stccs	0, cr0, [r0], {1}
    4cec:	a0f00026 	rscsge	r0, r0, r6, lsr #32
    4cf0:	f2f00028 	vext.8	d16, d0, d24, #0
    4cf4:	4e000011 	mcrmi	0, 0, r0, cr0, cr1, {0}
    4cf8:	28000008 	stmdacs	r0, {r3}
    4cfc:	00000322 	andeq	r0, r0, r2, lsr #6
    4d00:	084edb01 	stmdaeq	lr, {r0, r8, r9, fp, ip, lr, pc}^
    4d04:	12110000 	andsne	r0, r1, #0
    4d08:	69110000 	ldmdbvs	r1, {}
    4d0c:	97dd0100 	ldrbls	r0, [sp, r0, lsl #2]
    4d10:	24000001 	strcs	r0, [r0], #-1
    4d14:	0000164a 	andeq	r1, r0, sl, asr #12
    4d18:	0197de01 	orrseq	sp, r7, r1, lsl #28
    4d1c:	122f0000 	eorne	r0, pc, #0
    4d20:	ca0a0000 	bgt	284d28 <__standby_start+0x284d28>
    4d24:	0100001d 	tsteq	r0, sp, lsl r0
    4d28:	00018cdf 	ldrdeq	r8, [r1], -pc
    4d2c:	01d52b00 	bicseq	r2, r5, r0, lsl #22
    4d30:	26500000 	ldrbcs	r0, [r0], -r0
    4d34:	2664f000 	strbtcs	pc, [r4], -r0
    4d38:	ee01f000 	cdp	0, 0, cr15, cr1, cr0, {0}
    4d3c:	0000072f 	andeq	r0, r0, pc, lsr #14
    4d40:	0026501f 	eoreq	r5, r6, pc, lsl r0
    4d44:	002664f0 	strdeq	r6, [r6], -r0
    4d48:	01e317f0 	strdeq	r1, [r3, #112]!	; 0x70
    4d4c:	129a0000 	addsne	r0, sl, #0
    4d50:	00000000 	andeq	r0, r0, r0
    4d54:	00028c2b 	andeq	r8, r2, fp, lsr #24
    4d58:	00266400 	eoreq	r6, r6, r0, lsl #8
    4d5c:	002670f0 	strdeq	r7, [r6], -r0
    4d60:	5bf101f0 	blpl	ffc45528 <__bss_end+0xfc4293c>
    4d64:	21000007 	tstcs	r0, r7
    4d68:	000003cf 	andeq	r0, r0, pc, asr #7
    4d6c:	0026641f 	eoreq	r6, r6, pc, lsl r4
    4d70:	002670f0 	strdeq	r7, [r6], -r0
    4d74:	02a617f0 	adceq	r1, r6, #62914560	; 0x3c00000
    4d78:	12ad0000 	adcne	r0, sp, #0
    4d7c:	00000000 	andeq	r0, r0, r0
    4d80:	0002b32b 	andeq	fp, r2, fp, lsr #6
    4d84:	00267000 	eoreq	r7, r6, r0
    4d88:	002680f0 	strdeq	r8, [r6], -r0
    4d8c:	82f401f0 	rscshi	r0, r4, #60	; 0x3c
    4d90:	1f000007 	svcne	0x00000007
    4d94:	f0002670 	undefined instruction 0xf0002670
    4d98:	f0002680 	undefined instruction 0xf0002680
    4d9c:	0002c117 	andeq	ip, r2, r7, lsl r1
    4da0:	0012c000 	andseq	ip, r2, r0
    4da4:	2c000000 	stccs	0, cr0, [r0], {0}
    4da8:	0000028c 	andeq	r0, r0, ip, lsl #5
    4dac:	f000273c 	undefined instruction 0xf000273c
    4db0:	f0002748 	undefined instruction 0xf0002748
    4db4:	af011d01 	svcge	0x00011d01
    4db8:	21000007 	tstcs	r0, r7
    4dbc:	000003cf 	andeq	r0, r0, pc, asr #7
    4dc0:	00273c1f 	eoreq	r3, r7, pc, lsl ip
    4dc4:	002748f0 	strdeq	r4, [r7], -r0
    4dc8:	02a617f0 	adceq	r1, r6, #62914560	; 0x3c00000
    4dcc:	12d30000 	sbcsne	r0, r3, #0
    4dd0:	00000000 	andeq	r0, r0, r0
    4dd4:	0001ef2c 	andeq	lr, r1, ip, lsr #30
    4dd8:	00276c00 	eoreq	r6, r7, r0, lsl #24
    4ddc:	002798f0 	strdeq	r9, [r7], -r0
    4de0:	012c01f0 	strdeq	r0, [ip, -r0]!
    4de4:	000007e1 	andeq	r0, r0, r1, ror #15
    4de8:	0003f121 	andeq	pc, r3, r1, lsr #2
    4dec:	276c1f00 	strbcs	r1, [ip, -r0, lsl #30]!
    4df0:	2798f000 	ldrcs	pc, [r8, r0]
    4df4:	0a17f000 	beq	600dfc <__standby_start+0x600dfc>
    4df8:	e6000002 	str	r0, [r0], -r2
    4dfc:	19000012 	stmdbne	r0, {r1, r4}
    4e00:	00000216 	andeq	r0, r0, r6, lsl r2
    4e04:	cd2d0000 	stcgt	0, cr0, [sp]
    4e08:	30000002 	andcc	r0, r0, r2
    4e0c:	d8f00028 	ldmle	r0!, {r3, r5}^
    4e10:	01000001 	tsteq	r0, r1
    4e14:	08050154 	stmdaeq	r5, {r2, r4, r6, r8}
    4e18:	f0260000 	undefined instruction 0xf0260000
    4e1c:	17000001 	strne	r0, [r0, -r1]
    4e20:	000002db 	ldrdeq	r0, [r0], -fp
    4e24:	000012f9 	strdeq	r1, [r0], -r9
    4e28:	232d0000 	teqcs	sp, #0
    4e2c:	34000002 	strcc	r0, [r0], #-2
    4e30:	08f00028 	ldmeq	r0!, {r3, r5}^
    4e34:	01000002 	tsteq	r0, r2
    4e38:	08290155 	stmdaeq	r9!, {r0, r2, r4, r6, r8}
    4e3c:	20260000 	eorcs	r0, r6, r0
    4e40:	17000002 	strne	r0, [r0, -r2]
    4e44:	00000236 	andeq	r0, r0, r6, lsr r2
    4e48:	0000130c 	andeq	r1, r0, ip, lsl #6
    4e4c:	e71e0000 	ldr	r0, [lr, -r0]
    4e50:	68000002 	stmdavs	r0, {r1}
    4e54:	8cf00028 	ldclhi	0, cr0, [r0], #160	; 0xa0
    4e58:	01f00028 	mvnseq	r0, r8, lsr #32
    4e5c:	681f015c 	ldmdavs	pc, {r2, r3, r4, r6, r8}
    4e60:	8cf00028 	ldclhi	0, cr0, [r0], #160	; 0xa0
    4e64:	17f00028 	ldrbne	r0, [r0, r8, lsr #32]!
    4e68:	000002f5 	strdeq	r0, [r0], -r5
    4e6c:	0000132a 	andeq	r1, r0, sl, lsr #6
    4e70:	2e000000 	cdpcs	0, 0, cr0, cr0, cr0, {0}
    4e74:	0001bb04 	andeq	fp, r1, r4, lsl #22
    4e78:	01972f00 	orrseq	r2, r7, r0, lsl #30
    4e7c:	08640000 	stmdaeq	r4!, {}^
    4e80:	2c300000 	ldccs	0, cr0, [r0]
    4e84:	1f000000 	svcne	0x00000000
    4e88:	21813100 	orrcs	r3, r1, r0, lsl #2
    4e8c:	a0010000 	andge	r0, r1, r0
    4e90:	00000854 	andeq	r0, r0, r4, asr r8
    4e94:	94030501 	strls	r0, [r3], #-1281	; 0x501
    4e98:	00f00029 	rscseq	r0, r0, r9, lsr #32

Disassembly of section .debug_line:

00000000 <.debug_line>:
   0:	0000014b 	andeq	r0, r0, fp, asr #2
   4:	00a70002 	adceq	r0, r7, r2
   8:	01020000 	tsteq	r2, r0
   c:	000d0efb 	strdeq	r0, [sp], -fp
  10:	01010101 	tsteq	r1, r1, lsl #2
  14:	01000000 	tsteq	r0, r0
  18:	2f010000 	svccs	0x00010000
  1c:	656d6f68 	strbvs	r6, [sp, #-3944]!	; 0xf68
  20:	6b696d2f 	blvs	1a5b4e4 <__standby_start+0x1a5b4e4>
  24:	6f772f65 	svcvs	0x00772f65
  28:	6c2f6b72 	stcvs	11, cr6, [pc], #-456	; 0xfffffe38
  2c:	78756e69 	ldmdavc	r5!, {r0, r3, r5, r6, r9, sl, fp, sp, lr}^
  30:	3432365f 	ldrtcc	r3, [r2], #-1631	; 0x65f
  34:	636e692f 	cmnvs	lr, #770048	; 0xbc000
  38:	6564756c 	strbvs	r7, [r4, #-1388]!	; 0x56c
  3c:	6e696c2f 	cdpvs	12, 6, cr6, cr9, cr15, {1}
  40:	702f7875 	eorvc	r7, pc, r5, ror r8
  44:	7265776f 	rsbvc	r7, r5, #29097984	; 0x1bc0000
  48:	002e2e00 	eoreq	r2, lr, r0, lsl #28
  4c:	61747300 	cmnvs	r4, r0, lsl #6
  50:	7962646e 	stmdbvc	r2!, {r1, r2, r3, r5, r6, sl, sp, lr}^
  54:	0000632e 	andeq	r6, r0, lr, lsr #6
  58:	77610000 	strbvc	r0, [r1, -r0]!
  5c:	2e6d705f 	mcrcs	0, 3, r7, cr13, cr15, {2}
  60:	00010068 	andeq	r0, r1, r8, rrx
  64:	6d6f6300 	stclvs	3, cr6, [pc]
  68:	2e6e6f6d 	cdpcs	15, 6, cr6, cr14, cr13, {3}
  6c:	00000068 	andeq	r0, r0, r8, rrx
  70:	61747300 	cmnvs	r4, r0, lsl #6
  74:	7962646e 	stmdbvc	r2!, {r1, r2, r3, r5, r6, sl, sp, lr}^
  78:	6f6c635f 	svcvs	0x006c635f
  7c:	682e6b63 	stmdavs	lr!, {r0, r1, r5, r6, r8, r9, fp, sp, lr}
  80:	00000000 	andeq	r0, r0, r0
  84:	6e617473 	mcrvs	4, 3, r7, cr1, cr3, {3}
  88:	5f796264 	svcpl	0x00796264
  8c:	65776f70 	ldrbvs	r6, [r7, #-3952]!	; 0xf70
  90:	00682e72 	rsbeq	r2, r8, r2, ror lr
  94:	73000000 	movwvc	r0, #0
  98:	646e6174 	strbtvs	r6, [lr], #-372	; 0x174
  9c:	695f7962 	ldmdbvs	pc, {r1, r5, r6, r8, fp, ip, sp, lr}^
  a0:	682e746e 	stmdavs	lr!, {r1, r2, r3, r5, r6, sl, ip, sp, lr}
  a4:	00000000 	andeq	r0, r0, r0
  a8:	682e6d70 	stmdavs	lr!, {r4, r5, r6, r8, sl, fp, sp, lr}
  ac:	00000200 	andeq	r0, r0, r0, lsl #4
  b0:	02050000 	andeq	r0, r5, #0
  b4:	f0000000 	undefined instruction 0xf0000000
  b8:	31013d03 	tstcc	r1, r3, lsl #26
  bc:	2e77036d 	cdpcs	3, 7, cr0, cr7, cr13, {3}
  c0:	312e0b03 	teqcc	lr, r3, lsl #22
  c4:	2f89a2a1 	svccs	0x0089a2a1
  c8:	4c2f2f2f 	stcmi	15, cr2, [pc], #-188	; 0xffffff44
  cc:	4c834c67 	stcmi	12, cr4, [r3], {103}	; 0x67
  d0:	4c4b2f83 	mcrrmi	15, 8, r2, fp, cr3
  d4:	2f834c84 	svccs	0x00834c84
  d8:	2f67844c 	svccs	0x0067844c
  dc:	034e834d 	movteq	r8, #58189	; 0xe34d
  e0:	034a00ce 	movteq	r0, #41166	; 0xa0ce
  e4:	302e7fb2 	undefined instruction 0x302e7fb2
  e8:	2e00c503 	cfsh32cs	mvfx12, mvfx0, #3
  ec:	2a324d4d 	bcs	c93628 <__standby_start+0xc93628>
  f0:	2f2f2f2f 	svccs	0x002f2f2f
  f4:	2f4d4b2f 	svccs	0x004d4b2f
  f8:	67314b4b 	ldrvs	r4, [r1, -fp, asr #22]!
  fc:	4b312b4d 	blmi	c4ae38 <__standby_start+0xc4ae38>
 100:	83304b69 	teqhi	r0, #107520	; 0x1a400
 104:	364e2f30 	undefined instruction 0x364e2f30
 108:	032e1703 	teqeq	lr, #786432	; 0xc0000
 10c:	31312e77 	teqcc	r1, r7, ror lr
 110:	832f2d4e 	teqhi	pc, #4992	; 0x1380
 114:	2d4b2f2d 	stclcs	15, cr2, [fp, #-180]	; 0xffffff4c
 118:	832d4b83 	teqhi	sp, #134144	; 0x20c00
 11c:	4b832d4b 	blmi	fe0cb650 <__bss_end+0xe0c8a64>
 120:	2d4b832d 	stclcs	3, cr8, [fp, #-180]	; 0xffffff4c
 124:	312b3183 	smlawbcc	fp, r3, r1, r3
 128:	692f852b 	stmdbvs	pc!, {r0, r1, r3, r5, r8, sl, pc}
 12c:	2f4d4b2f 	svccs	0x004d4b2f
 130:	4b4b4d4b 	blmi	12d3664 <__standby_start+0x12d3664>
 134:	7ee6034d 	cdpvc	3, 14, cr0, cr6, cr13, {2}
 138:	3130304a 	teqcc	r0, sl, asr #32
 13c:	8330674d 	teqhi	r0, #20185088	; 0x1340000
 140:	672e0a03 	strvs	r0, [lr, -r3, lsl #20]!
 144:	312f2f2f 	teqcc	pc, pc, lsr #30
 148:	0a026985 	beq	9a764 <__standby_start+0x9a764>
 14c:	5c010100 	stfpls	f0, [r1], {0}
 150:	02000000 	andeq	r0, r0, #0
 154:	00003e00 	andeq	r3, r0, r0, lsl #28
 158:	fb010200 	blx	40962 <__standby_start+0x40962>
 15c:	01000d0e 	tsteq	r0, lr, lsl #26
 160:	00010101 	andeq	r0, r1, r1, lsl #2
 164:	00010000 	andeq	r0, r1, r0
 168:	63000100 	movwvs	r0, #256	; 0x100
 16c:	6f6d6d6f 	svcvs	0x006d6d6f
 170:	00632e6e 	rsbeq	r2, r3, lr, ror #28
 174:	63000000 	movwvs	r0, #0
 178:	6f6d6d6f 	svcvs	0x006d6d6f
 17c:	00682e6e 	rsbeq	r2, r8, lr, ror #28
 180:	73000000 	movwvc	r0, #0
 184:	646e6174 	strbtvs	r6, [lr], #-372	; 0x174
 188:	635f7962 	cmpvs	pc, #1605632	; 0x188000
 18c:	6b636f6c 	blvs	18dbf44 <__standby_start+0x18dbf44>
 190:	0000682e 	andeq	r6, r0, lr, lsr #16
 194:	00000000 	andeq	r0, r0, r0
 198:	03b80205 	undefined instruction 0x03b80205
 19c:	2303f000 	movwcs	pc, #12288	; 0x3000
 1a0:	49c01601 	stmibmi	r0, {r0, r9, sl, ip}^
 1a4:	139e1703 	orrsne	r1, lr, #786432	; 0xc0000
 1a8:	04021167 	streq	r1, [r2], #-359	; 0x167
 1ac:	6a010100 	bvs	405b4 <__standby_start+0x405b4>
 1b0:	02000000 	andeq	r0, r0, #0
 1b4:	00001e00 	andeq	r1, r0, r0, lsl #28
 1b8:	fb010200 	blx	409c2 <__standby_start+0x409c2>
 1bc:	01000d0e 	tsteq	r0, lr, lsl #26
 1c0:	00010101 	andeq	r0, r1, r1, lsl #2
 1c4:	00010000 	andeq	r0, r1, r0
 1c8:	73000100 	movwvc	r0, #256	; 0x100
 1cc:	6b636174 	blvs	18d87a4 <__standby_start+0x18d87a4>
 1d0:	0000532e 	andeq	r5, r0, lr, lsr #6
 1d4:	00000000 	andeq	r0, r0, r0
 1d8:	04000205 	streq	r0, [r0], #-517	; 0x205
 1dc:	2f1af000 	svccs	0x001af000
 1e0:	342f332f 	strtcc	r3, [pc], #815	; 1e8 <__standby_start+0x1e8>
 1e4:	332f2f30 	teqcc	pc, #192	; 0xc0
 1e8:	2f2f2f30 	svccs	0x002f2f30
 1ec:	2f2f2f2f 	svccs	0x002f2f2f
 1f0:	2f2f2f2f 	svccs	0x002f2f2f
 1f4:	2f302f2f 	svccs	0x00302f2f
 1f8:	2f2f2f2f 	svccs	0x002f2f2f
 1fc:	2f2f2f2f 	svccs	0x002f2f2f
 200:	2f2f2f2f 	svccs	0x002f2f2f
 204:	2f312f2f 	svccs	0x00312f2f
 208:	2f2f2f2f 	svccs	0x002f2f2f
 20c:	2f2f2f2f 	svccs	0x002f2f2f
 210:	2f2f2f2f 	svccs	0x002f2f2f
 214:	2f302f2f 	svccs	0x00302f2f
 218:	01002002 	tsteq	r0, r2
 21c:	00019f01 	andeq	r9, r1, r1, lsl #30
 220:	9a000200 	bls	a28 <__standby_start+0xa28>
 224:	02000000 	andeq	r0, r0, #0
 228:	0d0efb01 	vstreq	d15, [lr, #-4]
 22c:	01010100 	tsteq	r1, r0, lsl #2
 230:	00000001 	andeq	r0, r0, r1
 234:	01000001 	tsteq	r0, r1
 238:	6d6f682f 	stclvs	8, cr6, [pc, #-188]!	; 0xffffff44
 23c:	696d2f65 	stmdbvs	sp!, {r0, r2, r5, r6, r8, r9, sl, fp, sp}^
 240:	772f656b 	strvc	r6, [pc, -fp, ror #10]!
 244:	2f6b726f 	svccs	0x006b726f
 248:	756e696c 	strbvc	r6, [lr, #-2412]!	; 0x96c
 24c:	32365f78 	eorscc	r5, r6, #480	; 0x1e0
 250:	72612f34 	rsbvc	r2, r1, #208	; 0xd0
 254:	612f6863 	teqvs	pc, r3, ror #16
 258:	6d2f6d72 	stcvs	13, cr6, [pc, #-456]!	; 0xfffffe38
 25c:	2d686361 	stclcs	3, cr6, [r8, #-388]!	; 0xfffffe7c
 260:	356e7573 	strbcc	r7, [lr, #-1395]!	; 0x573
 264:	6e692f69 	cdpvs	15, 6, cr2, cr9, cr9, {3}
 268:	64756c63 	ldrbtvs	r6, [r5], #-3171	; 0xc63
 26c:	616d2f65 	cmnvs	sp, r5, ror #30
 270:	2e006863 	cdpcs	8, 0, cr6, cr0, cr3, {3}
 274:	7300002e 	movwvc	r0, #46	; 0x2e
 278:	646e6174 	strbtvs	r6, [lr], #-372	; 0x174
 27c:	635f7962 	cmpvs	pc, #1605632	; 0x188000
 280:	6b636f6c 	blvs	18dc038 <__standby_start+0x18dc038>
 284:	0000632e 	andeq	r6, r0, lr, lsr #6
 288:	6f630000 	svcvs	0x00630000
 28c:	6e6f6d6d 	cdpvs	13, 6, cr6, cr15, cr13, {3}
 290:	0000682e 	andeq	r6, r0, lr, lsr #16
 294:	63630000 	cmnvs	r3, #0
 298:	725f756d 	subsvc	r7, pc, #457179136	; 0x1b400000
 29c:	2e736765 	cdpcs	7, 7, cr6, cr3, cr5, {3}
 2a0:	00010068 	andeq	r0, r1, r8, rrx
 2a4:	61747300 	cmnvs	r4, r0, lsl #6
 2a8:	7962646e 	stmdbvc	r2!, {r1, r2, r3, r5, r6, sl, sp, lr}^
 2ac:	6f6c635f 	svcvs	0x006c635f
 2b0:	682e6b63 	stmdavs	lr!, {r0, r1, r5, r6, r8, r9, fp, sp, lr}
 2b4:	00000000 	andeq	r0, r0, r0
 2b8:	682e6d70 	stmdavs	lr!, {r4, r5, r6, r8, sl, fp, sp, lr}
 2bc:	00000200 	andeq	r0, r0, r0, lsl #4
 2c0:	02050000 	andeq	r0, r5, #0
 2c4:	f0000524 	undefined instruction 0xf0000524
 2c8:	13012f03 	movwne	r2, #7939	; 0x1f03
 2cc:	032e0f03 	teqeq	lr, #12
 2d0:	32292e75 	eorcc	r2, r9, #1872	; 0x750
 2d4:	03352f2f 	teqeq	r5, #188	; 0xbc
 2d8:	4b2f2e79 	blmi	bcbcc4 <__standby_start+0xbcbcc4>
 2dc:	77034b4b 	strvc	r4, [r3, -fp, asr #22]
 2e0:	2e09034a 	cdpcs	3, 0, cr0, cr9, cr10, {2}
 2e4:	2e770331 	mrccs	3, 3, r0, cr7, cr1, {1}
 2e8:	7903362f 	stmdbvc	r3, {r0, r1, r2, r3, r5, r9, sl, ip, sp}
 2ec:	2f2f2f2e 	svccs	0x002f2f2e
 2f0:	032e7803 	teqeq	lr, #196608	; 0x30000
 2f4:	12032e0f 	andne	r2, r3, #240	; 0xf0
 2f8:	0903149e 	stmdbeq	r3, {r1, r2, r3, r4, r7, sl, ip}
 2fc:	2e77032e 	cdpcs	3, 7, cr0, cr7, cr14, {1}
 300:	4c4b4b67 	mcrrmi	11, 6, r4, fp, cr7
 304:	0f034d4b 	svceq	0x00034d4b
 308:	2933134a 	ldmdbcs	r3!, {r1, r3, r6, r8, r9, ip}
 30c:	0f036984 	svceq	0x00036984
 310:	294f1366 	stmdbcs	pc, {r1, r2, r5, r6, r8, r9, ip}^
 314:	0f036984 	svceq	0x00036984
 318:	294f1366 	stmdbcs	pc, {r1, r2, r5, r6, r8, r9, ip}^
 31c:	0f036984 	svceq	0x00036984
 320:	09031366 	stmdbeq	r3, {r1, r2, r5, r6, r8, r9, ip}
 324:	2e77032e 	cdpcs	3, 7, cr0, cr7, cr14, {1}
 328:	67676783 	strbvs	r6, [r7, -r3, lsl #15]!
 32c:	03696767 	cmneq	r9, #27000832	; 0x19c0000
 330:	03134a0f 	tsteq	r3, #61440	; 0xf000
 334:	77032e09 	strvc	r2, [r3, -r9, lsl #28]
 338:	6767832e 	strbvs	r8, [r7, -lr, lsr #6]!
 33c:	69676767 	stmdbvs	r7!, {r0, r1, r2, r5, r6, r8, r9, sl, sp, lr}^
 340:	134a0f03 	movtne	r0, #44803	; 0xaf03
 344:	03842c30 	orreq	r2, r4, #12288	; 0x3000
 348:	30134a0f 	andscc	r4, r3, pc, lsl #20
 34c:	0f03842c 	svceq	0x0003842c
 350:	294f134a 	stmdbcs	pc, {r1, r3, r6, r8, r9, ip}^
 354:	68676783 	stmdavs	r7!, {r0, r1, r7, r8, r9, sl, sp, lr}^
 358:	134a0f03 	movtne	r0, #44803	; 0xaf03
 35c:	6783294f 	strvs	r2, [r3, pc, asr #18]
 360:	0f036867 	svceq	0x00036867
 364:	306b134a 	rsbcc	r1, fp, sl, asr #6
 368:	a19fbb2c 	orrsge	fp, pc, ip, lsr #22
 36c:	134a0f03 	movtne	r0, #44803	; 0xaf03
 370:	bb2c306b 	bllt	b0c524 <__standby_start+0xb0c524>
 374:	0f038583 	svceq	0x00038583
 378:	316b134a 	cmncc	fp, sl, asr #6
 37c:	83839f2b 	orrhi	r9, r3, #172	; 0xac
 380:	4a0f0387 	bmi	3c11a4 <__standby_start+0x3c11a4>
 384:	2b316b13 	blcs	c5afd8 <__standby_start+0xc5afd8>
 388:	6b676783 	blvs	19da19c <__standby_start+0x19da19c>
 38c:	2f4a0e03 	svccs	0x004a0e03
 390:	312b312f 	teqcc	fp, pc, lsr #2
 394:	312b312b 	teqcc	fp, fp, lsr #2
 398:	13661103 	cmnne	r6, #-1073741824	; 0xc0000000
 39c:	03842c4c 	orreq	r2, r4, #19456	; 0x4c00
 3a0:	30134a0f 	andscc	r4, r3, pc, lsl #20
 3a4:	1103842c 	tstne	r3, ip, lsr #8
 3a8:	0334134a 	teqeq	r4, #671088641	; 0x28000001
 3ac:	67682e7a 	undefined instruction 0x67682e7a
 3b0:	0f036867 	svceq	0x00036867
 3b4:	2933144a 	ldmdbcs	r3!, {r1, r3, r6, sl, ip}
 3b8:	02a0a09f 	adceq	sl, r0, #159	; 0x9f
 3bc:	01010004 	tsteq	r1, r4
 3c0:	000000bd 	strheq	r0, [r0], -sp
 3c4:	00410002 	subeq	r0, r1, r2
 3c8:	01020000 	tsteq	r2, r0
 3cc:	000d0efb 	strdeq	r0, [sp], -fp
 3d0:	01010101 	tsteq	r1, r1, lsl #2
 3d4:	01000000 	tsteq	r0, r0
 3d8:	00010000 	andeq	r0, r1, r0
 3dc:	6e617473 	mcrvs	4, 3, r7, cr1, cr3, {3}
 3e0:	5f796264 	svcpl	0x00796264
 3e4:	2e746e69 	cdpcs	14, 7, cr6, cr4, cr9, {3}
 3e8:	00000063 	andeq	r0, r0, r3, rrx
 3ec:	6d6f6300 	stclvs	3, cr6, [pc]
 3f0:	2e6e6f6d 	cdpcs	15, 6, cr6, cr14, cr13, {3}
 3f4:	00000068 	andeq	r0, r0, r8, rrx
 3f8:	61747300 	cmnvs	r4, r0, lsl #6
 3fc:	7962646e 	stmdbvc	r2!, {r1, r2, r3, r5, r6, sl, sp, lr}^
 400:	746e695f 	strbtvc	r6, [lr], #-2399	; 0x95f
 404:	0000682e 	andeq	r6, r0, lr, lsr #16
 408:	00000000 	andeq	r0, r0, r0
 40c:	0a840205 	beq	fe100c28 <__bss_end+0xe0fe03c>
 410:	2503f000 	strcs	pc, [r3]
 414:	0e031301 	cdpeq	3, 0, cr1, cr3, cr1, {0}
 418:	2e72032e 	cdpcs	3, 7, cr0, cr2, cr14, {1}
 41c:	032e1103 	teqeq	lr, #-1073741824	; 0xc0000000
 420:	2f322e6e 	svccs	0x00322e6e
 424:	032e1803 	teqeq	lr, #196608	; 0x30000
 428:	2f2f2e69 	svccs	0x002f2e69
 42c:	032f2f2f 	teqeq	pc, #188	; 0xbc
 430:	0a032e76 	beq	cbe10 <__standby_start+0xcbe10>
 434:	78032f2e 	stmdavc	r3, {r1, r2, r3, r5, r8, r9, sl, fp, sp}
 438:	03352f2e 	teqeq	r5, #184	; 0xb8
 43c:	2f2f2e7a 	svccs	0x002f2e7a
 440:	10032f2f 	andne	r2, r3, pc, lsr #30
 444:	2e75032e 	cdpcs	3, 7, cr0, cr5, cr14, {1}
 448:	2f2f2f2f 	svccs	0x002f2f2f
 44c:	2f2f2f2f 	svccs	0x002f2f2f
 450:	0f033131 	svceq	0x00033131
 454:	0b031466 	bleq	c55f4 <__standby_start+0xc55f4>
 458:	2e75032e 	cdpcs	3, 7, cr0, cr5, cr14, {1}
 45c:	4b4b4b67 	blmi	12d3200 <__standby_start+0x12d3200>
 460:	4b4b4b4b 	blmi	12d3194 <__standby_start+0x12d3194>
 464:	4a0f034d 	bmi	3c11a0 <__standby_start+0x3c11a0>
 468:	45322a17 	ldrmi	r2, [r2, #-2583]!	; 0xa17
 46c:	2a314b33 	bcs	c53140 <__standby_start+0xc53140>
 470:	0f036983 	svceq	0x00036983
 474:	2930174a 	ldmdbcs	r0!, {r1, r3, r6, r8, r9, sl, ip}
 478:	2f682c33 	svccs	0x00682c33
 47c:	01000802 	tsteq	r0, r2, lsl #16
 480:	00005101 	andeq	r5, r0, r1, lsl #2
 484:	2f000200 	svccs	0x00000200
 488:	02000000 	andeq	r0, r0, #0
 48c:	0d0efb01 	vstreq	d15, [lr, #-4]
 490:	01010100 	tsteq	r1, r0, lsl #2
 494:	00000001 	andeq	r0, r0, r1
 498:	01000001 	tsteq	r0, r1
 49c:	61747300 	cmnvs	r4, r0, lsl #6
 4a0:	7962646e 	stmdbvc	r2!, {r1, r2, r3, r5, r6, sl, sp, lr}^
 4a4:	2e72695f 	mrccs	9, 3, r6, cr2, cr15, {2}
 4a8:	00000063 	andeq	r0, r0, r3, rrx
 4ac:	6d6f6300 	stclvs	3, cr6, [pc]
 4b0:	2e6e6f6d 	cdpcs	15, 6, cr6, cr14, cr13, {3}
 4b4:	00000068 	andeq	r0, r0, r8, rrx
 4b8:	05000000 	streq	r0, [r0]
 4bc:	000bf402 	andeq	pc, fp, r2, lsl #8
 4c0:	012303f0 	strdeq	r0, [r3, -r0]!
 4c4:	4a110314 	bmi	44111c <__standby_start+0x44111c>
 4c8:	4a110314 	bmi	441120 <__standby_start+0x441120>
 4cc:	4a100314 	bmi	401124 <__standby_start+0x401124>
 4d0:	00040214 	andeq	r0, r4, r4, lsl r2
 4d4:	007d0101 	rsbseq	r0, sp, r1, lsl #2
 4d8:	00020000 	andeq	r0, r2, r0
 4dc:	00000041 	andeq	r0, r0, r1, asr #32
 4e0:	0efb0102 	cdpeq	1, 15, cr0, cr11, cr2, {0}
 4e4:	0101000d 	tsteq	r1, sp
 4e8:	00000101 	andeq	r0, r0, r1, lsl #2
 4ec:	00000100 	andeq	r0, r0, r0, lsl #2
 4f0:	74730001 	ldrbtvc	r0, [r3], #-1
 4f4:	62646e61 	rsbvs	r6, r4, #1552	; 0x610
 4f8:	656b5f79 	strbvs	r5, [fp, #-3961]!	; 0xf79
 4fc:	00632e79 	rsbeq	r2, r3, r9, ror lr
 500:	63000000 	movwvs	r0, #0
 504:	6f6d6d6f 	svcvs	0x006d6d6f
 508:	00682e6e 	rsbeq	r2, r8, lr, ror #28
 50c:	73000000 	movwvc	r0, #0
 510:	646e6174 	strbtvs	r6, [lr], #-372	; 0x174
 514:	6b5f7962 	blvs	17deaa4 <__standby_start+0x17deaa4>
 518:	682e7965 	stmdavs	lr!, {r0, r2, r5, r6, r8, fp, ip, sp, lr}
 51c:	00000000 	andeq	r0, r0, r0
 520:	02050000 	andeq	r0, r5, #0
 524:	f0000c14 	undefined instruction 0xf0000c14
 528:	0100c403 	tsteq	r0, r3, lsl #8
 52c:	2d2c3113 	stfcss	f3, [ip, #-76]!	; 0xffffffb4
 530:	0f03304b 	svceq	0x0003304b
 534:	2c84134a 	stccs	3, cr1, [r4], {74}	; 0x4a
 538:	49034e30 	stmdbmi	r3, {r4, r5, r9, sl, fp, lr}
 53c:	0334144a 	teqeq	r4, #1241513984	; 0x4a000000
 540:	31302e78 	teqcc	r0, r8, ror lr
 544:	292f2d30 	stmdbcs	pc!, {r4, r5, r8, sl, fp, sp}
 548:	2f2f3131 	svccs	0x002f3131
 54c:	2f29332d 	svccs	0x0029332d
 550:	0602312f 	streq	r3, [r2], -pc, lsr #2
 554:	ab010100 	blge	4095c <__standby_start+0x4095c>
 558:	02000001 	andeq	r0, r0, #1
 55c:	00006100 	andeq	r6, r0, r0, lsl #2
 560:	fb010200 	blx	40d6a <__standby_start+0x40d6a>
 564:	01000d0e 	tsteq	r0, lr, lsl #26
 568:	00010101 	andeq	r0, r1, r1, lsl #2
 56c:	00010000 	andeq	r0, r1, r0
 570:	2e2e0100 	sufcse	f0, f6, f0
 574:	74730000 	ldrbtvc	r0, [r3]
 578:	62646e61 	rsbvs	r6, r4, #1552	; 0x610
 57c:	6f705f79 	svcvs	0x00705f79
 580:	2e726577 	mrccs	5, 3, r6, cr2, cr7, {3}
 584:	00000063 	andeq	r0, r0, r3, rrx
 588:	2e6d7000 	cdpcs	0, 6, cr7, cr13, cr0, {0}
 58c:	00010068 	andeq	r0, r1, r8, rrx
 590:	6d6f6300 	stclvs	3, cr6, [pc]
 594:	2e6e6f6d 	cdpcs	15, 6, cr6, cr14, cr13, {3}
 598:	00000068 	andeq	r0, r0, r8, rrx
 59c:	61747300 	cmnvs	r4, r0, lsl #6
 5a0:	7962646e 	stmdbvc	r2!, {r1, r2, r3, r5, r6, sl, sp, lr}^
 5a4:	776f705f 	undefined instruction 0x776f705f
 5a8:	682e7265 	stmdavs	lr!, {r0, r2, r5, r6, r9, ip, sp, lr}
 5ac:	00000000 	andeq	r0, r0, r0
 5b0:	6e617473 	mcrvs	4, 3, r7, cr1, cr3, {3}
 5b4:	5f796264 	svcpl	0x00796264
 5b8:	2e697774 	mcrcs	7, 3, r7, cr9, cr4, {3}
 5bc:	00000068 	andeq	r0, r0, r8, rrx
 5c0:	05000000 	streq	r0, [r0]
 5c4:	000cb002 	andeq	fp, ip, r2
 5c8:	02b103f0 	adcseq	r0, r1, #-1073741821	; 0xc0000003
 5cc:	032d4a01 	teqeq	sp, #4096	; 0x1000
 5d0:	644a7faa 	strbvs	r7, [sl], #-4010	; 0xfaa
 5d4:	2e00d803 	cdpcs	8, 0, cr13, cr0, cr3, {0}
 5d8:	2e7fa803 	cdpcs	8, 7, cr10, cr15, cr3, {0}
 5dc:	4a00de03 	bmi	37df0 <__standby_start+0x37df0>
 5e0:	2c4ba14e 	stfcsp	f2, [fp], {78}	; 0x4e
 5e4:	2a304c2f 	bcs	c136a8 <__standby_start+0xc136a8>
 5e8:	322c2c4e 	eorcc	r2, ip, #19968	; 0x4e00
 5ec:	0367302c 	cmneq	r7, #44	; 0x2c
 5f0:	49667fae 	stmdbmi	r6!, {r1, r2, r3, r5, r7, r8, r9, sl, fp, ip, sp, lr}^
 5f4:	644a6b03 	strbvs	r6, [sl], #-2819	; 0xb03
 5f8:	032e1703 	teqeq	lr, #786432	; 0xc0000
 5fc:	032c2e6b 	teqeq	ip, #1712	; 0x6b0
 600:	49034a1d 	stmdbmi	r3, {r0, r2, r3, r4, r9, fp, lr}
 604:	00c0034a 	sbceq	r0, r0, sl, asr #6
 608:	030204d6 	movweq	r0, #9430	; 0x24d6
 60c:	042e7ecf 	strteq	r7, [lr], #-3791	; 0xecf
 610:	01b10301 	undefined instruction 0x01b10301
 614:	0302042e 	movweq	r0, #9262	; 0x242e
 618:	6e2e7ecf 	cdpvs	14, 2, cr7, cr14, cr15, {6}
 61c:	01042b2f 	tsteq	r4, pc, lsr #22
 620:	4a01ab03 	bmi	6b234 <__standby_start+0x6b234>
 624:	dd030204 	sfmle	f0, 4, [r3, #-16]	; (stcle 2, cr0, [r3, #-16])
 628:	2f4c827e 	svccs	0x004c827e
 62c:	302c3232 	eorcc	r3, ip, r2, lsr r2
 630:	9a030104 	bls	c0a48 <__standby_start+0xc0a48>
 634:	04864a01 	streq	r4, [r6], #2561	; 0xa01
 638:	7ec90302 	cdpvc	3, 12, cr0, cr9, cr2, {0}
 63c:	0301042e 	movweq	r0, #5166	; 0x142e
 640:	042e01b7 	strteq	r0, [lr], #-439	; 0x1b7
 644:	7ec90302 	cdpvc	3, 12, cr0, cr9, cr2, {0}
 648:	2b2f6e2e 	blcs	bdbf08 <__standby_start+0xbdbf08>
 64c:	b1030104 	tstlt	r3, r4, lsl #2
 650:	02044a01 	andeq	r4, r4, #4096	; 0x1000
 654:	827ed703 	rsbshi	sp, lr, #786432	; 0xc0000
 658:	32322f4c 	eorscc	r2, r2, #304	; 0x130
 65c:	0448302c 	strbeq	r3, [r8], #-44	; 0x2c
 660:	01a00301 	lsleq	r0, r1, #6
 664:	684b2f2e 	stmdavs	fp, {r1, r2, r3, r5, r8, r9, sl, fp, sp}^
 668:	03312d2f 	teqeq	r1, #3008	; 0xbc0
 66c:	3149820a 	cmpcc	r9, sl, lsl #4
 670:	2d2c302c 	stccs	0, cr3, [ip, #-176]!	; 0xffffff50
 674:	4c304831 	ldcmi	8, cr4, [r0], #-196	; 0xffffff3c
 678:	67332d2a 	ldrvs	r2, [r3, -sl, lsr #26]!
 67c:	2d2f2d2f 	stccs	13, cr2, [pc, #-188]!	; 0xffffff44
 680:	8262032f 	rsbhi	r0, r2, #-1140850688	; 0xbc000000
 684:	03662203 	cmneq	r6, #805306368	; 0x30000000
 688:	31827eda 	ldrdcc	r7, [r2, sl]
 68c:	a09f312b 	addsge	r3, pc, fp, lsr #2
 690:	812f9f4c 	teqhi	pc, ip, asr #30
 694:	bb4c314b 	bllt	130cbc8 <__standby_start+0x130cbc8>
 698:	314b812f 	cmpcc	fp, pc, lsr #2
 69c:	812fbb4c 	teqhi	pc, ip, asr #22
 6a0:	bb4c314b 	bllt	130cbd4 <__standby_start+0x130cbd4>
 6a4:	314b812f 	cmpcc	fp, pc, lsr #2
 6a8:	812fbb4c 	teqhi	pc, ip, asr #22
 6ac:	bb4c314b 	bllt	130cbe0 <__standby_start+0x130cbe0>
 6b0:	314b812f 	cmpcc	fp, pc, lsr #2
 6b4:	812fbb4c 	teqhi	pc, ip, asr #22
 6b8:	bb4c314b 	bllt	130cbec <__standby_start+0x130cbec>
 6bc:	314b812f 	cmpcc	fp, pc, lsr #2
 6c0:	7eec0330 	mcrvc	3, 7, r0, cr12, cr0, {1}
 6c4:	4c312e4a 	ldcmi	14, cr2, [r1], #-296	; 0xfffffed8
 6c8:	812fbb4c 	teqhi	pc, ip, asr #22
 6cc:	bb4c314b 	bllt	130cc00 <__standby_start+0x130cc00>
 6d0:	304b812f 	subcc	r8, fp, pc, lsr #2
 6d4:	4b812f9f 	blmi	fe04c558 <__bss_end+0xe04996c>
 6d8:	2fbb4c31 	svccs	0x00bb4c31
 6dc:	4c314b81 	ldcmi	11, cr4, [r1], #-516	; 0xfffffdfc
 6e0:	4b812fbb 	blmi	fe04c5d4 <__bss_end+0xe0499e8>
 6e4:	2fbb4c31 	svccs	0x00bb4c31
 6e8:	4c314b81 	ldcmi	11, cr4, [r1], #-516	; 0xfffffdfc
 6ec:	4b812fbb 	blmi	fe04c5e0 <__bss_end+0xe0499f4>
 6f0:	4b812f30 	blmi	fe04c3b8 <__bss_end+0xe0497cc>
 6f4:	2fbb4c31 	svccs	0x00bb4c31
 6f8:	4c314b81 	ldcmi	11, cr4, [r1], #-516	; 0xfffffdfc
 6fc:	4b812fbb 	blmi	fe04c5f0 <__bss_end+0xe049a04>
 700:	00040232 	andeq	r0, r4, r2, lsr r2
 704:	00d70101 	sbcseq	r0, r7, r1, lsl #2
 708:	00020000 	andeq	r0, r2, r0
 70c:	00000041 	andeq	r0, r0, r1, asr #32
 710:	0efb0102 	cdpeq	1, 15, cr0, cr11, cr2, {0}
 714:	0101000d 	tsteq	r1, sp
 718:	00000101 	andeq	r0, r0, r1, lsl #2
 71c:	00000100 	andeq	r0, r0, r0, lsl #2
 720:	74730001 	ldrbtvc	r0, [r3], #-1
 724:	62646e61 	rsbvs	r6, r4, #1552	; 0x610
 728:	6d745f79 	ldclvs	15, cr5, [r4, #-484]!	; 0xfffffe1c
 72c:	00632e72 	rsbeq	r2, r3, r2, ror lr
 730:	63000000 	movwvs	r0, #0
 734:	6f6d6d6f 	svcvs	0x006d6d6f
 738:	00682e6e 	rsbeq	r2, r8, lr, ror #28
 73c:	73000000 	movwvc	r0, #0
 740:	646e6174 	strbtvs	r6, [lr], #-372	; 0x174
 744:	745f7962 	ldrbvc	r7, [pc], #2402	; 74c <__standby_start+0x74c>
 748:	682e726d 	stmdavs	lr!, {r0, r2, r3, r5, r6, r9, ip, sp, lr}
 74c:	00000000 	andeq	r0, r0, r0
 750:	02050000 	andeq	r0, r5, #0
 754:	f00013d8 	undefined instruction 0xf00013d8
 758:	0100ce03 	tsteq	r0, r3, lsl #28
 75c:	2e090316 	mcrcs	3, 0, r0, cr9, cr6, {0}
 760:	032e7303 	teqeq	lr, #201326592	; 0xc000000
 764:	7a032e0a 	bvc	cbf94 <__standby_start+0xcbf94>
 768:	2f2f2f2e 	svccs	0x002f2f2e
 76c:	2f292f2f 	svccs	0x00292f2f
 770:	2f2f2f2f 	svccs	0x002f2f2f
 774:	1203312f 	andne	r3, r3, #-1073741813	; 0xc000000b
 778:	2a32144a 	bcs	c858a8 <__standby_start+0xc858a8>
 77c:	75033433 	strvc	r3, [r3, #-1075]	; 0x433
 780:	30314b2e 	eorscc	r4, r1, lr, lsr #22
 784:	672f2f2d 	strvs	r2, [pc, -sp, lsr #30]!
 788:	4a120369 	bmi	481534 <__standby_start+0x481534>
 78c:	03678414 	cmneq	r7, #335544320	; 0x14000000
 790:	a0144a12 	andsge	r4, r4, r2, lsl sl
 794:	4a120367 	bmi	481538 <__standby_start+0x481538>
 798:	48844e15 	stmmi	r4, {r0, r2, r4, r9, sl, fp, lr}
 79c:	2e0b0331 	mcrcs	3, 0, r0, cr11, cr1, {1}
 7a0:	354a1203 	strbcc	r1, [sl, #-515]	; 0x203
 7a4:	4b2b6d2a 	blmi	adbc54 <__standby_start+0xadbc54>
 7a8:	852f6767 	strhi	r6, [pc, #-1895]!	; 49 <__standby_start+0x49>
 7ac:	4a7eb603 	bmi	1fadfc0 <__standby_start+0x1fadfc0>
 7b0:	2e110316 	mrccs	3, 0, r0, cr1, cr6, {0}
 7b4:	322e6b03 	eorcc	r6, lr, #3072	; 0xc00
 7b8:	2e090331 	mcrcs	3, 0, r0, cr9, cr1, {1}
 7bc:	2f2e7803 	svccs	0x002e7803
 7c0:	2f2f2f2f 	svccs	0x002f2f2f
 7c4:	2f2f2f2b 	svccs	0x002f2f2b
 7c8:	2e760332 	mrccs	3, 3, r0, cr6, cr2, {1}
 7cc:	2f352f2f 	svccs	0x00352f2f
 7d0:	2e700331 	mrccs	3, 3, r0, cr0, cr1, {1}
 7d4:	2f2e1103 	svccs	0x002e1103
 7d8:	312f2d4b 	teqcc	pc, fp, asr #26
 7dc:	01000802 	tsteq	r0, r2, lsl #16
 7e0:	0000c101 	andeq	ip, r0, r1, lsl #2
 7e4:	41000200 	tstmi	r0, r0, lsl #4
 7e8:	02000000 	andeq	r0, r0, #0
 7ec:	0d0efb01 	vstreq	d15, [lr, #-4]
 7f0:	01010100 	tsteq	r1, r0, lsl #2
 7f4:	00000001 	andeq	r0, r0, r1
 7f8:	01000001 	tsteq	r0, r1
 7fc:	61747300 	cmnvs	r4, r0, lsl #6
 800:	7962646e 	stmdbvc	r2!, {r1, r2, r3, r5, r6, sl, sp, lr}^
 804:	6977745f 	ldmdbvs	r7!, {r0, r1, r2, r3, r4, r6, sl, ip, sp, lr}^
 808:	0000632e 	andeq	r6, r0, lr, lsr #6
 80c:	6f630000 	svcvs	0x00630000
 810:	6e6f6d6d 	cdpvs	13, 6, cr6, cr15, cr13, {3}
 814:	0000682e 	andeq	r6, r0, lr, lsr #16
 818:	74730000 	ldrbtvc	r0, [r3]
 81c:	62646e61 	rsbvs	r6, r4, #1552	; 0x610
 820:	77745f79 	undefined instruction 0x77745f79
 824:	00682e69 	rsbeq	r2, r8, r9, ror #28
 828:	00000000 	andeq	r0, r0, r0
 82c:	cc020500 	cfstr32gt	mvfx0, [r2], {0}
 830:	03f00015 	mvnseq	r0, #21
 834:	6713012e 	ldrvs	r0, [r3, -lr, lsr #2]
 838:	2f2f2c2f 	svccs	0x002f2c2f
 83c:	69674c4c 	stmdbvs	r7!, {r2, r3, r6, sl, fp, lr}^
 840:	6600dd03 	strvs	sp, [r0], -r3, lsl #26
 844:	68332917 	ldmdavs	r3!, {r0, r1, r2, r4, r8, fp, sp}
 848:	660b032f 	strvs	r0, [fp], -pc, lsr #6
 84c:	4f656784 	svcmi	0x00656784
 850:	2d2f6c2f 	stccs	12, cr6, [pc, #-188]!	; 0xffffff44
 854:	6567682f 	strbvs	r6, [r7, #-2095]!	; 0x82f
 858:	2f6c2f4f 	svccs	0x006c2f4f
 85c:	4f656784 	svcmi	0x00656784
 860:	2f4d6b2f 	svccs	0x004d6b2f
 864:	67682f2d 	strbvs	r2, [r8, -sp, lsr #30]!
 868:	6e2f4f65 	cdpvs	15, 2, cr4, cr15, cr5, {3}
 86c:	4f6567a0 	svcmi	0x006567a0
 870:	2d2f6c2f 	stccs	12, cr6, [pc, #-188]!	; 0xffffff44
 874:	6567682f 	strbvs	r6, [r7, #-2095]!	; 0x82f
 878:	846c2f4f 	strbthi	r2, [ip], #-3919	; 0xf4f
 87c:	4b4f6567 	blmi	13d9e20 <__standby_start+0x13d9e20>
 880:	7eda032f 	cdpvc	3, 13, cr0, cr10, cr15, {1}
 884:	682c309e 	stmdavs	ip!, {r1, r2, r3, r4, r7, ip, sp}
 888:	6d656731 	stclvs	7, cr6, [r5, #-196]!	; 0xffffff3c
 88c:	036d6567 	cmneq	sp, #432013312	; 0x19c00000
 890:	03ba01a1 	undefined instruction 0x03ba01a1
 894:	304a7ead 	subcc	r7, sl, sp, lsr #29
 898:	31842c30 	orrcc	r2, r4, r0, lsr ip
 89c:	302c2c4e 	eorcc	r2, ip, lr, asr #24
 8a0:	00040268 	andeq	r0, r4, r8, ror #4
 8a4:	00520101 	subseq	r0, r2, r1, lsl #2
 8a8:	00020000 	andeq	r0, r2, r0
 8ac:	00000030 	andeq	r0, r0, r0, lsr r0
 8b0:	0efb0102 	cdpeq	1, 15, cr0, cr11, cr2, {0}
 8b4:	0101000d 	tsteq	r1, sp
 8b8:	00000101 	andeq	r0, r0, r1, lsl #2
 8bc:	00000100 	andeq	r0, r0, r0, lsl #2
 8c0:	74730001 	ldrbtvc	r0, [r3], #-1
 8c4:	62646e61 	rsbvs	r6, r4, #1552	; 0x610
 8c8:	73755f79 	cmnvc	r5, #484	; 0x1e4
 8cc:	00632e62 	rsbeq	r2, r3, r2, ror #28
 8d0:	63000000 	movwvs	r0, #0
 8d4:	6f6d6d6f 	svcvs	0x006d6d6f
 8d8:	00682e6e 	rsbeq	r2, r8, lr, ror #28
 8dc:	00000000 	andeq	r0, r0, r0
 8e0:	00020500 	andeq	r0, r2, r0, lsl #10
 8e4:	03f00019 	mvnseq	r0, #25
 8e8:	03140126 	tsteq	r4, #-2147483639	; 0x80000009
 8ec:	03144a0f 	tsteq	r4, #61440	; 0xf000
 8f0:	03144a12 	tsteq	r4, #73728	; 0x12000
 8f4:	02144a11 	andseq	r4, r4, #69632	; 0x11000
 8f8:	01010004 	tsteq	r1, r4
 8fc:	00000045 	andeq	r0, r0, r5, asr #32
 900:	00260002 	eoreq	r0, r6, r2
 904:	01020000 	tsteq	r2, r0
 908:	000d0efb 	strdeq	r0, [sp], -fp
 90c:	01010101 	tsteq	r1, r1, lsl #2
 910:	01000000 	tsteq	r0, r0
 914:	00010000 	andeq	r0, r1, r0
 918:	6e617473 	mcrvs	4, 3, r7, cr1, cr3, {3}
 91c:	5f796264 	svcpl	0x00796264
 920:	616c6564 	cmnvs	ip, r4, ror #10
 924:	00532e79 	subseq	r2, r3, r9, ror lr
 928:	00000000 	andeq	r0, r0, r0
 92c:	20020500 	andcs	r0, r2, r0, lsl #10
 930:	18f00019 	ldmne	r0!, {r0, r3, r4}^
 934:	2f302f2f 	svccs	0x00302f2f
 938:	302f2f2f 	eorcc	r2, pc, pc, lsr #30
 93c:	2f2f342f 	svccs	0x002f342f
 940:	01000202 	tsteq	r0, r2, lsl #4
 944:	00011901 	andeq	r1, r1, r1, lsl #18
 948:	3c000200 	sfmcc	f0, 4, [r0], {0}	; (stccc 2, cr0, [r0], {0})
 94c:	02000000 	andeq	r0, r0, #0
 950:	0d0efb01 	vstreq	d15, [lr, #-4]
 954:	01010100 	tsteq	r1, r0, lsl #2
 958:	00000001 	andeq	r0, r0, r1
 95c:	01000001 	tsteq	r0, r1
 960:	2e2e2f2e 	cdpcs	15, 2, cr2, cr14, cr14, {1}
 964:	6d700000 	ldclvs	0, cr0, [r0]
 968:	6265645f 	rsbvs	r6, r5, #1593835520	; 0x5f000000
 96c:	632e6775 	teqvs	lr, #30670848	; 0x1d40000
 970:	00000100 	andeq	r0, r0, r0, lsl #2
 974:	682e6d70 	stmdavs	lr!, {r4, r5, r6, r8, sl, fp, sp, lr}
 978:	00000100 	andeq	r0, r0, r0, lsl #2
 97c:	745f6d70 	ldrbvc	r6, [pc], #3440	; 984 <__standby_start+0x984>
 980:	73657079 	cmnvc	r5, #121	; 0x79
 984:	0100682e 	tsteq	r0, lr, lsr #16
 988:	00000000 	andeq	r0, r0, r0
 98c:	19540205 	ldmdbne	r4, {r0, r2, r9}^
 990:	1203f000 	andne	pc, r3, #0
 994:	6a4b3001 	bvs	12cc9a0 <__standby_start+0x12cc9a0>
 998:	6a4b304d 	bvs	12ccad4 <__standby_start+0x12ccad4>
 99c:	2f4c1351 	svccs	0x004c1351
 9a0:	312e4d30 	teqcc	lr, r0, lsr sp
 9a4:	4d4b134d 	stclmi	3, cr1, [fp, #-308]	; 0xfffffecc
 9a8:	304d312e 	subcc	r3, sp, lr, lsr #2
 9ac:	4c2f302c 	stcmi	0, cr3, [pc], #-176	; 0xffffff50
 9b0:	302c3069 	eorcc	r3, ip, r9, rrx
 9b4:	15694c2f 	strbne	r4, [r9, #-3119]!	; 0xc2f
 9b8:	69143130 	ldmdbvs	r4, {r4, r5, r8, ip, sp}
 9bc:	6c174d4c 	ldcvs	13, cr4, [r7], {76}	; 0x4c
 9c0:	4d4e332f 	stclmi	3, cr3, [lr, #-188]	; 0xffffff44
 9c4:	69153131 	ldmdbvs	r5, {r0, r4, r5, r8, ip, sp}
 9c8:	4e154d68 	cdpmi	13, 1, cr4, cr5, cr8, {3}
 9cc:	3035314b 	eorscc	r3, r5, fp, asr #2
 9d0:	b4033048 	strlt	r3, [r3], #-72	; 0x48
 9d4:	d5034a7f 	strle	r4, [r3, #-2687]	; 0xa7f
 9d8:	4b6a4a00 	blmi	1a931e0 <__standby_start+0x1a931e0>
 9dc:	2c4c6767 	mcrrcs	7, 6, r6, ip, cr7
 9e0:	68676832 	stmdavs	r7!, {r1, r4, r5, fp, sp, lr}^
 9e4:	302f2c30 	eorcc	r2, pc, r0, lsr ip
 9e8:	2b312c2f 	blcs	c4baac <__standby_start+0xc4baac>
 9ec:	03020434 	movweq	r0, #9268	; 0x2434
 9f0:	034a7f89 	movteq	r7, #44937	; 0xaf89
 9f4:	69032e17 	stmdbvs	r3, {r0, r1, r2, r4, r9, sl, fp, sp}
 9f8:	2b2f522e 	blcs	bd52b8 <__standby_start+0xbd52b8>
 9fc:	f1030104 	undefined instruction 0xf1030104
 a00:	02044a00 	andeq	r4, r4, #0
 a04:	d67f9703 	ldrbtle	r9, [pc], -r3, lsl #14
 a08:	32322f4c 	eorscc	r2, r2, #304	; 0x130
 a0c:	0104302c 	tsteq	r4, ip, lsr #32
 a10:	2e00de03 	cdpcs	14, 0, cr13, cr0, cr3, {0}
 a14:	0319884f 	tsteq	r9, #5177344	; 0x4f0000
 a18:	04352e79 	ldrteq	r2, [r5], #-3705	; 0xe79
 a1c:	7f800302 	svcvc	0x00800302
 a20:	6e2c2d9e 	mcrvs	13, 1, r2, cr12, cr14, {4}
 a24:	32322f4c 	eorscc	r2, r2, #304	; 0x130
 a28:	0104302c 	tsteq	r4, ip, lsr #32
 a2c:	032e7103 	teqeq	lr, #-1073741824	; 0xc0000000
 a30:	a12e0187 	smlawbge	lr, r7, r1, r0
 a34:	2e7ef603 	cdpcs	6, 7, cr15, cr14, cr3, {0}
 a38:	2e018a03 	vmlacs.f32	s16, s2, s6
 a3c:	139e2503 	orrsne	r2, lr, #12582912	; 0xc00000
 a40:	09030f4d 	stmdbeq	r3, {r0, r2, r3, r6, r8, r9, sl, fp}
 a44:	6969142e 	stmdbvs	r9!, {r1, r2, r3, r5, sl, ip}^
 a48:	312f4b16 	teqcc	pc, r6, lsl fp
 a4c:	2f4c154d 	svccs	0x004c154d
 a50:	30305031 	eorscc	r5, r0, r1, lsr r0
 a54:	2c30302c 	ldccs	0, cr3, [r0], #-176	; 0xffffff50
 a58:	2f302f2f 	svccs	0x00302f2f
 a5c:	00040231 	andeq	r0, r4, r1, lsr r2
 a60:	01cd0101 	biceq	r0, sp, r1, lsl #2
 a64:	00020000 	andeq	r0, r2, r0
 a68:	00000038 	andeq	r0, r0, r8, lsr r0
 a6c:	0efb0102 	cdpeq	1, 15, cr0, cr11, cr2, {0}
 a70:	0101000d 	tsteq	r1, sp
 a74:	00000101 	andeq	r0, r0, r1, lsl #2
 a78:	00000100 	andeq	r0, r0, r0, lsl #2
 a7c:	61726401 	cmnvs	r2, r1, lsl #8
 a80:	7264006d 	rsbvc	r0, r4, #109	; 0x6d
 a84:	2e2f6d61 	cdpcs	13, 2, cr6, cr15, cr1, {3}
 a88:	002e2e2f 	eoreq	r2, lr, pc, lsr #28
 a8c:	61726400 	cmnvs	r2, r0, lsl #8
 a90:	00632e6d 	rsbeq	r2, r3, sp, ror #28
 a94:	63000001 	movwvs	r0, #1
 a98:	6f6d6d6f 	svcvs	0x006d6d6f
 a9c:	00682e6e 	rsbeq	r2, r8, lr, ror #28
 aa0:	00000002 	andeq	r0, r0, r2
 aa4:	d8020500 	stmdale	r2, {r8, sl}
 aa8:	03f0001c 	mvnseq	r0, #28
 aac:	150101a6 	strne	r0, [r1, #-422]	; 0x1a6
 ab0:	302d2f4c 	eorcc	r2, sp, ip, asr #30
 ab4:	12032f30 	andne	r2, r3, #192	; 0xc0
 ab8:	4b4c1566 	blmi	1306058 <__standby_start+0x1306058>
 abc:	4a110350 	bmi	441804 <__standby_start+0x441804>
 ac0:	30312b15 	eorscc	r2, r1, r5, lsl fp
 ac4:	03324832 	teqeq	r2, #3276800	; 0x320000
 ac8:	2f2f2e7a 	svccs	0x002f2e7a
 acc:	2f2f2f2f 	svccs	0x002f2f2f
 ad0:	01b3032f 	undefined instruction 0x01b3032f
 ad4:	7e8b0366 	cdpvc	3, 8, cr0, cr11, cr6, {3}
 ad8:	2d2f4c01 	stccs	12, cr4, [pc, #-4]!
 adc:	032f3030 	teqeq	pc, #48	; 0x30
 ae0:	036601f4 	cmneq	r6, #61	; 0x3d
 ae4:	4c017ea1 	stcmi	14, cr7, [r1], {161}	; 0xa1
 ae8:	01de034b 	bicseq	r0, lr, fp, asr #6
 aec:	11144e4a 	tstne	r4, sl, asr #28
 af0:	2e7ed103 	expcse	f5, f3
 af4:	2f2b3132 	svccs	0x002b3132
 af8:	2f302f2f 	svccs	0x00302f2f
 afc:	fb032f2f 	blx	cc7c2 <__standby_start+0xcc7c2>
 b00:	34164a7e 	ldrcc	r4, [r6], #-2686	; 0xa7e
 b04:	2f2e7a03 	svccs	0x002e7a03
 b08:	67312f2f 	ldrvs	r2, [r1, -pc, lsr #30]!
 b0c:	8403112f 	strhi	r1, [r3], #-303	; 0x12f
 b10:	11144a02 	tstne	r4, r2, lsl #20
 b14:	2e7db803 	cdpcs	8, 7, cr11, cr13, cr3, {0}
 b18:	7a033416 	bvc	cdb78 <__standby_start+0xcdb78>
 b1c:	2f2f2f2e 	svccs	0x002f2f2e
 b20:	112f6731 	teqne	pc, r1, lsr r7
 b24:	144a3c03 	strbne	r3, [sl], #-3075	; 0xc03
 b28:	02850311 	addeq	r0, r5, #1140850688	; 0x44000000
 b2c:	f903142e 	undefined instruction 0xf903142e
 b30:	4703017d 	smlsdxmi	r3, sp, r1, r0
 b34:	3231332e 	eorscc	r3, r1, #-1207959552	; 0xb8000000
 b38:	2f2f2f2a 	svccs	0x002f2f2a
 b3c:	304d832f 	subcc	r8, sp, pc, lsr #6
 b40:	3f032f2d 	svccc	0x00032f2d
 b44:	4a44032e 	bmi	1101804 <__standby_start+0x1101804>
 b48:	032e3c03 	teqeq	lr, #768	; 0x300
 b4c:	3c032e44 	stccc	14, cr2, [r3], {68}	; 0x44
 b50:	0331302e 	teqeq	r1, #46	; 0x2e
 b54:	322e7fbf 	eorcc	r7, lr, #764	; 0x2fc
 b58:	66029903 	strvs	r9, [r2], -r3, lsl #18
 b5c:	91031114 	tstls	r3, r4, lsl r1
 b60:	34162e7d 	ldrcc	r2, [r6], #-3709	; 0xe7d
 b64:	2f2e7a03 	svccs	0x002e7a03
 b68:	67312f2f 	ldrvs	r2, [r1, -pc, lsr #30]!
 b6c:	034e112f 	movteq	r1, #57647	; 0xe12f
 b70:	034a00fe 	movteq	r0, #41214	; 0xa0fe
 b74:	034a7f87 	movteq	r7, #44935	; 0xaf87
 b78:	032e00f9 	teqeq	lr, #249	; 0xf9
 b7c:	032e7f87 	teqeq	lr, #540	; 0x21c
 b80:	322e00f9 	eorcc	r0, lr, #249	; 0xf9
 b84:	7f82032f 	svcvc	0x0082032f
 b88:	2e0b032e 	cdpcs	3, 0, cr0, cr11, cr14, {1}
 b8c:	2f2a3231 	svccs	0x002a3231
 b90:	672f2f2f 	strvs	r2, [pc, -pc, lsr #30]!
 b94:	bd03674d 	stclt	7, cr6, [r3, #-308]	; 0xfffffecc
 b98:	11146602 	tstne	r4, r2, lsl #12
 b9c:	322e6a03 	eorcc	r6, lr, #12288	; 0x3000
 ba0:	03313131 	teqeq	r1, #1073741836	; 0x4000000c
 ba4:	1a4a7f8d 	bne	12a09e0 <__standby_start+0x12a09e0>
 ba8:	522e7803 	eorpl	r7, lr, #196608	; 0x30000
 bac:	032e1b03 	teqeq	lr, #3072	; 0xc00
 bb0:	31032e66 	tstcc	r3, r6, ror #28
 bb4:	2e50032e 	cdpcs	3, 5, cr0, cr0, cr14, {1}
 bb8:	292f2f2f 	stmdbcs	pc!, {r0, r1, r2, r3, r5, r8, r9, sl, fp, sp}
 bbc:	302d3032 	eorcc	r3, sp, r2, lsr r0
 bc0:	2f2f2c2f 	svccs	0x002f2c2f
 bc4:	2f2f2f2f 	svccs	0x002f2f2f
 bc8:	2f312c2f 	svccs	0x00312c2f
 bcc:	0330482b 	teqeq	r0, #2818048	; 0x2b0000
 bd0:	6c032e17 	stcvs	14, cr2, [r3], {23}
 bd4:	2a302d2e 	bcs	c0c094 <__standby_start+0xc0c094>
 bd8:	032e1903 	teqeq	lr, #49152	; 0xc000
 bdc:	14032e68 	strne	r2, [r3], #-3688	; 0xe68
 be0:	2e6d032e 	cdpcs	3, 6, cr0, cr13, cr14, {1}
 be4:	032e1303 	teqeq	lr, #201326592	; 0xc000000
 be8:	15032e6d 	strne	r2, [r3, #-3693]	; 0xe6d
 bec:	032f2f2e 	teqeq	pc, #184	; 0xb8
 bf0:	30302e6d 	eorscc	r2, r0, sp, ror #28
 bf4:	03313130 	teqeq	r1, #12
 bf8:	6d032e10 	stcvs	14, cr2, [r3, #-64]	; 0xffffffc0
 bfc:	3136312e 	teqcc	r6, lr, lsr #2
 c00:	2f314b2f 	svccs	0x00314b2f
 c04:	4d684b30 	vstmdbmi	r8!, {d20-<overflow reg d43>}
 c08:	75033136 	strvc	r3, [r3, #-310]	; 0x136
 c0c:	0903312e 	stmdbeq	r3, {r1, r2, r3, r5, r8, ip, sp}
 c10:	2e7a032e 	cdpcs	3, 7, cr0, cr10, cr14, {1}
 c14:	30312f2f 	eorscc	r2, r1, pc, lsr #30
 c18:	2f2f2c2f 	svccs	0x002f2c2f
 c1c:	2f2f2f31 	svccs	0x002f2f31
 c20:	2f2d2f69 	svccs	0x002d2f69
 c24:	304d2f31 	subcc	r2, sp, r1, lsr pc
 c28:	8212034d 	andshi	r0, r2, #872415233	; 0x34000001
 c2c:	02021114 	andeq	r1, r2, #5
 c30:	66010100 	strvs	r0, [r1], -r0, lsl #2
 c34:	02000002 	andeq	r0, r0, #2
 c38:	00008200 	andeq	r8, r0, r0, lsl #4
 c3c:	fb010200 	blx	41446 <__standby_start+0x41446>
 c40:	01000d0e 	tsteq	r0, lr, lsl #26
 c44:	00010101 	andeq	r0, r1, r1, lsl #2
 c48:	00010000 	andeq	r0, r1, r0
 c4c:	72640100 	rsbvc	r0, r4, #0
 c50:	64006d61 	strvs	r6, [r0], #-3425	; 0xd61
 c54:	2f6d6172 	svccs	0x006d6172
 c58:	2e2e2f2e 	cdpcs	15, 2, cr2, cr14, cr14, {1}
 c5c:	6f682f00 	svcvs	0x00682f00
 c60:	6d2f656d 	cfstr32vs	mvfx6, [pc, #-436]!	; 0xfffffe4c
 c64:	2f656b69 	svccs	0x00656b69
 c68:	6b726f77 	blvs	1c9ca4c <__standby_start+0x1c9ca4c>
 c6c:	6e696c2f 	cdpvs	12, 6, cr6, cr9, cr15, {1}
 c70:	365f7875 	undefined instruction 0x365f7875
 c74:	612f3432 	teqvs	pc, r2, lsr r4
 c78:	2f686372 	svccs	0x00686372
 c7c:	2f6d7261 	svccs	0x006d7261
 c80:	6863616d 	stmdavs	r3!, {r0, r2, r3, r5, r6, r8, sp, lr}^
 c84:	6e75732d 	cdpvs	3, 7, cr7, cr5, cr13, {1}
 c88:	692f6935 	stmdbvs	pc!, {r0, r2, r4, r5, r8, fp, sp, lr}
 c8c:	756c636e 	strbvc	r6, [ip, #-878]!	; 0x36e
 c90:	6d2f6564 	cfstr32vs	mvfx6, [pc, #-400]!	; 0xfffffe70
 c94:	00686361 	rsbeq	r6, r8, r1, ror #6
 c98:	61726400 	cmnvs	r2, r0, lsl #8
 c9c:	6e695f6d 	cdpvs	15, 6, cr5, cr9, cr13, {3}
 ca0:	632e7469 	teqvs	lr, #1761607680	; 0x69000000
 ca4:	00000100 	andeq	r0, r0, r0, lsl #2
 ca8:	6d6d6f63 	stclvs	15, cr6, [sp, #-396]!	; 0xfffffe74
 cac:	682e6e6f 	stmdavs	lr!, {r0, r1, r2, r3, r5, r6, r9, sl, fp, sp, lr}
 cb0:	00000200 	andeq	r0, r0, r0, lsl #4
 cb4:	6d617264 	sfmvs	f7, 2, [r1, #-400]!	; (stclvs 2, cr7, [r1, #-400]!)	; 0xfffffe70
 cb8:	0300682e 	movweq	r6, #2094	; 0x82e
 cbc:	00000000 	andeq	r0, r0, r0
 cc0:	21300205 	teqcs	r0, r5, lsl #4
 cc4:	3003f000 	andcc	pc, r3, r0
 cc8:	4b4c1501 	blmi	13060d4 <__standby_start+0x13060d4>
 ccc:	154d2f2f 	strbne	r2, [sp, #-3887]	; 0xf2f
 cd0:	2f2f2f4b 	svccs	0x002f2f4b
 cd4:	2f4b154d 	svccs	0x004b154d
 cd8:	4a37032f 	bmi	dc199c <__standby_start+0xdc199c>
 cdc:	2f2f4b15 	svccs	0x002f4b15
 ce0:	2f2f2f30 	svccs	0x002f2f30
 ce4:	2f2f2f30 	svccs	0x002f2f30
 ce8:	2f2f2f30 	svccs	0x002f2f30
 cec:	2f2f2f30 	svccs	0x002f2f30
 cf0:	4a0e032f 	bmi	3819b4 <__standby_start+0x3819b4>
 cf4:	64332917 	ldrtvs	r2, [r3], #-2327	; 0x917
 cf8:	2c302c30 	ldccs	12, cr2, [r0], #-192	; 0xffffff40
 cfc:	01bc0332 	undefined instruction 0x01bc0332
 d00:	10031466 	andne	r1, r3, r6, ror #8
 d04:	2933164a 	ldmdbcs	r3!, {r1, r3, r6, r9, sl, ip}
 d08:	69312f2f 	ldmdbvs	r1!, {r0, r1, r2, r3, r5, r8, r9, sl, fp, sp}
 d0c:	82200351 	eorhi	r0, r0, #1140850689	; 0x44000001
 d10:	03333015 	teqeq	r3, #21
 d14:	30312e79 	eorscc	r2, r1, r9, ror lr
 d18:	0d032f30 	stceq	15, cr2, [r3, #-192]	; 0xffffff40
 d1c:	0111034a 	tsteq	r1, sl, asr #6
 d20:	2d692c4c 	stclcs	12, cr2, [r9, #-304]!	; 0xfffffed0
 d24:	1203344b 	andne	r3, r3, #1258291200	; 0x4b000000
 d28:	2f4b1766 	svccs	0x004b1766
 d2c:	68686868 	stmdavs	r8!, {r3, r5, r6, fp, sp, lr}^
 d30:	2f2d4c6b 	svccs	0x002d4c6b
 d34:	2f2f2d30 	svccs	0x002f2d30
 d38:	4d154e31 	ldcmi	14, cr4, [r5, #-196]	; 0xffffff3c
 d3c:	11144d14 	tstne	r4, r4, lsl sp
 d40:	032e0903 	teqeq	lr, #49152	; 0xc000
 d44:	4c017c87 	stcmi	12, cr7, [r1], {135}	; 0x87
 d48:	f7032f4b 	undefined instruction 0xf7032f4b
 d4c:	034d2e03 	movteq	r2, #56835	; 0xde03
 d50:	4c017fab 	stcmi	15, cr7, [r1], {171}	; 0xab
 d54:	4b2d692c 	blmi	b5b20c <__standby_start+0xb5b20c>
 d58:	2e00d403 	cdpcs	4, 0, cr13, cr0, cr3, {0}
 d5c:	7ece0369 	cdpvc	3, 12, cr0, cr14, cr9, {3}
 d60:	2f293301 	svccs	0x00293301
 d64:	0369312f 	cmneq	r9, #-1073741813	; 0xc000000b
 d68:	034a01ac 	movteq	r0, #41388	; 0xa1ac
 d6c:	16827cfd 	undefined instruction 0x16827cfd
 d70:	02043246 	andeq	r3, r4, #1610612740	; 0x60000004
 d74:	667ef303 	ldrbtvs	pc, [lr], -r3, lsl #6
 d78:	042c2d2f 	strteq	r2, [ip], #-3375	; 0xd2f
 d7c:	01950301 	orrseq	r0, r5, r1, lsl #6
 d80:	0302044a 	movweq	r0, #9290	; 0x244a
 d84:	47827ef6 	undefined instruction 0x47827ef6
 d88:	4e4b65a1 	cdpmi	5, 4, cr6, cr11, cr1, {5}
 d8c:	0104484e 	tsteq	r4, lr, asr #16
 d90:	66018003 	strvs	r8, [r1], -r3
 d94:	03352c32 	teqeq	r5, #12800	; 0x3200
 d98:	03352e7a 	teqeq	r5, #1952	; 0x7a0
 d9c:	2f2f2e7a 	svccs	0x002f2e7a
 da0:	2f2f2f2f 	svccs	0x002f2f2f
 da4:	2e0d032f 	cdpcs	3, 0, cr0, cr13, cr15, {1}
 da8:	2f2e7403 	svccs	0x002e7403
 dac:	2f2f4e32 	svccs	0x002f4e32
 db0:	2d30302f 	ldccs	0, cr3, [r0, #-188]!	; 0xffffff44
 db4:	d0034930 	andle	r4, r3, r0, lsr r9
 db8:	11146602 	tstne	r4, r2, lsl #12
 dbc:	2e7cb403 	cdpcs	4, 7, cr11, cr12, cr3, {0}
 dc0:	77033118 	smladvc	r3, r8, r1, r3
 dc4:	8931342e 	ldmdbhi	r1!, {r1, r2, r3, r5, sl, ip, sp}
 dc8:	322c3064 	eorcc	r3, ip, #100	; 0x64
 dcc:	357f832c 	ldrbcc	r8, [pc, #-812]!	; aa8 <__standby_start+0xaa8>
 dd0:	2c30486a 	ldccs	8, cr4, [r0], #-424	; 0xfffffe58
 dd4:	6a336430 	bvs	cd9e9c <__standby_start+0xcd9e9c>
 dd8:	302c3048 	eorcc	r3, ip, r8, asr #32
 ddc:	2d2f3280 	sfmcs	f3, 4, [pc, #-512]!	; (stccs 2, cr3, [pc, #-512]!)	; 0xfffffe00
 de0:	31665003 	cmncc	r6, r3
 de4:	30832d2f 	addcc	r2, r3, pc, lsr #26
 de8:	304b2d2f 	subcc	r2, fp, pc, lsr #26
 dec:	2d682d2f 	stclcs	13, cr2, [r8, #-188]!	; 0xffffff44
 df0:	314a4b03 	cmpcc	sl, r3, lsl #22
 df4:	2f2f2b31 	svccs	0x002f2b31
 df8:	2f2f2f2f 	svccs	0x002f2f2f
 dfc:	01ae032f 	undefined instruction 0x01ae032f
 e00:	4d6d344a 	cfstrdmi	mvd3, [sp, #-296]!	; 0xfffffed8
 e04:	667ec803 	ldrbtvs	ip, [lr], -r3, lsl #16
 e08:	032f4b30 	teqeq	pc, #49152	; 0xc000
 e0c:	332e02ff 	teqcc	lr, #-268435441	; 0xf000000f
 e10:	7d810330 	stcvc	3, cr0, [r1, #192]	; 0xc0
 e14:	2f2f2f2e 	svccs	0x002f2f2e
 e18:	2e01b303 	cdpcs	3, 0, cr11, cr1, cr3, {0}
 e1c:	842c4c34 	strthi	r4, [ip], #-3124	; 0xc34
 e20:	2f30302c 	svccs	0x0030302c
 e24:	2d2f302d 	stccs	0, cr3, [pc, #-180]!	; 0xffffff4c
 e28:	302d2f30 	eorcc	r2, sp, r0, lsr pc
 e2c:	2f302d2f 	svccs	0x00302d2f
 e30:	312d2f32 	teqcc	sp, r2, lsr pc
 e34:	2d2f2d2c 	stccs	13, cr2, [pc, #-176]!	; 0xffffff50
 e38:	312f2f2f 	teqcc	pc, pc, lsr #30
 e3c:	2d302d2f 	ldccs	13, cr2, [r0, #-188]!	; 0xffffff44
 e40:	2f312f2f 	svccs	0x00312f2f
 e44:	019d034b 	orrseq	r0, sp, fp, asr #6
 e48:	0332312e 	teqeq	r2, #-2147483637	; 0x8000000b
 e4c:	302e7ee1 	eorcc	r7, lr, r1, ror #29
 e50:	b903844b 	stmdblt	r3, {r0, r1, r3, r6, sl, pc}
 e54:	83bc4a01 	undefined instruction 0x83bc4a01
 e58:	2e7ecf03 	cdpcs	15, 7, cr12, cr14, cr3, {0}
 e5c:	4e4d4b4b 	vmlsmi.f64	d20, d13, d11
 e60:	038432a0 	orreq	r3, r4, #10
 e64:	6f032e11 	svcvs	0x00032e11
 e68:	4b4b302e 	blmi	12ccf28 <__standby_start+0x12ccf28>
 e6c:	2f2f2f4d 	svccs	0x002f2f4d
 e70:	302f2f31 	eorcc	r2, pc, r1, lsr pc
 e74:	827df803 	rsbshi	pc, sp, #196608	; 0x30000
 e78:	2e02c103 	mvfcss	f4, f3
 e7c:	2e7dc003 	cdpcs	0, 7, cr12, cr13, cr3, {0}
 e80:	02ba032f 	adcseq	r0, sl, #-1140850688	; 0xbc000000
 e84:	312f2f2e 	teqcc	pc, lr, lsr #30
 e88:	a3034b69 	movwge	r4, #15209	; 0x3b69
 e8c:	30804a7e 	addcc	r4, r0, lr, ror sl
 e90:	032c302c 	teqeq	ip, #44	; 0x2c
 e94:	2d2e01b0 	stfcss	f0, [lr, #-704]!	; 0xfffffd40
 e98:	01000802 	tsteq	r0, r2, lsl #16
 e9c:	Address 0x00000e9c is out of bounds.


Disassembly of section .debug_frame:

00000000 <.debug_frame>:
   0:	0000000c 	andeq	r0, r0, ip
   4:	ffffffff 	undefined instruction 0xffffffff
   8:	7c010001 	stcvc	0, cr0, [r1], {1}
   c:	000d0c0e 	andeq	r0, sp, lr, lsl #24
  10:	00000024 	andeq	r0, r0, r4, lsr #32
  14:	00000000 	andeq	r0, r0, r0
  18:	f0000000 	undefined instruction 0xf0000000
  1c:	000003b8 	undefined instruction 0x000003b8
  20:	11180e44 	tstne	r8, r4, asr #28
  24:	0811010e 	ldmdaeq	r1, {r1, r2, r3, r8}
  28:	03071102 	movweq	r1, #28930	; 0x7102
  2c:	11040611 	tstne	r4, r1, lsl r6
  30:	04110505 	ldreq	r0, [r1], #-1285	; 0x505
  34:	00000006 	andeq	r0, r0, r6
  38:	0000000c 	andeq	r0, r0, ip
  3c:	ffffffff 	undefined instruction 0xffffffff
  40:	7c010001 	stcvc	0, cr0, [r1], {1}
  44:	000d0c0e 	andeq	r0, sp, lr, lsl #24
  48:	0000000c 	andeq	r0, r0, ip
  4c:	00000038 	andeq	r0, r0, r8, lsr r0
  50:	f00003b8 	undefined instruction 0xf00003b8
  54:	00000034 	andeq	r0, r0, r4, lsr r0
  58:	0000000c 	andeq	r0, r0, ip
  5c:	00000038 	andeq	r0, r0, r8, lsr r0
  60:	f00003ec 	undefined instruction 0xf00003ec
  64:	00000014 	andeq	r0, r0, r4, lsl r0
  68:	0000000c 	andeq	r0, r0, ip
  6c:	ffffffff 	undefined instruction 0xffffffff
  70:	7c010001 	stcvc	0, cr0, [r1], {1}
  74:	000d0c0e 	andeq	r0, sp, lr, lsl #24
  78:	00000024 	andeq	r0, r0, r4, lsr #32
  7c:	00000068 	andeq	r0, r0, r8, rrx
  80:	f0000524 	undefined instruction 0xf0000524
  84:	00000084 	andeq	r0, r0, r4, lsl #1
  88:	111c0e50 	tstne	ip, r0, asr lr
  8c:	0a11010e 	beq	4404cc <__standby_start+0x4404cc>
  90:	03081102 	movweq	r1, #33026	; 0x8102
  94:	11040711 	tstne	r4, r1, lsl r7
  98:	05110506 	ldreq	r0, [r1, #-1286]	; 0x506
  9c:	07041106 	streq	r1, [r4, -r6, lsl #2]
  a0:	0000000c 	andeq	r0, r0, ip
  a4:	00000068 	andeq	r0, r0, r8, rrx
  a8:	f00005a8 	undefined instruction 0xf00005a8
  ac:	00000044 	andeq	r0, r0, r4, asr #32
  b0:	0000000c 	andeq	r0, r0, ip
  b4:	00000068 	andeq	r0, r0, r8, rrx
  b8:	f00005ec 	undefined instruction 0xf00005ec
  bc:	00000030 	andeq	r0, r0, r0, lsr r0
  c0:	0000000c 	andeq	r0, r0, ip
  c4:	00000068 	andeq	r0, r0, r8, rrx
  c8:	f000061c 	undefined instruction 0xf000061c
  cc:	00000034 	andeq	r0, r0, r4, lsr r0
  d0:	0000000c 	andeq	r0, r0, ip
  d4:	00000068 	andeq	r0, r0, r8, rrx
  d8:	f0000650 	undefined instruction 0xf0000650
  dc:	00000034 	andeq	r0, r0, r4, lsr r0
  e0:	0000000c 	andeq	r0, r0, ip
  e4:	00000068 	andeq	r0, r0, r8, rrx
  e8:	f0000684 	undefined instruction 0xf0000684
  ec:	00000068 	andeq	r0, r0, r8, rrx
  f0:	0000000c 	andeq	r0, r0, ip
  f4:	00000068 	andeq	r0, r0, r8, rrx
  f8:	f00006ec 	undefined instruction 0xf00006ec
  fc:	00000068 	andeq	r0, r0, r8, rrx
 100:	0000000c 	andeq	r0, r0, ip
 104:	00000068 	andeq	r0, r0, r8, rrx
 108:	f0000754 	undefined instruction 0xf0000754
 10c:	00000020 	andeq	r0, r0, r0, lsr #32
 110:	0000000c 	andeq	r0, r0, ip
 114:	00000068 	andeq	r0, r0, r8, rrx
 118:	f0000774 	undefined instruction 0xf0000774
 11c:	00000020 	andeq	r0, r0, r0, lsr #32
 120:	0000000c 	andeq	r0, r0, ip
 124:	00000068 	andeq	r0, r0, r8, rrx
 128:	f0000794 	undefined instruction 0xf0000794
 12c:	00000048 	andeq	r0, r0, r8, asr #32
 130:	0000000c 	andeq	r0, r0, ip
 134:	00000068 	andeq	r0, r0, r8, rrx
 138:	f00007dc 	undefined instruction 0xf00007dc
 13c:	00000048 	andeq	r0, r0, r8, asr #32
 140:	0000000c 	andeq	r0, r0, ip
 144:	00000068 	andeq	r0, r0, r8, rrx
 148:	f0000824 	undefined instruction 0xf0000824
 14c:	0000005c 	andeq	r0, r0, ip, asr r0
 150:	0000000c 	andeq	r0, r0, ip
 154:	00000068 	andeq	r0, r0, r8, rrx
 158:	f0000880 	undefined instruction 0xf0000880
 15c:	00000054 	andeq	r0, r0, r4, asr r0
 160:	0000000c 	andeq	r0, r0, ip
 164:	00000068 	andeq	r0, r0, r8, rrx
 168:	f00008d4 	undefined instruction 0xf00008d4
 16c:	00000060 	andeq	r0, r0, r0, rrx
 170:	0000000c 	andeq	r0, r0, ip
 174:	00000068 	andeq	r0, r0, r8, rrx
 178:	f0000934 	undefined instruction 0xf0000934
 17c:	00000050 	andeq	r0, r0, r0, asr r0
 180:	0000000c 	andeq	r0, r0, ip
 184:	00000068 	andeq	r0, r0, r8, rrx
 188:	f0000984 	undefined instruction 0xf0000984
 18c:	00000030 	andeq	r0, r0, r0, lsr r0
 190:	0000000c 	andeq	r0, r0, ip
 194:	00000068 	andeq	r0, r0, r8, rrx
 198:	f00009b4 	undefined instruction 0xf00009b4
 19c:	00000024 	andeq	r0, r0, r4, lsr #32
 1a0:	0000000c 	andeq	r0, r0, ip
 1a4:	00000068 	andeq	r0, r0, r8, rrx
 1a8:	f00009d8 	undefined instruction 0xf00009d8
 1ac:	00000020 	andeq	r0, r0, r0, lsr #32
 1b0:	0000000c 	andeq	r0, r0, ip
 1b4:	00000068 	andeq	r0, r0, r8, rrx
 1b8:	f00009f8 	undefined instruction 0xf00009f8
 1bc:	00000040 	andeq	r0, r0, r0, asr #32
 1c0:	0000000c 	andeq	r0, r0, ip
 1c4:	00000068 	andeq	r0, r0, r8, rrx
 1c8:	f0000a38 	undefined instruction 0xf0000a38
 1cc:	0000004c 	andeq	r0, r0, ip, asr #32
 1d0:	0000000c 	andeq	r0, r0, ip
 1d4:	ffffffff 	undefined instruction 0xffffffff
 1d8:	7c010001 	stcvc	0, cr0, [r1], {1}
 1dc:	000d0c0e 	andeq	r0, sp, lr, lsl #24
 1e0:	0000002c 	andeq	r0, r0, ip, lsr #32
 1e4:	000001d0 	ldrdeq	r0, [r0], -r0
 1e8:	f0000a84 	undefined instruction 0xf0000a84
 1ec:	0000009c 	muleq	r0, ip, r0
 1f0:	11240e54 	teqne	r4, r4, asr lr
 1f4:	0b11010e 	bleq	440634 <__standby_start+0x440634>
 1f8:	030a1102 	movweq	r1, #41218	; 0xa102
 1fc:	11040911 	tstne	r4, r1, lsl r9
 200:	07110508 	ldreq	r0, [r1, -r8, lsl #10]
 204:	07061106 	streq	r1, [r6, -r6, lsl #2]
 208:	11080511 	tstne	r8, r1, lsl r5
 20c:	00000904 	andeq	r0, r0, r4, lsl #18
 210:	0000000c 	andeq	r0, r0, ip
 214:	000001d0 	ldrdeq	r0, [r0], -r0
 218:	f0000b20 	undefined instruction 0xf0000b20
 21c:	0000005c 	andeq	r0, r0, ip, asr r0
 220:	00000018 	andeq	r0, r0, r8, lsl r0
 224:	000001d0 	ldrdeq	r0, [r0], -r0
 228:	f0000b7c 	undefined instruction 0xf0000b7c
 22c:	00000048 	andeq	r0, r0, r8, asr #32
 230:	11080e54 	tstne	r8, r4, asr lr
 234:	0411010e 	ldreq	r0, [r1], #-270	; 0x10e
 238:	00000002 	andeq	r0, r0, r2
 23c:	0000000c 	andeq	r0, r0, ip
 240:	000001d0 	ldrdeq	r0, [r0], -r0
 244:	f0000bc4 	undefined instruction 0xf0000bc4
 248:	00000030 	andeq	r0, r0, r0, lsr r0
 24c:	0000000c 	andeq	r0, r0, ip
 250:	ffffffff 	undefined instruction 0xffffffff
 254:	7c010001 	stcvc	0, cr0, [r1], {1}
 258:	000d0c0e 	andeq	r0, sp, lr, lsl #24
 25c:	0000000c 	andeq	r0, r0, ip
 260:	0000024c 	andeq	r0, r0, ip, asr #4
 264:	f0000bf4 	undefined instruction 0xf0000bf4
 268:	00000008 	andeq	r0, r0, r8
 26c:	0000000c 	andeq	r0, r0, ip
 270:	0000024c 	andeq	r0, r0, ip, asr #4
 274:	f0000bfc 	undefined instruction 0xf0000bfc
 278:	00000008 	andeq	r0, r0, r8
 27c:	0000000c 	andeq	r0, r0, ip
 280:	0000024c 	andeq	r0, r0, ip, asr #4
 284:	f0000c04 	undefined instruction 0xf0000c04
 288:	00000008 	andeq	r0, r0, r8
 28c:	0000000c 	andeq	r0, r0, ip
 290:	0000024c 	andeq	r0, r0, ip, asr #4
 294:	f0000c0c 	undefined instruction 0xf0000c0c
 298:	00000008 	andeq	r0, r0, r8
 29c:	0000000c 	andeq	r0, r0, ip
 2a0:	ffffffff 	undefined instruction 0xffffffff
 2a4:	7c010001 	stcvc	0, cr0, [r1], {1}
 2a8:	000d0c0e 	andeq	r0, sp, lr, lsl #24
 2ac:	0000000c 	andeq	r0, r0, ip
 2b0:	0000029c 	muleq	r0, ip, r2
 2b4:	f0000c14 	undefined instruction 0xf0000c14
 2b8:	00000020 	andeq	r0, r0, r0, lsr #32
 2bc:	0000000c 	andeq	r0, r0, ip
 2c0:	0000029c 	muleq	r0, ip, r2
 2c4:	f0000c34 	undefined instruction 0xf0000c34
 2c8:	00000028 	andeq	r0, r0, r8, lsr #32
 2cc:	0000001c 	andeq	r0, r0, ip, lsl r0
 2d0:	0000029c 	muleq	r0, ip, r2
 2d4:	f0000c5c 	undefined instruction 0xf0000c5c
 2d8:	00000054 	andeq	r0, r0, r4, asr r0
 2dc:	11100e4c 	tstne	r0, ip, asr #28
 2e0:	0611010e 	ldreq	r0, [r1], -lr, lsl #2
 2e4:	03051102 	movweq	r1, #20738	; 0x5102
 2e8:	00040411 	andeq	r0, r4, r1, lsl r4
 2ec:	0000000c 	andeq	r0, r0, ip
 2f0:	ffffffff 	undefined instruction 0xffffffff
 2f4:	7c010001 	stcvc	0, cr0, [r1], {1}
 2f8:	000d0c0e 	andeq	r0, sp, lr, lsl #24
 2fc:	00000024 	andeq	r0, r0, r4, lsr #32
 300:	000002ec 	andeq	r0, r0, ip, ror #5
 304:	f0000cb0 	undefined instruction 0xf0000cb0
 308:	000000a0 	andeq	r0, r0, r0, lsr #1
 30c:	11180e48 	tstne	r8, r8, asr #28
 310:	0511010e 	ldreq	r0, [r1, #-270]	; 0x10e
 314:	03041102 	movweq	r1, #16642	; 0x4102
 318:	11040211 	tstne	r4, r1, lsl r2
 31c:	00110501 	andseq	r0, r1, r1, lsl #10
 320:	00000006 	andeq	r0, r0, r6
 324:	00000028 	andeq	r0, r0, r8, lsr #32
 328:	000002ec 	andeq	r0, r0, ip, ror #5
 32c:	f0000d50 	undefined instruction 0xf0000d50
 330:	000001e0 	andeq	r0, r0, r0, ror #3
 334:	11200e48 	teqne	r0, r8, asr #28
 338:	0811010e 	ldmdaeq	r1, {r1, r2, r3, r8}
 33c:	03071102 	movweq	r1, #28930	; 0x7102
 340:	11040611 	tstne	r4, r1, lsl r6
 344:	04110505 	ldreq	r0, [r1], #-1285	; 0x505
 348:	07011106 	streq	r1, [r1, -r6, lsl #2]
 34c:	00080011 	andeq	r0, r8, r1, lsl r0
 350:	00000024 	andeq	r0, r0, r4, lsr #32
 354:	000002ec 	andeq	r0, r0, ip, ror #5
 358:	f0000f30 	undefined instruction 0xf0000f30
 35c:	0000023c 	andeq	r0, r0, ip, lsr r2
 360:	11180e44 	tstne	r8, r4, asr #28
 364:	0511010e 	ldreq	r0, [r1, #-270]	; 0x10e
 368:	03041102 	movweq	r1, #16642	; 0x4102
 36c:	11040211 	tstne	r4, r1, lsl r2
 370:	00110501 	andseq	r0, r1, r1, lsl #10
 374:	00000006 	andeq	r0, r0, r6
 378:	00000024 	andeq	r0, r0, r4, lsr #32
 37c:	000002ec 	andeq	r0, r0, ip, ror #5
 380:	f000116c 	undefined instruction 0xf000116c
 384:	0000026c 	andeq	r0, r0, ip, ror #4
 388:	11180e44 	tstne	r8, r4, asr #28
 38c:	0511010e 	ldreq	r0, [r1, #-270]	; 0x10e
 390:	03041102 	movweq	r1, #16642	; 0x4102
 394:	11040211 	tstne	r4, r1, lsl r2
 398:	00110501 	andseq	r0, r1, r1, lsl #10
 39c:	00000006 	andeq	r0, r0, r6
 3a0:	0000000c 	andeq	r0, r0, ip
 3a4:	ffffffff 	undefined instruction 0xffffffff
 3a8:	7c010001 	stcvc	0, cr0, [r1], {1}
 3ac:	000d0c0e 	andeq	r0, sp, lr, lsl #24
 3b0:	00000020 	andeq	r0, r0, r0, lsr #32
 3b4:	000003a0 	andeq	r0, r0, r0, lsr #7
 3b8:	f00013d8 	undefined instruction 0xf00013d8
 3bc:	0000004c 	andeq	r0, r0, ip, asr #32
 3c0:	11140e4c 	tstne	r4, ip, asr #28
 3c4:	0711010e 	ldreq	r0, [r1, -lr, lsl #2]
 3c8:	03061102 	movweq	r1, #24834	; 0x6102
 3cc:	11040511 	tstne	r4, r1, lsl r5
 3d0:	00000504 	andeq	r0, r0, r4, lsl #10
 3d4:	0000000c 	andeq	r0, r0, ip
 3d8:	000003a0 	andeq	r0, r0, r0, lsr #7
 3dc:	f0001424 	undefined instruction 0xf0001424
 3e0:	00000050 	andeq	r0, r0, r0, asr r0
 3e4:	0000000c 	andeq	r0, r0, ip
 3e8:	000003a0 	andeq	r0, r0, r0, lsr #7
 3ec:	f0001474 	undefined instruction 0xf0001474
 3f0:	00000024 	andeq	r0, r0, r4, lsr #32
 3f4:	0000000c 	andeq	r0, r0, ip
 3f8:	000003a0 	andeq	r0, r0, r0, lsr #7
 3fc:	f0001498 	undefined instruction 0xf0001498
 400:	00000028 	andeq	r0, r0, r8, lsr #32
 404:	0000000c 	andeq	r0, r0, ip
 408:	000003a0 	andeq	r0, r0, r0, lsr #7
 40c:	f00014c0 	undefined instruction 0xf00014c0
 410:	00000030 	andeq	r0, r0, r0, lsr r0
 414:	00000018 	andeq	r0, r0, r8, lsl r0
 418:	000003a0 	andeq	r0, r0, r0, lsr #7
 41c:	f00014f0 	undefined instruction 0xf00014f0
 420:	00000054 	andeq	r0, r0, r4, asr r0
 424:	11080e44 	tstne	r8, r4, asr #28
 428:	0411010e 	ldreq	r0, [r1], #-270	; 0x10e
 42c:	00000002 	andeq	r0, r0, r2
 430:	00000024 	andeq	r0, r0, r4, lsr #32
 434:	000003a0 	andeq	r0, r0, r0, lsr #7
 438:	f0001544 	undefined instruction 0xf0001544
 43c:	00000088 	andeq	r0, r0, r8, lsl #1
 440:	11180e4c 	tstne	r8, ip, asr #28
 444:	0811010e 	ldmdaeq	r1, {r1, r2, r3, r8}
 448:	03071102 	movweq	r1, #28930	; 0x7102
 44c:	11040611 	tstne	r4, r1, lsl r6
 450:	04110505 	ldreq	r0, [r1], #-1285	; 0x505
 454:	00000006 	andeq	r0, r0, r6
 458:	0000000c 	andeq	r0, r0, ip
 45c:	ffffffff 	undefined instruction 0xffffffff
 460:	7c010001 	stcvc	0, cr0, [r1], {1}
 464:	000d0c0e 	andeq	r0, sp, lr, lsl #24
 468:	0000000c 	andeq	r0, r0, ip
 46c:	00000458 	andeq	r0, r0, r8, asr r4
 470:	f00015cc 	undefined instruction 0xf00015cc
 474:	00000050 	andeq	r0, r0, r0, asr r0
 478:	00000018 	andeq	r0, r0, r8, lsl r0
 47c:	00000458 	andeq	r0, r0, r8, asr r4
 480:	f000161c 	undefined instruction 0xf000161c
 484:	0000029c 	muleq	r0, ip, r2
 488:	110c0e48 	tstne	ip, r8, asr #28
 48c:	0511010e 	ldreq	r0, [r1, #-270]	; 0x10e
 490:	03041102 	movweq	r1, #16642	; 0x4102
 494:	00000018 	andeq	r0, r0, r8, lsl r0
 498:	00000458 	andeq	r0, r0, r8, asr r4
 49c:	f00018b8 	undefined instruction 0xf00018b8
 4a0:	00000048 	andeq	r0, r0, r8, asr #32
 4a4:	11080e44 	tstne	r8, r4, asr #28
 4a8:	0411010e 	ldreq	r0, [r1], #-270	; 0x10e
 4ac:	00000002 	andeq	r0, r0, r2
 4b0:	0000000c 	andeq	r0, r0, ip
 4b4:	ffffffff 	undefined instruction 0xffffffff
 4b8:	7c010001 	stcvc	0, cr0, [r1], {1}
 4bc:	000d0c0e 	andeq	r0, sp, lr, lsl #24
 4c0:	0000000c 	andeq	r0, r0, ip
 4c4:	000004b0 	undefined instruction 0x000004b0
 4c8:	f0001900 	undefined instruction 0xf0001900
 4cc:	00000008 	andeq	r0, r0, r8
 4d0:	0000000c 	andeq	r0, r0, ip
 4d4:	000004b0 	undefined instruction 0x000004b0
 4d8:	f0001908 	undefined instruction 0xf0001908
 4dc:	00000008 	andeq	r0, r0, r8
 4e0:	0000000c 	andeq	r0, r0, ip
 4e4:	000004b0 	undefined instruction 0x000004b0
 4e8:	f0001910 	undefined instruction 0xf0001910
 4ec:	00000008 	andeq	r0, r0, r8
 4f0:	0000000c 	andeq	r0, r0, ip
 4f4:	000004b0 	undefined instruction 0x000004b0
 4f8:	f0001918 	undefined instruction 0xf0001918
 4fc:	00000008 	andeq	r0, r0, r8
 500:	0000000c 	andeq	r0, r0, ip
 504:	ffffffff 	undefined instruction 0xffffffff
 508:	7c010001 	stcvc	0, cr0, [r1], {1}
 50c:	000d0c0e 	andeq	r0, sp, lr, lsl #24
 510:	00000010 	andeq	r0, r0, r0, lsl r0
 514:	00000500 	andeq	r0, r0, r0, lsl #10
 518:	f0001954 	undefined instruction 0xf0001954
 51c:	00000020 	andeq	r0, r0, r0, lsr #32
 520:	00080e44 	andeq	r0, r8, r4, asr #28
 524:	00000010 	andeq	r0, r0, r0, lsl r0
 528:	00000500 	andeq	r0, r0, r0, lsl #10
 52c:	f0001974 	undefined instruction 0xf0001974
 530:	00000020 	andeq	r0, r0, r0, lsr #32
 534:	00080e44 	andeq	r0, r8, r4, asr #28
 538:	0000000c 	andeq	r0, r0, ip
 53c:	00000500 	andeq	r0, r0, r0, lsl #10
 540:	f0001994 	undefined instruction 0xf0001994
 544:	00000018 	andeq	r0, r0, r8, lsl r0
 548:	00000010 	andeq	r0, r0, r0, lsl r0
 54c:	00000500 	andeq	r0, r0, r0, lsl #10
 550:	f00019ac 	undefined instruction 0xf00019ac
 554:	00000010 	andeq	r0, r0, r0, lsl r0
 558:	00080e44 	andeq	r0, r8, r4, asr #28
 55c:	0000000c 	andeq	r0, r0, ip
 560:	00000500 	andeq	r0, r0, r0, lsl #10
 564:	f00019bc 	undefined instruction 0xf00019bc
 568:	00000010 	andeq	r0, r0, r0, lsl r0
 56c:	00000010 	andeq	r0, r0, r0, lsl r0
 570:	00000500 	andeq	r0, r0, r0, lsl #10
 574:	f00019cc 	undefined instruction 0xf00019cc
 578:	00000010 	andeq	r0, r0, r0, lsl r0
 57c:	00080e44 	andeq	r0, r8, r4, asr #28
 580:	00000010 	andeq	r0, r0, r0, lsl r0
 584:	00000500 	andeq	r0, r0, r0, lsl #10
 588:	f00019dc 	undefined instruction 0xf00019dc
 58c:	00000024 	andeq	r0, r0, r4, lsr #32
 590:	00080e44 	andeq	r0, r8, r4, asr #28
 594:	00000010 	andeq	r0, r0, r0, lsl r0
 598:	00000500 	andeq	r0, r0, r0, lsl #10
 59c:	f0001a00 	undefined instruction 0xf0001a00
 5a0:	00000024 	andeq	r0, r0, r4, lsr #32
 5a4:	00080e44 	andeq	r0, r8, r4, asr #28
 5a8:	0000000c 	andeq	r0, r0, ip
 5ac:	00000500 	andeq	r0, r0, r0, lsl #10
 5b0:	f0001a24 	undefined instruction 0xf0001a24
 5b4:	00000008 	andeq	r0, r0, r8
 5b8:	0000000c 	andeq	r0, r0, ip
 5bc:	00000500 	andeq	r0, r0, r0, lsl #10
 5c0:	f0001a2c 	undefined instruction 0xf0001a2c
 5c4:	0000001c 	andeq	r0, r0, ip, lsl r0
 5c8:	0000000c 	andeq	r0, r0, ip
 5cc:	00000500 	andeq	r0, r0, r0, lsl #10
 5d0:	f0001a48 	undefined instruction 0xf0001a48
 5d4:	0000002c 	andeq	r0, r0, ip, lsr #32
 5d8:	0000000c 	andeq	r0, r0, ip
 5dc:	00000500 	andeq	r0, r0, r0, lsl #10
 5e0:	f0001a74 	undefined instruction 0xf0001a74
 5e4:	00000020 	andeq	r0, r0, r0, lsr #32
 5e8:	0000000c 	andeq	r0, r0, ip
 5ec:	00000500 	andeq	r0, r0, r0, lsl #10
 5f0:	f0001a94 	undefined instruction 0xf0001a94
 5f4:	00000014 	andeq	r0, r0, r4, lsl r0
 5f8:	0000001c 	andeq	r0, r0, ip, lsl r0
 5fc:	00000500 	andeq	r0, r0, r0, lsl #10
 600:	f0001aa8 	undefined instruction 0xf0001aa8
 604:	00000124 	andeq	r0, r0, r4, lsr #2
 608:	11100e44 	tstne	r0, r4, asr #28
 60c:	0411010e 	ldreq	r0, [r1], #-270	; 0x10e
 610:	03011102 	movweq	r1, #4354	; 0x1102
 614:	00040011 	andeq	r0, r4, r1, lsl r0
 618:	00000018 	andeq	r0, r0, r8, lsl r0
 61c:	00000500 	andeq	r0, r0, r0, lsl #10
 620:	f0001bcc 	undefined instruction 0xf0001bcc
 624:	00000084 	andeq	r0, r0, r4, lsl #1
 628:	11080e48 	tstne	r8, r8, asr #28
 62c:	0411010e 	ldreq	r0, [r1], #-270	; 0x10e
 630:	00000002 	andeq	r0, r0, r2
 634:	0000000c 	andeq	r0, r0, ip
 638:	00000500 	andeq	r0, r0, r0, lsl #10
 63c:	f0001c50 	undefined instruction 0xf0001c50
 640:	0000000c 	andeq	r0, r0, ip
 644:	0000000c 	andeq	r0, r0, ip
 648:	00000500 	andeq	r0, r0, r0, lsl #10
 64c:	f0001c5c 	undefined instruction 0xf0001c5c
 650:	00000018 	andeq	r0, r0, r8, lsl r0
 654:	0000000c 	andeq	r0, r0, ip
 658:	00000500 	andeq	r0, r0, r0, lsl #10
 65c:	f0001c74 	undefined instruction 0xf0001c74
 660:	00000018 	andeq	r0, r0, r8, lsl r0
 664:	0000000c 	andeq	r0, r0, ip
 668:	00000500 	andeq	r0, r0, r0, lsl #10
 66c:	f0001c8c 	undefined instruction 0xf0001c8c
 670:	00000018 	andeq	r0, r0, r8, lsl r0
 674:	0000001c 	andeq	r0, r0, ip, lsl r0
 678:	00000500 	andeq	r0, r0, r0, lsl #10
 67c:	f0001ca4 	undefined instruction 0xf0001ca4
 680:	00000034 	andeq	r0, r0, r4, lsr r0
 684:	11100e44 	tstne	r0, r4, asr #28
 688:	0611010e 	ldreq	r0, [r1], -lr, lsl #2
 68c:	03051102 	movweq	r1, #20738	; 0x5102
 690:	00040411 	andeq	r0, r4, r1, lsl r4
 694:	0000000c 	andeq	r0, r0, ip
 698:	ffffffff 	undefined instruction 0xffffffff
 69c:	7c010001 	stcvc	0, cr0, [r1], {1}
 6a0:	000d0c0e 	andeq	r0, sp, lr, lsl #24
 6a4:	0000000c 	andeq	r0, r0, ip
 6a8:	00000694 	muleq	r0, r4, r6
 6ac:	f0001cd8 	undefined instruction 0xf0001cd8
 6b0:	00000028 	andeq	r0, r0, r8, lsr #32
 6b4:	0000000c 	andeq	r0, r0, ip
 6b8:	00000694 	muleq	r0, r4, r6
 6bc:	f0001d00 	undefined instruction 0xf0001d00
 6c0:	00000020 	andeq	r0, r0, r0, lsr #32
 6c4:	00000018 	andeq	r0, r0, r8, lsl r0
 6c8:	00000694 	muleq	r0, r4, r6
 6cc:	f0001d20 	undefined instruction 0xf0001d20
 6d0:	00000048 	andeq	r0, r0, r8, asr #32
 6d4:	11080e48 	tstne	r8, r8, asr #28
 6d8:	0411010e 	ldreq	r0, [r1], #-270	; 0x10e
 6dc:	00000002 	andeq	r0, r0, r2
 6e0:	0000000c 	andeq	r0, r0, ip
 6e4:	00000694 	muleq	r0, r4, r6
 6e8:	f0001d68 	undefined instruction 0xf0001d68
 6ec:	00000028 	andeq	r0, r0, r8, lsr #32
 6f0:	0000000c 	andeq	r0, r0, ip
 6f4:	00000694 	muleq	r0, r4, r6
 6f8:	f0001d90 	undefined instruction 0xf0001d90
 6fc:	00000020 	andeq	r0, r0, r0, lsr #32
 700:	0000000c 	andeq	r0, r0, ip
 704:	00000694 	muleq	r0, r4, r6
 708:	f0001db0 	undefined instruction 0xf0001db0
 70c:	00000004 	andeq	r0, r0, r4
 710:	00000018 	andeq	r0, r0, r8, lsl r0
 714:	00000694 	muleq	r0, r4, r6
 718:	f0001db4 	undefined instruction 0xf0001db4
 71c:	00000030 	andeq	r0, r0, r0, lsr r0
 720:	11080e44 	tstne	r8, r4, asr #28
 724:	0411010e 	ldreq	r0, [r1], #-270	; 0x10e
 728:	00000002 	andeq	r0, r0, r2
 72c:	0000000c 	andeq	r0, r0, ip
 730:	00000694 	muleq	r0, r4, r6
 734:	f0001de4 	undefined instruction 0xf0001de4
 738:	00000030 	andeq	r0, r0, r0, lsr r0
 73c:	0000000c 	andeq	r0, r0, ip
 740:	00000694 	muleq	r0, r4, r6
 744:	f0001e14 	undefined instruction 0xf0001e14
 748:	00000004 	andeq	r0, r0, r4
 74c:	0000000c 	andeq	r0, r0, ip
 750:	00000694 	muleq	r0, r4, r6
 754:	f0001e18 	undefined instruction 0xf0001e18
 758:	00000030 	andeq	r0, r0, r0, lsr r0
 75c:	0000000c 	andeq	r0, r0, ip
 760:	00000694 	muleq	r0, r4, r6
 764:	f0001e48 	undefined instruction 0xf0001e48
 768:	00000004 	andeq	r0, r0, r4
 76c:	0000000c 	andeq	r0, r0, ip
 770:	00000694 	muleq	r0, r4, r6
 774:	f0001e4c 	undefined instruction 0xf0001e4c
 778:	00000004 	andeq	r0, r0, r4
 77c:	00000018 	andeq	r0, r0, r8, lsl r0
 780:	00000694 	muleq	r0, r4, r6
 784:	f0001e50 	undefined instruction 0xf0001e50
 788:	00000078 	andeq	r0, r0, r8, ror r0
 78c:	11080e44 	tstne	r8, r4, asr #28
 790:	0411010e 	ldreq	r0, [r1], #-270	; 0x10e
 794:	00000002 	andeq	r0, r0, r2
 798:	0000000c 	andeq	r0, r0, ip
 79c:	00000694 	muleq	r0, r4, r6
 7a0:	f0001ec8 	undefined instruction 0xf0001ec8
 7a4:	00000004 	andeq	r0, r0, r4
 7a8:	0000000c 	andeq	r0, r0, ip
 7ac:	00000694 	muleq	r0, r4, r6
 7b0:	f0001ecc 	undefined instruction 0xf0001ecc
 7b4:	00000030 	andeq	r0, r0, r0, lsr r0
 7b8:	00000018 	andeq	r0, r0, r8, lsl r0
 7bc:	00000694 	muleq	r0, r4, r6
 7c0:	f0001efc 	undefined instruction 0xf0001efc
 7c4:	00000074 	andeq	r0, r0, r4, ror r0
 7c8:	11080e48 	tstne	r8, r8, asr #28
 7cc:	0411010e 	ldreq	r0, [r1], #-270	; 0x10e
 7d0:	00000002 	andeq	r0, r0, r2
 7d4:	0000000c 	andeq	r0, r0, ip
 7d8:	00000694 	muleq	r0, r4, r6
 7dc:	f0001f70 	undefined instruction 0xf0001f70
 7e0:	00000004 	andeq	r0, r0, r4
 7e4:	00000018 	andeq	r0, r0, r8, lsl r0
 7e8:	00000694 	muleq	r0, r4, r6
 7ec:	f0001f74 	undefined instruction 0xf0001f74
 7f0:	00000018 	andeq	r0, r0, r8, lsl r0
 7f4:	11080e44 	tstne	r8, r4, asr #28
 7f8:	0411010e 	ldreq	r0, [r1], #-270	; 0x10e
 7fc:	00000002 	andeq	r0, r0, r2
 800:	00000030 	andeq	r0, r0, r0, lsr r0
 804:	00000694 	muleq	r0, r4, r6
 808:	f0001f8c 	undefined instruction 0xf0001f8c
 80c:	000001a0 	andeq	r0, r0, r0, lsr #3
 810:	44240e48 	strtmi	r0, [r4], #-3656	; 0xe48
 814:	0e11480e 	cdpeq	8, 1, cr4, cr1, cr14, {0}
 818:	020b1101 	andeq	r1, fp, #1073741824	; 0x40000000
 81c:	11030a11 	tstne	r3, r1, lsl sl
 820:	08110409 	ldmdaeq	r1, {r0, r3, sl}
 824:	06071105 	streq	r1, [r7], -r5, lsl #2
 828:	11070611 	tstne	r7, r1, lsl r6
 82c:	04110805 	ldreq	r0, [r1], #-2053	; 0x805
 830:	00000009 	andeq	r0, r0, r9
 834:	0000000c 	andeq	r0, r0, ip
 838:	00000694 	muleq	r0, r4, r6
 83c:	f000212c 	undefined instruction 0xf000212c
 840:	00000004 	andeq	r0, r0, r4
 844:	0000000c 	andeq	r0, r0, ip
 848:	ffffffff 	undefined instruction 0xffffffff
 84c:	7c010001 	stcvc	0, cr0, [r1], {1}
 850:	000d0c0e 	andeq	r0, sp, lr, lsl #24
 854:	0000000c 	andeq	r0, r0, ip
 858:	00000844 	andeq	r0, r0, r4, asr #16
 85c:	f0002130 	undefined instruction 0xf0002130
 860:	00000020 	andeq	r0, r0, r0, lsr #32
 864:	0000000c 	andeq	r0, r0, ip
 868:	00000844 	andeq	r0, r0, r4, asr #16
 86c:	f0002150 	undefined instruction 0xf0002150
 870:	0000001c 	andeq	r0, r0, ip, lsl r0
 874:	0000000c 	andeq	r0, r0, ip
 878:	00000844 	andeq	r0, r0, r4, asr #16
 87c:	f000216c 	undefined instruction 0xf000216c
 880:	00000018 	andeq	r0, r0, r8, lsl r0
 884:	0000000c 	andeq	r0, r0, ip
 888:	00000844 	andeq	r0, r0, r4, asr #16
 88c:	f0002184 	undefined instruction 0xf0002184
 890:	0000005c 	andeq	r0, r0, ip, asr r0
 894:	0000000c 	andeq	r0, r0, ip
 898:	00000844 	andeq	r0, r0, r4, asr #16
 89c:	f00021e0 	undefined instruction 0xf00021e0
 8a0:	00000034 	andeq	r0, r0, r4, lsr r0
 8a4:	0000000c 	andeq	r0, r0, ip
 8a8:	00000844 	andeq	r0, r0, r4, asr #16
 8ac:	f0002214 	undefined instruction 0xf0002214
 8b0:	00000008 	andeq	r0, r0, r8
 8b4:	0000000c 	andeq	r0, r0, ip
 8b8:	00000844 	andeq	r0, r0, r4, asr #16
 8bc:	f000221c 	undefined instruction 0xf000221c
 8c0:	00000038 	andeq	r0, r0, r8, lsr r0
 8c4:	0000000c 	andeq	r0, r0, ip
 8c8:	00000844 	andeq	r0, r0, r4, asr #16
 8cc:	f0002254 	undefined instruction 0xf0002254
 8d0:	00000024 	andeq	r0, r0, r4, lsr #32
 8d4:	0000000c 	andeq	r0, r0, ip
 8d8:	00000844 	andeq	r0, r0, r4, asr #16
 8dc:	f0002278 	undefined instruction 0xf0002278
 8e0:	00000034 	andeq	r0, r0, r4, lsr r0
 8e4:	0000000c 	andeq	r0, r0, ip
 8e8:	00000844 	andeq	r0, r0, r4, asr #16
 8ec:	f00022ac 	undefined instruction 0xf00022ac
 8f0:	00000074 	andeq	r0, r0, r4, ror r0
 8f4:	0000000c 	andeq	r0, r0, ip
 8f8:	00000844 	andeq	r0, r0, r4, asr #16
 8fc:	f0002320 	undefined instruction 0xf0002320
 900:	00000008 	andeq	r0, r0, r8
 904:	0000000c 	andeq	r0, r0, ip
 908:	00000844 	andeq	r0, r0, r4, asr #16
 90c:	f0002328 	undefined instruction 0xf0002328
 910:	00000008 	andeq	r0, r0, r8
 914:	0000000c 	andeq	r0, r0, ip
 918:	00000844 	andeq	r0, r0, r4, asr #16
 91c:	f0002330 	undefined instruction 0xf0002330
 920:	00000004 	andeq	r0, r0, r4
 924:	0000000c 	andeq	r0, r0, ip
 928:	00000844 	andeq	r0, r0, r4, asr #16
 92c:	f0002334 	undefined instruction 0xf0002334
 930:	00000020 	andeq	r0, r0, r0, lsr #32
 934:	0000000c 	andeq	r0, r0, ip
 938:	00000844 	andeq	r0, r0, r4, asr #16
 93c:	f0002354 	undefined instruction 0xf0002354
 940:	00000034 	andeq	r0, r0, r4, lsr r0
 944:	0000000c 	andeq	r0, r0, ip
 948:	00000844 	andeq	r0, r0, r4, asr #16
 94c:	f0002388 	undefined instruction 0xf0002388
 950:	00000038 	andeq	r0, r0, r8, lsr r0
 954:	00000030 	andeq	r0, r0, r0, lsr r0
 958:	00000844 	andeq	r0, r0, r4, asr #16
 95c:	f00023c0 	undefined instruction 0xf00023c0
 960:	0000010c 	andeq	r0, r0, ip, lsl #2
 964:	11280e4c 	teqne	r8, ip, asr #28
 968:	0b11010e 	bleq	440da8 <__standby_start+0x440da8>
 96c:	030a1102 	movweq	r1, #41218	; 0xa102
 970:	11040911 	tstne	r4, r1, lsl r9
 974:	07110508 	ldreq	r0, [r1, -r8, lsl #10]
 978:	07061106 	streq	r1, [r6, -r6, lsl #2]
 97c:	11080511 	tstne	r8, r1, lsl r5
 980:	00110904 	andseq	r0, r1, r4, lsl #18
 984:	0000000a 	andeq	r0, r0, sl
 988:	0000000c 	andeq	r0, r0, ip
 98c:	00000844 	andeq	r0, r0, r4, asr #16
 990:	f00024cc 	undefined instruction 0xf00024cc
 994:	00000004 	andeq	r0, r0, r4
 998:	00000018 	andeq	r0, r0, r8, lsl r0
 99c:	00000844 	andeq	r0, r0, r4, asr #16
 9a0:	f00024d0 	undefined instruction 0xf00024d0
 9a4:	000000d8 	ldrdeq	r0, [r0], -r8
 9a8:	11080e4c 	tstne	r8, ip, asr #28
 9ac:	0411010e 	ldreq	r0, [r1], #-270	; 0x10e
 9b0:	00000002 	andeq	r0, r0, r2
 9b4:	00000018 	andeq	r0, r0, r8, lsl r0
 9b8:	00000844 	andeq	r0, r0, r4, asr #16
 9bc:	f00025a8 	undefined instruction 0xf00025a8
 9c0:	00000054 	andeq	r0, r0, r4, asr r0
 9c4:	11080e44 	tstne	r8, r4, asr #28
 9c8:	0411010e 	ldreq	r0, [r1], #-270	; 0x10e
 9cc:	00000002 	andeq	r0, r0, r2
 9d0:	00000018 	andeq	r0, r0, r8, lsl r0
 9d4:	00000844 	andeq	r0, r0, r4, asr #16
 9d8:	f00025fc 	undefined instruction 0xf00025fc
 9dc:	00000030 	andeq	r0, r0, r0, lsr r0
 9e0:	11080e44 	tstne	r8, r4, asr #28
 9e4:	0411010e 	ldreq	r0, [r1], #-270	; 0x10e
 9e8:	00000002 	andeq	r0, r0, r2
 9ec:	00000024 	andeq	r0, r0, r4, lsr #32
 9f0:	00000844 	andeq	r0, r0, r4, asr #16
 9f4:	f000262c 	undefined instruction 0xf000262c
 9f8:	00000274 	andeq	r0, r0, r4, ror r2
 9fc:	11180e44 	tstne	r8, r4, asr #28
 a00:	0811010e 	ldmdaeq	r1, {r1, r2, r3, r8}
 a04:	03071102 	movweq	r1, #28930	; 0x7102
 a08:	11040611 	tstne	r4, r1, lsl r6
 a0c:	04110505 	ldreq	r0, [r1], #-1285	; 0x505
 a10:	00000006 	andeq	r0, r0, r6

Disassembly of section .debug_loc:

00000000 <.debug_loc>:
       0:	00000000 	andeq	r0, r0, r0
       4:	00000004 	andeq	r0, r0, r4
       8:	045d0001 	ldrbeq	r0, [sp], #-1
       c:	b8000000 	stmdalt	r0, {}
      10:	02000003 	andeq	r0, r0, #3
      14:	00187d00 	andseq	r7, r8, r0, lsl #26
	...
      20:	0c000000 	stceq	0, cr0, [r0], {0}
      24:	01000000 	tsteq	r0, r0
      28:	000c5000 	andeq	r5, ip, r0
      2c:	03b80000 	undefined instruction 0x03b80000
      30:	00010000 	andeq	r0, r1, r0
      34:	00000055 	andeq	r0, r0, r5, asr r0
      38:	00000000 	andeq	r0, r0, r0
      3c:	00001800 	andeq	r1, r0, r0, lsl #16
      40:	00003400 	andeq	r3, r0, r0, lsl #8
      44:	54000100 	strpl	r0, [r0], #-256	; 0x100
	...
      50:	00000034 	andeq	r0, r0, r4, lsr r0
      54:	00000040 	andeq	r0, r0, r0, asr #32
      58:	00500001 	subseq	r0, r0, r1
	...
      64:	10000000 	andne	r0, r0, r0
      68:	01000000 	tsteq	r0, r0
      6c:	00105d00 	andseq	r5, r0, r0, lsl #26
      70:	00840000 	addeq	r0, r4, r0
      74:	00020000 	andeq	r0, r2, r0
      78:	00001c7d 	andeq	r1, r0, sp, ror ip
      7c:	00000000 	andeq	r0, r0, r0
      80:	03000000 	movweq	r0, #0
      84:	03080000 	movweq	r0, #32768	; 0x8000
      88:	00010000 	andeq	r0, r1, r0
      8c:	00030850 	andeq	r0, r3, r0, asr r8
      90:	00034800 	andeq	r4, r3, r0, lsl #16
      94:	52000100 	andpl	r0, r0, #0
	...
      a0:	0000035c 	andeq	r0, r0, ip, asr r3
      a4:	00000364 	andeq	r0, r0, r4, ror #6
      a8:	64500001 	ldrbvs	r0, [r0], #-1
      ac:	b0000003 	andlt	r0, r0, r3
      b0:	01000003 	tsteq	r0, r3
      b4:	00005300 	andeq	r5, r0, r0, lsl #6
      b8:	00000000 	andeq	r0, r0, r0
      bc:	03b00000 	movseq	r0, #0
      c0:	03b80000 	undefined instruction 0x03b80000
      c4:	00010000 	andeq	r0, r1, r0
      c8:	0003b850 	andeq	fp, r3, r0, asr r8
      cc:	00040000 	andeq	r0, r4, r0
      d0:	52000100 	andpl	r0, r0, #0
	...
      dc:	00000410 	andeq	r0, r0, r0, lsl r4
      e0:	00000418 	andeq	r0, r0, r8, lsl r4
      e4:	18500001 	ldmdane	r0, {r0}^
      e8:	60000004 	andvs	r0, r0, r4
      ec:	01000004 	tsteq	r0, r4
      f0:	00005300 	andeq	r5, r0, r0, lsl #6
	...
      fc:	00140000 	andseq	r0, r4, r0
     100:	00010000 	andeq	r0, r1, r0
     104:	0000145d 	andeq	r1, r0, sp, asr r4
     108:	00009c00 	andeq	r9, r0, r0, lsl #24
     10c:	7d000200 	sfmvc	f0, 4, [r0]	; (stcvc 2, cr0, [r0])
     110:	00000024 	andeq	r0, r0, r4, lsr #32
     114:	00000000 	andeq	r0, r0, r0
     118:	0000f800 	andeq	pc, r0, r0, lsl #16
     11c:	00010c00 	andeq	r0, r1, r0, lsl #24
     120:	5d000100 	stfpls	f0, [r0]
     124:	0000010c 	andeq	r0, r0, ip, lsl #2
     128:	00000140 	andeq	r0, r0, r0, asr #2
     12c:	087d0002 	ldmdaeq	sp!, {r1}^
	...
     138:	000000f8 	strdeq	r0, [r0], -r8
     13c:	0000011c 	andeq	r0, r0, ip, lsl r1
     140:	00500001 	subseq	r0, r0, r1
	...
     14c:	18000001 	stmdane	r0, {r0}
     150:	01000001 	tsteq	r0, r1
     154:	00005200 	andeq	r5, r0, r0, lsl #4
     158:	00000000 	andeq	r0, r0, r0
     15c:	01400000 	cmpeq	r0, r0
     160:	014c0000 	cmpeq	ip, r0
     164:	00010000 	andeq	r0, r1, r0
     168:	00000050 	andeq	r0, r0, r0, asr r0
     16c:	00000000 	andeq	r0, r0, r0
     170:	00014c00 	andeq	r4, r1, r0, lsl #24
     174:	00015400 	andeq	r5, r1, r0, lsl #8
     178:	50000100 	andpl	r0, r0, r0, lsl #2
	...
     184:	00000048 	andeq	r0, r0, r8, asr #32
     188:	00000054 	andeq	r0, r0, r4, asr r0
     18c:	545d0001 	ldrbpl	r0, [sp], #-1
     190:	9c000000 	stcls	0, cr0, [r0], {0}
     194:	02000000 	andeq	r0, r0, #0
     198:	00107d00 	andseq	r7, r0, r0, lsl #26
	...
     1a4:	08000000 	stmdaeq	r0, {}
     1a8:	01000000 	tsteq	r0, r0
     1ac:	00085d00 	andeq	r5, r8, r0, lsl #26
     1b0:	00a00000 	adceq	r0, r0, r0
     1b4:	00020000 	andeq	r0, r2, r0
     1b8:	0000187d 	andeq	r1, r0, sp, ror r8
	...
     1c4:	00080000 	andeq	r0, r8, r0
     1c8:	00010000 	andeq	r0, r1, r0
     1cc:	00000c50 	andeq	r0, r0, r0, asr ip
     1d0:	00001400 	andeq	r1, r0, r0, lsl #8
     1d4:	50000100 	andpl	r0, r0, r0, lsl #2
     1d8:	00000014 	andeq	r0, r0, r4, lsl r0
     1dc:	000000a0 	andeq	r0, r0, r0, lsr #1
     1e0:	00550001 	subseq	r0, r5, r1
     1e4:	00000000 	andeq	r0, r0, r0
     1e8:	64000000 	strvs	r0, [r0]
     1ec:	80000000 	andhi	r0, r0, r0
     1f0:	02000000 	andeq	r0, r0, #0
     1f4:	80679100 	rsbhi	r9, r7, r0, lsl #2
     1f8:	84000000 	strhi	r0, [r0]
     1fc:	01000000 	tsteq	r0, r0
     200:	00885300 	addeq	r5, r8, r0, lsl #6
     204:	008c0000 	addeq	r0, ip, r0
     208:	00010000 	andeq	r0, r1, r0
     20c:	00000053 	andeq	r0, r0, r3, asr r0
     210:	00000000 	andeq	r0, r0, r0
     214:	0000a000 	andeq	sl, r0, r0
     218:	0000a800 	andeq	sl, r0, r0, lsl #16
     21c:	5d000100 	stfpls	f0, [r0]
     220:	000000a8 	andeq	r0, r0, r8, lsr #1
     224:	00000280 	andeq	r0, r0, r0, lsl #5
     228:	207d0002 	rsbscs	r0, sp, r2
	...
     234:	000000a0 	andeq	r0, r0, r0, lsr #1
     238:	000000a8 	andeq	r0, r0, r8, lsr #1
     23c:	b0500001 	subslt	r0, r0, r1
     240:	04000000 	streq	r0, [r0]
     244:	01000001 	tsteq	r0, r1
     248:	01505000 	cmpeq	r0, r0
     24c:	01640000 	cmneq	r4, r0
     250:	00010000 	andeq	r0, r1, r0
     254:	0001f450 	andeq	pc, r1, r0, asr r4
     258:	00021800 	andeq	r1, r2, r0, lsl #16
     25c:	50000100 	andpl	r0, r0, r0, lsl #2
     260:	00000264 	andeq	r0, r0, r4, ror #4
     264:	00000280 	andeq	r0, r0, r0, lsl #5
     268:	00500001 	subseq	r0, r0, r1
     26c:	00000000 	andeq	r0, r0, r0
     270:	a0000000 	andge	r0, r0, r0
     274:	a8000000 	stmdage	r0, {}
     278:	01000000 	tsteq	r0, r0
     27c:	00e05100 	rsceq	r5, r0, r0, lsl #2
     280:	012c0000 	teqeq	ip, r0
     284:	00010000 	andeq	r0, r1, r0
     288:	00015051 	andeq	r5, r1, r1, asr r0
     28c:	00019800 	andeq	r9, r1, r0, lsl #16
     290:	51000100 	tstpl	r0, r0, lsl #2
     294:	000001bc 	undefined instruction 0x000001bc
     298:	0000021c 	andeq	r0, r0, ip, lsl r2
     29c:	64510001 	ldrbvs	r0, [r1], #-1
     2a0:	80000002 	andhi	r0, r0, r2
     2a4:	01000002 	tsteq	r0, r2
     2a8:	00005100 	andeq	r5, r0, r0, lsl #2
     2ac:	00000000 	andeq	r0, r0, r0
     2b0:	015c0000 	cmpeq	ip, r0
     2b4:	01900000 	orrseq	r0, r0, r0
     2b8:	00010000 	andeq	r0, r1, r0
     2bc:	0001bc55 	andeq	fp, r1, r5, asr ip
     2c0:	0001c000 	andeq	ip, r1, r0
     2c4:	55000100 	strpl	r0, [r0, #-256]	; 0x100
     2c8:	000001c4 	andeq	r0, r0, r4, asr #3
     2cc:	000001d0 	ldrdeq	r0, [r0], -r0
     2d0:	d4550001 	ldrble	r0, [r5], #-1
     2d4:	e0000001 	and	r0, r0, r1
     2d8:	01000001 	tsteq	r0, r1
     2dc:	01e85500 	mvneq	r5, r0, lsl #10
     2e0:	02140000 	andseq	r0, r4, #0
     2e4:	00010000 	andeq	r0, r1, r0
     2e8:	00023455 	andeq	r3, r2, r5, asr r4
     2ec:	00024c00 	andeq	r4, r2, r0, lsl #24
     2f0:	55000100 	strpl	r0, [r0, #-256]	; 0x100
     2f4:	00000270 	andeq	r0, r0, r0, ror r2
     2f8:	00000280 	andeq	r0, r0, r0, lsl #5
     2fc:	00550001 	subseq	r0, r5, r1
     300:	00000000 	andeq	r0, r0, r0
     304:	30000000 	andcc	r0, r0, r0
     308:	44000002 	strmi	r0, [r0], #-2
     30c:	01000002 	tsteq	r0, r2
     310:	02705700 	rsbseq	r5, r0, #0
     314:	02800000 	addeq	r0, r0, #0
     318:	00010000 	andeq	r0, r1, r0
     31c:	00000057 	andeq	r0, r0, r7, asr r0
     320:	00000000 	andeq	r0, r0, r0
     324:	00022c00 	andeq	r2, r2, r0, lsl #24
     328:	00025400 	andeq	r5, r2, r0, lsl #8
     32c:	91000200 	tstls	r0, r0, lsl #4
     330:	0002545f 	andeq	r5, r2, pc, asr r4
     334:	00026400 	andeq	r6, r2, r0, lsl #8
     338:	7d000200 	sfmvc	f0, 4, [r0]	; (stcvc 2, cr0, [r0])
     33c:	00027007 	andeq	r7, r2, r7
     340:	00028000 	andeq	r8, r2, r0
     344:	91000200 	tstls	r0, r0, lsl #4
     348:	0000005f 	andeq	r0, r0, pc, asr r0
     34c:	00000000 	andeq	r0, r0, r0
     350:	00012c00 	andeq	r2, r1, r0, lsl #24
     354:	00015000 	andeq	r5, r1, r0
     358:	51000100 	tstpl	r0, r0, lsl #2
     35c:	000001d0 	ldrdeq	r0, [r0], -r0
     360:	000001d8 	ldrdeq	r0, [r0], -r8
     364:	f4510001 	undefined instruction 0xf4510001
     368:	1c000001 	stcne	0, cr0, [r0], {1}
     36c:	01000002 	tsteq	r0, r2
     370:	00005100 	andeq	r5, r0, r0, lsl #2
     374:	00000000 	andeq	r0, r0, r0
     378:	01000000 	tsteq	r0, r0
     37c:	01500000 	cmpeq	r0, r0
     380:	00010000 	andeq	r0, r1, r0
     384:	0001d052 	andeq	sp, r1, r2, asr r0
     388:	0001d800 	andeq	sp, r1, r0, lsl #16
     38c:	52000100 	andpl	r0, r0, #0
     390:	000001f4 	strdeq	r0, [r0], -r4
     394:	0000020c 	andeq	r0, r0, ip, lsl #4
     398:	00520001 	subseq	r0, r2, r1
     39c:	00000000 	andeq	r0, r0, r0
     3a0:	24000000 	strcs	r0, [r0]
     3a4:	34000001 	strcc	r0, [r0], #-1
     3a8:	01000001 	tsteq	r0, r1
     3ac:	01345500 	teqeq	r4, r0, lsl #10
     3b0:	013c0000 	teqeq	ip, r0
     3b4:	00010000 	andeq	r0, r1, r0
     3b8:	00013c53 	andeq	r3, r1, r3, asr ip
     3bc:	00015000 	andeq	r5, r1, r0
     3c0:	55000100 	strpl	r0, [r0, #-256]	; 0x100
     3c4:	000001d0 	ldrdeq	r0, [r0], -r0
     3c8:	000001d4 	ldrdeq	r0, [r0], -r4
     3cc:	d4550001 	ldrble	r0, [r5], #-1
     3d0:	d8000001 	stmdale	r0, {r0}
     3d4:	01000001 	tsteq	r0, r1
     3d8:	01f45300 	mvnseq	r5, r0, lsl #6
     3dc:	02000000 	andeq	r0, r0, #0
     3e0:	00010000 	andeq	r0, r1, r0
     3e4:	00000053 	andeq	r0, r0, r3, asr r0
     3e8:	00000000 	andeq	r0, r0, r0
     3ec:	00010400 	andeq	r0, r1, r0, lsl #8
     3f0:	00015000 	andeq	r5, r1, r0
     3f4:	50000100 	andpl	r0, r0, r0, lsl #2
     3f8:	000001d0 	ldrdeq	r0, [r0], -r0
     3fc:	000001d8 	ldrdeq	r0, [r0], -r8
     400:	f4500001 	undefined instruction 0xf4500001
     404:	18000001 	stmdane	r0, {r0}
     408:	01000002 	tsteq	r0, r2
     40c:	00005000 	andeq	r5, r0, r0
     410:	00000000 	andeq	r0, r0, r0
     414:	01980000 	orrseq	r0, r8, r0
     418:	01bc0000 	undefined instruction 0x01bc0000
     41c:	00010000 	andeq	r0, r1, r0
     420:	0001c051 	andeq	ip, r1, r1, asr r0
     424:	00021c00 	andeq	r1, r2, r0, lsl #24
     428:	51000100 	tstpl	r0, r0, lsl #2
	...
     434:	0000016c 	andeq	r0, r0, ip, ror #2
     438:	00000200 	andeq	r0, r0, r0, lsl #4
     43c:	00530001 	subseq	r0, r3, r1
     440:	00000000 	andeq	r0, r0, r0
     444:	90000000 	andls	r0, r0, r0
     448:	a0000001 	andge	r0, r0, r1
     44c:	01000001 	tsteq	r0, r1
     450:	01a05500 	lsleq	r5, r0, #10
     454:	01a80000 	undefined instruction 0x01a80000
     458:	00010000 	andeq	r0, r1, r0
     45c:	0001a850 	andeq	sl, r1, r0, asr r8
     460:	0001bc00 	andeq	fp, r1, r0, lsl #24
     464:	55000100 	strpl	r0, [r0, #-256]	; 0x100
     468:	000001c0 	andeq	r0, r0, r0, asr #3
     46c:	000001c4 	andeq	r0, r0, r4, asr #3
     470:	c4550001 	ldrbgt	r0, [r5], #-1
     474:	18000001 	stmdane	r0, {r0}
     478:	01000002 	tsteq	r0, r2
     47c:	00005000 	andeq	r5, r0, r0
     480:	00000000 	andeq	r0, r0, r0
     484:	01700000 	cmneq	r0, r0
     488:	020c0000 	andeq	r0, ip, #0
     48c:	00010000 	andeq	r0, r1, r0
     490:	00000052 	andeq	r0, r0, r2, asr r0
     494:	00000000 	andeq	r0, r0, r0
     498:	00028000 	andeq	r8, r2, r0
     49c:	00028400 	andeq	r8, r2, r0, lsl #8
     4a0:	5d000100 	stfpls	f0, [r0]
     4a4:	00000284 	andeq	r0, r0, r4, lsl #5
     4a8:	000004bc 	undefined instruction 0x000004bc
     4ac:	187d0002 	ldmdane	sp!, {r1}^
	...
     4b8:	00000280 	andeq	r0, r0, r0, lsl #5
     4bc:	00000284 	andeq	r0, r0, r4, lsl #5
     4c0:	8c500001 	mrrchi	0, 0, r0, r0, cr1
     4c4:	9c000002 	stcls	0, cr0, [r0], {2}
     4c8:	01000002 	tsteq	r0, r2
     4cc:	029c5000 	addseq	r5, ip, #0
     4d0:	047c0000 	ldrbteq	r0, [ip]
     4d4:	00010000 	andeq	r0, r1, r0
     4d8:	0004b054 	andeq	fp, r4, r4, asr r0
     4dc:	0004bc00 	andeq	fp, r4, r0, lsl #24
     4e0:	54000100 	strpl	r0, [r0], #-256	; 0x100
	...
     4ec:	000002d4 	ldrdeq	r0, [r0], -r4
     4f0:	000002e8 	andeq	r0, r0, r8, ror #5
     4f4:	67910002 	ldrvs	r0, [r1, r2]
     4f8:	000002ec 	andeq	r0, r0, ip, ror #5
     4fc:	00000314 	andeq	r0, r0, r4, lsl r3
     500:	077d0002 	ldrbeq	r0, [sp, -r2]!
     504:	00000314 	andeq	r0, r0, r4, lsl r3
     508:	00000328 	andeq	r0, r0, r8, lsr #6
     50c:	2c5c0001 	mrrccs	0, 0, r0, ip, cr1
     510:	54000003 	strpl	r0, [r0], #-3
     514:	02000003 	andeq	r0, r0, #3
     518:	54077d00 	strpl	r7, [r7], #-3328	; 0xd00
     51c:	68000003 	stmdavs	r0, {r0, r1}
     520:	01000003 	tsteq	r0, r3
     524:	036c5c00 	cmneq	ip, #0
     528:	03940000 	orrseq	r0, r4, #0
     52c:	00020000 	andeq	r0, r2, r0
     530:	0394077d 	orrseq	r0, r4, #32768000	; 0x1f40000
     534:	03a80000 	undefined instruction 0x03a80000
     538:	00010000 	andeq	r0, r1, r0
     53c:	0003ac5c 	andeq	sl, r3, ip, asr ip
     540:	0003d400 	andeq	sp, r3, r0, lsl #8
     544:	7d000200 	sfmvc	f0, 4, [r0]	; (stcvc 2, cr0, [r0])
     548:	0003d407 	andeq	sp, r3, r7, lsl #8
     54c:	0003e800 	andeq	lr, r3, r0, lsl #16
     550:	5c000100 	stfpls	f0, [r0], {0}
     554:	000003ec 	andeq	r0, r0, ip, ror #7
     558:	00000414 	andeq	r0, r0, r4, lsl r4
     55c:	077d0002 	ldrbeq	r0, [sp, -r2]!
     560:	00000414 	andeq	r0, r0, r4, lsl r4
     564:	00000428 	andeq	r0, r0, r8, lsr #8
     568:	2c5c0001 	mrrccs	0, 0, r0, ip, cr1
     56c:	54000004 	strpl	r0, [r0], #-4
     570:	02000004 	andeq	r0, r0, #4
     574:	54077d00 	strpl	r7, [r7], #-3328	; 0xd00
     578:	68000004 	stmdavs	r0, {r2}
     57c:	01000004 	tsteq	r0, r4
     580:	046c5c00 	strbteq	r5, [ip], #-3072	; 0xc00
     584:	04940000 	ldreq	r0, [r4]
     588:	00020000 	andeq	r0, r2, r0
     58c:	0494077d 	ldreq	r0, [r4], #1917	; 0x77d
     590:	04a80000 	strteq	r0, [r8]
     594:	00010000 	andeq	r0, r1, r0
     598:	0004ac5c 	andeq	sl, r4, ip, asr ip
     59c:	0004bc00 	andeq	fp, r4, r0, lsl #24
     5a0:	7d000200 	sfmvc	f0, 4, [r0]	; (stcvc 2, cr0, [r0])
     5a4:	00000007 	andeq	r0, r0, r7
     5a8:	00000000 	andeq	r0, r0, r0
     5ac:	0004bc00 	andeq	fp, r4, r0, lsl #24
     5b0:	0004c000 	andeq	ip, r4, r0
     5b4:	5d000100 	stfpls	f0, [r0]
     5b8:	000004c0 	andeq	r0, r0, r0, asr #9
     5bc:	00000728 	andeq	r0, r0, r8, lsr #14
     5c0:	187d0002 	ldmdane	sp!, {r1}^
	...
     5cc:	000004bc 	undefined instruction 0x000004bc
     5d0:	000004c0 	andeq	r0, r0, r0, asr #9
     5d4:	c4500001 	ldrbgt	r0, [r0], #-1
     5d8:	c8000004 	stmdagt	r0, {r2}
     5dc:	01000004 	tsteq	r0, r4
     5e0:	04c85000 	strbeq	r5, [r8]
     5e4:	06ec0000 	strbteq	r0, [ip], r0
     5e8:	00010000 	andeq	r0, r1, r0
     5ec:	00072054 	andeq	r2, r7, r4, asr r0
     5f0:	00072800 	andeq	r2, r7, r0, lsl #16
     5f4:	54000100 	strpl	r0, [r0], #-256	; 0x100
	...
     600:	000004f0 	strdeq	r0, [r0], -r0
     604:	00000504 	andeq	r0, r0, r4, lsl #10
     608:	67910002 	ldrvs	r0, [r1, r2]
     60c:	00000508 	andeq	r0, r0, r8, lsl #10
     610:	00000530 	andeq	r0, r0, r0, lsr r5
     614:	077d0002 	ldrbeq	r0, [sp, -r2]!
     618:	00000530 	andeq	r0, r0, r0, lsr r5
     61c:	00000544 	andeq	r0, r0, r4, asr #10
     620:	485c0001 	ldmdami	ip, {r0}^
     624:	64000005 	strvs	r0, [r0], #-5
     628:	02000005 	andeq	r0, r0, #5
     62c:	64077d00 	strvs	r7, [r7], #-3328	; 0xd00
     630:	78000005 	stmdavc	r0, {r0, r2}
     634:	01000005 	tsteq	r0, r5
     638:	057c5c00 	ldrbeq	r5, [ip, #-3072]!	; 0xc00
     63c:	05a40000 	streq	r0, [r4]!
     640:	00020000 	andeq	r0, r2, r0
     644:	05a4077d 	streq	r0, [r4, #1917]!	; 0x77d
     648:	05b80000 	ldreq	r0, [r8]!
     64c:	00010000 	andeq	r0, r1, r0
     650:	0005bc5c 	andeq	fp, r5, ip, asr ip
     654:	0005e400 	andeq	lr, r5, r0, lsl #8
     658:	7d000200 	sfmvc	f0, 4, [r0]	; (stcvc 2, cr0, [r0])
     65c:	0005e407 	andeq	lr, r5, r7, lsl #8
     660:	0005f800 	andeq	pc, r5, r0, lsl #16
     664:	5c000100 	stfpls	f0, [r0], {0}
     668:	000005fc 	strdeq	r0, [r0], -ip
     66c:	00000624 	andeq	r0, r0, r4, lsr #12
     670:	077d0002 	ldrbeq	r0, [sp, -r2]!
     674:	00000624 	andeq	r0, r0, r4, lsr #12
     678:	00000638 	andeq	r0, r0, r8, lsr r6
     67c:	3c5c0001 	mrrccc	0, 0, r0, ip, cr1
     680:	64000006 	strvs	r0, [r0], #-6
     684:	02000006 	andeq	r0, r0, #6
     688:	64077d00 	strvs	r7, [r7], #-3328	; 0xd00
     68c:	78000006 	stmdavc	r0, {r1, r2}
     690:	01000006 	tsteq	r0, r6
     694:	067c5c00 	ldrbteq	r5, [ip], -r0, lsl #24
     698:	06840000 	streq	r0, [r4], r0
     69c:	00020000 	andeq	r0, r2, r0
     6a0:	0684077d 	undefined instruction 0x0684077d
     6a4:	06980000 	ldreq	r0, [r8], r0
     6a8:	00010000 	andeq	r0, r1, r0
     6ac:	00069c5c 	andeq	r9, r6, ip, asr ip
     6b0:	0006c400 	andeq	ip, r6, r0, lsl #8
     6b4:	7d000200 	sfmvc	f0, 4, [r0]	; (stcvc 2, cr0, [r0])
     6b8:	0006c407 	andeq	ip, r6, r7, lsl #8
     6bc:	0006d800 	andeq	sp, r6, r0, lsl #16
     6c0:	5c000100 	stfpls	f0, [r0], {0}
     6c4:	000006dc 	ldrdeq	r0, [r0], -ip
     6c8:	00000704 	andeq	r0, r0, r4, lsl #14
     6cc:	077d0002 	ldrbeq	r0, [sp, -r2]!
     6d0:	00000704 	andeq	r0, r0, r4, lsl #14
     6d4:	00000718 	andeq	r0, r0, r8, lsl r7
     6d8:	1c5c0001 	mrrcne	0, 0, r0, ip, cr1
     6dc:	28000007 	stmdacs	r0, {r0, r1, r2}
     6e0:	02000007 	andeq	r0, r0, #7
     6e4:	00077d00 	andeq	r7, r7, r0, lsl #26
	...
     6f0:	0c000000 	stceq	0, cr0, [r0], {0}
     6f4:	01000000 	tsteq	r0, r0
     6f8:	000c5d00 	andeq	r5, ip, r0, lsl #26
     6fc:	004c0000 	subeq	r0, ip, r0
     700:	00020000 	andeq	r0, r2, r0
     704:	0000147d 	andeq	r1, r0, sp, ror r4
     708:	00000000 	andeq	r0, r0, r0
     70c:	004c0000 	subeq	r0, ip, r0
     710:	00600000 	rsbeq	r0, r0, r0
     714:	00010000 	andeq	r0, r1, r0
     718:	00000050 	andeq	r0, r0, r0, asr r0
     71c:	00000000 	andeq	r0, r0, r0
     720:	0000e800 	andeq	lr, r0, r0, lsl #16
     724:	00011000 	andeq	r1, r1, r0
     728:	50000100 	andpl	r0, r0, r0, lsl #2
	...
     734:	00000118 	andeq	r0, r0, r8, lsl r1
     738:	0000011c 	andeq	r0, r0, ip, lsl r1
     73c:	1c5d0001 	mrrcne	0, 0, r0, sp, cr1
     740:	6c000001 	stcvs	0, cr0, [r0], {1}
     744:	02000001 	andeq	r0, r0, #1
     748:	00087d00 	andeq	r7, r8, r0, lsl #26
     74c:	00000000 	andeq	r0, r0, r0
     750:	18000000 	stmdane	r0, {}
     754:	2c000001 	stccs	0, cr0, [r0], {1}
     758:	01000001 	tsteq	r0, r1
     75c:	012c5000 	teqeq	ip, r0
     760:	013c0000 	teqeq	ip, r0
     764:	00010000 	andeq	r0, r1, r0
     768:	00000052 	andeq	r0, r0, r2, asr r0
     76c:	00000000 	andeq	r0, r0, r0
     770:	00016c00 	andeq	r6, r1, r0, lsl #24
     774:	00017800 	andeq	r7, r1, r0, lsl #16
     778:	5d000100 	stfpls	f0, [r0]
     77c:	00000178 	andeq	r0, r0, r8, ror r1
     780:	000001f4 	strdeq	r0, [r0], -r4
     784:	187d0002 	ldmdane	sp!, {r1}^
	...
     794:	00000010 	andeq	r0, r0, r0, lsl r0
     798:	00500001 	subseq	r0, r0, r1
     79c:	00000000 	andeq	r0, r0, r0
     7a0:	50000000 	andpl	r0, r0, r0
     7a4:	58000000 	stmdapl	r0, {}
     7a8:	01000000 	tsteq	r0, r0
     7ac:	00585d00 	subseq	r5, r8, r0, lsl #26
     7b0:	02ec0000 	rsceq	r0, ip, #0
     7b4:	00020000 	andeq	r0, r2, r0
     7b8:	00000c7d 	andeq	r0, r0, sp, ror ip
     7bc:	00000000 	andeq	r0, r0, r0
     7c0:	00500000 	subseq	r0, r0, r0
     7c4:	01940000 	orrseq	r0, r4, r0
     7c8:	00010000 	andeq	r0, r1, r0
     7cc:	00026050 	andeq	r6, r2, r0, asr r0
     7d0:	00026400 	andeq	r6, r2, r0, lsl #8
     7d4:	50000100 	andpl	r0, r0, r0, lsl #2
     7d8:	00000268 	andeq	r0, r0, r8, ror #4
     7dc:	0000026c 	andeq	r0, r0, ip, ror #4
     7e0:	00500001 	subseq	r0, r0, r1
     7e4:	00000000 	andeq	r0, r0, r0
     7e8:	50000000 	andpl	r0, r0, r0
     7ec:	b8000000 	stmdalt	r0, {}
     7f0:	01000000 	tsteq	r0, r0
     7f4:	02685100 	rsbeq	r5, r8, #0
     7f8:	02ec0000 	rsceq	r0, ip, #0
     7fc:	00010000 	andeq	r0, r1, r0
     800:	00000051 	andeq	r0, r0, r1, asr r0
     804:	00000000 	andeq	r0, r0, r0
     808:	00005000 	andeq	r5, r0, r0
     80c:	00010400 	andeq	r0, r1, r0, lsl #8
     810:	52000100 	andpl	r0, r0, #0
     814:	00000268 	andeq	r0, r0, r8, ror #4
     818:	00000270 	andeq	r0, r0, r0, ror r2
     81c:	00520001 	subseq	r0, r2, r1
     820:	00000000 	andeq	r0, r0, r0
     824:	50000000 	andpl	r0, r0, r0
     828:	50000000 	andpl	r0, r0, r0
     82c:	01000001 	tsteq	r0, r1
     830:	01905300 	orrseq	r5, r0, r0, lsl #6
     834:	02580000 	subseq	r0, r8, #0
     838:	00010000 	andeq	r0, r1, r0
     83c:	00026853 	andeq	r6, r2, r3, asr r8
     840:	00027400 	andeq	r7, r2, r0, lsl #8
     844:	53000100 	movwpl	r0, #256	; 0x100
	...
     850:	0000007c 	andeq	r0, r0, ip, ror r0
     854:	000000a8 	andeq	r0, r0, r8, lsr #1
     858:	bc540001 	mrrclt	0, 0, r0, r4, cr1
     85c:	f0000000 	undefined instruction 0xf0000000
     860:	01000000 	tsteq	r0, r0
     864:	01045400 	tsteq	r4, r0, lsl #8
     868:	01340000 	teqeq	r4, r0
     86c:	00010000 	andeq	r0, r1, r0
     870:	00015052 	andeq	r5, r1, r2, asr r0
     874:	00018400 	andeq	r8, r1, r0, lsl #8
     878:	53000100 	movwpl	r0, #256	; 0x100
     87c:	00000198 	muleq	r0, r8, r1
     880:	000001c8 	andeq	r0, r0, r8, asr #3
     884:	dc520001 	mrrcle	0, 0, r0, r2, cr1
     888:	10000001 	andne	r0, r0, r1
     88c:	01000002 	tsteq	r0, r2
     890:	02245200 	eoreq	r5, r4, #0
     894:	02500000 	subseq	r0, r0, #0
     898:	00010000 	andeq	r0, r1, r0
     89c:	00026852 	andeq	r6, r2, r2, asr r8
     8a0:	00027000 	andeq	r7, r2, r0
     8a4:	52000100 	andpl	r0, r0, #0
     8a8:	00000270 	andeq	r0, r0, r0, ror r2
     8ac:	000002ec 	andeq	r0, r0, ip, ror #5
     8b0:	00540001 	subseq	r0, r4, r1
     8b4:	00000000 	andeq	r0, r0, r0
     8b8:	64000000 	strvs	r0, [r0]
     8bc:	e4000002 	str	r0, [r0], #-2
     8c0:	01000002 	tsteq	r0, r2
     8c4:	00005000 	andeq	r5, r0, r0
     8c8:	00000000 	andeq	r0, r0, r0
     8cc:	02840000 	addeq	r0, r4, #0
     8d0:	02880000 	addeq	r0, r8, #0
     8d4:	00010000 	andeq	r0, r1, r0
     8d8:	00000052 	andeq	r0, r0, r2, asr r0
     8dc:	00000000 	andeq	r0, r0, r0
     8e0:	0002ec00 	andeq	lr, r2, r0, lsl #24
     8e4:	0002f000 	andeq	pc, r2, r0
     8e8:	5d000100 	stfpls	f0, [r0]
     8ec:	000002f0 	strdeq	r0, [r0], -r0
     8f0:	00000334 	andeq	r0, r0, r4, lsr r3
     8f4:	087d0002 	ldmdaeq	sp!, {r1}^
	...
     900:	00000010 	andeq	r0, r0, r0, lsl r0
     904:	00000014 	andeq	r0, r0, r4, lsl r0
     908:	00500001 	subseq	r0, r0, r1
	...
     914:	04000000 	streq	r0, [r0]
     918:	01000000 	tsteq	r0, r0
     91c:	00045d00 	andeq	r5, r4, r0, lsl #26
     920:	00200000 	eoreq	r0, r0, r0
     924:	00020000 	andeq	r0, r2, r0
     928:	0000087d 	andeq	r0, r0, sp, ror r8
     92c:	00000000 	andeq	r0, r0, r0
     930:	000c0000 	andeq	r0, ip, r0
     934:	00180000 	andseq	r0, r8, r0
     938:	00020000 	andeq	r0, r2, r0
     93c:	0018047d 	andseq	r0, r8, sp, ror r4
     940:	00200000 	eoreq	r0, r0, r0
     944:	00020000 	andeq	r0, r2, r0
     948:	00007491 	muleq	r0, r1, r4
     94c:	00000000 	andeq	r0, r0, r0
     950:	00200000 	eoreq	r0, r0, r0
     954:	00240000 	eoreq	r0, r4, r0
     958:	00010000 	andeq	r0, r1, r0
     95c:	0000245d 	andeq	r2, r0, sp, asr r4
     960:	00004000 	andeq	r4, r0, r0
     964:	7d000200 	sfmvc	f0, 4, [r0]	; (stcvc 2, cr0, [r0])
     968:	00000008 	andeq	r0, r0, r8
     96c:	00000000 	andeq	r0, r0, r0
     970:	00002c00 	andeq	r2, r0, r0, lsl #24
     974:	00003800 	andeq	r3, r0, r0, lsl #16
     978:	7d000200 	sfmvc	f0, 4, [r0]	; (stcvc 2, cr0, [r0])
     97c:	00003804 	andeq	r3, r0, r4, lsl #16
     980:	00004000 	andeq	r4, r0, r0
     984:	91000200 	tstls	r0, r0, lsl #4
     988:	00000074 	andeq	r0, r0, r4, ror r0
     98c:	00000000 	andeq	r0, r0, r0
     990:	00005800 	andeq	r5, r0, r0, lsl #16
     994:	00005c00 	andeq	r5, r0, r0, lsl #24
     998:	5d000100 	stfpls	f0, [r0]
     99c:	0000005c 	andeq	r0, r0, ip, asr r0
     9a0:	00000068 	andeq	r0, r0, r8, rrx
     9a4:	087d0002 	ldmdaeq	sp!, {r1}^
	...
     9b0:	00000078 	andeq	r0, r0, r8, ror r0
     9b4:	0000007c 	andeq	r0, r0, ip, ror r0
     9b8:	7c5d0001 	mrrcvc	0, 0, r0, sp, cr1
     9bc:	88000000 	stmdahi	r0, {}
     9c0:	02000000 	andeq	r0, r0, #0
     9c4:	00087d00 	andeq	r7, r8, r0, lsl #26
     9c8:	00000000 	andeq	r0, r0, r0
     9cc:	88000000 	stmdahi	r0, {}
     9d0:	8c000000 	stchi	0, cr0, [r0], {0}
     9d4:	01000000 	tsteq	r0, r0
     9d8:	008c5d00 	addeq	r5, ip, r0, lsl #26
     9dc:	00ac0000 	adceq	r0, ip, r0
     9e0:	00020000 	andeq	r0, r2, r0
     9e4:	0000087d 	andeq	r0, r0, sp, ror r8
     9e8:	00000000 	andeq	r0, r0, r0
     9ec:	00880000 	addeq	r0, r8, r0
     9f0:	00980000 	addseq	r0, r8, r0
     9f4:	00010000 	andeq	r0, r1, r0
     9f8:	00009850 	andeq	r9, r0, r0, asr r8
     9fc:	0000ac00 	andeq	sl, r0, r0, lsl #24
     a00:	7d000200 	sfmvc	f0, 4, [r0]	; (stcvc 2, cr0, [r0])
     a04:	00000004 	andeq	r0, r0, r4
     a08:	00000000 	andeq	r0, r0, r0
     a0c:	00009800 	andeq	r9, r0, r0, lsl #16
     a10:	0000a000 	andeq	sl, r0, r0
     a14:	50000100 	andpl	r0, r0, r0, lsl #2
	...
     a20:	000000ac 	andeq	r0, r0, ip, lsr #1
     a24:	000000b0 	strheq	r0, [r0], -r0
     a28:	b05d0001 	subslt	r0, sp, r1
     a2c:	d0000000 	andle	r0, r0, r0
     a30:	02000000 	andeq	r0, r0, #0
     a34:	00087d00 	andeq	r7, r8, r0, lsl #26
     a38:	00000000 	andeq	r0, r0, r0
     a3c:	ac000000 	stcge	0, cr0, [r0], {0}
     a40:	bc000000 	stclt	0, cr0, [r0], {0}
     a44:	01000000 	tsteq	r0, r0
     a48:	00bc5000 	adcseq	r5, ip, r0
     a4c:	00d00000 	sbcseq	r0, r0, r0
     a50:	00020000 	andeq	r0, r2, r0
     a54:	0000047d 	andeq	r0, r0, sp, ror r4
     a58:	00000000 	andeq	r0, r0, r0
     a5c:	00bc0000 	adcseq	r0, ip, r0
     a60:	00c40000 	sbceq	r0, r4, r0
     a64:	00010000 	andeq	r0, r1, r0
     a68:	00000050 	andeq	r0, r0, r0, asr r0
     a6c:	00000000 	andeq	r0, r0, r0
     a70:	0000d400 	andeq	sp, r0, r0, lsl #8
     a74:	0000d400 	andeq	sp, r0, r0, lsl #8
     a78:	50000100 	andpl	r0, r0, r0, lsl #2
	...
     a84:	000000f4 	strdeq	r0, [r0], -r4
     a88:	000000fc 	strdeq	r0, [r0], -ip
     a8c:	00500001 	subseq	r0, r0, r1
     a90:	00000000 	andeq	r0, r0, r0
     a94:	fc000000 	stc2	0, cr0, [r0], {0}
     a98:	0c000000 	stceq	0, cr0, [r0], {0}
     a9c:	01000001 	tsteq	r0, r1
     aa0:	00005000 	andeq	r5, r0, r0
     aa4:	00000000 	andeq	r0, r0, r0
     aa8:	01540000 	cmpeq	r4, r0
     aac:	01580000 	cmpeq	r8, r0
     ab0:	00010000 	andeq	r0, r1, r0
     ab4:	0001585d 	andeq	r5, r1, sp, asr r8
     ab8:	00027800 	andeq	r7, r2, r0, lsl #16
     abc:	7d000200 	sfmvc	f0, 4, [r0]	; (stcvc 2, cr0, [r0])
     ac0:	00000010 	andeq	r0, r0, r0, lsl r0
     ac4:	00000000 	andeq	r0, r0, r0
     ac8:	00015400 	andeq	r5, r1, r0, lsl #8
     acc:	00015800 	andeq	r5, r1, r0, lsl #16
     ad0:	50000100 	andpl	r0, r0, r0, lsl #2
     ad4:	00000164 	andeq	r0, r0, r4, ror #2
     ad8:	00000178 	andeq	r0, r0, r8, ror r1
     adc:	00500001 	subseq	r0, r0, r1
     ae0:	00000000 	andeq	r0, r0, r0
     ae4:	74000000 	strvc	r0, [r0]
     ae8:	80000001 	andhi	r0, r0, r1
     aec:	01000001 	tsteq	r0, r1
     af0:	00005100 	andeq	r5, r0, r0, lsl #2
     af4:	00000000 	andeq	r0, r0, r0
     af8:	01700000 	cmneq	r0, r0
     afc:	01dc0000 	bicseq	r0, ip, r0
     b00:	00010000 	andeq	r0, r1, r0
     b04:	00026852 	andeq	r6, r2, r2, asr r8
     b08:	00027800 	andeq	r7, r2, r0, lsl #16
     b0c:	52000100 	andpl	r0, r0, #0
	...
     b18:	00000168 	andeq	r0, r0, r8, ror #2
     b1c:	00000194 	muleq	r0, r4, r1
     b20:	047d0002 	ldrbteq	r0, [sp], #-2
     b24:	00000194 	muleq	r0, r4, r1
     b28:	0000019c 	muleq	r0, ip, r1
     b2c:	9c510001 	mrrcls	0, 0, r0, r1, cr1
     b30:	a0000001 	andge	r0, r0, r1
     b34:	02000001 	andeq	r0, r0, #1
     b38:	a06c9100 	rsbge	r9, ip, r0, lsl #2
     b3c:	a8000001 	stmdage	r0, {r0}
     b40:	01000001 	tsteq	r0, r1
     b44:	01a85100 	undefined instruction 0x01a85100
     b48:	01e40000 	mvneq	r0, r0
     b4c:	00020000 	andeq	r0, r2, r0
     b50:	01e46c91 	undefined instruction 0x01e46c91
     b54:	02100000 	andseq	r0, r0, #0
     b58:	00020000 	andeq	r0, r2, r0
     b5c:	0210047d 	andseq	r0, r0, #2097152000	; 0x7d000000
     b60:	02780000 	rsbseq	r0, r8, #0
     b64:	00020000 	andeq	r0, r2, r0
     b68:	00006c91 	muleq	r0, r1, ip
     b6c:	00000000 	andeq	r0, r0, r0
     b70:	01780000 	cmneq	r8, r0
     b74:	01f00000 	mvnseq	r0, r0
     b78:	00010000 	andeq	r0, r1, r0
     b7c:	00026850 	andeq	r6, r2, r0, asr r8
     b80:	00027800 	andeq	r7, r2, r0, lsl #16
     b84:	50000100 	andpl	r0, r0, r0, lsl #2
	...
     b90:	0000020c 	andeq	r0, r0, ip, lsl #4
     b94:	00000248 	andeq	r0, r0, r8, asr #4
     b98:	48510001 	ldmdami	r1, {r0}^
     b9c:	50000002 	andpl	r0, r0, r2
     ba0:	01000002 	tsteq	r0, r2
     ba4:	02505c00 	subseq	r5, r0, #0
     ba8:	02780000 	rsbseq	r0, r8, #0
     bac:	00010000 	andeq	r0, r1, r0
     bb0:	00000051 	andeq	r0, r0, r1, asr r0
     bb4:	00000000 	andeq	r0, r0, r0
     bb8:	00021400 	andeq	r1, r2, r0, lsl #8
     bbc:	00026400 	andeq	r6, r2, r0, lsl #8
     bc0:	53000100 	movwpl	r0, #256	; 0x100
	...
     bcc:	00000278 	andeq	r0, r0, r8, ror r2
     bd0:	00000280 	andeq	r0, r0, r0, lsl #5
     bd4:	805d0001 	subshi	r0, sp, r1
     bd8:	fc000002 	stc2	0, cr0, [r0], {2}
     bdc:	02000002 	andeq	r0, r0, #2
     be0:	00087d00 	andeq	r7, r8, r0, lsl #26
     be4:	00000000 	andeq	r0, r0, r0
     be8:	cc000000 	stcgt	0, cr0, [r0], {0}
     bec:	e4000002 	str	r0, [r0], #-2
     bf0:	01000002 	tsteq	r0, r2
     bf4:	02e85300 	rsceq	r5, r8, #0
     bf8:	02ec0000 	rsceq	r0, ip, #0
     bfc:	00010000 	andeq	r0, r1, r0
     c00:	00000053 	andeq	r0, r0, r3, asr r0
     c04:	00000000 	andeq	r0, r0, r0
     c08:	00029400 	andeq	r9, r2, r0, lsl #8
     c0c:	0002cc00 	andeq	ip, r2, r0, lsl #24
     c10:	53000100 	movwpl	r0, #256	; 0x100
	...
     c1c:	000002a8 	andeq	r0, r0, r8, lsr #5
     c20:	000002b0 	undefined instruction 0x000002b0
     c24:	b0510001 	subslt	r0, r1, r1
     c28:	b8000002 	stmdalt	r0, {r1}
     c2c:	01000002 	tsteq	r0, r2
     c30:	02b85400 	adcseq	r5, r8, #0
     c34:	02d40000 	sbcseq	r0, r4, #0
     c38:	00010000 	andeq	r0, r1, r0
     c3c:	0002d451 	andeq	sp, r2, r1, asr r4
     c40:	0002fc00 	andeq	pc, r2, r0, lsl #24
     c44:	54000100 	strpl	r0, [r0], #-256	; 0x100
	...
     c50:	00000290 	muleq	r0, r0, r2
     c54:	000002d0 	ldrdeq	r0, [r0], -r0
     c58:	00520001 	subseq	r0, r2, r1
     c5c:	00000000 	andeq	r0, r0, r0
     c60:	fc000000 	stc2	0, cr0, [r0], {0}
     c64:	04000002 	streq	r0, [r0], #-2
     c68:	01000003 	tsteq	r0, r3
     c6c:	00005000 	andeq	r5, r0, r0
     c70:	00000000 	andeq	r0, r0, r0
     c74:	03500000 	cmpeq	r0, #0
     c78:	03540000 	cmpeq	r4, #0
     c7c:	00010000 	andeq	r0, r1, r0
     c80:	0003545d 	andeq	r5, r3, sp, asr r4
     c84:	00038400 	andeq	r8, r3, r0, lsl #8
     c88:	7d000200 	sfmvc	f0, 4, [r0]	; (stcvc 2, cr0, [r0])
     c8c:	00000010 	andeq	r0, r0, r0, lsl r0
     c90:	00000000 	andeq	r0, r0, r0
     c94:	00035000 	andeq	r5, r3, r0
     c98:	00036800 	andeq	r6, r3, r0, lsl #16
     c9c:	50000100 	andpl	r0, r0, r0, lsl #2
	...
     ca8:	00000360 	andeq	r0, r0, r0, ror #6
     cac:	00000378 	andeq	r0, r0, r8, ror r3
     cb0:	78560001 	ldmdavc	r6, {r0}^
     cb4:	84000003 	strhi	r0, [r0], #-3
     cb8:	01000003 	tsteq	r0, r3
     cbc:	00005500 	andeq	r5, r0, r0, lsl #10
     cc0:	00000000 	andeq	r0, r0, r0
     cc4:	00280000 	eoreq	r0, r8, r0
     cc8:	00300000 	eorseq	r0, r0, r0
     ccc:	00010000 	andeq	r0, r1, r0
     cd0:	00003c50 	andeq	r3, r0, r0, asr ip
     cd4:	00004800 	andeq	r4, r0, r0, lsl #16
     cd8:	50000100 	andpl	r0, r0, r0, lsl #2
	...
     ce4:	00000048 	andeq	r0, r0, r8, asr #32
     ce8:	00000050 	andeq	r0, r0, r0, asr r0
     cec:	505d0001 	subspl	r0, sp, r1
     cf0:	90000000 	andls	r0, r0, r0
     cf4:	02000000 	andeq	r0, r0, #0
     cf8:	00087d00 	andeq	r7, r8, r0, lsl #26
     cfc:	00000000 	andeq	r0, r0, r0
     d00:	48000000 	stmdami	r0, {}
     d04:	64000000 	strvs	r0, [r0]
     d08:	01000000 	tsteq	r0, r0
     d0c:	00005100 	andeq	r5, r0, r0, lsl #2
     d10:	00000000 	andeq	r0, r0, r0
     d14:	00480000 	subeq	r0, r8, r0
     d18:	005c0000 	subseq	r0, ip, r0
     d1c:	00010000 	andeq	r0, r1, r0
     d20:	00000052 	andeq	r0, r0, r2, asr r0
     d24:	00000000 	andeq	r0, r0, r0
     d28:	00004800 	andeq	r4, r0, r0, lsl #16
     d2c:	00006800 	andeq	r6, r0, r0, lsl #16
     d30:	53000100 	movwpl	r0, #256	; 0x100
	...
     d3c:	0000006c 	andeq	r0, r0, ip, rrx
     d40:	00000084 	andeq	r0, r0, r4, lsl #1
     d44:	84520001 	ldrbhi	r0, [r2], #-1
     d48:	90000000 	andls	r0, r0, r0
     d4c:	01000000 	tsteq	r0, r0
     d50:	00005300 	andeq	r5, r0, r0, lsl #6
     d54:	00000000 	andeq	r0, r0, r0
     d58:	00b80000 	adcseq	r0, r8, r0
     d5c:	00c00000 	sbceq	r0, r0, r0
     d60:	00010000 	andeq	r0, r1, r0
     d64:	0000cc50 	andeq	ip, r0, r0, asr ip
     d68:	0000d800 	andeq	sp, r0, r0, lsl #16
     d6c:	50000100 	andpl	r0, r0, r0, lsl #2
	...
     d78:	000000d8 	ldrdeq	r0, [r0], -r8
     d7c:	000000dc 	ldrdeq	r0, [r0], -ip
     d80:	00500001 	subseq	r0, r0, r1
     d84:	00000000 	andeq	r0, r0, r0
     d88:	d8000000 	stmdale	r0, {}
     d8c:	dc000000 	stcle	0, cr0, [r0], {0}
     d90:	01000000 	tsteq	r0, r0
     d94:	00005100 	andeq	r5, r0, r0, lsl #2
     d98:	00000000 	andeq	r0, r0, r0
     d9c:	00d80000 	sbcseq	r0, r8, r0
     da0:	00dc0000 	sbcseq	r0, ip, r0
     da4:	00010000 	andeq	r0, r1, r0
     da8:	00000052 	andeq	r0, r0, r2, asr r0
     dac:	00000000 	andeq	r0, r0, r0
     db0:	0000d800 	andeq	sp, r0, r0, lsl #16
     db4:	0000dc00 	andeq	sp, r0, r0, lsl #24
     db8:	53000100 	movwpl	r0, #256	; 0x100
	...
     dc4:	000000dc 	ldrdeq	r0, [r0], -ip
     dc8:	000000e0 	andeq	r0, r0, r0, ror #1
     dcc:	e05d0001 	subs	r0, sp, r1
     dd0:	0c000000 	stceq	0, cr0, [r0], {0}
     dd4:	02000001 	andeq	r0, r0, #1
     dd8:	00087d00 	andeq	r7, r8, r0, lsl #26
     ddc:	00000000 	andeq	r0, r0, r0
     de0:	ec000000 	stc	0, cr0, [r0], {0}
     de4:	f8000000 	undefined instruction 0xf8000000
     de8:	01000000 	tsteq	r0, r0
     dec:	00fc5300 	rscseq	r5, ip, r0, lsl #6
     df0:	010c0000 	tsteq	ip, r0
     df4:	00010000 	andeq	r0, r1, r0
     df8:	00000053 	andeq	r0, r0, r3, asr r0
     dfc:	00000000 	andeq	r0, r0, r0
     e00:	00011800 	andeq	r1, r1, r0, lsl #16
     e04:	00013800 	andeq	r3, r1, r0, lsl #16
     e08:	52000100 	andpl	r0, r0, #0
	...
     e14:	0000014c 	andeq	r0, r0, ip, asr #2
     e18:	0000016c 	andeq	r0, r0, ip, ror #2
     e1c:	00520001 	subseq	r0, r2, r1
     e20:	00000000 	andeq	r0, r0, r0
     e24:	78000000 	stmdavc	r0, {}
     e28:	7c000001 	stcvc	0, cr0, [r0], {1}
     e2c:	01000001 	tsteq	r0, r1
     e30:	017c5d00 	cmneq	ip, r0, lsl #26
     e34:	01f00000 	mvnseq	r0, r0
     e38:	00020000 	andeq	r0, r2, r0
     e3c:	0000087d 	andeq	r0, r0, sp, ror r8
     e40:	00000000 	andeq	r0, r0, r0
     e44:	018c0000 	orreq	r0, ip, r0
     e48:	01b00000 	movseq	r0, r0
     e4c:	00010000 	andeq	r0, r1, r0
     e50:	0001b452 	andeq	fp, r1, r2, asr r4
     e54:	0001c400 	andeq	ip, r1, r0, lsl #8
     e58:	52000100 	andpl	r0, r0, #0
	...
     e64:	00000200 	andeq	r0, r0, r0, lsl #4
     e68:	00000220 	andeq	r0, r0, r0, lsr #4
     e6c:	00520001 	subseq	r0, r2, r1
     e70:	00000000 	andeq	r0, r0, r0
     e74:	24000000 	strcs	r0, [r0]
     e78:	2c000002 	stccs	0, cr0, [r0], {2}
     e7c:	01000002 	tsteq	r0, r2
     e80:	022c5d00 	eoreq	r5, ip, #0
     e84:	02980000 	addseq	r0, r8, #0
     e88:	00020000 	andeq	r0, r2, r0
     e8c:	0000087d 	andeq	r0, r0, sp, ror r8
     e90:	00000000 	andeq	r0, r0, r0
     e94:	02280000 	eoreq	r0, r8, #0
     e98:	02540000 	subseq	r0, r4, #0
     e9c:	00010000 	andeq	r0, r1, r0
     ea0:	00000053 	andeq	r0, r0, r3, asr r0
     ea4:	00000000 	andeq	r0, r0, r0
     ea8:	00026000 	andeq	r6, r2, r0
     eac:	00028000 	andeq	r8, r2, r0
     eb0:	52000100 	andpl	r0, r0, #0
	...
     ebc:	00000244 	andeq	r0, r0, r4, asr #4
     ec0:	00000254 	andeq	r0, r0, r4, asr r2
     ec4:	00510001 	subseq	r0, r1, r1
     ec8:	00000000 	andeq	r0, r0, r0
     ecc:	9c000000 	stcls	0, cr0, [r0], {0}
     ed0:	a0000002 	andge	r0, r0, r2
     ed4:	01000002 	tsteq	r0, r2
     ed8:	02a05d00 	adceq	r5, r0, #0
     edc:	02b40000 	adcseq	r0, r4, #0
     ee0:	00020000 	andeq	r0, r2, r0
     ee4:	0000087d 	andeq	r0, r0, sp, ror r8
     ee8:	00000000 	andeq	r0, r0, r0
     eec:	02b40000 	adcseq	r0, r4, #0
     ef0:	02bc0000 	adcseq	r0, ip, #0
     ef4:	00010000 	andeq	r0, r1, r0
     ef8:	0002bc5d 	andeq	fp, r2, sp, asr ip
     efc:	0002c000 	andeq	ip, r2, r0
     f00:	7d000200 	sfmvc	f0, 4, [r0]	; (stcvc 2, cr0, [r0])
     f04:	0002c024 	andeq	ip, r2, r4, lsr #32
     f08:	00045400 	andeq	r5, r4, r0, lsl #8
     f0c:	7d000300 	stcvc	3, cr0, [r0]
     f10:	000000c8 	andeq	r0, r0, r8, asr #1
     f14:	00000000 	andeq	r0, r0, r0
     f18:	03540000 	cmpeq	r4, #0
     f1c:	03980000 	orrseq	r0, r8, #0
     f20:	00010000 	andeq	r0, r1, r0
     f24:	00039857 	andeq	r9, r3, r7, asr r8
     f28:	0003a800 	andeq	sl, r3, r0, lsl #16
     f2c:	53000100 	movwpl	r0, #256	; 0x100
     f30:	00000408 	andeq	r0, r0, r8, lsl #8
     f34:	00000414 	andeq	r0, r0, r4, lsl r4
     f38:	00530001 	subseq	r0, r3, r1
     f3c:	00000000 	andeq	r0, r0, r0
     f40:	1c000000 	stcne	0, cr0, [r0], {0}
     f44:	48000003 	stmdami	r0, {r0, r1}
     f48:	01000003 	tsteq	r0, r3
     f4c:	03485000 	movteq	r5, #32768	; 0x8000
     f50:	03600000 	cmneq	r0, #0
     f54:	00010000 	andeq	r0, r1, r0
     f58:	00036056 	andeq	r6, r3, r6, asr r0
     f5c:	00045400 	andeq	r5, r4, r0, lsl #8
     f60:	58000100 	stmdapl	r0, {r8}
	...
     f6c:	00000308 	andeq	r0, r0, r8, lsl #6
     f70:	0000034c 	andeq	r0, r0, ip, asr #6
     f74:	00520001 	subseq	r0, r2, r1
     f78:	00000000 	andeq	r0, r0, r0
     f7c:	44000000 	strmi	r0, [r0]
     f80:	54000003 	strpl	r0, [r0], #-3
     f84:	01000003 	tsteq	r0, r3
     f88:	00005700 	andeq	r5, r0, r0, lsl #14
     f8c:	00000000 	andeq	r0, r0, r0
     f90:	00f80000 	rscseq	r0, r8, r0
     f94:	01140000 	tsteq	r4, r0
     f98:	00010000 	andeq	r0, r1, r0
     f9c:	00011452 	andeq	r1, r1, r2, asr r4
     fa0:	00011800 	andeq	r1, r1, r0, lsl #16
     fa4:	50000100 	andpl	r0, r0, r0, lsl #2
	...
     fb0:	00000184 	andeq	r0, r0, r4, lsl #3
     fb4:	000001dc 	ldrdeq	r0, [r0], -ip
     fb8:	00530001 	subseq	r0, r3, r1
     fbc:	00000000 	andeq	r0, r0, r0
     fc0:	90000000 	andls	r0, r0, r0
     fc4:	e8000001 	stmda	r0, {r0}
     fc8:	01000001 	tsteq	r0, r1
     fcc:	00005000 	andeq	r5, r0, r0
     fd0:	00000000 	andeq	r0, r0, r0
     fd4:	01880000 	orreq	r0, r8, r0
     fd8:	01900000 	orrseq	r0, r0, r0
     fdc:	00010000 	andeq	r0, r1, r0
     fe0:	00019850 	andeq	r9, r1, r0, asr r8
     fe4:	00019c00 	andeq	r9, r1, r0, lsl #24
     fe8:	50000100 	andpl	r0, r0, r0, lsl #2
     fec:	000001a4 	andeq	r0, r0, r4, lsr #3
     ff0:	000001a8 	andeq	r0, r0, r8, lsr #3
     ff4:	b0500001 	subslt	r0, r0, r1
     ff8:	b4000001 	strlt	r0, [r0], #-1
     ffc:	01000001 	tsteq	r0, r1
    1000:	01bc5000 	undefined instruction 0x01bc5000
    1004:	01c00000 	biceq	r0, r0, r0
    1008:	00010000 	andeq	r0, r1, r0
    100c:	00000050 	andeq	r0, r0, r0, asr r0
    1010:	00000000 	andeq	r0, r0, r0
    1014:	00026400 	andeq	r6, r2, r0, lsl #8
    1018:	00028000 	andeq	r8, r2, r0
    101c:	52000100 	andpl	r0, r0, #0
    1020:	00000280 	andeq	r0, r0, r0, lsl #5
    1024:	00000284 	andeq	r0, r0, r4, lsl #5
    1028:	00500001 	subseq	r0, r0, r1
    102c:	00000000 	andeq	r0, r0, r0
    1030:	90000000 	andls	r0, r0, r0
    1034:	9c000002 	stcls	0, cr0, [r0], {2}
    1038:	01000002 	tsteq	r0, r2
    103c:	029c5d00 	addseq	r5, ip, #0
    1040:	039c0000 	orrseq	r0, ip, #0
    1044:	00020000 	andeq	r0, r2, r0
    1048:	0000287d 	andeq	r2, r0, sp, ror r8
    104c:	00000000 	andeq	r0, r0, r0
    1050:	02900000 	addseq	r0, r0, #0
    1054:	029c0000 	addseq	r0, ip, #0
    1058:	00010000 	andeq	r0, r1, r0
    105c:	0002c450 	andeq	ip, r2, r0, asr r4
    1060:	00033800 	andeq	r3, r3, r0, lsl #16
    1064:	50000100 	andpl	r0, r0, r0, lsl #2
	...
    1070:	000002a4 	andeq	r0, r0, r4, lsr #5
    1074:	00000324 	andeq	r0, r0, r4, lsr #6
    1078:	245c0001 	ldrbcs	r0, [ip], #-1
    107c:	2c000003 	stccs	0, cr0, [r0], {3}
    1080:	01000003 	tsteq	r0, r3
    1084:	032c5100 	teqeq	ip, #0
    1088:	03540000 	cmpeq	r4, #0
    108c:	00010000 	andeq	r0, r1, r0
    1090:	00035853 	andeq	r5, r3, r3, asr r8
    1094:	00036800 	andeq	r6, r3, r0, lsl #16
    1098:	53000100 	movwpl	r0, #256	; 0x100
    109c:	00000370 	andeq	r0, r0, r0, ror r3
    10a0:	0000039c 	muleq	r0, ip, r3
    10a4:	00550001 	subseq	r0, r5, r1
    10a8:	00000000 	andeq	r0, r0, r0
    10ac:	a8000000 	stmdage	r0, {}
    10b0:	30000002 	andcc	r0, r0, r2
    10b4:	06000003 	streq	r0, [r0], -r3
    10b8:	04935400 	ldreq	r5, [r3], #1024	; 0x400
    10bc:	00049355 	andeq	r9, r4, r5, asr r3
    10c0:	00000000 	andeq	r0, r0, r0
    10c4:	cc000000 	stcgt	0, cr0, [r0], {0}
    10c8:	ec000002 	stc	0, cr0, [r0], {2}
    10cc:	06000002 	streq	r0, [r0], -r2
    10d0:	04935200 	ldreq	r5, [r3], #512	; 0x200
    10d4:	00049353 	andeq	r9, r4, r3, asr r3
    10d8:	28000003 	stmdacs	r0, {r0, r1}
    10dc:	06000003 	streq	r0, [r0], -r3
    10e0:	04935200 	ldreq	r5, [r3], #512	; 0x200
    10e4:	00049353 	andeq	r9, r4, r3, asr r3
    10e8:	00000000 	andeq	r0, r0, r0
    10ec:	98000000 	stmdals	r0, {}
    10f0:	24000002 	strcs	r0, [r0], #-2
    10f4:	01000003 	tsteq	r0, r3
    10f8:	00005100 	andeq	r5, r0, r0, lsl #2
    10fc:	00000000 	andeq	r0, r0, r0
    1100:	039c0000 	orrseq	r0, ip, #0
    1104:	03a00000 	moveq	r0, #0
    1108:	00010000 	andeq	r0, r1, r0
    110c:	00000050 	andeq	r0, r0, r0, asr r0
    1110:	00000000 	andeq	r0, r0, r0
    1114:	0003a000 	andeq	sl, r3, r0
    1118:	0003ac00 	andeq	sl, r3, r0, lsl #24
    111c:	5d000100 	stfpls	f0, [r0]
    1120:	000003ac 	andeq	r0, r0, ip, lsr #7
    1124:	00000478 	andeq	r0, r0, r8, ror r4
    1128:	087d0002 	ldmdaeq	sp!, {r1}^
	...
    1134:	000003a0 	andeq	r0, r0, r0, lsr #7
    1138:	000003dc 	ldrdeq	r0, [r0], -ip
    113c:	00500001 	subseq	r0, r0, r1
    1140:	00000000 	andeq	r0, r0, r0
    1144:	a8000000 	stmdage	r0, {}
    1148:	08000003 	stmdaeq	r0, {r0, r1}
    114c:	01000004 	tsteq	r0, r4
    1150:	040c5200 	streq	r5, [ip], #-512	; 0x200
    1154:	04380000 	ldrteq	r0, [r8]
    1158:	00010000 	andeq	r0, r1, r0
    115c:	00043c53 	andeq	r3, r4, r3, asr ip
    1160:	00047000 	andeq	r7, r4, r0
    1164:	53000100 	movwpl	r0, #256	; 0x100
	...
    1170:	000003b0 	undefined instruction 0x000003b0
    1174:	000003b4 	undefined instruction 0x000003b4
    1178:	00540001 	subseq	r0, r4, r1
    117c:	00000000 	andeq	r0, r0, r0
    1180:	cc000000 	stcgt	0, cr0, [r0], {0}
    1184:	04000003 	streq	r0, [r0], #-3
    1188:	01000004 	tsteq	r0, r4
    118c:	00005000 	andeq	r5, r0, r0
    1190:	00000000 	andeq	r0, r0, r0
    1194:	04780000 	ldrbteq	r0, [r8]
    1198:	047c0000 	ldrbteq	r0, [ip]
    119c:	00010000 	andeq	r0, r1, r0
    11a0:	00047c5d 	andeq	r7, r4, sp, asr ip
    11a4:	0004cc00 	andeq	ip, r4, r0, lsl #24
    11a8:	7d000200 	sfmvc	f0, 4, [r0]	; (stcvc 2, cr0, [r0])
    11ac:	00000008 	andeq	r0, r0, r8
    11b0:	00000000 	andeq	r0, r0, r0
    11b4:	0004cc00 	andeq	ip, r4, r0, lsl #24
    11b8:	0004d000 	andeq	sp, r4, r0
    11bc:	5d000100 	stfpls	f0, [r0]
    11c0:	000004d0 	ldrdeq	r0, [r0], -r0
    11c4:	000004fc 	strdeq	r0, [r0], -ip
    11c8:	087d0002 	ldmdaeq	sp!, {r1}^
	...
    11d4:	000004dc 	ldrdeq	r0, [r0], -ip
    11d8:	000004e8 	andeq	r0, r0, r8, ror #9
    11dc:	ec530001 	mrrc	0, 0, r0, r3, cr1
    11e0:	fc000004 	stc2	0, cr0, [r0], {4}
    11e4:	01000004 	tsteq	r0, r4
    11e8:	00005300 	andeq	r5, r0, r0, lsl #6
    11ec:	00000000 	andeq	r0, r0, r0
    11f0:	04fc0000 	ldrbteq	r0, [ip]
    11f4:	05000000 	streq	r0, [r0]
    11f8:	00010000 	andeq	r0, r1, r0
    11fc:	0005005d 	andeq	r0, r5, sp, asr r0
    1200:	00077000 	andeq	r7, r7, r0
    1204:	7d000200 	sfmvc	f0, 4, [r0]	; (stcvc 2, cr0, [r0])
    1208:	00000018 	andeq	r0, r0, r8, lsl r0
    120c:	00000000 	andeq	r0, r0, r0
    1210:	0004fc00 	andeq	pc, r4, r0, lsl #24
    1214:	00050800 	andeq	r0, r5, r0, lsl #16
    1218:	50000100 	andpl	r0, r0, r0, lsl #2
    121c:	00000508 	andeq	r0, r0, r8, lsl #10
    1220:	00000770 	andeq	r0, r0, r0, ror r7
    1224:	00540001 	subseq	r0, r4, r1
    1228:	00000000 	andeq	r0, r0, r0
    122c:	78000000 	stmdavc	r0, {}
    1230:	d4000005 	strle	r0, [r0], #-5
    1234:	01000005 	tsteq	r0, r5
    1238:	05d45300 	ldrbeq	r5, [r4, #768]	; 0x300
    123c:	05dc0000 	ldrbeq	r0, [ip]
    1240:	00010000 	andeq	r0, r1, r0
    1244:	0005dc52 	andeq	sp, r5, r2, asr ip
    1248:	0005e400 	andeq	lr, r5, r0, lsl #8
    124c:	53000100 	movwpl	r0, #256	; 0x100
    1250:	000005ec 	andeq	r0, r0, ip, ror #11
    1254:	000005f8 	strdeq	r0, [r0], -r8
    1258:	f8520001 	undefined instruction 0xf8520001
    125c:	00000005 	andeq	r0, r0, r5
    1260:	01000006 	tsteq	r0, r6
    1264:	06005300 	streq	r5, [r0], -r0, lsl #6
    1268:	068c0000 	streq	r0, [ip], r0
    126c:	00010000 	andeq	r0, r1, r0
    1270:	00069855 	andeq	r9, r6, r5, asr r8
    1274:	0006a400 	andeq	sl, r6, r0, lsl #8
    1278:	55000100 	strpl	r0, [r0, #-256]	; 0x100
    127c:	000006ac 	andeq	r0, r0, ip, lsr #13
    1280:	000006d8 	ldrdeq	r0, [r0], -r8
    1284:	d8550001 	ldmdale	r5, {r0}^
    1288:	f4000006 	vst4.8	{d0-d3}, [r0], r6
    128c:	01000006 	tsteq	r0, r6
    1290:	00005200 	andeq	r5, r0, r0, lsl #4
    1294:	00000000 	andeq	r0, r0, r0
    1298:	05240000 	streq	r0, [r4]!
    129c:	05380000 	ldreq	r0, [r8]!
    12a0:	00010000 	andeq	r0, r1, r0
    12a4:	00000052 	andeq	r0, r0, r2, asr r0
    12a8:	00000000 	andeq	r0, r0, r0
    12ac:	00053800 	andeq	r3, r5, r0, lsl #16
    12b0:	00054400 	andeq	r4, r5, r0, lsl #8
    12b4:	52000100 	andpl	r0, r0, #0
	...
    12c0:	00000544 	andeq	r0, r0, r4, asr #10
    12c4:	00000554 	andeq	r0, r0, r4, asr r5
    12c8:	00520001 	subseq	r0, r2, r1
    12cc:	00000000 	andeq	r0, r0, r0
    12d0:	10000000 	andne	r0, r0, r0
    12d4:	1c000006 	stcne	0, cr0, [r0], {6}
    12d8:	01000006 	tsteq	r0, r6
    12dc:	00005300 	andeq	r5, r0, r0, lsl #6
    12e0:	00000000 	andeq	r0, r0, r0
    12e4:	06600000 	strbteq	r0, [r0], -r0
    12e8:	066c0000 	strbteq	r0, [ip], -r0
    12ec:	00010000 	andeq	r0, r1, r0
    12f0:	00000053 	andeq	r0, r0, r3, asr r0
    12f4:	00000000 	andeq	r0, r0, r0
    12f8:	00070400 	andeq	r0, r7, r0, lsl #8
    12fc:	00071400 	andeq	r1, r7, r0, lsl #8
    1300:	52000100 	andpl	r0, r0, #0
	...
    130c:	00000714 	andeq	r0, r0, r4, lsl r7
    1310:	00000730 	andeq	r0, r0, r0, lsr r7
    1314:	30520001 	subscc	r0, r2, r1
    1318:	34000007 	strcc	r0, [r0], #-7
    131c:	01000007 	tsteq	r0, r7
    1320:	00005300 	andeq	r5, r0, r0, lsl #6
    1324:	00000000 	andeq	r0, r0, r0
    1328:	07440000 	strbeq	r0, [r4, -r0]
    132c:	07640000 	strbeq	r0, [r4, -r0]!
    1330:	00010000 	andeq	r0, r1, r0
    1334:	00000053 	andeq	r0, r0, r3, asr r0
    1338:	00000000 	andeq	r0, r0, r0
	...

Disassembly of section .debug_pubnames:

00000000 <.debug_pubnames>:
   0:	00000023 	andeq	r0, r0, r3, lsr #32
   4:	00000002 	andeq	r0, r0, r2
   8:	03dc0000 	bicseq	r0, ip, #0
   c:	02c90000 	sbceq	r0, r9, #0
  10:	616d0000 	cmnvs	sp, r0
  14:	af006e69 	svcge	0x00006e69
  18:	70000003 	andvc	r0, r0, r3
  1c:	6e695f6d 	cdpvs	15, 6, cr5, cr9, cr13, {3}
  20:	00006f66 	andeq	r6, r0, r6, ror #30
  24:	34000000 	strcc	r0, [r0]
  28:	02000000 	andeq	r0, r0, #0
  2c:	0003dc00 	andeq	sp, r3, r0, lsl #24
  30:	00010100 	andeq	r0, r1, r0, lsl #2
  34:	00006d00 	andeq	r6, r0, r0, lsl #26
  38:	61747300 	cmnvs	r4, r0, lsl #6
  3c:	7962646e 	stmdbvc	r2!, {r1, r2, r3, r5, r6, sl, sp, lr}^
  40:	6d656d5f 	stclvs	13, cr6, [r5, #-380]!	; 0xfffffe84
  44:	00797063 	rsbseq	r7, r9, r3, rrx
  48:	000000cd 	andeq	r0, r0, sp, asr #1
  4c:	6e617473 	mcrvs	4, 3, r7, cr1, cr3, {3}
  50:	5f796264 	svcpl	0x00796264
  54:	6c65646d 	cfstrdvs	mvd6, [r5], #-436	; 0xfffffe4c
  58:	00007961 	andeq	r7, r0, r1, ror #18
  5c:	22000000 	andcs	r0, r0, #0
  60:	02000002 	andeq	r0, r0, #2
  64:	00054600 	andeq	r4, r5, r0, lsl #12
  68:	0021d900 	eoreq	sp, r1, r0, lsl #18
  6c:	001f3400 	andseq	r3, pc, r0, lsl #8
  70:	61747300 	cmnvs	r4, r0, lsl #6
  74:	7962646e 	stmdbvc	r2!, {r1, r2, r3, r5, r6, sl, sp, lr}^
  78:	6b6c635f 	blvs	1b18dfc <__standby_start+0x1b18dfc>
  7c:	696e695f 	stmdbvs	lr!, {r0, r1, r2, r3, r4, r6, r8, fp, sp, lr}^
  80:	1f4d0074 	svcne	0x004d0074
  84:	74730000 	ldrbtvc	r0, [r3]
  88:	62646e61 	rsbvs	r6, r4, #1552	; 0x610
  8c:	6c635f79 	stclvs	15, cr5, [r3], #-484	; 0xfffffe1c
  90:	78655f6b 	stmdavc	r5!, {r0, r1, r3, r5, r6, r8, r9, sl, fp, ip, lr}^
  94:	64007469 	strvs	r7, [r0], #-1129	; 0x469
  98:	7300001f 	movwvc	r0, #31
  9c:	646e6174 	strbtvs	r6, [lr], #-372	; 0x174
  a0:	635f7962 	cmpvs	pc, #1605632	; 0x188000
  a4:	635f6b6c 	cmpvs	pc, #110592	; 0x1b000
  a8:	3265726f 	rsbcc	r7, r5, #-268435450	; 0xf0000006
  ac:	63736f6c 	cmnvs	r3, #432	; 0x1b0
  b0:	001f7b00 	andseq	r7, pc, r0, lsl #22
  b4:	61747300 	cmnvs	r4, r0, lsl #6
  b8:	7962646e 	stmdbvc	r2!, {r1, r2, r3, r5, r6, sl, sp, lr}^
  bc:	6b6c635f 	blvs	1b18e40 <__standby_start+0x1b18e40>
  c0:	726f635f 	rsbvc	r6, pc, #2080374785	; 0x7c000001
  c4:	6f683265 	svcvs	0x00683265
  c8:	92006373 	andls	r6, r0, #-872415231	; 0xcc000001
  cc:	7300001f 	movwvc	r0, #31
  d0:	646e6174 	strbtvs	r6, [lr], #-372	; 0x174
  d4:	635f7962 	cmpvs	pc, #1605632	; 0x188000
  d8:	635f6b6c 	cmpvs	pc, #110592	; 0x1b000
  dc:	3265726f 	rsbcc	r7, r5, #-268435450	; 0xf0000006
  e0:	006c6c70 	rsbeq	r6, ip, r0, ror ip
  e4:	00001fa9 	andeq	r1, r0, r9, lsr #31
  e8:	6e617473 	mcrvs	4, 3, r7, cr1, cr3, {3}
  ec:	5f796264 	svcpl	0x00796264
  f0:	5f6b6c63 	svcpl	0x006b6c63
  f4:	646c6c70 	strbtvs	r6, [ip], #-3184	; 0xc70
  f8:	62617369 	rsbvs	r7, r1, #-1543503871	; 0xa4000001
  fc:	c000656c 	andgt	r6, r0, ip, ror #10
 100:	7300001f 	movwvc	r0, #31
 104:	646e6174 	strbtvs	r6, [lr], #-372	; 0x174
 108:	635f7962 	cmpvs	pc, #1605632	; 0x188000
 10c:	705f6b6c 	subsvc	r6, pc, ip, ror #22
 110:	6e656c6c 	cdpvs	12, 6, cr6, cr5, cr12, {3}
 114:	656c6261 	strbvs	r6, [ip, #-609]!	; 0x261
 118:	001fd700 	andseq	sp, pc, r0, lsl #14
 11c:	61747300 	cmnvs	r4, r0, lsl #6
 120:	7962646e 	stmdbvc	r2!, {r1, r2, r3, r5, r6, sl, sp, lr}^
 124:	6b6c635f 	blvs	1b18ea8 <__standby_start+0x1b18ea8>
 128:	736f685f 	cmnvc	pc, #6225920	; 0x5f0000
 12c:	73696463 	cmnvc	r9, #1660944384	; 0x63000000
 130:	656c6261 	strbvs	r6, [ip, #-609]!	; 0x261
 134:	001fee00 	andseq	lr, pc, r0, lsl #28
 138:	61747300 	cmnvs	r4, r0, lsl #6
 13c:	7962646e 	stmdbvc	r2!, {r1, r2, r3, r5, r6, sl, sp, lr}^
 140:	6b6c635f 	blvs	1b18ec4 <__standby_start+0x1b18ec4>
 144:	736f685f 	cmnvc	pc, #6225920	; 0x5f0000
 148:	616e6563 	cmnvs	lr, r3, ror #10
 14c:	00656c62 	rsbeq	r6, r5, r2, ror #24
 150:	00002005 	andeq	r2, r0, r5
 154:	6e617473 	mcrvs	4, 3, r7, cr1, cr3, {3}
 158:	5f796264 	svcpl	0x00796264
 15c:	5f6b6c63 	svcpl	0x006b6c63
 160:	646f646c 	strbtvs	r6, [pc], #1132	; 168 <__standby_start+0x168>
 164:	62617369 	rsbvs	r7, r1, #-1543503871	; 0xa4000001
 168:	1d00656c 	cfstr32ne	mvfx6, [r0, #-432]	; 0xfffffe50
 16c:	73000020 	movwvc	r0, #32
 170:	646e6174 	strbtvs	r6, [lr], #-372	; 0x174
 174:	635f7962 	cmpvs	pc, #1605632	; 0x188000
 178:	6c5f6b6c 	mrrcvs	11, 6, r6, pc, cr12
 17c:	6e656f64 	cdpvs	15, 6, cr6, cr5, cr4, {3}
 180:	656c6261 	strbvs	r6, [ip, #-609]!	; 0x261
 184:	00203500 	eoreq	r3, r0, r0, lsl #10
 188:	61747300 	cmnvs	r4, r0, lsl #6
 18c:	7962646e 	stmdbvc	r2!, {r1, r2, r3, r5, r6, sl, sp, lr}^
 190:	6b6c635f 	blvs	1b18f14 <__standby_start+0x1b18f14>
 194:	7465735f 	strbtvc	r7, [r5], #-863	; 0x35f
 198:	00766964 	rsbseq	r6, r6, r4, ror #18
 19c:	00002068 	andeq	r2, r0, r8, rrx
 1a0:	6e617473 	mcrvs	4, 3, r7, cr1, cr3, {3}
 1a4:	5f796264 	svcpl	0x00796264
 1a8:	5f6b6c63 	svcpl	0x006b6c63
 1ac:	64746567 	ldrbtvs	r6, [r4], #-1383	; 0x567
 1b0:	95007669 	strls	r7, [r0, #-1641]	; 0x669
 1b4:	73000020 	movwvc	r0, #32
 1b8:	646e6174 	strbtvs	r6, [lr], #-372	; 0x174
 1bc:	635f7962 	cmpvs	pc, #1605632	; 0x188000
 1c0:	735f6b6c 	cmpvc	pc, #110592	; 0x1b000
 1c4:	705f7465 	subsvc	r7, pc, r5, ror #8
 1c8:	665f6c6c 	ldrbvs	r6, [pc], -ip, ror #24
 1cc:	6f746361 	svcvs	0x00746361
 1d0:	20c80072 	sbccs	r0, r8, r2, ror r0
 1d4:	74730000 	ldrbtvc	r0, [r3]
 1d8:	62646e61 	rsbvs	r6, r4, #1552	; 0x610
 1dc:	6c635f79 	stclvs	15, cr5, [r3], #-484	; 0xfffffe1c
 1e0:	65675f6b 	strbvs	r5, [r7, #-3947]!	; 0xf6b
 1e4:	6c705f74 	ldclvs	15, cr5, [r0], #-464	; 0xfffffe30
 1e8:	61665f6c 	cmnvs	r6, ip, ror #30
 1ec:	726f7463 	rsbvc	r7, pc, #1660944384	; 0x63000000
 1f0:	0020f500 	eoreq	pc, r0, r0, lsl #10
 1f4:	61747300 	cmnvs	r4, r0, lsl #6
 1f8:	7962646e 	stmdbvc	r2!, {r1, r2, r3, r5, r6, sl, sp, lr}^
 1fc:	6b6c635f 	blvs	1b18f80 <__standby_start+0x1b18f80>
 200:	6172645f 	cmnvs	r2, pc, asr r4
 204:	7461676d 	strbtvc	r6, [r1], #-1901	; 0x76d
 208:	00676e69 	rsbeq	r6, r7, r9, ror #28
 20c:	0000211c 	andeq	r2, r0, ip, lsl r1
 210:	6e617473 	mcrvs	4, 3, r7, cr1, cr3, {3}
 214:	5f796264 	svcpl	0x00796264
 218:	5f6b6c63 	svcpl	0x006b6c63
 21c:	32627061 	rsbcc	r7, r2, #97	; 0x61
 220:	63736f6c 	cmnvs	r3, #432	; 0x1b0
 224:	00213400 	eoreq	r3, r1, r0, lsl #8
 228:	61747300 	cmnvs	r4, r0, lsl #6
 22c:	7962646e 	stmdbvc	r2!, {r1, r2, r3, r5, r6, sl, sp, lr}^
 230:	6b6c635f 	blvs	1b18fb4 <__standby_start+0x1b18fb4>
 234:	6270615f 	rsbsvs	r6, r0, #-1073741801	; 0xc0000017
 238:	736f6832 	cmnvc	pc, #3276800	; 0x320000
 23c:	214c0063 	cmpcs	ip, r3, rrx
 240:	74730000 	ldrbtvc	r0, [r3]
 244:	62646e61 	rsbvs	r6, r4, #1552	; 0x610
 248:	6c635f79 	stclvs	15, cr5, [r3], #-484	; 0xfffffe1c
 24c:	70615f6b 	rsbvc	r5, r1, fp, ror #30
 250:	696e6962 	stmdbvs	lr!, {r1, r5, r6, r8, fp, sp, lr}^
 254:	21640074 	smccs	16388	; 0x4004
 258:	74730000 	ldrbtvc	r0, [r3]
 25c:	62646e61 	rsbvs	r6, r4, #1552	; 0x610
 260:	6c635f79 	stclvs	15, cr5, [r3], #-484	; 0xfffffe1c
 264:	70615f6b 	rsbvc	r5, r1, fp, ror #30
 268:	69786562 	ldmdbvs	r8!, {r1, r5, r6, r8, sl, sp, lr}^
 26c:	21c60074 	biccs	r0, r6, r4, ror r0
 270:	70630000 	rsbvc	r0, r3, r0
 274:	736d5f75 	cmnvc	sp, #468	; 0x1d4
 278:	6f6f6c5f 	svcvs	0x006f6c5f
 27c:	746e6370 	strbtvc	r6, [lr], #-880	; 0x370
 280:	00000000 	andeq	r0, r0, r0
 284:	00006500 	andeq	r6, r0, r0, lsl #10
 288:	1f000200 	svcne	0x00000200
 28c:	56000027 	strpl	r0, [r0], -r7, lsr #32
 290:	44000003 	strmi	r0, [r0], #-3
 294:	73000002 	movwvc	r0, #2
 298:	646e6174 	strbtvs	r6, [lr], #-372	; 0x174
 29c:	695f7962 	ldmdbvs	pc, {r1, r5, r6, r8, fp, ip, sp, lr}^
 2a0:	695f746e 	ldmdbvs	pc, {r1, r2, r3, r5, r6, sl, ip, sp, lr}^
 2a4:	0074696e 	rsbseq	r6, r4, lr, ror #18
 2a8:	0000025d 	andeq	r0, r0, sp, asr r2
 2ac:	6e617473 	mcrvs	4, 3, r7, cr1, cr3, {3}
 2b0:	5f796264 	svcpl	0x00796264
 2b4:	5f746e69 	svcpl	0x00746e69
 2b8:	74697865 	strbtvc	r7, [r9], #-2149	; 0x865
 2bc:	00027400 	andeq	r7, r2, r0, lsl #8
 2c0:	61747300 	cmnvs	r4, r0, lsl #6
 2c4:	7962646e 	stmdbvc	r2!, {r1, r2, r3, r5, r6, sl, sp, lr}^
 2c8:	616e655f 	cmnvs	lr, pc, asr r5
 2cc:	5f656c62 	svcpl	0x00656c62
 2d0:	00746e69 	rsbseq	r6, r4, r9, ror #28
 2d4:	000002bb 	undefined instruction 0x000002bb
 2d8:	6e617473 	mcrvs	4, 3, r7, cr1, cr3, {3}
 2dc:	5f796264 	svcpl	0x00796264
 2e0:	72657571 	rsbvc	r7, r5, #473956352	; 0x1c400000
 2e4:	6e695f79 	mcrvs	15, 3, r5, cr9, cr9, {3}
 2e8:	00000074 	andeq	r0, r0, r4, ror r0
 2ec:	00620000 	rsbeq	r0, r2, r0
 2f0:	00020000 	andeq	r0, r2, r0
 2f4:	00002a75 	andeq	r2, r0, r5, ror sl
 2f8:	000000c8 	andeq	r0, r0, r8, asr #1
 2fc:	0000006b 	andeq	r0, r0, fp, rrx
 300:	6e617473 	mcrvs	4, 3, r7, cr1, cr3, {3}
 304:	5f796264 	svcpl	0x00796264
 308:	695f7269 	ldmdbvs	pc, {r0, r3, r5, r6, r9, ip, sp, lr}^
 30c:	0074696e 	rsbseq	r6, r4, lr, ror #18
 310:	00000082 	andeq	r0, r0, r2, lsl #1
 314:	6e617473 	mcrvs	4, 3, r7, cr1, cr3, {3}
 318:	5f796264 	svcpl	0x00796264
 31c:	655f7269 	ldrbvs	r7, [pc, #-617]	; bb <__standby_start+0xbb>
 320:	00746978 	rsbseq	r6, r4, r8, ror r9
 324:	00000099 	muleq	r0, r9, r0
 328:	6e617473 	mcrvs	4, 3, r7, cr1, cr3, {3}
 32c:	5f796264 	svcpl	0x00796264
 330:	645f7269 	ldrbvs	r7, [pc], #617	; 338 <__standby_start+0x338>
 334:	63657465 	cmnvs	r5, #1694498816	; 0x65000000
 338:	00b00074 	adcseq	r0, r0, r4, ror r0
 33c:	74730000 	ldrbtvc	r0, [r3]
 340:	62646e61 	rsbvs	r6, r4, #1552	; 0x610
 344:	72695f79 	rsbvc	r5, r9, #484	; 0x1e4
 348:	7265765f 	rsbvc	r7, r5, #99614720	; 0x5f00000
 34c:	00796669 	rsbseq	r6, r9, r9, ror #12
 350:	00000000 	andeq	r0, r0, r0
 354:	0000004e 	andeq	r0, r0, lr, asr #32
 358:	2b3d0002 	blcs	f40368 <__standby_start+0xf40368>
 35c:	017b0000 	cmneq	fp, r0
 360:	00d90000 	sbcseq	r0, r9, r0
 364:	74730000 	ldrbtvc	r0, [r3]
 368:	62646e61 	rsbvs	r6, r4, #1552	; 0x610
 36c:	656b5f79 	strbvs	r5, [fp, #-3961]!	; 0xf79
 370:	78655f79 	stmdavc	r5!, {r0, r3, r4, r5, r6, r8, r9, sl, fp, ip, lr}^
 374:	f0007469 	undefined instruction 0xf0007469
 378:	73000000 	movwvc	r0, #0
 37c:	646e6174 	strbtvs	r6, [lr], #-372	; 0x174
 380:	715f7962 	cmpvc	pc, r2, ror #18
 384:	79726575 	ldmdbvc	r2!, {r0, r2, r4, r5, r6, r8, sl, sp, lr}^
 388:	79656b5f 	stmdbvc	r5!, {r0, r1, r2, r3, r4, r6, r8, r9, fp, sp, lr}^
 38c:	00010700 	andeq	r0, r1, r0, lsl #14
 390:	61747300 	cmnvs	r4, r0, lsl #6
 394:	7962646e 	stmdbvc	r2!, {r1, r2, r3, r5, r6, sl, sp, lr}^
 398:	79656b5f 	stmdbvc	r5!, {r0, r1, r2, r3, r4, r6, r8, r9, fp, sp, lr}^
 39c:	696e695f 	stmdbvs	lr!, {r0, r1, r2, r3, r4, r6, r8, fp, sp, lr}^
 3a0:	00000074 	andeq	r0, r0, r4, ror r0
 3a4:	006c0000 	rsbeq	r0, ip, r0
 3a8:	00020000 	andeq	r0, r2, r0
 3ac:	00002cb8 	undefined instruction 0x00002cb8
 3b0:	00000460 	andeq	r0, r0, r0, ror #8
 3b4:	000001e5 	andeq	r0, r0, r5, ror #3
 3b8:	6e617473 	mcrvs	4, 3, r7, cr1, cr3, {3}
 3bc:	5f796264 	svcpl	0x00796264
 3c0:	5f746567 	svcpl	0x00746567
 3c4:	746c6f76 	strbtvc	r6, [ip], #-3958	; 0xf76
 3c8:	00656761 	rsbeq	r6, r5, r1, ror #14
 3cc:	00000264 	andeq	r0, r0, r4, ror #4
 3d0:	6e617473 	mcrvs	4, 3, r7, cr1, cr3, {3}
 3d4:	5f796264 	svcpl	0x00796264
 3d8:	5f746573 	svcpl	0x00746573
 3dc:	746c6f76 	strbtvc	r6, [ip], #-3958	; 0xf76
 3e0:	00656761 	rsbeq	r6, r5, r1, ror #14
 3e4:	000003a0 	andeq	r0, r0, r0, lsr #7
 3e8:	6e617473 	mcrvs	4, 3, r7, cr1, cr3, {3}
 3ec:	5f796264 	svcpl	0x00796264
 3f0:	65776f70 	ldrbvs	r6, [r7, #-3952]!	; 0xf70
 3f4:	78655f72 	stmdavc	r5!, {r1, r4, r5, r6, r8, r9, sl, fp, ip, lr}^
 3f8:	dc007469 	cfstrsle	mvf7, [r0], {105}	; 0x69
 3fc:	73000003 	movwvc	r0, #3
 400:	646e6174 	strbtvs	r6, [lr], #-372	; 0x174
 404:	705f7962 	subsvc	r7, pc, r2, ror #18
 408:	7265776f 	rsbvc	r7, r5, #29097984	; 0x1bc0000
 40c:	696e695f 	stmdbvs	lr!, {r0, r1, r2, r3, r4, r6, r8, fp, sp, lr}^
 410:	00000074 	andeq	r0, r0, r4, ror r0
 414:	00b90000 	adcseq	r0, r9, r0
 418:	00020000 	andeq	r0, r2, r0
 41c:	00003118 	andeq	r3, r0, r8, lsl r1
 420:	00000538 	andeq	r0, r0, r8, lsr r5
 424:	000003a3 	andeq	r0, r0, r3, lsr #7
 428:	6e617473 	mcrvs	4, 3, r7, cr1, cr3, {3}
 42c:	5f796264 	svcpl	0x00796264
 430:	5f726d74 	svcpl	0x00726d74
 434:	74697865 	strbtvc	r7, [r9], #-2149	; 0x865
 438:	0003ca00 	andeq	ip, r3, r0, lsl #20
 43c:	61747300 	cmnvs	r4, r0, lsl #6
 440:	7962646e 	stmdbvc	r2!, {r1, r2, r3, r5, r6, sl, sp, lr}^
 444:	726d745f 	rsbvc	r7, sp, #1593835520	; 0x5f000000
 448:	7465735f 	strbtvc	r7, [r5], #-863	; 0x35f
 44c:	0003f500 	andeq	pc, r3, r0, lsl #10
 450:	61747300 	cmnvs	r4, r0, lsl #6
 454:	7962646e 	stmdbvc	r2!, {r1, r2, r3, r5, r6, sl, sp, lr}^
 458:	726d745f 	rsbvc	r7, sp, #1593835520	; 0x5f000000
 45c:	616e655f 	cmnvs	lr, pc, asr r5
 460:	5f656c62 	svcpl	0x00656c62
 464:	63746177 	cmnvs	r4, #-1073741795	; 0xc000001d
 468:	676f6468 	strbvs	r6, [pc, -r8, ror #8]!
 46c:	00040800 	andeq	r0, r4, r0, lsl #16
 470:	61747300 	cmnvs	r4, r0, lsl #6
 474:	7962646e 	stmdbvc	r2!, {r1, r2, r3, r5, r6, sl, sp, lr}^
 478:	726d745f 	rsbvc	r7, sp, #1593835520	; 0x5f000000
 47c:	7369645f 	cmnvc	r9, #1593835520	; 0x5f000000
 480:	656c6261 	strbvs	r6, [ip, #-609]!	; 0x261
 484:	7461775f 	strbtvc	r7, [r1], #-1887	; 0x75f
 488:	6f646863 	svcvs	0x00646863
 48c:	041b0067 	ldreq	r0, [fp], #-103	; 0x67
 490:	74730000 	ldrbtvc	r0, [r3]
 494:	62646e61 	rsbvs	r6, r4, #1552	; 0x610
 498:	6d745f79 	ldclvs	15, cr5, [r4, #-484]!	; 0xfffffe1c
 49c:	75715f72 	ldrbvc	r5, [r1, #-3954]!	; 0xf72
 4a0:	00797265 	rsbseq	r7, r9, r5, ror #4
 4a4:	00000451 	andeq	r0, r0, r1, asr r4
 4a8:	6e617473 	mcrvs	4, 3, r7, cr1, cr3, {3}
 4ac:	5f796264 	svcpl	0x00796264
 4b0:	5f726d74 	svcpl	0x00726d74
 4b4:	616c646d 	cmnvs	ip, sp, ror #8
 4b8:	04820079 	streq	r0, [r2], #121	; 0x79
 4bc:	74730000 	ldrbtvc	r0, [r3]
 4c0:	62646e61 	rsbvs	r6, r4, #1552	; 0x610
 4c4:	6d745f79 	ldclvs	15, cr5, [r4, #-484]!	; 0xfffffe1c
 4c8:	6e695f72 	mcrvs	15, 3, r5, cr9, cr2, {3}
 4cc:	00007469 	andeq	r7, r0, r9, ror #8
 4d0:	48000000 	stmdami	r0, {}
 4d4:	02000000 	andeq	r0, r0, #0
 4d8:	00365000 	eorseq	r5, r6, r0
 4dc:	0002c000 	andeq	ip, r2, r0
 4e0:	00015d00 	andeq	r5, r1, r0, lsl #26
 4e4:	61747300 	cmnvs	r4, r0, lsl #6
 4e8:	7962646e 	stmdbvc	r2!, {r1, r2, r3, r5, r6, sl, sp, lr}^
 4ec:	6977745f 	ldmdbvs	r7!, {r0, r1, r2, r3, r4, r6, sl, ip, sp, lr}^
 4f0:	696e695f 	stmdbvs	lr!, {r0, r1, r2, r3, r4, r6, r8, fp, sp, lr}^
 4f4:	01880074 	orreq	r0, r8, r4, ror r0
 4f8:	77740000 	ldrbvc	r0, [r4, -r0]!
 4fc:	79625f69 	stmdbvc	r2!, {r0, r3, r5, r6, r8, r9, sl, fp, ip, lr}^
 500:	725f6574 	subsvc	r6, pc, #486539264	; 0x1d000000
 504:	02470077 	subeq	r0, r7, #119	; 0x77
 508:	74730000 	ldrbtvc	r0, [r3]
 50c:	62646e61 	rsbvs	r6, r4, #1552	; 0x610
 510:	77745f79 	undefined instruction 0x77745f79
 514:	78655f69 	stmdavc	r5!, {r0, r3, r5, r6, r8, r9, sl, fp, ip, lr}^
 518:	00007469 	andeq	r7, r0, r9, ror #8
 51c:	75000000 	strvc	r0, [r0]
 520:	02000000 	andeq	r0, r0, #0
 524:	00391000 	eorseq	r1, r9, r0
 528:	0000e700 	andeq	lr, r0, r0, lsl #14
 52c:	00007600 	andeq	r7, r0, r0, lsl #12
 530:	61747300 	cmnvs	r4, r0, lsl #6
 534:	7962646e 	stmdbvc	r2!, {r1, r2, r3, r5, r6, sl, sp, lr}^
 538:	6273755f 	rsbsvs	r7, r3, #398458880	; 0x17c00000
 53c:	696e695f 	stmdbvs	lr!, {r0, r1, r2, r3, r4, r6, r8, fp, sp, lr}^
 540:	008d0074 	addeq	r0, sp, r4, ror r0
 544:	74730000 	ldrbtvc	r0, [r3]
 548:	62646e61 	rsbvs	r6, r4, #1552	; 0x610
 54c:	73755f79 	cmnvc	r5, #484	; 0x1e4
 550:	78655f62 	stmdavc	r5!, {r1, r5, r6, r8, r9, sl, fp, ip, lr}^
 554:	a4007469 	strge	r7, [r0], #-1129	; 0x469
 558:	73000000 	movwvc	r0, #0
 55c:	646e6174 	strbtvs	r6, [lr], #-372	; 0x174
 560:	695f7962 	ldmdbvs	pc, {r1, r5, r6, r8, fp, ip, sp, lr}^
 564:	73755f73 	cmnvc	r5, #460	; 0x1cc
 568:	74735f62 	ldrbtvc	r5, [r3], #-3938	; 0xf62
 56c:	73757461 	cmnvc	r5, #1627389952	; 0x61000000
 570:	6168635f 	cmnvs	r8, pc, asr r3
 574:	0065676e 	rsbeq	r6, r5, lr, ror #14
 578:	000000cf 	andeq	r0, r0, pc, asr #1
 57c:	6e617473 	mcrvs	4, 3, r7, cr1, cr3, {3}
 580:	5f796264 	svcpl	0x00796264
 584:	72657571 	rsbvc	r7, r5, #473956352	; 0x1c400000
 588:	73755f79 	cmnvc	r5, #484	; 0x1e4
 58c:	76655f62 	strbtvc	r5, [r5], -r2, ror #30
 590:	00746e65 	rsbseq	r6, r4, r5, ror #28
 594:	00000000 	andeq	r0, r0, r0
 598:	00000196 	muleq	r0, r6, r1
 59c:	3a680002 	bcc	1a005ac <__standby_start+0x1a005ac>
 5a0:	05c40000 	strbeq	r0, [r4]
 5a4:	00dd0000 	sbcseq	r0, sp, r0
 5a8:	75620000 	strbvc	r0, [r2]!
 5ac:	775f7973 	undefined instruction 0x775f7973
 5b0:	69746961 	ldmdbvs	r4!, {r0, r5, r6, r8, fp, sp, lr}^
 5b4:	0b00676e 	bleq	1a374 <__standby_start+0x1a374>
 5b8:	66000001 	strvs	r0, [r0], -r1
 5bc:	5f656b61 	svcpl	0x00656b61
 5c0:	79737562 	ldmdbvc	r3!, {r1, r5, r6, r8, sl, ip, sp, lr}^
 5c4:	6961775f 	stmdbvs	r1!, {r0, r1, r2, r3, r4, r6, r8, r9, sl, ip, sp, lr}^
 5c8:	676e6974 	undefined instruction 0x676e6974
 5cc:	00013400 	andeq	r3, r1, r0, lsl #8
 5d0:	76617300 	strbtvc	r7, [r1], -r0, lsl #6
 5d4:	656d5f65 	strbvs	r5, [sp, #-3941]!	; 0xf65
 5d8:	6c665f6d 	stclvs	15, cr5, [r6], #-436	; 0xfffffe4c
 5dc:	59006761 	stmdbpl	r0, {r0, r5, r6, r8, r9, sl, sp, lr}
 5e0:	73000001 	movwvc	r0, #1
 5e4:	5f657661 	svcpl	0x00657661
 5e8:	5f6d656d 	svcpl	0x006d656d
 5ec:	74617473 	strbtvc	r7, [r1], #-1139	; 0x473
 5f0:	80007375 	andhi	r7, r0, r5, ror r3
 5f4:	67000001 	strvs	r0, [r0, -r1]
 5f8:	6d5f7465 	cfldrdvs	mvd7, [pc, #-404]	; 0xfffffe6c
 5fc:	735f6d65 	cmpvc	pc, #6464	; 0x1940
 600:	75746174 	ldrbvc	r6, [r4, #-372]!	; 0x174
 604:	01970073 	orrseq	r0, r7, r3, ror r0
 608:	61730000 	cmnvs	r3, r0
 60c:	6d5f6576 	cfldr64vs	mvdx6, [pc, #-472]	; 0xfffffe28
 610:	735f6d65 	cmpvc	pc, #6464	; 0x1940
 614:	75746174 	ldrbvc	r6, [r4, #-372]!	; 0x174
 618:	6f6e5f73 	svcvs	0x006e5f73
 61c:	00756d6d 	rsbseq	r6, r5, sp, ror #26
 620:	000001be 	undefined instruction 0x000001be
 624:	65766173 	ldrbvs	r6, [r6, #-371]!	; 0x173
 628:	6e75735f 	mrcvs	3, 3, r7, cr5, cr15, {2}
 62c:	6d5f6935 	ldclvs	9, cr6, [pc, #-212]	; 0xffffff2c
 630:	735f6d65 	cmpvc	pc, #6464	; 0x1940
 634:	75746174 	ldrbvc	r6, [r4, #-372]!	; 0x174
 638:	01fa0073 	mvnseq	r0, r3, ror r0
 63c:	61730000 	cmnvs	r3, r0
 640:	735f6576 	cmpvc	pc, #494927872	; 0x1d800000
 644:	69356e75 	ldmdbvs	r5!, {r0, r2, r4, r5, r6, r9, sl, fp, sp, lr}
 648:	6d656d5f 	stclvs	13, cr6, [r5, #-380]!	; 0xfffffe84
 64c:	6174735f 	cmnvs	r4, pc, asr r3
 650:	5f737574 	svcpl	0x00737574
 654:	6d6d6f6e 	stclvs	15, cr6, [sp, #-440]!	; 0xfffffe48
 658:	02360075 	eorseq	r0, r6, #117	; 0x75
 65c:	65670000 	strbvs	r0, [r7]!
 660:	79635f74 	stmdbvc	r3!, {r2, r4, r5, r6, r8, r9, sl, fp, ip, lr}^
 664:	63656c63 	cmnvs	r5, #25344	; 0x6300
 668:	746e756f 	strbtvc	r7, [lr], #-1391	; 0x56f
 66c:	00025300 	andeq	r5, r2, r0, lsl #6
 670:	63616200 	cmnvs	r1, #0
 674:	5f70756b 	svcpl	0x0070756b
 678:	66726570 	undefined instruction 0x66726570
 67c:	6e756f63 	cdpvs	15, 7, cr6, cr5, cr3, {3}
 680:	00726574 	rsbseq	r6, r2, r4, ror r5
 684:	00000266 	andeq	r0, r0, r6, ror #4
 688:	74696e69 	strbtvc	r6, [r9], #-3689	; 0xe69
 68c:	7265705f 	rsbvc	r7, r5, #95	; 0x5f
 690:	756f6366 	strbvc	r6, [pc, #-870]!	; 332 <__standby_start+0x332>
 694:	7265746e 	rsbvc	r7, r5, #1845493760	; 0x6e000000
 698:	02a90073 	adceq	r0, r9, #115	; 0x73
 69c:	65720000 	ldrbvs	r0, [r2]!
 6a0:	726f7473 	rsbvc	r7, pc, #1929379840	; 0x73000000
 6a4:	65705f65 	ldrbvs	r5, [r0, #-3941]!	; 0xf65
 6a8:	6f636672 	svcvs	0x00636672
 6ac:	65746e75 	ldrbvs	r6, [r4, #-3701]!	; 0xe75
 6b0:	02bc0072 	adcseq	r0, ip, #114	; 0x72
 6b4:	65720000 	ldrbvs	r0, [r2]!
 6b8:	5f746573 	svcpl	0x00746573
 6bc:	6e756f63 	cdpvs	15, 7, cr6, cr5, cr3, {3}
 6c0:	00726574 	rsbseq	r6, r2, r4, ror r5
 6c4:	000002df 	ldrdeq	r0, [r0], -pc
 6c8:	6e616863 	cdpvs	8, 6, cr6, cr1, cr3, {3}
 6cc:	725f6567 	subsvc	r6, pc, #432013312	; 0x19c00000
 6d0:	69746e75 	ldmdbvs	r4!, {r0, r2, r4, r5, r6, r9, sl, fp, sp, lr}^
 6d4:	655f656d 	ldrbvs	r6, [pc, #-1389]	; 16f <__standby_start+0x16f>
 6d8:	e600766e 	str	r7, [r0], -lr, ror #12
 6dc:	64000003 	strvs	r0, [r0], #-3
 6e0:	79616c65 	stmdbvc	r1!, {r0, r2, r5, r6, sl, fp, sp, lr}^
 6e4:	0073755f 	rsbseq	r7, r3, pc, asr r5
 6e8:	000004ba 	undefined instruction 0x000004ba
 6ec:	616c6564 	cmnvs	ip, r4, ror #10
 6f0:	736d5f79 	cmnvc	sp, #484	; 0x1e4
 6f4:	0004e200 	andeq	lr, r4, r0, lsl #4
 6f8:	5f6f6900 	svcpl	0x006f6900
 6fc:	74696e69 	strbtvc	r6, [r9], #-3689	; 0xe69
 700:	0004f600 	andeq	pc, r4, r0, lsl #12
 704:	5f6f6900 	svcpl	0x006f6900
 708:	74696e69 	strbtvc	r6, [r9], #-3689	; 0xe69
 70c:	6769685f 	undefined instruction 0x6769685f
 710:	051d0068 	ldreq	r0, [sp, #-104]	; 0x68
 714:	6f690000 	svcvs	0x00690000
 718:	696e695f 	stmdbvs	lr!, {r0, r1, r2, r3, r4, r6, r8, fp, sp, lr}^
 71c:	6f6c5f74 	svcvs	0x006c5f74
 720:	05440077 	strbeq	r0, [r4, #-119]	; 0x77
 724:	6f690000 	svcvs	0x00690000
 728:	6769685f 	undefined instruction 0x6769685f
 72c:	00000068 	andeq	r0, r0, r8, rrx
 730:	021f0000 	andseq	r0, pc, #0
 734:	00020000 	andeq	r0, r2, r0
 738:	0000402c 	andeq	r4, r0, ip, lsr #32
 73c:	000005f9 	strdeq	r0, [r0], -r9
 740:	000000ed 	andeq	r0, r0, sp, ror #1
 744:	4d415244 	sfmmi	f5, 2, [r1, #-272]	; (stclmi 2, cr5, [r1, #-272])	; 0xfffffef0
 748:	6f685f43 	svcvs	0x00685f43
 74c:	6f707473 	svcvs	0x00707473
 750:	6f5f7472 	svcvs	0x005f7472
 754:	666f5f6e 	strbtvs	r5, [pc], -lr, ror #30
 758:	01160066 	tsteq	r6, r6, rrx
 75c:	52440000 	subpl	r0, r4, #0
 760:	5f434d41 	svcpl	0x00434d41
 764:	74736f68 	ldrbtvc	r6, [r3], #-3944	; 0xf68
 768:	74726f70 	ldrbtvc	r6, [r2], #-3952	; 0xf70
 76c:	6568635f 	strbvs	r6, [r8, #-863]!	; 0x35f
 770:	615f6b63 	cmpvs	pc, r3, ror #22
 774:	665f6268 	ldrbvs	r6, [pc], -r8, ror #4
 778:	5f6f6669 	svcpl	0x006f6669
 77c:	74617473 	strbtvc	r7, [r1], #-1139	; 0x473
 780:	3a007375 	bcc	1d55c <__standby_start+0x1d55c>
 784:	44000001 	strmi	r0, [r0], #-1
 788:	434d4152 	movtmi	r4, #53586	; 0xd152
 78c:	736f685f 	cmnvc	pc, #6225920	; 0x5f0000
 790:	726f7074 	rsbvc	r7, pc, #116	; 0x74
 794:	65735f74 	ldrbvs	r5, [r3, #-3956]!	; 0xf74
 798:	00707574 	rsbseq	r7, r0, r4, ror r5
 79c:	0000019d 	muleq	r0, sp, r1
 7a0:	6d617264 	sfmvs	f7, 2, [r1, #-400]!	; (stclvs 2, cr7, [r1, #-400]!)	; 0xfffffe70
 7a4:	736f685f 	cmnvc	pc, #6225920	; 0x5f0000
 7a8:	726f7074 	rsbvc	r7, pc, #116	; 0x74
 7ac:	6e6f5f74 	mcrvs	15, 3, r5, cr15, cr4, {3}
 7b0:	66666f5f 	uqsubaddxvs	r6, r6, pc
 7b4:	0001fd00 	andeq	pc, r1, r0, lsl #26
 7b8:	61726400 	cmnvs	r2, r0, lsl #8
 7bc:	6f685f6d 	svcvs	0x00685f6d
 7c0:	6f707473 	svcvs	0x00707473
 7c4:	635f7472 	cmpvs	pc, #1912602624	; 0x72000000
 7c8:	6b636568 	blvs	18d9d70 <__standby_start+0x18d9d70>
 7cc:	6268615f 	rsbvs	r6, r8, #-1073741801	; 0xc0000017
 7d0:	6669665f 	undefined instruction 0x6669665f
 7d4:	74735f6f 	ldrbtvc	r5, [r3], #-3951	; 0xf6f
 7d8:	73757461 	cmnvc	r5, #1627389952	; 0x61000000
 7dc:	00025100 	andeq	r5, r2, r0, lsl #2
 7e0:	61726400 	cmnvs	r2, r0, lsl #8
 7e4:	6f685f6d 	svcvs	0x00685f6d
 7e8:	6f707473 	svcvs	0x00707473
 7ec:	735f7472 	cmpvc	pc, #1912602624	; 0x72000000
 7f0:	70757465 	rsbsvc	r7, r5, r5, ror #8
 7f4:	0002aa00 	andeq	sl, r2, r0, lsl #20
 7f8:	74636d00 	strbtvc	r6, [r3], #-3328	; 0xd00
 7fc:	68615f6c 	stmdavs	r1!, {r2, r3, r5, r6, r8, r9, sl, fp, ip, lr}^
 800:	65725f62 	ldrbvs	r5, [r2, #-3938]!	; 0xf62
 804:	00746573 	rsbseq	r6, r4, r3, ror r5
 808:	000002e0 	andeq	r0, r0, r0, ror #5
 80c:	4d415244 	sfmmi	f5, 2, [r1, #-272]	; (stclmi 2, cr5, [r1, #-272])	; 0xfffffef0
 810:	6e655f43 	cdpvs	15, 6, cr5, cr5, cr3, {2}
 814:	5f726574 	svcpl	0x00726574
 818:	65776f70 	ldrbvs	r6, [r7, #-3952]!	; 0xf70
 81c:	6f645f72 	svcvs	0x00645f72
 820:	10006e77 	andne	r6, r0, r7, ror lr
 824:	64000003 	strvs	r0, [r0], #-3
 828:	5f6d6172 	svcpl	0x006d6172
 82c:	65746e65 	ldrbvs	r6, [r4, #-3685]!	; 0xe65
 830:	6f705f72 	svcvs	0x00705f72
 834:	5f726577 	svcpl	0x00726577
 838:	6e776f64 	cdpvs	15, 7, cr6, cr7, cr4, {3}
 83c:	00032400 	andeq	r2, r3, r0, lsl #8
 840:	74636d00 	strbtvc	r6, [r3], #-3328	; 0xd00
 844:	6f6d5f6c 	svcvs	0x006d5f6c
 848:	655f6564 	ldrbvs	r6, [pc, #-1380]	; 2ec <__standby_start+0x2ec>
 84c:	00746978 	rsbseq	r6, r4, r8, ror r9
 850:	00000354 	andeq	r0, r0, r4, asr r3
 854:	4d415244 	sfmmi	f5, 2, [r1, #-272]	; (stclmi 2, cr5, [r1, #-272])	; 0xfffffef0
 858:	78655f43 	stmdavc	r5!, {r0, r1, r6, r8, r9, sl, fp, ip, lr}^
 85c:	705f7469 	subsvc	r7, pc, r9, ror #8
 860:	7265776f 	rsbvc	r7, r5, #29097984	; 0x1bc0000
 864:	776f645f 	undefined instruction 0x776f645f
 868:	0363006e 	cmneq	r3, #110	; 0x6e
 86c:	72640000 	rsbvc	r0, r4, #0
 870:	655f6d61 	ldrbvs	r6, [pc, #-3425]	; fffffb17 <__bss_end+0xfffcf2b>
 874:	5f746978 	svcpl	0x00746978
 878:	65776f70 	ldrbvs	r6, [r7, #-3952]!	; 0xf70
 87c:	6f645f72 	svcvs	0x00645f72
 880:	8c006e77 	stchi	14, cr6, [r0], {119}	; 0x77
 884:	44000003 	strmi	r0, [r0], #-3
 888:	434d4152 	movtmi	r4, #53586	; 0xd152
 88c:	6978655f 	ldmdbvs	r8!, {r0, r1, r2, r3, r4, r6, r8, sl, sp, lr}^
 890:	65735f74 	ldrbvs	r5, [r3, #-3956]!	; 0xf74
 894:	6572666c 	ldrbvs	r6, [r2, #-1644]!	; 0x66c
 898:	73657266 	cmnvc	r5, #1610612742	; 0x60000006
 89c:	03e70068 	mvneq	r0, #104	; 0x68
 8a0:	72640000 	rsbvc	r0, r4, #0
 8a4:	655f6d61 	ldrbvs	r6, [pc, #-3425]	; fffffb4b <__bss_end+0xfffcf5f>
 8a8:	5f746978 	svcpl	0x00746978
 8ac:	666c6573 	undefined instruction 0x666c6573
 8b0:	72666572 	rsbvc	r6, r6, #478150656	; 0x1c800000
 8b4:	00687365 	rsbeq	r7, r8, r5, ror #6
 8b8:	000003fb 	strdeq	r0, [r0], -fp
 8bc:	6c74636d 	ldclvs	3, cr6, [r4], #-436	; 0xfffffe4c
 8c0:	6572705f 	ldrbvs	r7, [r2, #-95]!	; 0x5f
 8c4:	72616863 	rsbvc	r6, r1, #6488064	; 0x630000
 8c8:	615f6567 	cmpvs	pc, r7, ror #10
 8cc:	2b006c6c 	blcs	1ba84 <__standby_start+0x1ba84>
 8d0:	44000004 	strmi	r0, [r0], #-4
 8d4:	434d4152 	movtmi	r4, #53586	; 0xd152
 8d8:	746e655f 	strbtvc	r6, [lr], #-1375	; 0x55f
 8dc:	735f7265 	cmpvc	pc, #1342177286	; 0x50000006
 8e0:	72666c65 	rsbvc	r6, r6, #25856	; 0x6500
 8e4:	65726665 	ldrbvs	r6, [r2, #-1637]!	; 0x665
 8e8:	8a006873 	bhi	1aabc <__standby_start+0x1aabc>
 8ec:	64000004 	strvs	r0, [r0], #-4
 8f0:	5f6d6172 	svcpl	0x006d6172
 8f4:	65746e65 	ldrbvs	r6, [r4, #-3685]!	; 0xe65
 8f8:	65735f72 	ldrbvs	r5, [r3, #-3954]!	; 0xf72
 8fc:	6572666c 	ldrbvs	r6, [r2, #-1644]!	; 0x66c
 900:	73657266 	cmnvc	r5, #1610612742	; 0x60000006
 904:	049e0068 	ldreq	r0, [lr], #104	; 0x68
 908:	72640000 	rsbvc	r0, r4, #0
 90c:	705f6d61 	subsvc	r6, pc, r1, ror #26
 910:	7265776f 	rsbvc	r7, r5, #29097984	; 0x1bc0000
 914:	7661735f 	undefined instruction 0x7661735f
 918:	72705f65 	rsbsvc	r5, r0, #404	; 0x194
 91c:	7365636f 	cmnvc	r5, #-1140850687	; 0xbc000001
 920:	04c90073 	strbeq	r0, [r9], #115	; 0x73
 924:	52440000 	subpl	r0, r4, #0
 928:	5f434d41 	svcpl	0x00434d41
 92c:	72746572 	rsbsvc	r6, r4, #478150656	; 0x1c800000
 930:	696e6961 	stmdbvs	lr!, {r0, r5, r6, r8, fp, sp, lr}^
 934:	e000676e 	and	r6, r0, lr, ror #14
 938:	64000005 	strvs	r0, [r0], #-5
 93c:	5f6d6172 	svcpl	0x006d6172
 940:	65776f70 	ldrbvs	r6, [r7, #-3952]!	; 0xf70
 944:	70755f72 	rsbsvc	r5, r5, r2, ror pc
 948:	6f72705f 	svcvs	0x0072705f
 94c:	73736563 	cmnvc	r3, #415236096	; 0x18c00000
 950:	00000000 	andeq	r0, r0, r0
 954:	0001f400 	andeq	pc, r1, r0, lsl #8
 958:	25000200 	strcs	r0, [r0, #-512]	; 0x200
 95c:	77000046 	strvc	r0, [r0, -r6, asr #32]
 960:	ff000008 	undefined instruction 0xff000008
 964:	6d000002 	stcvs	0, cr0, [r0, #-8]
 968:	5f6c7463 	svcpl	0x006c7463
 96c:	5f746573 	svcpl	0x00746573
 970:	76697264 	strbtvc	r7, [r9], -r4, ror #4
 974:	031a0065 	tsteq	sl, #101	; 0x65
 978:	636d0000 	cmnvs	sp, #0
 97c:	695f6c74 	ldmdbvs	pc, {r2, r4, r5, r6, sl, fp, sp, lr}^
 980:	645f6d74 	ldrbvs	r6, [pc], #3444	; 988 <__standby_start+0x988>
 984:	62617369 	rsbvs	r7, r1, #-1543503871	; 0xa4000001
 988:	3500656c 	strcc	r6, [r0, #-1388]	; 0x56c
 98c:	6d000003 	stcvs	0, cr0, [r0, #-12]
 990:	5f6c7463 	svcpl	0x006c7463
 994:	5f6d7469 	svcpl	0x006d7469
 998:	62616e65 	rsbvs	r6, r1, #1616	; 0x650
 99c:	5000656c 	andpl	r6, r0, ip, ror #10
 9a0:	6d000003 	stcvs	0, cr0, [r0, #-12]
 9a4:	5f6c7463 	svcpl	0x006c7463
 9a8:	61736964 	cmnvs	r3, r4, ror #18
 9ac:	5f656c62 	svcpl	0x00656c62
 9b0:	006c6c64 	rsbeq	r6, ip, r4, ror #24
 9b4:	00000375 	andeq	r0, r0, r5, ror r3
 9b8:	6c74636d 	ldclvs	3, cr6, [r4], #-436	; 0xfffffe4c
 9bc:	6e6f635f 	mcrvs	3, 3, r6, cr15, cr15, {2}
 9c0:	75676966 	strbvc	r6, [r7, #-2406]!	; 0x966
 9c4:	685f6572 	ldmdavs	pc, {r1, r4, r5, r6, r8, sl, sp, lr}^
 9c8:	7074736f 	rsbsvc	r7, r4, pc, ror #6
 9cc:	0074726f 	rsbseq	r7, r4, pc, ror #4
 9d0:	00000390 	muleq	r0, r0, r3
 9d4:	4d415244 	sfmmi	f5, 2, [r1, #-272]	; (stclmi 2, cr5, [r1, #-272])	; 0xfffffef0
 9d8:	78655f43 	stmdavc	r5!, {r0, r1, r6, r8, r9, sl, fp, ip, lr}^
 9dc:	9f007469 	svcls	0x00007469
 9e0:	44000003 	strmi	r0, [r0], #-3
 9e4:	434d4152 	movtmi	r4, #53586	; 0xd152
 9e8:	6163735f 	cmnvs	r3, pc, asr r3
 9ec:	65725f6e 	ldrbvs	r5, [r2, #-3950]!	; 0xf6e
 9f0:	69706461 	ldmdbvs	r0!, {r0, r5, r6, sl, sp, lr}^
 9f4:	bc006570 	cfstr32lt	mvfx6, [r0], {112}	; 0x70
 9f8:	44000003 	strmi	r0, [r0], #-3
 9fc:	434d4152 	movtmi	r4, #53586	; 0xd152
 a00:	6f6c635f 	svcvs	0x006c635f
 a04:	6f5f6b63 	svcvs	0x005f6b63
 a08:	75707475 	ldrbvc	r7, [r0, #-1141]!	; 0x475
 a0c:	6e655f74 	mcrvs	15, 3, r5, cr5, cr4, {3}
 a10:	0003de00 	andeq	sp, r3, r0, lsl #28
 a14:	41524400 	cmpmi	r2, r0, lsl #8
 a18:	735f434d 	cmpvc	pc, #872415233	; 0x34000001
 a1c:	615f7465 	cmpvs	pc, r5, ror #8
 a20:	726f7475 	rsbvc	r7, pc, #1962934272	; 0x75000000
 a24:	65726665 	ldrbvs	r6, [r2, #-1637]!	; 0x665
 a28:	635f6873 	cmpvs	pc, #7536640	; 0x730000
 a2c:	656c6379 	strbvs	r6, [ip, #-889]!	; 0x379
 a30:	00040500 	andeq	r0, r4, r0, lsl #10
 a34:	41524400 	cmpmi	r2, r0, lsl #8
 a38:	675f434d 	ldrbvs	r4, [pc, -sp, asr #6]
 a3c:	645f7465 	ldrbvs	r7, [pc], #1125	; a44 <__standby_start+0xa44>
 a40:	5f6d6172 	svcpl	0x006d6172
 a44:	657a6973 	ldrbvs	r6, [sl, #-2419]!	; 0x973
 a48:	00045200 	andeq	r5, r4, r0, lsl #4
 a4c:	61726400 	cmnvs	r2, r0, lsl #8
 a50:	6e695f6d 	cdpvs	15, 6, cr5, cr9, cr13, {3}
 a54:	6a007469 	bvs	1dc00 <__standby_start+0x1dc00>
 a58:	64000004 	strvs	r0, [r0], #-4
 a5c:	5f6d6172 	svcpl	0x006d6172
 a60:	74697865 	strbtvc	r7, [r9], #-2149	; 0x865
 a64:	00048200 	andeq	r8, r4, r0, lsl #4
 a68:	61726400 	cmnvs	r2, r0, lsl #8
 a6c:	65675f6d 	strbvs	r5, [r7, #-3949]!	; 0xf6d
 a70:	69735f74 	ldmdbvs	r3!, {r2, r4, r5, r6, r8, r9, sl, fp, ip, lr}^
 a74:	9a00657a 	bls	1a064 <__standby_start+0x1a064>
 a78:	64000004 	strvs	r0, [r0], #-4
 a7c:	5f6d6172 	svcpl	0x006d6172
 a80:	5f746573 	svcpl	0x00746573
 a84:	76697264 	strbtvc	r7, [r9], -r4, ror #4
 a88:	04d50065 	ldrbeq	r0, [r5], #101	; 0x65
 a8c:	72640000 	rsbvc	r0, r4, #0
 a90:	735f6d61 	cmpvc	pc, #6208	; 0x1840
 a94:	615f7465 	cmpvs	pc, r5, ror #8
 a98:	726f7475 	rsbvc	r7, pc, #1962934272	; 0x75000000
 a9c:	65726665 	ldrbvs	r6, [r2, #-1637]!	; 0x665
 aa0:	635f6873 	cmpvs	pc, #7536640	; 0x730000
 aa4:	656c6379 	strbvs	r6, [ip, #-889]!	; 0x379
 aa8:	00052800 	andeq	r2, r5, r0, lsl #16
 aac:	61726400 	cmnvs	r2, r0, lsl #8
 ab0:	63735f6d 	cmnvs	r3, #436	; 0x1b4
 ab4:	725f6e61 	subsvc	r6, pc, #1552	; 0x610
 ab8:	70646165 	rsbvc	r6, r4, r5, ror #2
 abc:	00657069 	rsbeq	r7, r5, r9, rrx
 ac0:	00000569 	andeq	r0, r0, r9, ror #10
 ac4:	6c74636d 	ldclvs	3, cr6, [r4], #-436	; 0xfffffe4c
 ac8:	7465735f 	strbtvc	r7, [r5], #-863	; 0x35f
 acc:	645f7075 	ldrbvs	r7, [pc], #117	; ad4 <__standby_start+0xad4>
 ad0:	5f6d6172 	svcpl	0x006d6172
 ad4:	636f6c63 	cmnvs	pc, #25344	; 0x6300
 ad8:	05e3006b 	strbeq	r0, [r3, #107]!	; 0x6b
 adc:	72640000 	rsbvc	r0, r4, #0
 ae0:	735f6d61 	cmpvc	pc, #6208	; 0x1840
 ae4:	635f7465 	cmpvs	pc, #1694498816	; 0x65000000
 ae8:	6b636f6c 	blvs	18dc8a0 <__standby_start+0x18dc8a0>
 aec:	00060c00 	andeq	r0, r6, r0, lsl #24
 af0:	74636d00 	strbtvc	r6, [r3], #-3328	; 0xd00
 af4:	6e655f6c 	cdpvs	15, 6, cr5, cr5, cr12, {3}
 af8:	656c6261 	strbvs	r6, [ip, #-609]!	; 0x261
 afc:	6c6c645f 	cfstrdvs	mvd6, [ip], #-380	; 0xfffffe84
 b00:	066d0078 	undefined instruction 0x066d0078
 b04:	636d0000 	cmnvs	sp, #0
 b08:	655f6c74 	ldrbvs	r6, [pc, #-3188]	; fffffe9c <__bss_end+0xfffd2b0>
 b0c:	6c62616e 	stfvse	f6, [r2], #-440	; 0xfffffe48
 b10:	6c645f65 	stclvs	15, cr5, [r4], #-404	; 0xfffffe6c
 b14:	9000306c 	andls	r3, r0, ip, rrx
 b18:	6d000006 	stcvs	0, cr0, [r0, #-24]	; 0xffffffe8
 b1c:	5f6c7463 	svcpl	0x006c7463
 b20:	33726464 	cmncc	r2, #1677721600	; 0x64000000
 b24:	7365725f 	cmnvc	r5, #-268435451	; 0xf0000005
 b28:	b9007465 	stmdblt	r0, {r0, r2, r5, r6, sl, ip, sp, lr}
 b2c:	44000006 	strmi	r0, [r0], #-6
 b30:	434d4152 	movtmi	r4, #53586	; 0xd152
 b34:	696e695f 	stmdbvs	lr!, {r0, r1, r2, r3, r4, r6, r8, fp, sp, lr}^
 b38:	08640074 	stmdaeq	r4!, {r2, r4, r5, r6}^
 b3c:	70680000 	rsbvc	r0, r8, r0
 b40:	765f7263 	ldrbvc	r7, [pc], -r3, ror #4
 b44:	65756c61 	ldrbvs	r6, [r5, #-3169]!	; 0xc61
 b48:	00000000 	andeq	r0, r0, r0
	...

Disassembly of section .debug_aranges:

00000000 <.debug_aranges>:
   0:	0000001c 	andeq	r0, r0, ip, lsl r0
   4:	00000002 	andeq	r0, r0, r2
   8:	00040000 	andeq	r0, r4, r0
   c:	00000000 	andeq	r0, r0, r0
  10:	f0000000 	undefined instruction 0xf0000000
  14:	000003b8 	undefined instruction 0x000003b8
	...
  20:	0000001c 	andeq	r0, r0, ip, lsl r0
  24:	03dc0002 	bicseq	r0, ip, #2
  28:	00040000 	andeq	r0, r4, r0
  2c:	00000000 	andeq	r0, r0, r0
  30:	f00003b8 	undefined instruction 0xf00003b8
  34:	00000048 	andeq	r0, r0, r8, asr #32
	...
  40:	0000001c 	andeq	r0, r0, ip, lsl r0
  44:	04dd0002 	ldrbeq	r0, [sp], #2
  48:	00040000 	andeq	r0, r4, r0
  4c:	00000000 	andeq	r0, r0, r0
  50:	f0000400 	undefined instruction 0xf0000400
  54:	00000124 	andeq	r0, r0, r4, lsr #2
	...
  60:	0000001c 	andeq	r0, r0, ip, lsl r0
  64:	05460002 	strbeq	r0, [r6, #-2]
  68:	00040000 	andeq	r0, r4, r0
  6c:	00000000 	andeq	r0, r0, r0
  70:	f0000524 	undefined instruction 0xf0000524
  74:	00000560 	andeq	r0, r0, r0, ror #10
	...
  80:	0000001c 	andeq	r0, r0, ip, lsl r0
  84:	271f0002 	ldrcs	r0, [pc, -r2]
  88:	00040000 	andeq	r0, r4, r0
  8c:	00000000 	andeq	r0, r0, r0
  90:	f0000a84 	undefined instruction 0xf0000a84
  94:	00000170 	andeq	r0, r0, r0, ror r1
	...
  a0:	0000001c 	andeq	r0, r0, ip, lsl r0
  a4:	2a750002 	bcs	1d400b4 <__standby_start+0x1d400b4>
  a8:	00040000 	andeq	r0, r4, r0
  ac:	00000000 	andeq	r0, r0, r0
  b0:	f0000bf4 	undefined instruction 0xf0000bf4
  b4:	00000020 	andeq	r0, r0, r0, lsr #32
	...
  c0:	0000001c 	andeq	r0, r0, ip, lsl r0
  c4:	2b3d0002 	blcs	f400d4 <__standby_start+0xf400d4>
  c8:	00040000 	andeq	r0, r4, r0
  cc:	00000000 	andeq	r0, r0, r0
  d0:	f0000c14 	undefined instruction 0xf0000c14
  d4:	0000009c 	muleq	r0, ip, r0
	...
  e0:	0000001c 	andeq	r0, r0, ip, lsl r0
  e4:	2cb80002 	ldccs	0, cr0, [r8], #8
  e8:	00040000 	andeq	r0, r4, r0
  ec:	00000000 	andeq	r0, r0, r0
  f0:	f0000cb0 	undefined instruction 0xf0000cb0
  f4:	00000728 	andeq	r0, r0, r8, lsr #14
	...
 100:	0000001c 	andeq	r0, r0, ip, lsl r0
 104:	31180002 	tstcc	r8, r2
 108:	00040000 	andeq	r0, r4, r0
 10c:	00000000 	andeq	r0, r0, r0
 110:	f00013d8 	undefined instruction 0xf00013d8
 114:	000001f4 	strdeq	r0, [r0], -r4
	...
 120:	0000001c 	andeq	r0, r0, ip, lsl r0
 124:	36500002 	ldrbcc	r0, [r0], -r2
 128:	00040000 	andeq	r0, r4, r0
 12c:	00000000 	andeq	r0, r0, r0
 130:	f00015cc 	undefined instruction 0xf00015cc
 134:	00000334 	andeq	r0, r0, r4, lsr r3
	...
 140:	0000001c 	andeq	r0, r0, ip, lsl r0
 144:	39100002 	ldmdbcc	r0, {r1}
 148:	00040000 	andeq	r0, r4, r0
 14c:	00000000 	andeq	r0, r0, r0
 150:	f0001900 	undefined instruction 0xf0001900
 154:	00000020 	andeq	r0, r0, r0, lsr #32
	...
 160:	0000001c 	andeq	r0, r0, ip, lsl r0
 164:	39f70002 	ldmibcc	r7!, {r1}^
 168:	00040000 	andeq	r0, r4, r0
 16c:	00000000 	andeq	r0, r0, r0
 170:	f0001920 	undefined instruction 0xf0001920
 174:	00000034 	andeq	r0, r0, r4, lsr r0
	...
 180:	0000001c 	andeq	r0, r0, ip, lsl r0
 184:	3a680002 	bcc	1a00194 <__standby_start+0x1a00194>
 188:	00040000 	andeq	r0, r4, r0
 18c:	00000000 	andeq	r0, r0, r0
 190:	f0001954 	undefined instruction 0xf0001954
 194:	00000384 	andeq	r0, r0, r4, lsl #7
	...
 1a0:	0000001c 	andeq	r0, r0, ip, lsl r0
 1a4:	402c0002 	eormi	r0, ip, r2
 1a8:	00040000 	andeq	r0, r4, r0
 1ac:	00000000 	andeq	r0, r0, r0
 1b0:	f0001cd8 	undefined instruction 0xf0001cd8
 1b4:	00000458 	andeq	r0, r0, r8, asr r4
	...
 1c0:	0000001c 	andeq	r0, r0, ip, lsl r0
 1c4:	46250002 	strtmi	r0, [r5], -r2
 1c8:	00040000 	andeq	r0, r4, r0
 1cc:	00000000 	andeq	r0, r0, r0
 1d0:	f0002130 	undefined instruction 0xf0002130
 1d4:	00000770 	andeq	r0, r0, r0, ror r7
	...

Disassembly of section .debug_ranges:

00000000 <.debug_ranges>:
   0:	00000138 	andeq	r0, r0, r8, lsr r1
   4:	0000013c 	andeq	r0, r0, ip, lsr r1
   8:	00000144 	andeq	r0, r0, r4, asr #2
   c:	00000334 	andeq	r0, r0, r4, lsr r3
	...
  18:	00000014 	andeq	r0, r0, r4, lsl r0
  1c:	00000024 	andeq	r0, r0, r4, lsr #32
  20:	00000028 	andeq	r0, r0, r8, lsr #32
  24:	00000030 	andeq	r0, r0, r0, lsr r0
	...
  30:	00000014 	andeq	r0, r0, r4, lsl r0
  34:	00000024 	andeq	r0, r0, r4, lsr #32
  38:	00000028 	andeq	r0, r0, r8, lsr #32
  3c:	00000030 	andeq	r0, r0, r0, lsr r0
	...
  48:	000000b0 	strheq	r0, [r0], -r0
  4c:	000000c0 	andeq	r0, r0, r0, asr #1
  50:	000000c4 	andeq	r0, r0, r4, asr #1
  54:	000000d0 	ldrdeq	r0, [r0], -r0
	...
  60:	000000b0 	strheq	r0, [r0], -r0
  64:	000000c0 	andeq	r0, r0, r0, asr #1
  68:	000000c4 	andeq	r0, r0, r4, asr #1
  6c:	000000d0 	ldrdeq	r0, [r0], -r0
	...
  78:	000000f8 	strdeq	r0, [r0], -r8
  7c:	000000fc 	strdeq	r0, [r0], -ip
  80:	0000012c 	andeq	r0, r0, ip, lsr #2
  84:	00000150 	andeq	r0, r0, r0, asr r1
  88:	00000100 	andeq	r0, r0, r0, lsl #2
  8c:	0000011c 	andeq	r0, r0, ip, lsl r1
	...
  98:	000000f8 	strdeq	r0, [r0], -r8
  9c:	000000fc 	strdeq	r0, [r0], -ip
  a0:	0000012c 	andeq	r0, r0, ip, lsr #2
  a4:	00000150 	andeq	r0, r0, r0, asr r1
  a8:	00000100 	andeq	r0, r0, r0, lsl #2
  ac:	0000011c 	andeq	r0, r0, ip, lsl r1
	...
  b8:	00000164 	andeq	r0, r0, r4, ror #2
  bc:	00000168 	andeq	r0, r0, r8, ror #2
  c0:	00000198 	muleq	r0, r8, r1
  c4:	000001c0 	andeq	r0, r0, r0, asr #3
  c8:	0000016c 	andeq	r0, r0, ip, ror #2
  cc:	00000188 	andeq	r0, r0, r8, lsl #3
	...
  d8:	00000164 	andeq	r0, r0, r4, ror #2
  dc:	00000168 	andeq	r0, r0, r8, ror #2
  e0:	00000198 	muleq	r0, r8, r1
  e4:	000001c0 	andeq	r0, r0, r0, asr #3
  e8:	0000016c 	andeq	r0, r0, ip, ror #2
  ec:	00000188 	andeq	r0, r0, r8, lsl #3
	...
  f8:	00000204 	andeq	r0, r0, r4, lsl #4
  fc:	00000224 	andeq	r0, r0, r4, lsr #4
 100:	00000240 	andeq	r0, r0, r0, asr #4
 104:	00000260 	andeq	r0, r0, r0, ror #4
	...
 110:	00000204 	andeq	r0, r0, r4, lsl #4
 114:	00000224 	andeq	r0, r0, r4, lsr #4
 118:	00000240 	andeq	r0, r0, r0, asr #4
 11c:	00000260 	andeq	r0, r0, r0, ror #4
	...
 128:	000001c0 	andeq	r0, r0, r0, asr #3
 12c:	000001c8 	andeq	r0, r0, r8, asr #3
 130:	000001d4 	ldrdeq	r0, [r0], -r4
 134:	000001e0 	andeq	r0, r0, r0, ror #3
 138:	000001cc 	andeq	r0, r0, ip, asr #3
 13c:	000001d0 	ldrdeq	r0, [r0], -r0
	...
 148:	000001c0 	andeq	r0, r0, r0, asr #3
 14c:	000001c8 	andeq	r0, r0, r8, asr #3
 150:	000001d4 	ldrdeq	r0, [r0], -r4
 154:	000001e0 	andeq	r0, r0, r0, ror #3
 158:	000001cc 	andeq	r0, r0, ip, asr #3
 15c:	000001d0 	ldrdeq	r0, [r0], -r0
	...
 168:	0000022c 	andeq	r0, r0, ip, lsr #4
 16c:	00000234 	andeq	r0, r0, r4, lsr r2
 170:	00000240 	andeq	r0, r0, r0, asr #4
 174:	0000024c 	andeq	r0, r0, ip, asr #4
 178:	00000238 	andeq	r0, r0, r8, lsr r2
 17c:	0000023c 	andeq	r0, r0, ip, lsr r2
	...
 188:	0000022c 	andeq	r0, r0, ip, lsr #4
 18c:	00000234 	andeq	r0, r0, r4, lsr r2
 190:	00000240 	andeq	r0, r0, r0, asr #4
 194:	0000024c 	andeq	r0, r0, ip, asr #4
 198:	00000238 	andeq	r0, r0, r8, lsr r2
 19c:	0000023c 	andeq	r0, r0, ip, lsr r2
	...
 1a8:	000002a8 	andeq	r0, r0, r8, lsr #5
 1ac:	000002bc 	undefined instruction 0x000002bc
 1b0:	000002cc 	andeq	r0, r0, ip, asr #5
 1b4:	00000320 	andeq	r0, r0, r0, lsr #6
	...
 1c0:	000002a8 	andeq	r0, r0, r8, lsr #5
 1c4:	000002bc 	undefined instruction 0x000002bc
 1c8:	000002cc 	andeq	r0, r0, ip, asr #5
 1cc:	00000320 	andeq	r0, r0, r0, lsr #6
	...
 1d8:	00000700 	andeq	r0, r0, r0, lsl #14
 1dc:	00000704 	andeq	r0, r0, r4, lsl #14
 1e0:	00000708 	andeq	r0, r0, r8, lsl #14
 1e4:	00000710 	andeq	r0, r0, r0, lsl r7
	...
 1f0:	00000700 	andeq	r0, r0, r0, lsl #14
 1f4:	00000704 	andeq	r0, r0, r4, lsl #14
 1f8:	00000708 	andeq	r0, r0, r8, lsl #14
 1fc:	00000710 	andeq	r0, r0, r0, lsl r7
	...
 208:	00000704 	andeq	r0, r0, r4, lsl #14
 20c:	00000708 	andeq	r0, r0, r8, lsl #14
 210:	00000710 	andeq	r0, r0, r0, lsl r7
 214:	00000738 	andeq	r0, r0, r8, lsr r7
	...
 220:	00000704 	andeq	r0, r0, r4, lsl #14
 224:	00000708 	andeq	r0, r0, r8, lsl #14
 228:	00000710 	andeq	r0, r0, r0, lsl r7
 22c:	00000738 	andeq	r0, r0, r8, lsr r7
	...

Disassembly of section .debug_str:

00000000 <.debug_str>:
       0:	6769726f 	strbvs	r7, [r9, -pc, ror #4]!
       4:	6c6c705f 	stclvs	0, cr7, [ip], #-380	; 0xfffffe84
       8:	63614600 	cmnvs	r1, #0
       c:	4d726f74 	ldclmi	15, cr6, [r2, #-464]!	; 0xfffffe30
      10:	63614600 	cmnvs	r1, #0
      14:	4e726f74 	mrcmi	15, 3, r6, cr2, cr4, {3}
      18:	63614600 	cmnvs	r1, #0
      1c:	50726f74 	rsbspl	r6, r2, r4, ror pc
      20:	75706300 	ldrbvc	r6, [r0, #-768]!	; 0x300
      24:	7669645f 	undefined instruction 0x7669645f
      28:	6c6c7000 	stclvs	0, cr7, [ip]
      2c:	6361665f 	cmnvs	r1, #99614720	; 0x5f00000
      30:	5f726f74 	svcpl	0x00726f74
      34:	4e490074 	mcrmi	0, 2, r0, cr9, cr4, {3}
      38:	4f535f54 	svcmi	0x00535f54
      3c:	45435255 	strbmi	r5, [r3, #-597]	; 0x255
      40:	4253555f 	subsmi	r5, r3, #398458880	; 0x17c00000
      44:	4e490030 	mcrmi	0, 2, r0, cr9, cr0, {1}
      48:	4f535f54 	svcmi	0x00535f54
      4c:	45435255 	strbmi	r5, [r3, #-597]	; 0x255
      50:	4253555f 	subsmi	r5, r3, #398458880	; 0x17c00000
      54:	72640031 	rsbvc	r0, r4, #49	; 0x31
      58:	745f6d61 	ldrbvc	r6, [pc], #3425	; 60 <__standby_start+0x60>
      5c:	696e6172 	stmdbvs	lr!, {r1, r4, r5, r6, r8, sp, lr}^
      60:	615f676e 	cmpvs	pc, lr, ror #14
      64:	5f616572 	svcpl	0x00616572
      68:	6b636162 	blvs	18d85f8 <__standby_start+0x18d85f8>
      6c:	6f697000 	svcvs	0x00697000
      70:	6675625f 	undefined instruction 0x6675625f
      74:	00726566 	rsbseq	r6, r2, r6, ror #10
      78:	5f544e49 	svcpl	0x00544e49
      7c:	52554f53 	subspl	r4, r5, #332	; 0x14c
      80:	555f4543 	ldrbpl	r4, [pc, #-1347]	; fffffb45 <__bss_end+0xfffcf59>
      84:	00344253 	eorseq	r4, r4, r3, asr r2
      88:	656d6974 	strbvs	r6, [sp, #-2420]!	; 0x974
      8c:	66666f5f 	uqsubaddxvs	r6, r6, pc
      90:	544e4900 	strbpl	r4, [lr], #-2304	; 0x900
      94:	554f535f 	strbpl	r5, [pc, #-863]	; fffffd3d <__bss_end+0xfffd151>
      98:	5f454352 	svcpl	0x00454352
      9c:	32425355 	subcc	r5, r2, #1409286145	; 0x54000001
      a0:	544e4900 	strbpl	r4, [lr], #-2304	; 0x900
      a4:	554f535f 	strbpl	r5, [pc, #-863]	; fffffd4d <__bss_end+0xfffd161>
      a8:	5f454352 	svcpl	0x00454352
      ac:	33425355 	movtcc	r5, #9045	; 0x2355
      b0:	625f5f00 	subsvs	r5, pc, #0
      b4:	655f7373 	ldrbvs	r7, [pc, #-883]	; fffffd49 <__bss_end+0xfffd15d>
      b8:	7300646e 	movwvc	r6, #1134	; 0x46e
      bc:	69346e75 	ldmdbvs	r4!, {r0, r2, r4, r5, r6, r9, sl, fp, sp, lr}
      c0:	6b6c635f 	blvs	1b18e44 <__standby_start+0x1b18e44>
      c4:	7669645f 	undefined instruction 0x7669645f
      c8:	6d00745f 	cfstrsvs	mvf7, [r0, #-380]	; 0xfffffe84
      cc:	006e6961 	rsbeq	r6, lr, r1, ror #18
      d0:	5f6f6970 	svcpl	0x006f6970
      d4:	61746164 	cmnvs	r4, r4, ror #2
      d8:	746e635f 	strbtvc	r6, [lr], #-863	; 0x35f
      dc:	69786100 	ldmdbvs	r8!, {r8, sp, lr}^
      e0:	7669645f 	undefined instruction 0x7669645f
      e4:	544e4900 	strbpl	r4, [lr], #-2304	; 0x900
      e8:	554f535f 	strbpl	r5, [pc, #-863]	; fffffd91 <__bss_end+0xfffd1a5>
      ec:	5f454352 	svcpl	0x00454352
      f0:	43554f54 	cmpmi	r5, #336	; 0x150
      f4:	4c4e5048 	mcrrmi	0, 4, r5, lr, cr8
      f8:	746e6900 	strbtvc	r6, [lr], #-2304	; 0x900
      fc:	75727265 	ldrbvc	r7, [r2, #-613]!	; 0x265
     100:	735f7470 	cmpvc	pc, #1879048192	; 0x70000000
     104:	6372756f 	cmnvs	r2, #465567744	; 0x1bc00000
     108:	00655f65 	rsbeq	r5, r5, r5, ror #30
     10c:	45574f50 	ldrbmi	r4, [r7, #-3920]	; 0xf50
     110:	4f565f52 	svcmi	0x00565f52
     114:	43445f4c 	movtmi	r5, #20300	; 0x4f4c
     118:	00314344 	eorseq	r4, r1, r4, asr #6
     11c:	45574f50 	ldrbmi	r4, [r7, #-3920]	; 0xf50
     120:	4f565f52 	svcmi	0x00565f52
     124:	43445f4c 	movtmi	r5, #20300	; 0x4f4c
     128:	00324344 	eorseq	r4, r2, r4, asr #6
     12c:	45574f50 	ldrbmi	r4, [r7, #-3920]	; 0xf50
     130:	4f565f52 	svcmi	0x00565f52
     134:	43445f4c 	movtmi	r5, #20300	; 0x4f4c
     138:	00334344 	eorseq	r4, r3, r4, asr #6
     13c:	33755f5f 	cmncc	r5, #380	; 0x17c
     140:	77740032 	undefined instruction 0x77740032
     144:	6f705f69 	svcvs	0x00705f69
     148:	61007472 	tstvs	r0, r2, ror r4
     14c:	645f6270 	ldrbvs	r6, [pc], #624	; 154 <__standby_start+0x154>
     150:	6c007669 	stcvs	6, cr7, [r0], {105}	; 0x69
     154:	20676e6f 	rsbcs	r6, r7, pc, ror #28
     158:	676e6f6c 	strbvs	r6, [lr, -ip, ror #30]!
     15c:	746e6920 	strbtvc	r6, [lr], #-2336	; 0x920
     160:	62686100 	rsbvs	r6, r8, #0
     164:	7669645f 	undefined instruction 0x7669645f
     168:	73657200 	cmnvc	r5, #0
     16c:	65767265 	ldrbvs	r7, [r6, #-613]!	; 0x265
     170:	77610064 	strbvc	r0, [r1, -r4, rrx]!
     174:	756d705f 	strbvc	r7, [sp, #-95]!	; 0x5f
     178:	6772615f 	undefined instruction 0x6772615f
     17c:	706d7400 	rsbvc	r7, sp, r0, lsl #8
     180:	00727450 	rsbseq	r7, r2, r0, asr r4
     184:	5f706d74 	svcpl	0x00706d74
     188:	5f6b6c63 	svcpl	0x006b6c63
     18c:	00766964 	rsbseq	r6, r6, r4, ror #18
     190:	69736e75 	ldmdbvs	r3!, {r0, r2, r4, r5, r6, r9, sl, fp, sp, lr}^
     194:	64656e67 	strbtvs	r6, [r5], #-3687	; 0xe67
     198:	61686320 	cmnvs	r8, r0, lsr #6
     19c:	5f5f0072 	svcpl	0x005f0072
     1a0:	5f737362 	svcpl	0x00737362
     1a4:	72617473 	rsbvc	r7, r1, #1929379840	; 0x73000000
     1a8:	6f6c0074 	svcvs	0x006c0074
     1ac:	5f6c6163 	svcpl	0x006c6163
     1b0:	006c6c70 	rsbeq	r6, ip, r0, ror ip
     1b4:	726f6873 	rsbvc	r6, pc, #7536640	; 0x730000
     1b8:	6e692074 	mcrvs	0, 3, r2, cr9, cr4, {3}
     1bc:	4f500074 	svcmi	0x00500074
     1c0:	5f524557 	svcpl	0x00524557
     1c4:	5f4c4f56 	svcpl	0x004c4f56
     1c8:	314f444c 	cmpcc	pc, ip, asr #8
     1cc:	574f5000 	strbpl	r5, [pc, -r0]
     1d0:	565f5245 	ldrbpl	r5, [pc], -r5, asr #4
     1d4:	4c5f4c4f 	mrrcmi	12, 4, r4, pc, cr15
     1d8:	00324f44 	eorseq	r4, r2, r4, asr #30
     1dc:	45574f50 	ldrbmi	r4, [r7, #-3920]	; 0xf50
     1e0:	4f565f52 	svcmi	0x00565f52
     1e4:	444c5f4c 	strbmi	r5, [ip], #-3916	; 0xf4c
     1e8:	6900334f 	stmdbvs	r0, {r0, r1, r2, r3, r6, r8, r9, ip, sp}
     1ec:	75625f72 	strbvc	r5, [r2, #-3954]!	; 0xf72
     1f0:	72656666 	rsbvc	r6, r5, #106954752	; 0x6600000
     1f4:	6e6f6c00 	cdpvs	12, 6, cr6, cr15, cr0, {0}
     1f8:	6f6c2067 	svcvs	0x006c2067
     1fc:	7520676e 	strvc	r6, [r0, #-1902]!	; 0x76e
     200:	6769736e 	strbvs	r7, [r9, -lr, ror #6]!
     204:	2064656e 	rsbcs	r6, r4, lr, ror #10
     208:	00746e69 	rsbseq	r6, r4, r9, ror #28
     20c:	5f707861 	svcpl	0x00707861
     210:	6e657665 	cdpvs	6, 6, cr7, cr5, cr5, {3}
     214:	65640074 	strbvs	r0, [r4, #-116]!	; 0x74
     218:	64615f76 	strbtvs	r5, [r1], #-3958	; 0xf76
     21c:	73007264 	movwvc	r7, #612	; 0x264
     220:	61625f70 	smcvs	9712	; 0x25f0
     224:	70756b63 	rsbsvc	r6, r5, r3, ror #22
     228:	5f776100 	svcpl	0x00776100
     22c:	695f6d70 	ldmdbvs	pc, {r4, r5, r6, r8, sl, fp, sp, lr}^
     230:	006f666e 	rsbeq	r6, pc, lr, ror #12
     234:	65776f70 	ldrbvs	r6, [r7, #-3952]!	; 0xf70
     238:	6f765f72 	svcvs	0x00765f72
     23c:	79745f6c 	ldmdbvc	r4!, {r2, r3, r5, r6, r8, r9, sl, fp, ip, lr}^
     240:	655f6570 	ldrbvs	r6, [pc, #-1392]	; fffffcd8 <__bss_end+0xfffd0ec>
     244:	61747300 	cmnvs	r4, r0, lsl #6
     248:	7962646e 	stmdbvc	r2!, {r1, r2, r3, r5, r6, sl, sp, lr}^
     24c:	4900632e 	stmdbmi	r0, {r1, r2, r3, r5, r8, r9, sp, lr}
     250:	535f544e 	cmppl	pc, #1308622848	; 0x4e000000
     254:	4352554f 	cmpmi	r2, #331350016	; 0x13c00000
     258:	58455f45 	stmdapl	r5, {r0, r2, r6, r8, r9, sl, fp, ip, lr}^
     25c:	494d4e54 	stmdbmi	sp, {r2, r4, r6, r9, sl, fp, lr}^
     260:	6f687300 	svcvs	0x00687300
     264:	75207472 	strvc	r7, [r0, #-1138]!	; 0x472
     268:	6769736e 	strbvs	r7, [r9, -lr, ror #6]!
     26c:	2064656e 	rsbcs	r6, r4, lr, ror #10
     270:	00746e69 	rsbseq	r6, r4, r9, ror #28
     274:	6d6f682f 	stclvs	8, cr6, [pc, #-188]!	; 0xffffff44
     278:	696d2f65 	stmdbvs	sp!, {r0, r2, r5, r6, r8, r9, sl, fp, sp}^
     27c:	772f656b 	strvc	r6, [pc, -fp, ror #10]!
     280:	2f6b726f 	svccs	0x006b726f
     284:	756e696c 	strbvc	r6, [lr, #-2412]!	; 0x96c
     288:	32365f78 	eorscc	r5, r6, #480	; 0x1e0
     28c:	72612f34 	rsbvc	r2, r1, #208	; 0xd0
     290:	612f6863 	teqvs	pc, r3, ror #16
     294:	6d2f6d72 	stcvs	13, cr6, [pc, #-456]!	; 0xfffffe38
     298:	2d686361 	stclcs	3, cr6, [r8, #-388]!	; 0xfffffe7c
     29c:	356e7573 	strbcc	r7, [lr, #-1395]!	; 0x573
     2a0:	6d702f69 	ldclvs	15, cr2, [r0, #-420]!	; 0xfffffe5c
     2a4:	6174732f 	cmnvs	r4, pc, lsr #6
     2a8:	7962646e 	stmdbvc	r2!, {r1, r2, r3, r5, r6, sl, sp, lr}^
     2ac:	574f5000 	strbpl	r5, [pc, -r0]
     2b0:	565f5245 	ldrbpl	r5, [pc], -r5, asr #4
     2b4:	4c5f4c4f 	mrrcmi	12, 4, r4, pc, cr15
     2b8:	00344f44 	eorseq	r4, r4, r4, asr #30
     2bc:	5f544e49 	svcpl	0x00544e49
     2c0:	52554f53 	subspl	r4, r5, #332	; 0x14c
     2c4:	4c5f4543 	cfldr64mi	mvdx4, [pc], {67}	; 0x43
     2c8:	43444152 	movtmi	r4, #16722	; 0x4152
     2cc:	755f5f00 	ldrbvc	r5, [pc, #-3840]	; fffff3d4 <__bss_end+0xfffc7e8>
     2d0:	4e490038 	mcrmi	0, 2, r0, cr9, cr8, {1}
     2d4:	4f535f54 	svcmi	0x00535f54
     2d8:	45435255 	strbmi	r5, [r3, #-597]	; 0x255
     2dc:	4f49505f 	svcmi	0x0049505f
     2e0:	544e4900 	strbpl	r4, [lr], #-2304	; 0x900
     2e4:	554f535f 	strbpl	r5, [pc, #-863]	; ffffff8d <__bss_end+0xfffd3a1>
     2e8:	5f454352 	svcpl	0x00454352
     2ec:	454d4954 	strbmi	r4, [sp, #-2388]	; 0x954
     2f0:	49003052 	stmdbmi	r0, {r1, r4, r6, ip, sp}
     2f4:	535f544e 	cmppl	pc, #1308622848	; 0x4e000000
     2f8:	4352554f 	cmpmi	r2, #331350016	; 0x13c00000
     2fc:	49545f45 	ldmdbmi	r4, {r0, r2, r6, r8, r9, sl, fp, ip, lr}^
     300:	3152454d 	cmpcc	r2, sp, asr #10
     304:	544e4900 	strbpl	r4, [lr], #-2304	; 0x900
     308:	554f535f 	strbpl	r5, [pc, #-863]	; ffffffb1 <__bss_end+0xfffd3c5>
     30c:	5f454352 	svcpl	0x00454352
     310:	5059454b 	subspl	r4, r9, fp, asr #10
     314:	61004441 	tstvs	r0, r1, asr #8
     318:	74735f77 	ldrbtvc	r5, [r3], #-3959	; 0xf77
     31c:	62646e61 	rsbvs	r6, r4, #1552	; 0x610
     320:	61705f79 	cmnvs	r0, r9, ror pc
     324:	64006172 	strvs	r6, [r0], #-370	; 0x172
     328:	32636463 	rsbcc	r6, r3, #1660944384	; 0x63000000
     32c:	64636400 	strbtvs	r6, [r3], #-1024	; 0x400
     330:	49003363 	stmdbmi	r0, {r0, r1, r5, r6, r8, r9, ip, sp}
     334:	535f544e 	cmppl	pc, #1308622848	; 0x4e000000
     338:	4352554f 	cmpmi	r2, #331350016	; 0x13c00000
     33c:	52495f45 	subpl	r5, r9, #276	; 0x114
     340:	4e490030 	mcrmi	0, 2, r0, cr9, cr0, {1}
     344:	4f535f54 	svcmi	0x00535f54
     348:	45435255 	strbmi	r5, [r3, #-597]	; 0x255
     34c:	3152495f 	cmpcc	r2, pc, asr r9
     350:	5f726900 	svcpl	0x00726900
     354:	61746164 	cmnvs	r4, r4, ror #2
     358:	746e635f 	strbtvc	r6, [lr], #-863	; 0x35f
     35c:	554e4700 	strbpl	r4, [lr, #-1792]	; 0x700
     360:	34204320 	strtcc	r4, [r0], #-800	; 0x320
     364:	342e342e 	strtcc	r3, [lr], #-1070	; 0x42e
     368:	544e4900 	strbpl	r4, [lr], #-2304	; 0x900
     36c:	554f535f 	strbpl	r5, [pc, #-863]	; 15 <__standby_start+0x15>
     370:	5f454352 	svcpl	0x00454352
     374:	52414c41 	subpl	r4, r1, #16640	; 0x4100
     378:	6146004d 	cmpvs	r6, sp, asr #32
     37c:	726f7463 	rsbvc	r7, pc, #1660944384	; 0x63000000
     380:	6564004b 	strbvs	r0, [r4, #-75]!	; 0x4b
     384:	73007473 	movwvc	r7, #1139	; 0x473
     388:	646e6174 	strbtvs	r6, [lr], #-372	; 0x174
     38c:	6d5f7962 	ldclvs	9, cr7, [pc, #-392]	; 0xfffffe78
     390:	616c6564 	cmnvs	ip, r4, ror #10
     394:	6d740079 	ldclvs	0, cr0, [r4, #-484]!	; 0xfffffe1c
     398:	73645f70 	cmnvc	r4, #448	; 0x1c0
     39c:	70630074 	rsbvc	r0, r3, r4, ror r0
     3a0:	736d5f75 	cmnvc	sp, #468	; 0x1d4
     3a4:	6f6f6c5f 	svcvs	0x006f6c5f
     3a8:	746e6370 	strbtvc	r6, [lr], #-880	; 0x370
     3ac:	61747300 	cmnvs	r4, r0, lsl #6
     3b0:	7962646e 	stmdbvc	r2!, {r1, r2, r3, r5, r6, sl, sp, lr}^
     3b4:	6d656d5f 	stclvs	13, cr6, [r5, #-380]!	; 0xfffffe84
     3b8:	00797063 	rsbseq	r7, r9, r3, rrx
     3bc:	5f706d74 	svcpl	0x00706d74
     3c0:	00637273 	rsbeq	r7, r3, r3, ror r2
     3c4:	6d6d6f63 	stclvs	15, cr6, [sp, #-396]!	; 0xfffffe74
     3c8:	632e6e6f 	teqvs	lr, #1776	; 0x6f0
     3cc:	6c6c5000 	stclvs	0, cr5, [ip]
     3d0:	6e755435 	mrcvs	4, 3, r5, cr5, cr5, {1}
     3d4:	61570065 	cmpvs	r7, r5, rrx
     3d8:	74536576 	ldrbvc	r6, [r3], #-1398	; 0x576
     3dc:	5f007065 	svcpl	0x00007065
     3e0:	6d63635f 	stclvs	3, cr6, [r3, #-380]!	; 0xfffffe84
     3e4:	68615f75 	stmdavs	r1!, {r0, r2, r4, r5, r6, r8, r9, sl, fp, ip, lr}^
     3e8:	6b6c6362 	blvs	1b19178 <__standby_start+0x1b19178>
     3ec:	7461675f 	strbtvc	r6, [r1], #-1887	; 0x75f
     3f0:	725f3065 	subsvc	r3, pc, #101	; 0x65
     3f4:	30306765 	eorscc	r6, r0, r5, ror #14
     3f8:	745f3036 	ldrbvc	r3, [pc], #54	; 400 <__standby_start+0x400>
     3fc:	6c6c5000 	stclvs	0, cr5, [ip]
     400:	6e755435 	mrcvs	4, 3, r5, cr5, cr5, {1}
     404:	56003265 	strpl	r3, [r0], -r5, ror #4
     408:	6b6c4365 	blvs	1b111a4 <__standby_start+0x1b111a4>
     40c:	65765400 	ldrbvs	r5, [r6, #-1024]!	; 0x400
     410:	65736552 	ldrbvs	r6, [r3, #-1362]!	; 0x552
     414:	5f5f0074 	svcpl	0x005f0074
     418:	756d6363 	strbvc	r6, [sp, #-867]!	; 0x363
     41c:	6d64685f 	stclvs	8, cr6, [r4, #-380]!	; 0xfffffe84
     420:	6c635f69 	stclvs	15, cr5, [r3], #-420	; 0xfffffe5c
     424:	65725f6b 	ldrbvs	r5, [r2, #-3947]!	; 0xf6b
     428:	35313067 	ldrcc	r3, [r1, #-103]!	; 0x67
     42c:	00745f30 	rsbseq	r5, r4, r0, lsr pc
     430:	43435f5f 	movtmi	r5, #16223	; 0x3f5f
     434:	415f554d 	cmpmi	pc, sp, asr #10
     438:	4c434248 	sfmmi	f4, 2, [r3], {72}	; (stclmi 2, cr4, [r3], {72})	; 0x48
     43c:	41475f4b 	cmpmi	r7, fp, asr #30
     440:	5f304554 	svcpl	0x00304554
     444:	30474552 	subcc	r4, r7, r2, asr r5
     448:	00303630 	eorseq	r3, r0, r0, lsr r6
     44c:	7375624d 	cmnvc	r5, #-805306364	; 0xd0000004
     450:	006b6c43 	rsbeq	r6, fp, r3, asr #24
     454:	61477354 	cmpvs	r7, r4, asr r3
     458:	53006574 	movwpl	r6, #1396	; 0x574
     45c:	43316970 	teqmi	r1, #1835008	; 0x1c0000
     460:	4c006b6c 	stcmi	11, cr6, [r0], {108}	; 0x6c
     464:	43306463 	teqmi	r0, #1660944384	; 0x63000000
     468:	6c433068 	mcrrvs	0, 6, r3, r3, cr8
     46c:	5f5f006b 	svcpl	0x005f006b
     470:	554d4343 	strbpl	r4, [sp, #-835]	; 0x343
     474:	4c4c505f 	mcrrmi	0, 5, r5, ip, cr15
     478:	55545f32 	ldrbpl	r5, [r4, #-3890]	; 0xf32
     47c:	474e494e 	strbmi	r4, [lr, -lr, asr #18]
     480:	4745525f 	smlsldmi	r5, r5, pc, r2
     484:	43303030 	teqmi	r0, #48	; 0x30
     488:	4f435600 	svcmi	0x00435600
     48c:	6e696147 	powvsem	f6, f1, f7
     490:	006c7443 	rsbeq	r7, ip, r3, asr #8
     494:	6e617473 	mcrvs	4, 3, r7, cr1, cr3, {3}
     498:	5f796264 	svcpl	0x00796264
     49c:	5f6b6c63 	svcpl	0x006b6c63
     4a0:	74697865 	strbtvc	r7, [r9], #-2149	; 0x865
     4a4:	435f5f00 	cmpmi	pc, #0
     4a8:	5f554d43 	svcpl	0x00554d43
     4ac:	45444546 	strbmi	r4, [r4, #-1350]	; 0x546
     4b0:	435f504d 	cmpmi	pc, #77	; 0x4d
     4b4:	5f004b4c 	svcpl	0x00004b4c
     4b8:	4d43435f 	stclmi	3, cr4, [r3, #-380]	; 0xfffffe84
     4bc:	52445f55 	subpl	r5, r4, #340	; 0x154
     4c0:	475f4d41 	ldrbmi	r4, [pc, -r1, asr #26]
     4c4:	5f455441 	svcpl	0x00455441
     4c8:	30474552 	subcc	r4, r7, r2, asr r5
     4cc:	00303031 	eorseq	r3, r0, r1, lsr r0
     4d0:	63635f5f 	cmnvs	r3, #380	; 0x17c
     4d4:	615f756d 	cmpvs	pc, sp, ror #10
     4d8:	5f616464 	svcpl	0x00616464
     4dc:	5f6b6c63 	svcpl	0x006b6c63
     4e0:	30676572 	rsbcc	r6, r7, r2, ror r5
     4e4:	5f303431 	svcpl	0x00303431
     4e8:	5f5f0074 	svcpl	0x005f0074
     4ec:	756d6363 	strbvc	r6, [sp, #-867]!	; 0x363
     4f0:	6172645f 	cmnvs	r2, pc, asr r4
     4f4:	61675f6d 	cmnvs	r7, sp, ror #30
     4f8:	725f6574 	subsvc	r6, pc, #486539264	; 0x1d000000
     4fc:	31306765 	teqcc	r0, r5, ror #14
     500:	745f3030 	ldrbvc	r3, [pc], #48	; 508 <__standby_start+0x508>
     504:	736f5000 	cmnvc	pc, #0
     508:	76694474 	undefined instruction 0x76694474
     50c:	69705300 	ldmdbvs	r0!, {r8, r9, ip, lr}^
     510:	74614730 	strbtvc	r4, [r1], #-1840	; 0x730
     514:	64530065 	ldrbvs	r0, [r3], #-101	; 0x65
     518:	30636d4d 	rsbcc	r6, r3, sp, asr #26
     51c:	006b6c43 	rsbeq	r6, fp, r3, asr #24
     520:	506b6c43 	rsbpl	r6, fp, r3, asr #24
     524:	69446572 	stmdbvs	r4, {r1, r4, r5, r6, r8, sl, sp, lr}^
     528:	43560076 	cmpmi	r6, #118	; 0x76
     52c:	6961474f 	stmdbvs	r1!, {r0, r1, r2, r3, r6, r8, r9, sl, lr}^
     530:	006e456e 	rsbeq	r4, lr, lr, ror #10
     534:	494c4c50 	stmdbmi	ip, {r4, r6, sl, fp, lr}^
     538:	776f506e 	strbvc	r5, [pc, -lr, rrx]!
     53c:	5f007265 	svcpl	0x00007265
     540:	4d43435f 	stclmi	3, cr4, [r3, #-380]	; 0xfffffe84
     544:	564c5f55 	undefined instruction 0x564c5f55
     548:	435f5344 	cmpmi	pc, #268435457	; 0x10000001
     54c:	525f4b4c 	subspl	r4, pc, #77824	; 0x13000
     550:	31304745 	teqcc	r0, r5, asr #14
     554:	50004334 	andpl	r4, r0, r4, lsr r3
     558:	61476f69 	cmpvs	r7, r9, ror #30
     55c:	50006574 	andpl	r6, r0, r4, ror r5
     560:	43346c6c 	teqmi	r4, #27648	; 0x6c00
     564:	73006c74 	movwvc	r6, #3188	; 0xc74
     568:	646e6174 	strbtvs	r6, [lr], #-372	; 0x174
     56c:	635f7962 	cmpvs	pc, #1605632	; 0x188000
     570:	635f6b6c 	cmpvs	pc, #110592	; 0x1b000
     574:	3265726f 	rsbcc	r7, r5, #-268435450	; 0xf0000006
     578:	63736f68 	cmnvs	r3, #416	; 0x1a0
     57c:	635f5f00 	cmpvs	pc, #0
     580:	5f756d63 	svcpl	0x00756d63
     584:	316c6c70 	smccc	50880	; 0xc6c0
     588:	6e75745f 	mrcvs	4, 3, r7, cr5, cr15, {2}
     58c:	32676e69 	rsbcc	r6, r7, #1680	; 0x690
     590:	6765725f 	undefined instruction 0x6765725f
     594:	38333030 	ldmdacc	r3!, {r4, r5, ip, sp}
     598:	5f00745f 	svcpl	0x0000745f
     59c:	4d43435f 	stclmi	3, cr4, [r3, #-380]	; 0xfffffe84
     5a0:	4f4d5f55 	svcmi	0x004d5f55
     5a4:	454c5544 	strbmi	r5, [ip, #-1348]	; 0x544
     5a8:	4c435f31 	mcrrmi	15, 3, r5, r3, cr1
     5ac:	7473004b 	ldrbtvc	r0, [r3], #-75	; 0x4b
     5b0:	62646e61 	rsbvs	r6, r4, #1552	; 0x610
     5b4:	6c635f79 	stclvs	15, cr5, [r3], #-484	; 0xfffffe1c
     5b8:	70615f6b 	rsbvc	r5, r1, fp, ror #30
     5bc:	69786562 	ldmdbvs	r8!, {r1, r5, r6, r8, sl, sp, lr}^
     5c0:	444c0074 	strbmi	r0, [ip], #-116	; 0x74
     5c4:	006e454f 	rsbeq	r4, lr, pc, asr #10
     5c8:	63635f5f 	cmnvs	r3, #380	; 0x17c
     5cc:	705f756d 	subsvc	r7, pc, sp, ror #10
     5d0:	5f366c6c 	svcpl	0x00366c6c
     5d4:	61746173 	cmnvs	r4, r3, ror r1
     5d8:	6765725f 	undefined instruction 0x6765725f
     5dc:	38323030 	ldmdacc	r2!, {r4, r5, ip, sp}
     5e0:	4200745f 	andmi	r7, r0, #1593835520	; 0x5f000000
     5e4:	57646e61 	strbpl	r6, [r4, -r1, ror #28]!
     5e8:	68746469 	ldmdavs	r4!, {r0, r3, r5, r6, sl, sp, lr}^
     5ec:	61747300 	cmnvs	r4, r0, lsl #6
     5f0:	7962646e 	stmdbvc	r2!, {r1, r2, r3, r5, r6, sl, sp, lr}^
     5f4:	6b6c635f 	blvs	1b19378 <__standby_start+0x1b19378>
     5f8:	7465675f 	strbtvc	r6, [r5], #-1887	; 0x75f
     5fc:	6c6c705f 	stclvs	0, cr7, [ip], #-380	; 0xfffffe84
     600:	6361665f 	cmnvs	r1, #99614720	; 0x5f00000
     604:	00726f74 	rsbseq	r6, r2, r4, ror pc
     608:	6c437353 	mcrrvs	3, 5, r7, r3, cr3
     60c:	7355006b 	cmpvc	r5, #107	; 0x6b
     610:	6b6c4362 	blvs	1b113a0 <__standby_start+0x1b113a0>
     614:	635f5f00 	cmpvs	pc, #0
     618:	5f756d63 	svcpl	0x00756d63
     61c:	6364636c 	cmnvs	r4, #-1342177279	; 0xb0000001
     620:	635f3068 	cmpvs	pc, #104	; 0x68
     624:	745f6b6c 	ldrbvc	r6, [pc], #2924	; 62c <__standby_start+0x62c>
     628:	64634c00 	strbtvs	r4, [r3], #-3072	; 0xc00
     62c:	31684330 	cmncc	r8, r0, lsr r3
     630:	006b6c43 	rsbeq	r6, fp, r3, asr #24
     634:	63635f5f 	cmnvs	r3, #380	; 0x17c
     638:	6d5f756d 	cfldr64vs	mvdx7, [pc, #-436]	; 0xfffffe4c
     63c:	5f737562 	svcpl	0x00737562
     640:	5f6b6c63 	svcpl	0x006b6c63
     644:	30676572 	rsbcc	r6, r7, r2, ror r5
     648:	5f633531 	svcpl	0x00633531
     64c:	5f5f0074 	svcpl	0x005f0074
     650:	554d4343 	strbpl	r4, [sp, #-835]	; 0x343
     654:	4d44485f 	stclmi	8, cr4, [r4, #-380]	; 0xfffffe84
     658:	4c435f49 	mcrrmi	15, 4, r5, r3, cr9
     65c:	45525f4b 	ldrbmi	r5, [r2, #-3915]	; 0xf4b
     660:	35313047 	ldrcc	r3, [r1, #-71]!	; 0x47
     664:	65720030 	ldrbvs	r0, [r2, #-48]!	; 0x30
     668:	76726573 	undefined instruction 0x76726573
     66c:	00356465 	eorseq	r6, r5, r5, ror #8
     670:	30627041 	rsbcc	r7, r2, r1, asr #32
     674:	65746147 	ldrbvs	r6, [r4, #-327]!	; 0x147
     678:	73657200 	cmnvc	r5, #0
     67c:	65767265 	ldrbvs	r7, [r6, #-613]!	; 0x265
     680:	53003864 	movwpl	r3, #2148	; 0x864
     684:	43636570 	cmnmi	r3, #469762048	; 0x1c000000
     688:	53316b6c 	teqpl	r1, #110592	; 0x1b000
     68c:	5f006372 	svcpl	0x00006372
     690:	4d43435f 	stclmi	3, cr4, [r3, #-380]	; 0xfffffe84
     694:	4c505f55 	mrrcmi	15, 5, r5, r0, cr5
     698:	445f354c 	ldrbmi	r3, [pc], #1356	; 6a0 <__standby_start+0x6a0>
     69c:	525f5244 	subspl	r5, pc, #1073741828	; 0x40000004
     6a0:	30304745 	eorscc	r4, r0, r5, asr #14
     6a4:	48003032 	stmdami	r0, {r1, r4, r5, ip, sp}
     6a8:	4363736f 	cmnmi	r3, #-1140850687	; 0xbc000001
     6ac:	5f006c74 	svcpl	0x00006c74
     6b0:	6d63635f 	stclvs	3, cr6, [r3, #-380]!	; 0xfffffe84
     6b4:	6c705f75 	ldclvs	15, cr5, [r0], #-468	; 0xfffffe2c
     6b8:	745f316c 	ldrbvc	r3, [pc], #364	; 6c0 <__standby_start+0x6c0>
     6bc:	6e696e75 	mcrvs	14, 3, r6, cr9, cr5, {3}
     6c0:	65725f67 	ldrbvs	r5, [r2, #-3943]!	; 0xf67
     6c4:	30303067 	eorscc	r3, r0, r7, rrx
     6c8:	00745f34 	rsbseq	r5, r4, r4, lsr pc
     6cc:	43435f5f 	movtmi	r5, #16223	; 0x3f5f
     6d0:	505f554d 	subspl	r5, pc, sp, asr #10
     6d4:	5f344c4c 	svcpl	0x00344c4c
     6d8:	525f4556 	subspl	r4, pc, #360710144	; 0x15800000
     6dc:	30304745 	eorscc	r4, r0, r5, asr #14
     6e0:	5f003831 	svcpl	0x00003831
     6e4:	6d63635f 	stclvs	3, cr6, [r3, #-380]!	; 0xfffffe84
     6e8:	70615f75 	rsbvc	r5, r1, r5, ror pc
     6ec:	6c633162 	stfvse	f3, [r3], #-392	; 0xfffffe78
     6f0:	61725f6b 	cmnvs	r2, fp, ror #30
     6f4:	5f6f6974 	svcpl	0x006f6974
     6f8:	30676572 	rsbcc	r6, r7, r2, ror r5
     6fc:	5f383530 	svcpl	0x00383530
     700:	74730074 	ldrbtvc	r0, [r3], #-116	; 0x74
     704:	62646e61 	rsbvs	r6, r4, #1552	; 0x610
     708:	6c635f79 	stclvs	15, cr5, [r3], #-484	; 0xfffffe1c
     70c:	6f685f6b 	svcvs	0x00685f6b
     710:	69646373 	stmdbvs	r4!, {r0, r1, r4, r5, r6, r8, r9, sp, lr}^
     714:	6c626173 	stfvse	f6, [r2], #-460	; 0xfffffe34
     718:	444c0065 	strbmi	r0, [ip], #-101	; 0x65
     71c:	74754f4f 	ldrbtvc	r4, [r5], #-3919	; 0xf4f
     720:	00747570 	rsbseq	r7, r4, r0, ror r5
     724:	63635f5f 	cmnvs	r3, #380	; 0x17c
     728:	755f756d 	ldrbvc	r7, [pc, #-1389]	; 1c3 <__standby_start+0x1c3>
     72c:	635f6273 	cmpvs	pc, #805306375	; 0x30000007
     730:	725f6b6c 	subsvc	r6, pc, #110592	; 0x1b000
     734:	30306765 	eorscc	r6, r0, r5, ror #14
     738:	745f6363 	ldrbvc	r6, [pc], #867	; 740 <__standby_start+0x740>
     73c:	47734d00 	ldrbmi	r4, [r3, -r0, lsl #26]!
     740:	00657461 	rsbeq	r7, r5, r1, ror #8
     744:	31627041 	cmncc	r2, r1, asr #32
     748:	65746147 	ldrbvs	r6, [r4, #-327]!	; 0x147
     74c:	435f5f00 	cmpmi	pc, #0
     750:	5f554d43 	svcpl	0x00554d43
     754:	364c4c50 	undefined instruction 0x364c4c50
     758:	5441535f 	strbpl	r5, [r1], #-863	; 0x35f
     75c:	45525f41 	ldrbmi	r5, [r2, #-3905]	; 0xf41
     760:	32303047 	eorscc	r3, r0, #71	; 0x47
     764:	61550038 	cmpvs	r5, r8, lsr r0
     768:	47327472 	undefined instruction 0x47327472
     76c:	00657461 	rsbeq	r7, r5, r1, ror #8
     770:	6c43734d 	mcrrvs	3, 4, r7, r3, cr13
     774:	5f5f006b 	svcpl	0x005f006b
     778:	756d6363 	strbvc	r6, [sp, #-867]!	; 0x363
     77c:	646f6d5f 	strbtvs	r6, [pc], #3423	; 784 <__standby_start+0x784>
     780:	31656c75 	smccc	22213	; 0x56c5
     784:	6b6c635f 	blvs	1b19508 <__standby_start+0x1b19508>
     788:	5f00745f 	svcpl	0x0000745f
     78c:	6d63635f 	stclvs	3, cr6, [r3, #-380]!	; 0xfffffe84
     790:	736f5f75 	cmnvc	pc, #468	; 0x1d4
     794:	6d343263 	lfmvs	f3, 4, [r4, #-396]!	; (ldcvs 2, cr3, [r4, #-396]!)	; 0xfffffe74
     798:	6765725f 	undefined instruction 0x6765725f
     79c:	30353030 	eorscc	r3, r5, r0, lsr r0
     7a0:	5300745f 	movwpl	r7, #1119	; 0x45f
     7a4:	636d4d64 	cmnvs	sp, #6400	; 0x1900
     7a8:	6b6c4332 	blvs	1b11478 <__standby_start+0x1b11478>
     7ac:	435f5f00 	cmpmi	pc, #0
     7b0:	5f554d43 	svcpl	0x00554d43
     7b4:	5355424d 	cmppl	r5, #-805306364	; 0xd0000004
     7b8:	4b4c435f 	blmi	131153c <__standby_start+0x131153c>
     7bc:	4745525f 	smlsldmi	r5, r5, pc, r2
     7c0:	43353130 	teqmi	r5, #12
     7c4:	64634c00 	strbtvs	r4, [r3], #-3072	; 0xc00
     7c8:	74614730 	strbtvc	r4, [r1], #-1840	; 0x730
     7cc:	69440065 	stmdbvs	r4, {r0, r2, r5, r6}^
     7d0:	55004d76 	strpl	r4, [r0, #-3446]	; 0xd76
     7d4:	47306273 	undefined instruction 0x47306273
     7d8:	00657461 	rsbeq	r7, r5, r1, ror #8
     7dc:	63635f5f 	cmnvs	r3, #380	; 0x17c
     7e0:	705f756d 	subsvc	r7, pc, sp, ror #10
     7e4:	5f356c6c 	svcpl	0x00356c6c
     7e8:	5f726464 	svcpl	0x00726464
     7ec:	30676572 	rsbcc	r6, r7, r2, ror r5
     7f0:	5f303230 	svcpl	0x00303230
     7f4:	5f5f0074 	svcpl	0x005f0074
     7f8:	756d6363 	strbvc	r6, [sp, #-867]!	; 0x363
     7fc:	6c6c705f 	stclvs	0, cr7, [ip], #-380	; 0xfffffe84
     800:	75615f32 	strbvc	r5, [r1, #-3890]!	; 0xf32
     804:	5f6f6964 	svcpl	0x006f6964
     808:	30676572 	rsbcc	r6, r7, r2, ror r5
     80c:	5f383030 	svcpl	0x00383030
     810:	5f5f0074 	svcpl	0x005f0074
     814:	554d4343 	strbpl	r4, [sp, #-835]	; 0x343
     818:	5356415f 	cmppl	r6, #-1073741801	; 0xc0000017
     81c:	4b4c435f 	blmi	13115a0 <__standby_start+0x13115a0>
     820:	4745525f 	smlsldmi	r5, r5, pc, r2
     824:	34343130 	ldrtcc	r3, [r4], #-304	; 0x130
     828:	65724600 	ldrbvs	r4, [r2, #-1536]!	; 0x600
     82c:	646f4d71 	strbtvs	r4, [pc], #3441	; 834 <__standby_start+0x834>
     830:	4c500065 	mrrcmi	0, 6, r0, r0, cr5
     834:	7669444c 	strbtvc	r4, [r9], -ip, asr #8
     838:	77540050 	undefined instruction 0x77540050
     83c:	61473069 	cmpvs	r7, r9, rrx
     840:	50006574 	andpl	r6, r0, r4, ror r5
     844:	54316c6c 	ldrtpl	r6, [r1], #-3180	; 0xc6c
     848:	00656e75 	rsbeq	r6, r5, r5, ror lr
     84c:	5f756363 	svcpl	0x00756363
     850:	5f676572 	svcpl	0x00676572
     854:	6b636162 	blvs	18d8de4 <__standby_start+0x18d8de4>
     858:	435f5f00 	cmpmi	pc, #0
     85c:	5f554d43 	svcpl	0x00554d43
     860:	43424841 	movtmi	r4, #10305	; 0x2841
     864:	475f4b4c 	ldrbmi	r4, [pc, -ip, asr #22]
     868:	31455441 	cmpcc	r5, r1, asr #8
     86c:	4745525f 	smlsldmi	r5, r5, pc, r2
     870:	34363030 	ldrtcc	r3, [r6], #-48	; 0x30
     874:	69705300 	ldmdbvs	r0!, {r8, r9, ip, lr}^
     878:	74614731 	strbtvc	r4, [r1], #-1841	; 0x731
     87c:	69420065 	stmdbvs	r2, {r0, r2, r5, r6}^
     880:	61477473 	cmpvs	r7, r3, ror r4
     884:	5f006574 	svcpl	0x00006574
     888:	6d63635f 	stclvs	3, cr6, [r3, #-380]!	; 0xfffffe84
     88c:	73635f75 	cmnvc	r3, #468	; 0x1d4
     890:	6c635f69 	stclvs	15, cr5, [r3], #-420	; 0xfffffe5c
     894:	00745f6b 	rsbseq	r5, r4, fp, ror #30
     898:	43424841 	movtmi	r4, #10305	; 0x2841
     89c:	69446b6c 	stmdbvs	r4, {r2, r3, r5, r6, r8, r9, fp, sp, lr}^
     8a0:	64530076 	ldrbvs	r0, [r3], #-118	; 0x76
     8a4:	30636d6d 	rsbcc	r6, r3, sp, ror #26
     8a8:	65746147 	ldrbvs	r6, [r4, #-327]!	; 0x147
     8ac:	635f5f00 	cmpvs	pc, #0
     8b0:	5f756d63 	svcpl	0x00756d63
     8b4:	63626861 	cmnvs	r2, #6356992	; 0x610000
     8b8:	675f6b6c 	ldrbvs	r6, [pc, -ip, ror #22]
     8bc:	31657461 	cmncc	r5, r1, ror #8
     8c0:	6765725f 	undefined instruction 0x6765725f
     8c4:	34363030 	ldrtcc	r3, [r6], #-48	; 0x30
     8c8:	5f00745f 	svcpl	0x0000745f
     8cc:	6d63635f 	stclvs	3, cr6, [r3, #-380]!	; 0xfffffe84
     8d0:	616d5f75 	smcvs	54773	; 0xd5f5
     8d4:	3034696c 	eorscc	r6, r4, ip, ror #18
     8d8:	6c635f30 	stclvs	15, cr5, [r3], #-192	; 0xffffff40
     8dc:	65725f6b 	ldrbvs	r5, [r2, #-3947]!	; 0xf6b
     8e0:	35313067 	ldrcc	r3, [r1, #-103]!	; 0x67
     8e4:	00745f34 	rsbseq	r5, r4, r4, lsr pc
     8e8:	30697343 	rsbcc	r7, r9, r3, asr #6
     8ec:	006b6c43 	rsbeq	r6, fp, r3, asr #24
     8f0:	6e617473 	mcrvs	4, 3, r7, cr1, cr3, {3}
     8f4:	5f796264 	svcpl	0x00796264
     8f8:	5f6b6c63 	svcpl	0x006b6c63
     8fc:	6d617264 	sfmvs	f7, 2, [r1, #-400]!	; (stclvs 2, cr7, [r1, #-400]!)	; 0xfffffe70
     900:	69746167 	ldmdbvs	r4!, {r0, r1, r2, r5, r6, r8, sp, lr}^
     904:	5600676e 	strpl	r6, [r0], -lr, ror #14
     908:	4f676572 	svcmi	0x00676572
     90c:	6e457475 	mcrvs	4, 2, r7, cr5, cr5, {3}
     910:	61747300 	cmnvs	r4, r0, lsl #6
     914:	7962646e 	stmdbvc	r2!, {r1, r2, r3, r5, r6, sl, sp, lr}^
     918:	6b6c635f 	blvs	1b1969c <__standby_start+0x1b1969c>
     91c:	726f635f 	rsbvc	r6, pc, #2080374785	; 0x7c000001
     920:	6c703265 	lfmvs	f3, 2, [r0], #-404	; (ldclvs 2, cr3, [r0], #-404)	; 0xfffffe6c
     924:	5f5f006c 	svcpl	0x005f006c
     928:	756d6363 	strbvc	r6, [sp, #-867]!	; 0x363
     92c:	7370675f 	cmnvc	r0, #24903680	; 0x17c0000
     930:	6b6c635f 	blvs	1b196b4 <__standby_start+0x1b196b4>
     934:	6765725f 	undefined instruction 0x6765725f
     938:	30643030 	rsbcc	r3, r4, r0, lsr r0
     93c:	4100745f 	tstmi	r0, pc, asr r4
     940:	61476268 	cmpvs	r7, r8, ror #4
     944:	00306574 	eorseq	r6, r0, r4, ror r5
     948:	47626841 	strbmi	r6, [r2, -r1, asr #16]!
     94c:	31657461 	cmncc	r5, r1, ror #8
     950:	73324900 	teqvc	r2, #0
     954:	006b6c43 	rsbeq	r6, fp, r3, asr #24
     958:	43435f5f 	movtmi	r5, #16223	; 0x3f5f
     95c:	435f554d 	cmpmi	pc, #322961408	; 0x13400000
     960:	435f4953 	cmpmi	pc, #1359872	; 0x14c000
     964:	5f004b4c 	svcpl	0x00004b4c
     968:	6d63635f 	stclvs	3, cr6, [r3, #-380]!	; 0xfffffe84
     96c:	656b5f75 	strbvs	r5, [fp, #-3957]!	; 0xf75
     970:	64617079 	strbtvs	r7, [r1], #-121	; 0x79
     974:	6b6c635f 	blvs	1b196f8 <__standby_start+0x1b196f8>
     978:	6765725f 	undefined instruction 0x6765725f
     97c:	34633030 	strbtcc	r3, [r3], #-48	; 0x30
     980:	5000745f 	andpl	r7, r0, pc, asr r4
     984:	43316c6c 	teqmi	r1, #27648	; 0x6c00
     988:	44006c74 	strmi	r6, [r0], #-3188	; 0xc74
     98c:	46706d61 	ldrbtmi	r6, [r0], -r1, ror #26
     990:	6f746361 	svcvs	0x00746361
     994:	654b0072 	strbvs	r0, [fp, #-114]	; 0x72
     998:	64617079 	strbtvs	r7, [r1], #-121	; 0x79
     99c:	65746147 	ldrbvs	r6, [r4, #-327]!	; 0x147
     9a0:	69705300 	ldmdbvs	r0!, {r8, r9, ip, lr}^
     9a4:	74614732 	strbtvc	r4, [r1], #-1842	; 0x732
     9a8:	65440065 	strbvs	r0, [r4, #-101]	; 0x65
     9ac:	43306546 	teqmi	r0, #293601280	; 0x11800000
     9b0:	50006b6c 	andpl	r6, r0, ip, ror #22
     9b4:	77536c6c 	ldrbvc	r6, [r3, -ip, ror #24]
     9b8:	68637469 	stmdavs	r3!, {r0, r3, r5, r6, sl, ip, sp, lr}^
     9bc:	65765400 	ldrbvs	r5, [r6, #-1024]!	; 0x400
     9c0:	74614730 	strbtvc	r4, [r1], #-1840	; 0x730
     9c4:	74730065 	ldrbtvc	r0, [r3], #-101	; 0x65
     9c8:	62646e61 	rsbvs	r6, r4, #1552	; 0x610
     9cc:	6c635f79 	stclvs	15, cr5, [r3], #-484	; 0xfffffe1c
     9d0:	6e695f6b 	cdpvs	15, 6, cr5, cr9, cr11, {3}
     9d4:	5f007469 	svcpl	0x00007469
     9d8:	6d63635f 	stclvs	3, cr6, [r3, #-380]!	; 0xfffffe84
     9dc:	6c705f75 	ldclvs	15, cr5, [r0], #-468	; 0xfffffe2c
     9e0:	635f316c 	cmpvs	pc, #27
     9e4:	5f65726f 	svcpl	0x0065726f
     9e8:	30676572 	rsbcc	r6, r7, r2, ror r5
     9ec:	5f303030 	svcpl	0x00303030
     9f0:	70530074 	subsvc	r0, r3, r4, ror r0
     9f4:	6c436365 	mcrrvs	3, 6, r6, r3, cr5
     9f8:	6147326b 	cmpvs	r7, fp, ror #4
     9fc:	49006574 	stmdbmi	r0, {r2, r4, r5, r6, r8, sl, sp, lr}
     a00:	6c433072 	mcrrvs	0, 7, r3, r3, cr2
     a04:	7041006b 	subvc	r0, r1, fp, rrx
     a08:	6c433162 	stfvse	f3, [r3], {98}	; 0x62
     a0c:	7669446b 	strbtvc	r4, [r9], -fp, ror #8
     a10:	61747300 	cmnvs	r4, r0, lsl #6
     a14:	7962646e 	stmdbvc	r2!, {r1, r2, r3, r5, r6, sl, sp, lr}^
     a18:	6b6c635f 	blvs	1b1979c <__standby_start+0x1b1979c>
     a1c:	6f646c5f 	svcvs	0x00646c5f
     a20:	62616e65 	rsbvs	r6, r1, #1616	; 0x650
     a24:	4d00656c 	cfstr32mi	mvfx6, [r0, #-432]	; 0xfffffe50
     a28:	47696c61 	strbmi	r6, [r9, -r1, ror #24]!
     a2c:	00657461 	rsbeq	r7, r5, r1, ror #8
     a30:	43435f5f 	movtmi	r5, #16223	; 0x3f5f
     a34:	4d5f554d 	cfldr64mi	mvdx5, [pc, #-308]	; 0xfffffecc
     a38:	34494c41 	strbcc	r4, [r9], #-3137	; 0xc41
     a3c:	435f3030 	cmpmi	pc, #48	; 0x30
     a40:	525f4b4c 	subspl	r4, pc, #77824	; 0x13000
     a44:	31304745 	teqcc	r0, r5, asr #14
     a48:	73003435 	movwvc	r3, #1077	; 0x435
     a4c:	646e6174 	strbtvs	r6, [lr], #-372	; 0x174
     a50:	635f7962 	cmpvs	pc, #1605632	; 0x188000
     a54:	635f6b6c 	cmpvs	pc, #110592	; 0x1b000
     a58:	3265726f 	rsbcc	r7, r5, #-268435450	; 0xf0000006
     a5c:	63736f6c 	cmnvs	r3, #432	; 0x1b0
     a60:	73657200 	cmnvc	r5, #0
     a64:	65767265 	ldrbvs	r7, [r6, #-613]!	; 0x265
     a68:	00313164 	eorseq	r3, r1, r4, ror #2
     a6c:	65736572 	ldrbvs	r6, [r3, #-1394]!	; 0x572
     a70:	64657672 	strbtvs	r7, [r5], #-1650	; 0x672
     a74:	72003231 	andvc	r3, r0, #268435459	; 0x10000003
     a78:	72657365 	rsbvc	r7, r5, #-1811939327	; 0x94000001
     a7c:	31646576 	smccc	18006	; 0x4656
     a80:	5f5f0033 	svcpl	0x005f0033
     a84:	554d4343 	strbpl	r4, [sp, #-835]	; 0x343
     a88:	4253555f 	subsmi	r5, r3, #398458880	; 0x17c00000
     a8c:	4b4c435f 	blmi	1311810 <__standby_start+0x1311810>
     a90:	4745525f 	smlsldmi	r5, r5, pc, r2
     a94:	43433030 	movtmi	r3, #12336	; 0x3030
     a98:	73657200 	cmnvc	r5, #0
     a9c:	65767265 	ldrbvs	r7, [r6, #-613]!	; 0x265
     aa0:	00353164 	eorseq	r3, r5, r4, ror #2
     aa4:	65736572 	ldrbvs	r6, [r3, #-1394]!	; 0x572
     aa8:	64657672 	strbtvs	r7, [r5], #-1650	; 0x672
     aac:	72003631 	andvc	r3, r0, #51380224	; 0x3100000
     ab0:	72657365 	rsbvc	r7, r5, #-1811939327	; 0x94000001
     ab4:	31646576 	smccc	18006	; 0x4656
     ab8:	65720037 	ldrbvs	r0, [r2, #-55]!	; 0x37
     abc:	76726573 	undefined instruction 0x76726573
     ac0:	38316465 	ldmdacc	r1!, {r0, r2, r5, r6, sl, sp, lr}
     ac4:	73657200 	cmnvc	r5, #0
     ac8:	65767265 	ldrbvs	r7, [r6, #-613]!	; 0x265
     acc:	00393164 	eorseq	r3, r9, r4, ror #2
     ad0:	6d676953 	stclvs	9, cr6, [r7, #-332]!	; 0xfffffeb4
     ad4:	006e4561 	rsbeq	r4, lr, r1, ror #10
     ad8:	53796850 	cmnpl	r9, #5242880	; 0x500000
     adc:	43636570 	cmnmi	r3, #469762048	; 0x1c000000
     ae0:	61476b6c 	cmpvs	r7, ip, ror #22
     ae4:	53006574 	movwpl	r6, #1396	; 0x574
     ae8:	66696470 	undefined instruction 0x66696470
     aec:	65746147 	ldrbvs	r6, [r4, #-327]!	; 0x147
     af0:	76615700 	strbtvc	r5, [r1], -r0, lsl #14
     af4:	746f4265 	strbtvc	r4, [pc], #613	; afc <__standby_start+0xafc>
     af8:	006d6f74 	rsbeq	r6, sp, r4, ror pc
     afc:	6e617473 	mcrvs	4, 3, r7, cr1, cr3, {3}
     b00:	5f796264 	svcpl	0x00796264
     b04:	5f6b6c63 	svcpl	0x006b6c63
     b08:	69627061 	stmdbvs	r2!, {r0, r5, r6, ip, sp, lr}^
     b0c:	0074696e 	rsbseq	r6, r4, lr, ror #18
     b10:	30697053 	rsbcc	r7, r9, r3, asr r0
     b14:	006b6c43 	rsbeq	r6, fp, r3, asr #24
     b18:	43435f5f 	movtmi	r5, #16223	; 0x3f5f
     b1c:	4d5f554d 	cfldr64mi	mvdx5, [pc, #-308]	; 0xfffffecc
     b20:	4c55444f 	cfldrdmi	mvd4, [r5], {79}	; 0x4f
     b24:	435f3045 	cmpmi	pc, #69	; 0x45
     b28:	49004b4c 	stmdbmi	r0, {r2, r3, r6, r8, r9, fp, lr}
     b2c:	61477065 	cmpvs	r7, r5, rrx
     b30:	73006574 	movwvc	r6, #1396	; 0x574
     b34:	646e6174 	strbtvs	r6, [lr], #-372	; 0x174
     b38:	635f7962 	cmpvs	pc, #1605632	; 0x188000
     b3c:	615f6b6c 	cmpvs	pc, ip, ror #22
     b40:	68326270 	ldmdavs	r2!, {r4, r5, r6, r9, sp, lr}
     b44:	0063736f 	rsbeq	r7, r3, pc, ror #6
     b48:	63635f5f 	cmnvs	r3, #380	; 0x17c
     b4c:	695f756d 	ldmdbvs	pc, {r0, r2, r3, r5, r6, r8, sl, ip, sp, lr}^
     b50:	635f7065 	cmpvs	pc, #101	; 0x65
     b54:	725f6b6c 	subsvc	r6, pc, #110592	; 0x1b000
     b58:	31306765 	teqcc	r0, r5, ror #14
     b5c:	745f3036 	ldrbvc	r3, [pc], #54	; b64 <__standby_start+0xb64>
     b60:	61747300 	cmnvs	r4, r0, lsl #6
     b64:	7962646e 	stmdbvc	r2!, {r1, r2, r3, r5, r6, sl, sp, lr}^
     b68:	6f6c635f 	svcvs	0x006c635f
     b6c:	632e6b63 	teqvs	lr, #101376	; 0x18c00
     b70:	73657200 	cmnvc	r5, #0
     b74:	65767265 	ldrbvs	r7, [r6, #-613]!	; 0x265
     b78:	00303264 	eorseq	r3, r0, r4, ror #4
     b7c:	65736572 	ldrbvs	r6, [r3, #-1394]!	; 0x572
     b80:	64657672 	strbtvs	r7, [r5], #-1650	; 0x672
     b84:	73003132 	movwvc	r3, #306	; 0x132
     b88:	646e6174 	strbtvs	r6, [lr], #-372	; 0x174
     b8c:	635f7962 	cmpvs	pc, #1605632	; 0x188000
     b90:	6c5f6b6c 	mrrcvs	11, 6, r6, pc, cr12
     b94:	69646f64 	stmdbvs	r4!, {r2, r5, r6, r8, r9, sl, fp, sp, lr}^
     b98:	6c626173 	stfvse	f6, [r2], #-460	; 0xfffffe34
     b9c:	65560065 	ldrbvs	r0, [r6, #-101]	; 0x65
     ba0:	65746147 	ldrbvs	r6, [r4, #-327]!	; 0x147
     ba4:	6d644800 	stclvs	8, cr4, [r4]
     ba8:	6b6c4369 	blvs	1b11954 <__standby_start+0x1b11954>
     bac:	4c4c5000 	marmi	acc0, r5, ip
     bb0:	61707942 	cmnvs	r0, r2, asr #18
     bb4:	72007373 	andvc	r7, r0, #-872415231	; 0xcc000001
     bb8:	72657365 	rsbvc	r7, r5, #-1811939327	; 0x94000001
     bbc:	31646576 	smccc	18006	; 0x4656
     bc0:	72460034 	subvc	r0, r6, #52	; 0x34
     bc4:	65536361 	ldrbvs	r6, [r3, #-865]	; 0x361
     bc8:	5f5f0074 	svcpl	0x005f0074
     bcc:	756d6363 	strbvc	r6, [sp, #-867]!	; 0x363
     bd0:	6270615f 	rsbsvs	r6, r0, #-1073741801	; 0xc0000017
     bd4:	6b6c6331 	blvs	1b198a0 <__standby_start+0x1b198a0>
     bd8:	7461675f 	strbtvc	r6, [r1], #-1887	; 0x75f
     bdc:	65725f65 	ldrbvs	r5, [r2, #-3941]!	; 0xf65
     be0:	36303067 	ldrtcc	r3, [r0], -r7, rrx
     be4:	00745f63 	rsbseq	r5, r4, r3, ror #30
     be8:	7364764c 	cmnvc	r4, #79691776	; 0x4c00000
     bec:	006b6c43 	rsbeq	r6, fp, r3, asr #24
     bf0:	524f4356 	subpl	r4, pc, #1476395009	; 0x58000001
     bf4:	6e497473 	mcrvs	4, 2, r7, cr9, cr3, {3}
     bf8:	435f5f00 	cmpmi	pc, #0
     bfc:	5f554d43 	svcpl	0x00554d43
     c00:	43495841 	movtmi	r5, #38977	; 0x9841
     c04:	475f4b4c 	ldrbmi	r4, [pc, -ip, asr #22]
     c08:	5f455441 	svcpl	0x00455441
     c0c:	30474552 	subcc	r4, r7, r2, asr r5
     c10:	00633530 	rsbeq	r3, r3, r0, lsr r5
     c14:	43737953 	cmnmi	r3, #1359872	; 0x14c000
     c18:	69446b6c 	stmdbvs	r4, {r2, r3, r5, r6, r8, r9, fp, sp, lr}^
     c1c:	74730076 	ldrbtvc	r0, [r3], #-118	; 0x76
     c20:	62646e61 	rsbvs	r6, r4, #1552	; 0x610
     c24:	6c635f79 	stclvs	15, cr5, [r3], #-484	; 0xfffffe1c
     c28:	6c705f6b 	ldclvs	15, cr5, [r0], #-428	; 0xfffffe54
     c2c:	7369646c 	cmnvc	r9, #1811939328	; 0x6c000000
     c30:	656c6261 	strbvs	r6, [ip, #-609]!	; 0x261
     c34:	62706100 	rsbsvs	r6, r0, #0
     c38:	626b6c63 	rsbvs	r6, fp, #25344	; 0x6300
     c3c:	6f006b61 	svcvs	0x00006b61
     c40:	66666f6e 	strbtvs	r6, [r6], -lr, ror #30
     c44:	4c4c5000 	marmi	acc0, r5, ip
     c48:	73616942 	cmnvc	r1, #1081344	; 0x108000
     c4c:	5f006e45 	svcpl	0x00006e45
     c50:	4d43435f 	stclmi	3, cr4, [r3, #-380]	; 0xfffffe84
     c54:	4c505f55 	mrrcmi	15, 5, r5, r0, cr5
     c58:	415f324c 	cmpmi	pc, ip, asr #4
     c5c:	4f494455 	svcmi	0x00494455
     c60:	4745525f 	smlsldmi	r5, r5, pc, r2
     c64:	38303030 	ldmdacc	r0!, {r4, r5, ip, sp}
     c68:	435f5f00 	cmpmi	pc, #0
     c6c:	5f554d43 	svcpl	0x00554d43
     c70:	4344434c 	movtmi	r4, #17228	; 0x434c
     c74:	435f3148 	cmpmi	pc, #18
     c78:	5f004b4c 	svcpl	0x00004b4c
     c7c:	6d63635f 	stclvs	3, cr6, [r3, #-380]!	; 0xfffffe84
     c80:	6c705f75 	ldclvs	15, cr5, [r0], #-468	; 0xfffffe2c
     c84:	745f356c 	ldrbvc	r3, [pc], #1388	; c8c <__standby_start+0xc8c>
     c88:	6e696e75 	mcrvs	14, 3, r6, cr9, cr5, {3}
     c8c:	65725f67 	ldrbvs	r5, [r2, #-3943]!	; 0xf67
     c90:	32303067 	eorscc	r3, r0, #103	; 0x67
     c94:	00745f34 	rsbseq	r5, r4, r4, lsr pc
     c98:	435f5f5f 	cmpmi	pc, #380	; 0x17c
     c9c:	5f554d43 	svcpl	0x00554d43
     ca0:	314c4c50 	cmpcc	ip, r0, asr ip
     ca4:	524f435f 	subpl	r4, pc, #2080374785	; 0x7c000001
     ca8:	45525f45 	ldrbmi	r5, [r2, #-3909]	; 0xf45
     cac:	30303047 	eorscc	r3, r0, r7, asr #32
     cb0:	61550030 	cmpvs	r5, r0, lsr r0
     cb4:	47317472 	undefined instruction 0x47317472
     cb8:	00657461 	rsbeq	r7, r5, r1, ror #8
     cbc:	43737047 	cmnmi	r3, #71	; 0x47
     cc0:	5f006b6c 	svcpl	0x00006b6c
     cc4:	4d43435f 	stclmi	3, cr4, [r3, #-380]	; 0xfffffe84
     cc8:	44415f55 	strbmi	r5, [r1], #-3925	; 0xf55
     ccc:	435f4144 	cmpmi	pc, #17
     cd0:	525f4b4c 	subspl	r4, pc, #77824	; 0x13000
     cd4:	31304745 	teqcc	r0, r5, asr #14
     cd8:	53003034 	movwpl	r3, #52	; 0x34
     cdc:	66696470 	undefined instruction 0x66696470
     ce0:	006b6c43 	rsbeq	r6, fp, r3, asr #24
     ce4:	63635f5f 	cmnvs	r3, #380	; 0x17c
     ce8:	705f756d 	subsvc	r7, pc, sp, ror #10
     cec:	5f336c6c 	svcpl	0x00336c6c
     cf0:	65646976 	strbvs	r6, [r4, #-2422]!	; 0x976
     cf4:	65725f6f 	ldrbvs	r5, [r2, #-3951]!	; 0xf6f
     cf8:	31303067 	teqcc	r0, r7, rrx
     cfc:	00745f30 	rsbseq	r5, r4, r0, lsr pc
     d00:	61726453 	cmnvs	r2, r3, asr r4
     d04:	7461476d 	strbtvc	r4, [r1], #-1901	; 0x76d
     d08:	77540065 	ldrbvc	r0, [r4, -r5, rrx]
     d0c:	61473269 	cmpvs	r7, r9, ror #4
     d10:	5f006574 	svcpl	0x00006574
     d14:	6d63635f 	stclvs	3, cr6, [r3, #-380]!	; 0xfffffe84
     d18:	70615f75 	rsbvc	r5, r1, r5, ror pc
     d1c:	6c633062 	stclvs	0, cr3, [r3], #-392	; 0xfffffe78
     d20:	61675f6b 	cmnvs	r7, fp, ror #30
     d24:	725f6574 	subsvc	r6, pc, #486539264	; 0x1d000000
     d28:	30306765 	eorscc	r6, r0, r5, ror #14
     d2c:	745f3836 	ldrbvc	r3, [pc], #2102	; d34 <__standby_start+0xd34>
     d30:	69705300 	ldmdbvs	r0!, {r8, r9, ip, lr}^
     d34:	6b6c4332 	blvs	1b11a04 <__standby_start+0x1b11a04>
     d38:	61747300 	cmnvs	r4, r0, lsl #6
     d3c:	7962646e 	stmdbvc	r2!, {r1, r2, r3, r5, r6, sl, sp, lr}^
     d40:	6b6c635f 	blvs	1b19ac4 <__standby_start+0x1b19ac4>
     d44:	6270615f 	rsbsvs	r6, r0, #-1073741801	; 0xc0000017
     d48:	736f6c32 	cmnvc	pc, #12800	; 0x3200
     d4c:	534f0063 	movtpl	r0, #61539	; 0xf063
     d50:	4d343243 	lfmmi	f3, 4, [r4, #-268]!	; (ldcmi 2, cr3, [r4, #-268]!)	; 0xfffffef4
     d54:	006d7347 	rsbeq	r7, sp, r7, asr #6
     d58:	6d617244 	sfmvs	f7, 2, [r1, #-272]!	; (stclvs 2, cr7, [r1, #-272]!)	; 0xfffffef0
     d5c:	65746147 	ldrbvs	r6, [r4, #-327]!	; 0x147
     d60:	62735500 	rsbsvs	r5, r3, #0
     d64:	30796850 	rsbscc	r6, r9, r0, asr r8
     d68:	00747352 	rsbseq	r7, r4, r2, asr r3
     d6c:	6d6d6453 	cfstrdvs	mvd6, [sp, #-332]!	; 0xfffffeb4
     d70:	61473263 	cmpvs	r7, r3, ror #4
     d74:	5f006574 	svcpl	0x00006574
     d78:	6d63635f 	stclvs	3, cr6, [r3, #-380]!	; 0xfffffe84
     d7c:	6c705f75 	ldclvs	15, cr5, [r0], #-468	; 0xfffffe2c
     d80:	765f376c 	ldrbvc	r3, [pc], -ip, ror #14
     d84:	6f656469 	svcvs	0x00656469
     d88:	65725f31 	ldrbvs	r5, [r2, #-3889]!	; 0xf31
     d8c:	33303067 	teqcc	r0, #103	; 0x67
     d90:	00745f30 	rsbseq	r5, r4, r0, lsr pc
     d94:	65426544 	strbvs	r6, [r2, #-1348]	; 0x544
     d98:	6b6c4330 	blvs	1b11a60 <__standby_start+0x1b11a60>
     d9c:	646f4d00 	strbtvs	r4, [pc], #3328	; da4 <__standby_start+0xda4>
     da0:	6c655365 	stclvs	3, cr5, [r5], #-404	; 0xfffffe6c
     da4:	435f5f00 	cmpmi	pc, #0
     da8:	5f554d43 	svcpl	0x00554d43
     dac:	374c4c50 	smlsldcc	r4, ip, r0, ip
     db0:	4449565f 	strbmi	r5, [r9], #-1631	; 0x65f
     db4:	5f314f45 	svcpl	0x00314f45
     db8:	30474552 	subcc	r4, r7, r2, asr r5
     dbc:	00303330 	eorseq	r3, r0, r0, lsr r3
     dc0:	33735f5f 	cmncc	r3, #380	; 0x17c
     dc4:	684f0032 	stmdavs	pc, {r1, r4, r5}^
     dc8:	47306963 	ldrmi	r6, [r0, -r3, ror #18]!
     dcc:	00657461 	rsbeq	r7, r5, r1, ror #8
     dd0:	47307249 	ldrmi	r7, [r0, -r9, asr #4]!
     dd4:	00657461 	rsbeq	r7, r5, r1, ror #8
     dd8:	43435f5f 	movtmi	r5, #16223	; 0x3f5f
     ddc:	475f554d 	ldrbmi	r5, [pc, -sp, asr #10]
     de0:	435f5350 	cmpmi	pc, #1073741825	; 0x40000001
     de4:	525f4b4c 	subspl	r4, pc, #77824	; 0x13000
     de8:	30304745 	eorscc	r4, r0, r5, asr #14
     dec:	5f003044 	svcpl	0x00003044
     df0:	6d63635f 	stclvs	3, cr6, [r3, #-380]!	; 0xfffffe84
     df4:	6f6d5f75 	svcvs	0x006d5f75
     df8:	656c7564 	strbvs	r7, [ip, #-1380]!	; 0x564
     dfc:	6c635f30 	stclvs	15, cr5, [r3], #-192	; 0xffffff40
     e00:	00745f6b 	rsbseq	r5, r4, fp, ror #30
     e04:	43435f5f 	movtmi	r5, #16223	; 0x3f5f
     e08:	4f5f554d 	svcmi	0x005f554d
     e0c:	34324353 	ldrtcc	r4, [r2], #-851	; 0x353
     e10:	45525f4d 	ldrbmi	r5, [r2, #-3917]	; 0xf4d
     e14:	35303047 	ldrcc	r3, [r0, #-71]!	; 0x47
     e18:	6c500030 	mrrcvs	0, 3, r0, r0, cr0
     e1c:	7554316c 	ldrbvc	r3, [r4, #-364]	; 0x16c
     e20:	0032656e 	eorseq	r6, r2, lr, ror #10
     e24:	726d7453 	rsbvc	r7, sp, #1392508928	; 0x53000000
     e28:	65746147 	ldrbvs	r6, [r4, #-327]!	; 0x147
     e2c:	616d4500 	cmnvs	sp, r0, lsl #10
     e30:	74614763 	strbtvc	r4, [r1], #-1891	; 0x763
     e34:	654b0065 	strbvs	r0, [fp, #-101]	; 0x65
     e38:	65694679 	strbvs	r4, [r9, #-1657]!	; 0x679
     e3c:	5f00646c 	svcpl	0x0000646c
     e40:	6d63635f 	stclvs	3, cr6, [r3, #-380]!	; 0xfffffe84
     e44:	766c5f75 	uqsub16vc	r5, ip, r5
     e48:	635f7364 	cmpvs	pc, #-1879048191	; 0x90000001
     e4c:	725f6b6c 	subsvc	r6, pc, #110592	; 0x1b000
     e50:	31306765 	teqcc	r0, r5, ror #14
     e54:	745f6334 	ldrbvc	r6, [pc], #820	; e5c <__standby_start+0xe5c>
     e58:	6c6c5000 	stclvs	0, cr5, [ip]
     e5c:	6c744335 	ldclvs	3, cr4, [r4], #-212	; 0xffffff2c
     e60:	635f5f00 	cmpvs	pc, #0
     e64:	5f756d63 	svcpl	0x00756d63
     e68:	635f6576 	cmpvs	pc, #494927872	; 0x1d800000
     e6c:	725f6b6c 	subsvc	r6, pc, #110592	; 0x1b000
     e70:	31306765 	teqcc	r0, r5, ror #14
     e74:	745f6333 	ldrbvc	r6, [pc], #819	; e7c <__standby_start+0xe7c>
     e78:	635f5f00 	cmpvs	pc, #0
     e7c:	5f756d63 	svcpl	0x00756d63
     e80:	326c6c70 	rsbcc	r6, ip, #28672	; 0x7000
     e84:	6e75745f 	mrcvs	4, 3, r7, cr5, cr15, {2}
     e88:	5f676e69 	svcpl	0x00676e69
     e8c:	30676572 	rsbcc	r6, r7, r2, ror r5
     e90:	5f633030 	svcpl	0x00633030
     e94:	69530074 	ldmdbvs	r3, {r2, r4, r5, r6}^
     e98:	49616d67 	stmdbmi	r1!, {r0, r1, r2, r5, r6, r8, sl, fp, sp, lr}^
     e9c:	754f006e 	strbvc	r0, [pc, #-110]	; e36 <__standby_start+0xe36>
     ea0:	74757074 	ldrbtvc	r7, [r5], #-116	; 0x74
     ea4:	73006e45 	movwvc	r6, #3653	; 0xe45
     ea8:	646e6174 	strbtvs	r6, [lr], #-372	; 0x174
     eac:	635f7962 	cmpvs	pc, #1605632	; 0x188000
     eb0:	675f6b6c 	ldrbvs	r6, [pc, -ip, ror #22]
     eb4:	69647465 	stmdbvs	r4!, {r0, r2, r5, r6, sl, ip, sp, lr}^
     eb8:	5f5f0076 	svcpl	0x005f0076
     ebc:	554d4343 	strbpl	r4, [sp, #-835]	; 0x343
     ec0:	4c4c505f 	mcrrmi	0, 5, r5, ip, cr15
     ec4:	49565f33 	ldmdbmi	r6, {r0, r1, r4, r5, r8, r9, sl, fp, ip, lr}^
     ec8:	5f4f4544 	svcpl	0x004f4544
     ecc:	30474552 	subcc	r4, r7, r2, asr r5
     ed0:	00303130 	eorseq	r3, r0, r0, lsr r1
     ed4:	43435f5f 	movtmi	r5, #16223	; 0x3f5f
     ed8:	505f554d 	subspl	r5, pc, sp, asr #10
     edc:	5f354c4c 	svcpl	0x00354c4c
     ee0:	494e5554 	stmdbmi	lr, {r2, r4, r6, r8, sl, ip, lr}^
     ee4:	5f32474e 	svcpl	0x0032474e
     ee8:	30474552 	subcc	r4, r7, r2, asr r5
     eec:	00433330 	subeq	r3, r3, r0, lsr r3
     ef0:	61646441 	cmnvs	r4, r1, asr #8
     ef4:	65746147 	ldrbvs	r6, [r4, #-327]!	; 0x147
     ef8:	4f435600 	svcmi	0x00435600
     efc:	73616942 	cmnvc	r1, #1081344	; 0x108000
     f00:	635f5f00 	cmpvs	pc, #0
     f04:	5f756d63 	svcpl	0x00756d63
     f08:	6364636c 	cmnvs	r4, #-1342177279	; 0xb0000001
     f0c:	635f3168 	cmpvs	pc, #26
     f10:	745f6b6c 	ldrbvc	r6, [pc], #2924	; f18 <__standby_start+0xf18>
     f14:	42654400 	rsbmi	r4, r5, #0
     f18:	61473065 	cmpvs	r7, r5, rrx
     f1c:	53006574 	movwpl	r6, #1396	; 0x574
     f20:	636d4d64 	cmnvs	sp, #6400	; 0x1900
     f24:	6b6c4331 	blvs	1b11bf0 <__standby_start+0x1b11bf0>
     f28:	435f5f00 	cmpmi	pc, #0
     f2c:	5f554d43 	svcpl	0x00554d43
     f30:	5f504549 	svcpl	0x00504549
     f34:	5f4b4c43 	svcpl	0x004b4c43
     f38:	30474552 	subcc	r4, r7, r2, asr r5
     f3c:	00303631 	eorseq	r3, r0, r1, lsr r6
     f40:	6e617473 	mcrvs	4, 3, r7, cr1, cr3, {3}
     f44:	5f796264 	svcpl	0x00796264
     f48:	5f6b6c63 	svcpl	0x006b6c63
     f4c:	63736f68 	cmnvs	r3, #416	; 0x1a0
     f50:	62616e65 	rsbvs	r6, r1, #1616	; 0x650
     f54:	5f00656c 	svcpl	0x0000656c
     f58:	4d43435f 	stclmi	3, cr4, [r3, #-380]	; 0xfffffe84
     f5c:	50415f55 	subpl	r5, r1, r5, asr pc
     f60:	4c433142 	stfmie	f3, [r3], {66}	; 0x42
     f64:	41525f4b 	cmpmi	r2, fp, asr #30
     f68:	5f4f4954 	svcpl	0x004f4954
     f6c:	30474552 	subcc	r4, r7, r2, asr r5
     f70:	00383530 	eorseq	r3, r8, r0, lsr r5
     f74:	65736572 	ldrbvs	r6, [r3, #-1394]!	; 0x572
     f78:	64657672 	strbtvs	r7, [r5], #-1650	; 0x672
     f7c:	65720030 	ldrbvs	r0, [r2, #-48]!	; 0x30
     f80:	76726573 	undefined instruction 0x76726573
     f84:	00316465 	eorseq	r6, r1, r5, ror #8
     f88:	65736572 	ldrbvs	r6, [r3, #-1394]!	; 0x572
     f8c:	64657672 	strbtvs	r7, [r5], #-1650	; 0x672
     f90:	65720032 	ldrbvs	r0, [r2, #-50]!	; 0x32
     f94:	76726573 	undefined instruction 0x76726573
     f98:	00336465 	eorseq	r6, r3, r5, ror #8
     f9c:	65736572 	ldrbvs	r6, [r3, #-1394]!	; 0x572
     fa0:	64657672 	strbtvs	r7, [r5], #-1650	; 0x672
     fa4:	5f5f0034 	svcpl	0x005f0034
     fa8:	554d4343 	strbpl	r4, [sp, #-835]	; 0x343
     fac:	4c4c505f 	mcrrmi	0, 5, r5, ip, cr15
     fb0:	55545f31 	ldrbpl	r5, [r4, #-3889]	; 0xf31
     fb4:	474e494e 	strbmi	r4, [lr, -lr, asr #18]
     fb8:	45525f32 	ldrbmi	r5, [r2, #-3890]	; 0xf32
     fbc:	33303047 	teqcc	r0, #71	; 0x47
     fc0:	65720038 	ldrbvs	r0, [r2, #-56]!	; 0x38
     fc4:	76726573 	undefined instruction 0x76726573
     fc8:	00366465 	eorseq	r6, r6, r5, ror #8
     fcc:	65736572 	ldrbvs	r6, [r3, #-1394]!	; 0x572
     fd0:	64657672 	strbtvs	r7, [r5], #-1650	; 0x672
     fd4:	70530037 	subsvc	r0, r3, r7, lsr r0
     fd8:	6c436365 	mcrrvs	3, 6, r6, r3, cr5
     fdc:	6147316b 	cmpvs	r7, fp, ror #2
     fe0:	72006574 	andvc	r6, r0, #486539264	; 0x1d000000
     fe4:	72657365 	rsbvc	r7, r5, #-1811939327	; 0x94000001
     fe8:	39646576 	stmdbcc	r4!, {r1, r2, r4, r5, r6, r8, sl, sp, lr}^
     fec:	65705300 	ldrbvs	r5, [r0, #-768]!	; 0x300
     ff0:	6b6c4363 	blvs	1b11d84 <__standby_start+0x1b11d84>
     ff4:	63725332 	cmnvs	r2, #-939524096	; 0xc8000000
     ff8:	61747300 	cmnvs	r4, r0, lsl #6
     ffc:	7962646e 	stmdbvc	r2!, {r1, r2, r3, r5, r6, sl, sp, lr}^
    1000:	6b6c635f 	blvs	1b19d84 <__standby_start+0x1b19d84>
    1004:	6c6c705f 	stclvs	0, cr7, [ip], #-380	; 0xfffffe84
    1008:	62616e65 	rsbvs	r6, r1, #1616	; 0x650
    100c:	4900656c 	stmdbmi	r0, {r2, r3, r5, r6, r8, sl, sp, lr}
    1010:	61477369 	cmpvs	r7, r9, ror #6
    1014:	4f006574 	svcmi	0x00006574
    1018:	34324353 	ldrtcc	r4, [r2], #-851	; 0x353
    101c:	006e454d 	rsbeq	r4, lr, sp, asr #10
    1020:	47616d44 	strbmi	r6, [r1, -r4, asr #26]!
    1024:	00657461 	rsbeq	r7, r5, r1, ror #8
    1028:	454c4c50 	strbmi	r4, [ip, #-3152]	; 0xc50
    102c:	5f5f006e 	svcpl	0x005f006e
    1030:	554d4343 	strbpl	r4, [sp, #-835]	; 0x343
    1034:	59454b5f 	stmdbpl	r5, {r0, r1, r2, r3, r4, r6, r8, r9, fp, lr}^
    1038:	5f444150 	svcpl	0x00444150
    103c:	5f4b4c43 	svcpl	0x004b4c43
    1040:	30474552 	subcc	r4, r7, r2, asr r5
    1044:	00344330 	eorseq	r4, r4, r0, lsr r3
    1048:	43435f5f 	movtmi	r5, #16223	; 0x3f5f
    104c:	535f554d 	cmppl	pc, #322961408	; 0x13400000
    1050:	4c435359 	mcrrmi	3, 5, r5, r3, cr9
    1054:	41525f4b 	cmpmi	r2, fp, asr #30
    1058:	5f4f4954 	svcpl	0x004f4954
    105c:	30474552 	subcc	r4, r7, r2, asr r5
    1060:	00343530 	eorseq	r3, r4, r0, lsr r5
    1064:	61646441 	cmnvs	r4, r1, asr #8
    1068:	006b6c43 	rsbeq	r6, fp, r3, asr #24
    106c:	6c437354 	mcrrvs	3, 5, r7, r3, cr4
    1070:	6845006b 	stmdavs	r5, {r0, r1, r3, r5, r6}^
    1074:	47306963 	ldrmi	r6, [r0, -r3, ror #18]!
    1078:	00657461 	rsbeq	r7, r5, r1, ror #8
    107c:	74696e49 	strbtvc	r6, [r9], #-3657	; 0xe49
    1080:	71657246 	cmnvc	r5, r6, asr #4
    1084:	79654b00 	stmdbvc	r5!, {r8, r9, fp, lr}^
    1088:	43646150 	cmnmi	r4, #20
    108c:	50006b6c 	andpl	r6, r0, ip, ror #22
    1090:	69424c4c 	stmdbvs	r2, {r2, r3, r6, sl, fp, lr}^
    1094:	4e007361 	cdpmi	3, 0, cr7, cr0, cr1, {3}
    1098:	47646e61 	strbmi	r6, [r4, -r1, ror #28]!
    109c:	00657461 	rsbeq	r7, r5, r1, ror #8
    10a0:	61477353 	cmpvs	r7, r3, asr r3
    10a4:	5f006574 	svcpl	0x00006574
    10a8:	6d63635f 	stclvs	3, cr6, [r3, #-380]!	; 0xfffffe84
    10ac:	65665f75 	strbvs	r5, [r6, #-3957]!	; 0xf75
    10b0:	706d6564 	rsbvc	r6, sp, r4, ror #10
    10b4:	6b6c635f 	blvs	1b19e38 <__standby_start+0x1b19e38>
    10b8:	4300745f 	movwmi	r7, #1119	; 0x45f
    10bc:	6552756d 	ldrbvs	r7, [r2, #-1389]	; 0x56d
    10c0:	64480067 	strbvs	r0, [r8], #-103	; 0x67
    10c4:	4744696d 	strbmi	r6, [r4, -sp, ror #18]
    10c8:	00657461 	rsbeq	r7, r5, r1, ror #8
    10cc:	67657256 	undefined instruction 0x67657256
    10d0:	74754f31 	ldrbtvc	r4, [r5], #-3889	; 0xf31
    10d4:	5f006e45 	svcpl	0x00006e45
    10d8:	6d63635f 	stclvs	3, cr6, [r3, #-380]!	; 0xfffffe84
    10dc:	6c705f75 	ldclvs	15, cr5, [r0], #-468	; 0xfffffe2c
    10e0:	745f356c 	ldrbvc	r3, [pc], #1388	; 10e8 <__standby_start+0x10e8>
    10e4:	6e696e75 	mcrvs	14, 3, r6, cr9, cr5, {3}
    10e8:	725f3267 	subsvc	r3, pc, #1879048198	; 0x70000006
    10ec:	30306765 	eorscc	r6, r0, r5, ror #14
    10f0:	745f6333 	ldrbvc	r6, [pc], #819	; 10f8 <__standby_start+0x10f8>
    10f4:	6c6c5000 	stclvs	0, cr5, [ip]
    10f8:	6e755432 	mrcvs	4, 3, r5, cr5, cr2, {1}
    10fc:	5f5f0065 	svcpl	0x005f0065
    1100:	756d6363 	strbvc	r6, [sp, #-867]!	; 0x363
    1104:	6978615f 	ldmdbvs	r8!, {r0, r1, r2, r3, r4, r6, r8, sp, lr}^
    1108:	5f6b6c63 	svcpl	0x006b6c63
    110c:	65746167 	ldrbvs	r6, [r4, #-359]!	; 0x167
    1110:	6765725f 	undefined instruction 0x6765725f
    1114:	63353030 	teqvs	r5, #48	; 0x30
    1118:	4c00745f 	cfstrsmi	mvf7, [r0], {95}	; 0x5f
    111c:	45324f44 	ldrmi	r4, [r2, #-3908]!	; 0xf44
    1120:	6146006e 	cmpvs	r6, lr, rrx
    1124:	726f7463 	rsbvc	r7, pc, #1660944384	; 0x63000000
    1128:	5000314d 	andpl	r3, r0, sp, asr #2
    112c:	43376c6c 	teqmi	r7, #27648	; 0x6c00
    1130:	5f006c74 	svcpl	0x00006c74
    1134:	6d63635f 	stclvs	3, cr6, [r3, #-380]!	; 0xfffffe84
    1138:	65725f75 	ldrbvs	r5, [r2, #-3957]!	; 0xf75
    113c:	696c5f67 	stmdbvs	ip!, {r0, r1, r2, r5, r6, r8, r9, sl, fp, ip, lr}^
    1140:	745f7473 	ldrbvc	r7, [pc], #1139	; 1148 <__standby_start+0x1148>
    1144:	6e614e00 	cdpvs	14, 6, cr4, cr1, cr0, {0}
    1148:	6b6c4364 	blvs	1b11ee0 <__standby_start+0x1b11ee0>
    114c:	43484f00 	movtmi	r4, #36608	; 0x8f00
    1150:	70533049 	subsvc	r3, r3, r9, asr #32
    1154:	6c436365 	mcrrvs	3, 6, r6, r3, cr5
    1158:	7461476b 	strbtvc	r4, [r1], #-1899	; 0x76b
    115c:	5f5f0065 	svcpl	0x005f0065
    1160:	554d4343 	strbpl	r4, [sp, #-835]	; 0x343
    1164:	4c4c505f 	mcrrmi	0, 5, r5, ip, cr15
    1168:	55545f31 	ldrbpl	r5, [r4, #-3889]	; 0xf31
    116c:	474e494e 	strbmi	r4, [lr, -lr, asr #18]
    1170:	4745525f 	smlsldmi	r5, r5, pc, r2
    1174:	34303030 	ldrtcc	r3, [r0], #-48	; 0x30
    1178:	70654900 	rsbvc	r4, r5, r0, lsl #18
    117c:	006b6c43 	rsbeq	r6, fp, r3, asr #24
    1180:	63635f5f 	cmnvs	r3, #380	; 0x17c
    1184:	615f756d 	cmpvs	pc, sp, ror #10
    1188:	635f7376 	cmpvs	pc, #-671088639	; 0xd8000001
    118c:	725f6b6c 	subsvc	r6, pc, #110592	; 0x1b000
    1190:	31306765 	teqcc	r0, r5, ror #14
    1194:	745f3434 	ldrbvc	r3, [pc], #1076	; 119c <__standby_start+0x119c>
    1198:	6c614d00 	stclvs	13, cr4, [r1]
    119c:	6b6c4369 	blvs	1b11f48 <__standby_start+0x1b11f48>
    11a0:	73764100 	cmnvc	r6, #0
    11a4:	006b6c43 	rsbeq	r6, fp, r3, asr #24
    11a8:	5264634c 	rsbpl	r6, r4, #805306369	; 0x30000001
    11ac:	74657365 	strbtvc	r7, [r5], #-869	; 0x365
    11b0:	62735500 	rsbsvs	r5, r3, #0
    11b4:	31796850 	cmncc	r9, r0, asr r8
    11b8:	00747352 	rsbseq	r7, r4, r2, asr r3
    11bc:	63635f5f 	cmnvs	r3, #380	; 0x17c
    11c0:	735f756d 	cmpvc	pc, #457179136	; 0x1b400000
    11c4:	6c637379 	stclvs	3, cr7, [r3], #-484	; 0xfffffe1c
    11c8:	725f6c6b 	subsvc	r6, pc, #27392	; 0x6b00
    11cc:	6f697461 	svcvs	0x00697461
    11d0:	6765725f 	undefined instruction 0x6765725f
    11d4:	34353030 	ldrtcc	r3, [r5], #-48	; 0x30
    11d8:	5500745f 	strpl	r7, [r0, #-1119]	; 0x45f
    11dc:	33747261 	cmncc	r4, #268435462	; 0x10000006
    11e0:	65746147 	ldrbvs	r6, [r4, #-327]!	; 0x147
    11e4:	46654400 	strbtmi	r4, [r5], -r0, lsl #8
    11e8:	61473065 	cmpvs	r7, r5, rrx
    11ec:	50006574 	andpl	r6, r0, r4, ror r5
    11f0:	43336c6c 	teqmi	r3, #27648	; 0x6c00
    11f4:	41006c74 	tstmi	r0, r4, ror ip
    11f8:	61476978 	cmpvs	r7, r8, ror r9
    11fc:	47006574 	smlsdxmi	r0, r4, r5, r6
    1200:	61477370 	cmpvs	r7, r0, ror r3
    1204:	73006574 	movwvc	r6, #1396	; 0x574
    1208:	646e6174 	strbtvs	r6, [lr], #-372	; 0x174
    120c:	635f7962 	cmpvs	pc, #1605632	; 0x188000
    1210:	735f6b6c 	cmpvc	pc, #110592	; 0x1b000
    1214:	705f7465 	subsvc	r7, pc, r5, ror #8
    1218:	665f6c6c 	ldrbvs	r6, [pc], -ip, ror #24
    121c:	6f746361 	svcvs	0x00746361
    1220:	6c500072 	mrrcvs	0, 7, r0, r0, cr2
    1224:	7443366c 	strbvc	r3, [r3], #-1644	; 0x66c
    1228:	5f5f006c 	svcpl	0x005f006c
    122c:	554d4343 	strbpl	r4, [sp, #-835]	; 0x343
    1230:	44434c5f 	strbmi	r4, [r3], #-3167	; 0xc5f
    1234:	5f304843 	svcpl	0x00304843
    1238:	004b4c43 	subeq	r4, fp, r3, asr #24
    123c:	6b636f4c 	blvs	18dcf74 <__standby_start+0x18dcf74>
    1240:	656d6954 	strbvs	r6, [sp, #-2388]!	; 0x954
    1244:	435f5f00 	cmpmi	pc, #0
    1248:	5f554d43 	svcpl	0x00554d43
    124c:	435f4556 	cmpmi	pc, #360710144	; 0x15800000
    1250:	525f4b4c 	subspl	r4, pc, #77824	; 0x13000
    1254:	31304745 	teqcc	r0, r5, asr #14
    1258:	55004333 	strpl	r4, [r0, #-819]	; 0x333
    125c:	30747261 	rsbscc	r7, r4, r1, ror #4
    1260:	65746147 	ldrbvs	r6, [r4, #-327]!	; 0x147
    1264:	6f635600 	svcvs	0x00635600
    1268:	73616942 	cmnvc	r1, #1081344	; 0x108000
    126c:	65725000 	ldrbvs	r5, [r2]!
    1270:	76694476 	undefined instruction 0x76694476
    1274:	435f5f00 	cmpmi	pc, #0
    1278:	5f554d43 	svcpl	0x00554d43
    127c:	31425041 	cmpcc	r2, r1, asr #32
    1280:	5f4b4c43 	svcpl	0x004b4c43
    1284:	45544147 	ldrbmi	r4, [r4, #-327]	; 0x147
    1288:	4745525f 	smlsldmi	r5, r5, pc, r2
    128c:	43363030 	teqmi	r6, #48	; 0x30
    1290:	49584100 	ldmdbmi	r8, {r8, lr}^
    1294:	446b6c43 	strbtmi	r6, [fp], #-3139	; 0xc43
    1298:	5f007669 	svcpl	0x00007669
    129c:	4d43435f 	stclmi	3, cr4, [r3, #-380]	; 0xfffffe84
    12a0:	4c505f55 	mrrcmi	15, 5, r5, r0, cr5
    12a4:	545f354c 	ldrbpl	r3, [pc], #1356	; 12ac <__standby_start+0x12ac>
    12a8:	4e494e55 	mcrmi	14, 2, r4, cr9, cr5, {2}
    12ac:	45525f47 	ldrbmi	r5, [r2, #-3911]	; 0xf47
    12b0:	32303047 	eorscc	r3, r0, #71	; 0x47
    12b4:	43560034 	cmpmi	r6, #52	; 0x34
    12b8:	6961474f 	stmdbvs	r1!, {r0, r1, r2, r3, r6, r8, r9, sl, lr}^
    12bc:	7473006e 	ldrbtvc	r0, [r3], #-110	; 0x6e
    12c0:	62646e61 	rsbvs	r6, r4, #1552	; 0x610
    12c4:	6c635f79 	stclvs	15, cr5, [r3], #-484	; 0xfffffe1c
    12c8:	65735f6b 	ldrbvs	r5, [r3, #-3947]!	; 0xf6b
    12cc:	76696474 	undefined instruction 0x76696474
    12d0:	33434100 	movtcc	r4, #12544	; 0x3100
    12d4:	6c433832 	mcrrvs	8, 3, r3, r3, cr2
    12d8:	6372536b 	cmnvs	r2, #-1409286143	; 0xac000001
    12dc:	65724600 	ldrbvs	r4, [r2, #-1536]!	; 0x600
    12e0:	6e657571 	mcrvs	5, 3, r7, cr5, cr1, {3}
    12e4:	54007963 	strpl	r7, [r0], #-2403	; 0x963
    12e8:	47316977 	undefined instruction 0x47316977
    12ec:	00657461 	rsbeq	r7, r5, r1, ror #8
    12f0:	326c6c50 	rsbcc	r6, ip, #20480	; 0x5000
    12f4:	006c7443 	rsbeq	r7, ip, r3, asr #8
    12f8:	43435f5f 	movtmi	r5, #16223	; 0x3f5f
    12fc:	525f554d 	subspl	r5, pc, #322961408	; 0x13400000
    1300:	4c5f4745 	mrrcmi	7, 4, r4, pc, cr5
    1304:	00545349 	subseq	r5, r4, r9, asr #6
    1308:	63635f5f 	cmnvs	r3, #380	; 0x17c
    130c:	705f756d 	subsvc	r7, pc, sp, ror #10
    1310:	5f346c6c 	svcpl	0x00346c6c
    1314:	725f6576 	subsvc	r6, pc, #494927872	; 0x1d800000
    1318:	30306765 	eorscc	r6, r0, r5, ror #14
    131c:	745f3831 	ldrbvc	r3, [pc], #2097	; 1324 <__standby_start+0x1324>
    1320:	42504100 	subsmi	r4, r0, #0
    1324:	6b6c4330 	blvs	1b11fec <__standby_start+0x1b11fec>
    1328:	00766944 	rsbseq	r6, r6, r4, asr #18
    132c:	43424841 	movtmi	r4, #10305	; 0x2841
    1330:	65536b6c 	ldrbvs	r6, [r3, #-2924]	; 0xb6c
    1334:	7343006c 	movtvc	r0, #12396	; 0x306c
    1338:	61473069 	cmpvs	r7, r9, rrx
    133c:	53006574 	movwpl	r6, #1396	; 0x574
    1340:	636d6d64 	cmnvs	sp, #6400	; 0x1900
    1344:	74614731 	strbtvc	r4, [r1], #-1841	; 0x731
    1348:	5f5f0065 	svcpl	0x005f0065
    134c:	554d4343 	strbpl	r4, [sp, #-835]	; 0x343
    1350:	4250415f 	subsmi	r4, r0, #-1073741801	; 0xc0000017
    1354:	4b4c4330 	blmi	131201c <__standby_start+0x131201c>
    1358:	5441475f 	strbpl	r4, [r1], #-1887	; 0x75f
    135c:	45525f45 	ldrbmi	r5, [r2, #-3909]	; 0xf45
    1360:	36303047 	ldrtcc	r3, [r0], -r7, asr #32
    1364:	69460038 	stmdbvs	r6, {r3, r4, r5}^
    1368:	6e655071 	mcrvs	0, 3, r5, cr5, cr1, {3}
    136c:	72490064 	subvc	r0, r9, #100	; 0x64
    1370:	69725071 	ldmdbvs	r2!, {r0, r4, r5, r6, ip, lr}^
    1374:	7249006f 	subvc	r0, r9, #111	; 0x6f
    1378:	6e655071 	mcrvs	0, 3, r5, cr5, cr1, {3}
    137c:	72490064 	subvc	r0, r9, #100	; 0x64
    1380:	726f4671 	rsbvc	r4, pc, #118489088	; 0x7100000
    1384:	49006563 	stmdbmi	r0, {r0, r1, r5, r6, r8, sl, sp, lr}
    1388:	6e457172 	mcrvs	1, 2, r7, cr5, cr2, {3}
    138c:	00676552 	rsbeq	r6, r7, r2, asr r5
    1390:	6e617473 	mcrvs	4, 3, r7, cr1, cr3, {3}
    1394:	5f796264 	svcpl	0x00796264
    1398:	5f746e69 	svcpl	0x00746e69
    139c:	74697865 	strbtvc	r7, [r9], #-2149	; 0x865
    13a0:	71724900 	cmnvc	r2, r0, lsl #18
    13a4:	70736552 	rsbsvc	r6, r3, r2, asr r5
    13a8:	61747300 	cmnvs	r4, r0, lsl #6
    13ac:	7962646e 	stmdbvc	r2!, {r1, r2, r3, r5, r6, sl, sp, lr}^
    13b0:	6575715f 	ldrbvs	r7, [r5, #-351]!	; 0x15f
    13b4:	695f7972 	ldmdbvs	pc, {r1, r4, r5, r6, r8, fp, ip, sp, lr}^
    13b8:	7300746e 	movwvc	r7, #1134	; 0x46e
    13bc:	646e6174 	strbtvs	r6, [lr], #-372	; 0x174
    13c0:	655f7962 	ldrbvs	r7, [pc, #-2402]	; a66 <__standby_start+0xa66>
    13c4:	6c62616e 	stfvse	f6, [r2], #-440	; 0xfffffe48
    13c8:	6e695f65 	cdpvs	15, 6, cr5, cr9, cr5, {3}
    13cc:	79540074 	ldmdbvc	r4, {r2, r4, r5, r6}^
    13d0:	65536570 	ldrbvs	r6, [r3, #-1392]	; 0x570
    13d4:	7473006c 	ldrbtvc	r0, [r3], #-108	; 0x6c
    13d8:	62646e61 	rsbvs	r6, r4, #1552	; 0x610
    13dc:	6e695f79 	mcrvs	15, 3, r5, cr9, cr9, {3}
    13e0:	6e695f74 	mcrvs	15, 3, r5, cr9, cr4, {3}
    13e4:	74007469 	strvc	r7, [r0], #-1129	; 0x469
    13e8:	7253706d 	subsvc	r7, r3, #109	; 0x6d
    13ec:	6d4e0063 	stclvs	0, cr0, [lr, #-396]	; 0xfffffe74
    13f0:	72744369 	rsbsvc	r4, r4, #-1543503871	; 0xa4000001
    13f4:	6572006c 	ldrbvs	r0, [r2, #-108]!	; 0x6c
    13f8:	746c7573 	strbtvc	r7, [ip], #-1395	; 0x573
    13fc:	63655600 	cmnvs	r5, #0
    1400:	00726f74 	rsbseq	r6, r2, r4, ror pc
    1404:	65736142 	ldrbvs	r6, [r3, #-322]!	; 0x142
    1408:	72646441 	rsbvc	r6, r4, #1090519040	; 0x41000000
    140c:	71724900 	cmnvc	r2, r0, lsl #18
    1410:	6b73614d 	blvs	1cd994c <__standby_start+0x1cd994c>
    1414:	61747300 	cmnvs	r4, r0, lsl #6
    1418:	7962646e 	stmdbvc	r2!, {r1, r2, r3, r5, r6, sl, sp, lr}^
    141c:	746e695f 	strbtvc	r6, [lr], #-2399	; 0x95f
    1420:	6765725f 	undefined instruction 0x6765725f
    1424:	7400745f 	strvc	r7, [r0], #-1119	; 0x45f
    1428:	7247706d 	subvc	r7, r7, #109	; 0x6d
    142c:	72490070 	subvc	r0, r9, #112	; 0x70
    1430:	73614d71 	cmnvc	r1, #7232	; 0x1c40
    1434:	6765526b 	strbvs	r5, [r5, -fp, ror #4]!
    1438:	746e4900 	strbtvc	r4, [lr], #-2304	; 0x900
    143c:	67655263 	strbvs	r5, [r5, -r3, ror #4]!
    1440:	71724900 	cmnvc	r2, r0, lsl #18
    1444:	526c6553 	rsbpl	r6, ip, #348127232	; 0x14c00000
    1448:	73006765 	movwvc	r6, #1893	; 0x765
    144c:	646e6174 	strbtvs	r6, [lr], #-372	; 0x174
    1450:	695f7962 	ldmdbvs	pc, {r1, r5, r6, r8, fp, ip, sp, lr}^
    1454:	632e746e 	teqvs	lr, #1845493760	; 0x6e000000
    1458:	61747300 	cmnvs	r4, r0, lsl #6
    145c:	7962646e 	stmdbvc	r2!, {r1, r2, r3, r5, r6, sl, sp, lr}^
    1460:	2e72695f 	mrccs	9, 3, r6, cr2, cr15, {2}
    1464:	74730063 	ldrbtvc	r0, [r3], #-99	; 0x63
    1468:	62646e61 	rsbvs	r6, r4, #1552	; 0x610
    146c:	72695f79 	rsbvc	r5, r9, #484	; 0x1e4
    1470:	6978655f 	ldmdbvs	r8!, {r0, r1, r2, r3, r4, r6, r8, sl, sp, lr}^
    1474:	74730074 	ldrbtvc	r0, [r3], #-116	; 0x74
    1478:	62646e61 	rsbvs	r6, r4, #1552	; 0x610
    147c:	72695f79 	rsbvc	r5, r9, #484	; 0x1e4
    1480:	7265765f 	rsbvc	r7, r5, #99614720	; 0x5f00000
    1484:	00796669 	rsbseq	r6, r9, r9, ror #12
    1488:	6e617473 	mcrvs	4, 3, r7, cr1, cr3, {3}
    148c:	5f796264 	svcpl	0x00796264
    1490:	695f7269 	ldmdbvs	pc, {r0, r3, r5, r6, r9, ip, sp, lr}^
    1494:	0074696e 	rsbseq	r6, r4, lr, ror #18
    1498:	6e617473 	mcrvs	4, 3, r7, cr1, cr3, {3}
    149c:	5f796264 	svcpl	0x00796264
    14a0:	645f7269 	ldrbvs	r7, [pc], #617	; 14a8 <__standby_start+0x14a8>
    14a4:	63657465 	cmnvs	r5, #1694498816	; 0x65000000
    14a8:	724c0074 	subvc	r0, ip, #116	; 0x74
    14ac:	5f636461 	svcpl	0x00636461
    14b0:	73746e49 	cmnvc	r4, #1168	; 0x490
    14b4:	735f5f00 	cmpvc	pc, #0
    14b8:	646e6174 	strbtvs	r6, [lr], #-372	; 0x174
    14bc:	6b5f7962 	blvs	17dfa4c <__standby_start+0x17dfa4c>
    14c0:	725f7965 	subsvc	r7, pc, #1654784	; 0x194000
    14c4:	745f6765 	ldrbvc	r6, [pc], #1893	; 14cc <__standby_start+0x14cc>
    14c8:	79654b00 	stmdbvc	r5!, {r8, r9, fp, lr}^
    14cc:	73746e49 	cmnvc	r4, #1168	; 0x490
    14d0:	61747300 	cmnvs	r4, r0, lsl #6
    14d4:	7962646e 	stmdbvc	r2!, {r1, r2, r3, r5, r6, sl, sp, lr}^
    14d8:	79656b5f 	stmdbvc	r5!, {r0, r1, r2, r3, r4, r6, r8, r9, fp, sp, lr}^
    14dc:	4b00632e 	blmi	1a19c <__standby_start+0x1a19c>
    14e0:	65527965 	ldrbvs	r7, [r2, #-2405]	; 0x965
    14e4:	724c0067 	subvc	r0, ip, #103	; 0x67
    14e8:	5f636461 	svcpl	0x00636461
    14ec:	63746e49 	cmnvs	r4, #1168	; 0x490
    14f0:	61747300 	cmnvs	r4, r0, lsl #6
    14f4:	7962646e 	stmdbvc	r2!, {r1, r2, r3, r5, r6, sl, sp, lr}^
    14f8:	79656b5f 	stmdbvc	r5!, {r0, r1, r2, r3, r4, r6, r8, r9, fp, sp, lr}^
    14fc:	6978655f 	ldmdbvs	r8!, {r0, r1, r2, r3, r4, r6, r8, sl, sp, lr}^
    1500:	654b0074 	strbvs	r0, [fp, #-116]	; 0x74
    1504:	74614479 	strbtvc	r4, [r1], #-1145	; 0x479
    1508:	4b003061 	blmi	d694 <__standby_start+0xd694>
    150c:	61447965 	cmpvs	r4, r5, ror #18
    1510:	00316174 	eorseq	r6, r1, r4, ror r1
    1514:	6461724c 	strbtvs	r7, [r1], #-588	; 0x24c
    1518:	74435f63 	strbvc	r5, [r3], #-3939	; 0xf63
    151c:	4c006c72 	stcmi	12, cr6, [r0], {114}	; 0x72
    1520:	63646172 	cmnvs	r4, #-2147483620	; 0x8000001c
    1524:	7461445f 	strbtvc	r4, [r1], #-1119	; 0x45f
    1528:	73003161 	movwvc	r3, #353	; 0x161
    152c:	646e6174 	strbtvs	r6, [lr], #-372	; 0x174
    1530:	6b5f7962 	blvs	17dfac0 <__standby_start+0x17dfac0>
    1534:	695f7965 	ldmdbvs	pc, {r0, r2, r5, r6, r8, fp, ip, sp, lr}^
    1538:	0074696e 	rsbseq	r6, r4, lr, ror #18
    153c:	4979654b 	ldmdbmi	r9!, {r0, r1, r3, r6, r8, sl, sp, lr}^
    1540:	0063746e 	rsbeq	r7, r3, lr, ror #8
    1544:	6e617473 	mcrvs	4, 3, r7, cr1, cr3, {3}
    1548:	5f796264 	svcpl	0x00796264
    154c:	72657571 	rsbvc	r7, r5, #473956352	; 0x1c400000
    1550:	656b5f79 	strbvs	r5, [fp, #-3961]!	; 0xf79
    1554:	5f5f0079 	svcpl	0x005f0079
    1558:	4e415453 	mcrmi	4, 2, r5, cr1, cr3, {2}
    155c:	5f594244 	svcpl	0x00594244
    1560:	5f59454b 	svcpl	0x0059454b
    1564:	00474552 	subeq	r4, r7, r2, asr r5
    1568:	6461724c 	strbtvs	r7, [r1], #-588	; 0x24c
    156c:	61445f63 	cmpvs	r4, r3, ror #30
    1570:	00306174 	eorseq	r6, r0, r4, ror r1
    1574:	4379654b 	cmnmi	r9, #314572800	; 0x12c00000
    1578:	006c7274 	rsbeq	r7, ip, r4, ror r2
    157c:	6e617473 	mcrvs	4, 3, r7, cr1, cr3, {3}
    1580:	5f796264 	svcpl	0x00796264
    1584:	5f746567 	svcpl	0x00746567
    1588:	746c6f76 	strbtvc	r6, [ip], #-3958	; 0xf76
    158c:	00656761 	rsbeq	r6, r5, r1, ror #14
    1590:	69766964 	ldmdbvs	r6!, {r2, r5, r6, r8, fp, sp, lr}^
    1594:	726f6973 	rsbvc	r6, pc, #1884160	; 0x1cc000
    1598:	6e696600 	cdpvs	6, 6, cr6, cr9, cr0, {0}
    159c:	6e695f64 	cdpvs	15, 6, cr5, cr9, cr4, {3}
    15a0:	73006f66 	movwvc	r6, #3942	; 0xf66
    15a4:	646e6174 	strbtvs	r6, [lr], #-372	; 0x174
    15a8:	705f7962 	subsvc	r7, pc, r2, ror #18
    15ac:	7265776f 	rsbvc	r7, r5, #29097984	; 0x1bc0000
    15b0:	696e695f 	stmdbvs	lr!, {r0, r1, r2, r3, r4, r6, r8, fp, sp, lr}^
    15b4:	616d0074 	smcvs	53252	; 0xd004
    15b8:	56755f78 	uhsub16pl	r5, r5, r8
    15bc:	706d7400 	rsbvc	r7, sp, r0, lsl #8
    15c0:	00766944 	rsbseq	r6, r6, r4, asr #18
    15c4:	6e617473 	mcrvs	4, 3, r7, cr1, cr3, {3}
    15c8:	5f796264 	svcpl	0x00796264
    15cc:	65776f70 	ldrbvs	r6, [r7, #-3952]!	; 0xf70
    15d0:	00632e72 	rsbeq	r2, r3, r2, ror lr
    15d4:	6b73616d 	blvs	1cd9b90 <__standby_start+0x1cd9b90>
    15d8:	49575400 	ldmdbmi	r7, {sl, ip, lr}^
    15dc:	5f504f5f 	svcpl	0x00504f5f
    15e0:	76005257 	undefined instruction 0x76005257
    15e4:	6e5f6c6f 	cdpvs	12, 5, cr6, cr15, cr15, {3}
    15e8:	73746962 	cmnvc	r4, #1605632	; 0x188000
    15ec:	61747300 	cmnvs	r4, r0, lsl #6
    15f0:	7962646e 	stmdbvc	r2!, {r1, r2, r3, r5, r6, sl, sp, lr}^
    15f4:	7465735f 	strbtvc	r7, [r5], #-863	; 0x35f
    15f8:	6c6f765f 	stclvs	6, cr7, [pc], #-380	; 0xfffffe84
    15fc:	65676174 	strbvs	r6, [r7, #-372]!	; 0x174
    1600:	6c6f7600 	stclvs	6, cr7, [pc]
    1604:	6968735f 	stmdbvs	r8!, {r0, r1, r2, r3, r4, r6, r8, r9, ip, sp, lr}^
    1608:	61007466 	tstvs	r0, r6, ror #8
    160c:	30327078 	eorscc	r7, r2, r8, ror r0
    1610:	666e695f 	undefined instruction 0x666e695f
    1614:	7861006f 	stmdavc	r1!, {r0, r1, r2, r3, r5, r6}^
    1618:	6e695f70 	mcrvs	15, 3, r5, cr9, cr0, {3}
    161c:	54006f66 	strpl	r6, [r0], #-3942	; 0xf66
    1620:	4f5f4957 	svcmi	0x005f4957
    1624:	44525f50 	ldrbmi	r5, [r2], #-3920	; 0xf50
    1628:	6b617700 	blvs	185f230 <__standby_start+0x185f230>
    162c:	5f707565 	svcpl	0x00707565
    1630:	00637273 	rsbeq	r7, r3, r3, ror r2
    1634:	51706d74 	cmnpl	r0, r4, ror sp
    1638:	00746f75 	rsbseq	r6, r4, r5, ror pc
    163c:	5f697774 	svcpl	0x00697774
    1640:	745f706f 	ldrbvc	r7, [pc], #111	; 1648 <__standby_start+0x1648>
    1644:	5f657079 	svcpl	0x00657079
    1648:	65720065 	ldrbvs	r0, [r2, #-101]!	; 0x65
    164c:	61765f67 	cmnvs	r6, r7, ror #30
    1650:	7473006c 	ldrbtvc	r0, [r3], #-108	; 0x6c
    1654:	755f7065 	ldrbvc	r7, [pc, #-101]	; 15f7 <__standby_start+0x15f7>
    1658:	78610056 	stmdavc	r1!, {r1, r2, r4, r6}^
    165c:	5f303270 	svcpl	0x00303270
    1660:	346f646c 	strbtcc	r6, [pc], #1132	; 1668 <__standby_start+0x1668>
    1664:	7461645f 	strbtvc	r6, [r1], #-1119	; 0x45f
    1668:	6f760061 	svcvs	0x00760061
    166c:	65725f6c 	ldrbvs	r5, [r2, #-3948]!	; 0xf6c
    1670:	69640067 	stmdbvs	r4!, {r0, r1, r2, r5, r6}^
    1674:	65646976 	strbvs	r6, [r4, #-2422]!	; 0x976
    1678:	6300646e 	movwvs	r6, #1134	; 0x46e
    167c:	6b636568 	blvs	18dac24 <__standby_start+0x18dac24>
    1680:	6e61725f 	mcrvs	2, 3, r7, cr1, cr15, {2}
    1684:	6d006567 	cfstr32vs	mvfx6, [r0, #-412]	; 0xfffffe64
    1688:	755f6e69 	ldrbvc	r6, [pc, #-3689]	; 827 <__standby_start+0x827>
    168c:	74730056 	ldrbtvc	r0, [r3], #-86	; 0x56
    1690:	62646e61 	rsbvs	r6, r4, #1552	; 0x610
    1694:	6f705f79 	svcvs	0x00705f79
    1698:	5f726577 	svcpl	0x00726577
    169c:	74697865 	strbtvc	r7, [r9], #-2149	; 0x865
    16a0:	77617200 	strbvc	r7, [r1, -r0, lsl #4]!
    16a4:	62696c5f 	rsbvs	r6, r9, #24320	; 0x5f00
    16a8:	6964755f 	stmdbvs	r4!, {r0, r1, r2, r3, r4, r6, r8, sl, ip, sp, lr}^
    16ac:	4d540076 	ldclmi	0, cr0, [r4, #-472]	; 0xfffffe28
    16b0:	56455f52 	undefined instruction 0x56455f52
    16b4:	5f544e45 	svcpl	0x00544e45
    16b8:	45574f50 	ldrbmi	r4, [r7, #-3920]	; 0xf50
    16bc:	46464f52 	undefined instruction 0x46464f52
    16c0:	616c4100 	cmnvs	ip, r0, lsl #2
    16c4:	48576d72 	ldmdami	r7, {r1, r4, r5, r6, r8, sl, fp, sp, lr}^
    16c8:	4100534d 	tstmi	r0, sp, asr #6
    16cc:	6d72616c 	ldfvse	f6, [r2, #-432]!	; 0xfffffe50
    16d0:	53717249 	cmnpl	r1, #-1879048188	; 0x90000004
    16d4:	54006174 	strpl	r6, [r0], #-372	; 0x174
    16d8:	455f524d 	ldrbmi	r5, [pc, #-589]	; 1493 <__standby_start+0x1493>
    16dc:	544e4556 	strbpl	r4, [lr], #-1366	; 0x556
    16e0:	414c415f 	cmpmi	ip, pc, asr r1
    16e4:	41004d52 	tstmi	r0, r2, asr sp
    16e8:	43317376 	teqmi	r1, #-671088639	; 0xd8000001
    16ec:	4100746e 	tstmi	r0, lr, ror #8
    16f0:	6d72616c 	ldfvse	f6, [r2, #-432]!	; 0xfffffe50
    16f4:	45717249 	ldrbmi	r7, [r1, #-585]!	; 0x249
    16f8:	7452006e 	ldrbvc	r0, [r2], #-110	; 0x6e
    16fc:	4d484463 	cfstrdmi	mvd4, [r8, #-396]	; 0xfffffe74
    1700:	6f440053 	svcvs	0x00440053
    1704:	6c744367 	ldclvs	3, cr4, [r4], #-412	; 0xfffffe64
    1708:	63745200 	cmnvs	r4, #0
    170c:	00444d59 	subeq	r4, r4, r9, asr sp
    1710:	30726d54 	rsbscc	r6, r2, r4, asr sp
    1714:	56746e49 	ldrbtpl	r6, [r4], -r9, asr #28
    1718:	52006c61 	andpl	r6, r0, #24832	; 0x6100
    171c:	4d486374 	stclmi	3, cr6, [r8, #-464]	; 0xfffffe30
    1720:	5f5f0053 	svcpl	0x005f0053
    1724:	6e617473 	mcrvs	4, 3, r7, cr1, cr3, {3}
    1728:	5f796264 	svcpl	0x00796264
    172c:	5f726d74 	svcpl	0x00726d74
    1730:	5f676572 	svcpl	0x00676572
    1734:	6d540074 	ldclvs	0, cr0, [r4, #-464]	; 0xfffffe30
    1738:	74433172 	strbvc	r3, [r3], #-370	; 0x172
    173c:	6d54006c 	ldclvs	0, cr0, [r4, #-432]	; 0xfffffe50
    1740:	6e433072 	mcrvs	0, 2, r3, cr3, cr2, {3}
    1744:	6c615674 	stclvs	6, cr5, [r1], #-464	; 0xfffffe30
    1748:	726d7400 	rsbvc	r7, sp, #0
    174c:	6576655f 	ldrbvs	r6, [r6, #-1375]!	; 0x55f
    1750:	745f746e 	ldrbvc	r7, [pc], #1134	; 1758 <__standby_start+0x1758>
    1754:	5f657079 	svcpl	0x00657079
    1758:	6d540065 	ldclvs	0, cr0, [r4, #-404]	; 0xfffffe6c
    175c:	74433572 	strbvc	r3, [r3], #-1394	; 0x572
    1760:	6d54006c 	ldclvs	0, cr0, [r4, #-432]	; 0xfffffe50
    1764:	6e493272 	mcrvs	2, 2, r3, cr9, cr2, {3}
    1768:	6c615674 	stclvs	6, cr5, [r1], #-464	; 0xfffffe30
    176c:	535f5f00 	cmppl	pc, #0
    1770:	444e4154 	strbmi	r4, [lr], #-340	; 0x154
    1774:	545f5942 	ldrbpl	r5, [pc], #2370	; 177c <__standby_start+0x177c>
    1778:	525f524d 	subspl	r5, pc, #-805306364	; 0xd0000004
    177c:	54004745 	strpl	r4, [r0], #-1861	; 0x745
    1780:	4332726d 	teqmi	r2, #-805306362	; 0xd0000006
    1784:	6156746e 	cmpvs	r6, lr, ror #8
    1788:	6d54006c 	ldclvs	0, cr0, [r4, #-432]	; 0xfffffe50
    178c:	6e493472 	mcrvs	4, 2, r3, cr9, cr2, {3}
    1790:	6c615674 	stclvs	6, cr5, [r1], #-464	; 0xfffffe30
    1794:	726d5400 	rsbvc	r5, sp, #0
    1798:	746e4334 	strbtvc	r4, [lr], #-820	; 0x334
    179c:	006c6156 	rsbeq	r6, ip, r6, asr r1
    17a0:	72616c41 	rsbvc	r6, r1, #16640	; 0x4100
    17a4:	006e456d 	rsbeq	r4, lr, sp, ror #10
    17a8:	36746e43 	ldrbtcc	r6, [r4], -r3, asr #28
    17ac:	00694834 	rsbeq	r4, r9, r4, lsr r8
    17b0:	32726d54 	rsbscc	r6, r2, #5376	; 0x1500
    17b4:	006c7443 	rsbeq	r7, ip, r3, asr #8
    17b8:	6e617473 	mcrvs	4, 3, r7, cr1, cr3, {3}
    17bc:	5f796264 	svcpl	0x00796264
    17c0:	5f726d74 	svcpl	0x00726d74
    17c4:	61736964 	cmnvs	r3, r4, ror #18
    17c8:	5f656c62 	svcpl	0x00656c62
    17cc:	63746177 	cmnvs	r4, #-1073741795	; 0xc000001d
    17d0:	676f6468 	strbvs	r6, [pc, -r8, ror #8]!
    17d4:	676f4400 	strbvs	r4, [pc, -r0, lsl #8]!
    17d8:	65646f4d 	strbvs	r6, [r4, #-3917]!	; 0xf4d
    17dc:	746e4300 	strbtvc	r4, [lr], #-768	; 0x300
    17e0:	6f4c3436 	svcvs	0x004c3436
    17e4:	63657300 	cmnvs	r5, #0
    17e8:	00646e6f 	rsbeq	r6, r4, pc, ror #28
    17ec:	6e617473 	mcrvs	4, 3, r7, cr1, cr3, {3}
    17f0:	5f796264 	svcpl	0x00796264
    17f4:	5f726d74 	svcpl	0x00726d74
    17f8:	74697865 	strbtvc	r7, [r9], #-2149	; 0x865
    17fc:	736f4c00 	cmnvc	pc, #0
    1800:	6c744363 	ldclvs	3, cr4, [r4], #-396	; 0xfffffe74
    1804:	746e4300 	strbtvc	r4, [lr], #-768	; 0x300
    1808:	74433436 	strbvc	r3, [r3], #-1078	; 0x436
    180c:	6d54006c 	ldclvs	0, cr0, [r4, #-432]	; 0xfffffe50
    1810:	6e493172 	mcrvs	1, 2, r3, cr9, cr2, {3}
    1814:	6c615674 	stclvs	6, cr5, [r1], #-464	; 0xfffffe30
    1818:	73764100 	cmnvc	r6, #0
    181c:	00766944 	rsbseq	r6, r6, r4, asr #18
    1820:	33726d54 	cmncc	r2, #5376	; 0x1500
    1824:	006c7443 	rsbeq	r7, ip, r3, asr #8
    1828:	43737641 	cmnmi	r3, #68157440	; 0x4100000
    182c:	49006c74 	stmdbmi	r0, {r2, r4, r5, r6, sl, fp, sp, lr}
    1830:	7453746e 	ldrbvc	r7, [r3], #-1134	; 0x46e
    1834:	6d540061 	ldclvs	0, cr0, [r4, #-388]	; 0xfffffe7c
    1838:	52704772 	rsbspl	r4, r0, #29884416	; 0x1c80000
    183c:	54006765 	strpl	r6, [r0], #-1893	; 0x765
    1840:	4331726d 	teqmi	r1, #-805306362	; 0xd0000006
    1844:	6156746e 	cmpvs	r6, lr, ror #8
    1848:	7473006c 	ldrbtvc	r0, [r3], #-108	; 0x6c
    184c:	62646e61 	rsbvs	r6, r4, #1552	; 0x610
    1850:	6d745f79 	ldclvs	15, cr5, [r4, #-484]!	; 0xfffffe1c
    1854:	646d5f72 	strbtvs	r5, [sp], #-3954	; 0xf72
    1858:	0079616c 	rsbseq	r6, r9, ip, ror #2
    185c:	49726d54 	ldmdbmi	r2!, {r2, r4, r6, r8, sl, fp, sp, lr}^
    1860:	7443746e 	strbvc	r7, [r3], #-1134	; 0x46e
    1864:	7473006c 	ldrbtvc	r0, [r3], #-108	; 0x6c
    1868:	62646e61 	rsbvs	r6, r4, #1552	; 0x610
    186c:	6d745f79 	ldclvs	15, cr5, [r4, #-484]!	; 0xfffffe1c
    1870:	6e695f72 	mcrvs	15, 3, r5, cr9, cr2, {3}
    1874:	54007469 	strpl	r7, [r0], #-1129	; 0x469
    1878:	4933726d 	ldmdbmi	r3!, {r0, r2, r3, r5, r6, r9, ip, sp, lr}
    187c:	6156746e 	cmpvs	r6, lr, ror #8
    1880:	7473006c 	ldrbtvc	r0, [r3], #-108	; 0x6c
    1884:	62646e61 	rsbvs	r6, r4, #1552	; 0x610
    1888:	6d745f79 	ldclvs	15, cr5, [r4, #-484]!	; 0xfffffe1c
    188c:	00632e72 	rsbeq	r2, r3, r2, ror lr
    1890:	6e617473 	mcrvs	4, 3, r7, cr1, cr3, {3}
    1894:	5f796264 	svcpl	0x00796264
    1898:	5f726d74 	svcpl	0x00726d74
    189c:	62616e65 	rsbvs	r6, r1, #1616	; 0x650
    18a0:	775f656c 	ldrbvc	r6, [pc, -ip, ror #10]
    18a4:	68637461 	stmdavs	r3!, {r0, r5, r6, sl, ip, sp, lr}^
    18a8:	00676f64 	rsbeq	r6, r7, r4, ror #30
    18ac:	6e617473 	mcrvs	4, 3, r7, cr1, cr3, {3}
    18b0:	5f796264 	svcpl	0x00796264
    18b4:	5f726d74 	svcpl	0x00726d74
    18b8:	00746573 	rsbseq	r6, r4, r3, ror r5
    18bc:	30737641 	rsbscc	r7, r3, r1, asr #12
    18c0:	00746e43 	rsbseq	r6, r4, r3, asr #28
    18c4:	35726d54 	ldrbcc	r6, [r2, #-3412]!	; 0xd54
    18c8:	56746e49 	ldrbtpl	r6, [r4], -r9, asr #28
    18cc:	73006c61 	movwvc	r6, #3169	; 0xc61
    18d0:	646e6174 	strbtvs	r6, [lr], #-372	; 0x174
    18d4:	745f7962 	ldrbvc	r7, [pc], #2402	; 18dc <__standby_start+0x18dc>
    18d8:	715f726d 	cmpvc	pc, sp, ror #4
    18dc:	79726575 	ldmdbvc	r2!, {r0, r2, r4, r5, r6, r8, sl, sp, lr}^
    18e0:	726d5400 	rsbvc	r5, sp, #0
    18e4:	746e4335 	strbtvc	r4, [lr], #-821	; 0x335
    18e8:	006c6156 	rsbeq	r6, ip, r6, asr r1
    18ec:	52726d54 	rsbspl	r6, r2, #5376	; 0x1500
    18f0:	54006765 	strpl	r6, [r0], #-1893	; 0x765
    18f4:	4330726d 	teqmi	r0, #-805306362	; 0xd0000006
    18f8:	54006c74 	strpl	r6, [r0], #-3188	; 0xc74
    18fc:	4334726d 	teqmi	r4, #-805306362	; 0xd0000006
    1900:	74006c74 	strvc	r6, [r0], #-3188	; 0xc74
    1904:	6f656d69 	svcvs	0x00656d69
    1908:	72007475 	andvc	r7, r0, #1962934272	; 0x75000000
    190c:	655f6765 	ldrbvs	r6, [pc, #-1893]	; 11af <__standby_start+0x11af>
    1910:	54007266 	strpl	r7, [r0], #-614	; 0x266
    1914:	74436977 	strbvc	r6, [r3], #-2423	; 0x977
    1918:	6765526c 	strbvs	r5, [r5, -ip, ror #4]!
    191c:	006b6142 	rsbeq	r6, fp, r2, asr #2
    1920:	5f706f6e 	svcpl	0x00706f6e
    1924:	64616572 	strbtvs	r6, [r1], #-1394	; 0x572
    1928:	67657200 	strbvs	r7, [r5, -r0, lsl #4]!
    192c:	7365725f 	cmnvc	r5, #-268435451	; 0xf0000005
    1930:	5f007465 	svcpl	0x00007465
    1934:	6e617473 	mcrvs	4, 3, r7, cr1, cr3, {3}
    1938:	5f796264 	svcpl	0x00796264
    193c:	5f697774 	svcpl	0x00697774
    1940:	706f7473 	rsbvc	r7, pc, r3, ror r4
    1944:	6f726700 	svcvs	0x00726700
    1948:	74007075 	strvc	r7, [r0], #-117	; 0x75
    194c:	725f6977 	subsvc	r6, pc, #1949696	; 0x1dc000
    1950:	5f006765 	svcpl	0x00006765
    1954:	6977745f 	ldmdbvs	r7!, {r0, r1, r2, r3, r4, r6, sl, ip, sp, lr}^
    1958:	65725f63 	ldrbvs	r5, [r2, #-3939]!	; 0xf63
    195c:	00745f67 	rsbseq	r5, r4, r7, ror #30
    1960:	5f676572 	svcpl	0x00676572
    1964:	726b6c63 	rsbvc	r6, fp, #25344	; 0x6300
    1968:	67657200 	strbvs	r7, [r5, -r0, lsl #4]!
    196c:	7461645f 	strbtvc	r6, [r1], #-1119	; 0x45f
    1970:	57540061 	ldrbpl	r0, [r4, -r1, rrx]
    1974:	45525f49 	ldrbmi	r5, [r2, #-3913]	; 0xf49
    1978:	41425f47 	cmpmi	r2, r7, asr #30
    197c:	73004553 	movwvc	r4, #1363	; 0x553
    1980:	646e6174 	strbtvs	r6, [lr], #-372	; 0x174
    1984:	745f7962 	ldrbvc	r7, [pc], #2402	; 198c <__standby_start+0x198c>
    1988:	655f6977 	ldrbvs	r6, [pc, #-2423]	; 1019 <__standby_start+0x1019>
    198c:	00746978 	rsbseq	r6, r4, r8, ror r9
    1990:	5f676572 	svcpl	0x00676572
    1994:	64617378 	strbtvs	r7, [r1], #-888	; 0x378
    1998:	54007264 	strpl	r7, [r0], #-612	; 0x264
    199c:	6c436977 	mcrrvs	9, 7, r6, r3, cr7
    19a0:	6765526b 	strbvs	r5, [r5, -fp, ror #4]!
    19a4:	006b6142 	rsbeq	r6, fp, r2, asr #2
    19a8:	6e617473 	mcrvs	4, 3, r7, cr1, cr3, {3}
    19ac:	5f796264 	svcpl	0x00796264
    19b0:	2e697774 	mcrcs	7, 3, r7, cr9, cr4, {3}
    19b4:	77740063 	ldrbvc	r0, [r4, -r3, rrx]!
    19b8:	79625f69 	stmdbvc	r2!, {r0, r3, r5, r6, r8, r9, sl, fp, ip, lr}^
    19bc:	725f6574 	subsvc	r6, pc, #486539264	; 0x1d000000
    19c0:	61620077 	smcvs	8199	; 0x2007
    19c4:	00726464 	rsbseq	r6, r2, r4, ror #8
    19c8:	706f7473 	rsbvc	r7, pc, r3, ror r4
    19cc:	74756f5f 	ldrbtvc	r6, [r5], #-3935	; 0xf5f
    19d0:	67657200 	strbvs	r7, [r5, -r0, lsl #4]!
    19d4:	6c74635f 	ldclvs	3, cr6, [r4], #-380	; 0xfffffe84
    19d8:	61747300 	cmnvs	r4, r0, lsl #6
    19dc:	7962646e 	stmdbvc	r2!, {r1, r2, r3, r5, r6, sl, sp, lr}^
    19e0:	6977745f 	ldmdbvs	r7!, {r0, r1, r2, r3, r4, r6, sl, ip, sp, lr}^
    19e4:	696e695f 	stmdbvs	lr!, {r0, r1, r2, r3, r4, r6, r8, fp, sp, lr}^
    19e8:	61740074 	cmnvs	r4, r4, ror r0
    19ec:	77745f67 	ldrbvc	r5, [r4, -r7, ror #30]!
    19f0:	725f6369 	subsvc	r6, pc, #-1543503871	; 0xa4000001
    19f4:	72006765 	andvc	r6, r0, #26476544	; 0x1940000
    19f8:	735f6765 	cmpvc	pc, #26476544	; 0x1940000
    19fc:	72646461 	rsbvc	r6, r4, #1627389952	; 0x61000000
    1a00:	67657200 	strbvs	r7, [r5, -r0, lsl #4]!
    1a04:	74636c5f 	strbtvc	r6, [r3], #-3167	; 0xc5f
    1a08:	6572006c 	ldrbvs	r0, [r2, #-108]!	; 0x6c
    1a0c:	74735f67 	ldrbtvc	r5, [r3], #-3943	; 0xf67
    1a10:	73757461 	cmnvc	r5, #1627389952	; 0x61000000
    1a14:	61747300 	cmnvs	r4, r0, lsl #6
    1a18:	745f6574 	ldrbvc	r6, [pc], #1396	; 1a20 <__standby_start+0x1a20>
    1a1c:	7300706d 	movwvc	r7, #109	; 0x6d
    1a20:	646e6174 	strbtvs	r6, [lr], #-372	; 0x174
    1a24:	755f7962 	ldrbvc	r7, [pc, #-2402]	; 10ca <__standby_start+0x10ca>
    1a28:	632e6273 	teqvs	lr, #805306375	; 0x30000007
    1a2c:	61747300 	cmnvs	r4, r0, lsl #6
    1a30:	7962646e 	stmdbvc	r2!, {r1, r2, r3, r5, r6, sl, sp, lr}^
    1a34:	6273755f 	rsbsvs	r7, r3, #398458880	; 0x17c00000
    1a38:	6978655f 	ldmdbvs	r8!, {r0, r1, r2, r3, r4, r6, r8, sl, sp, lr}^
    1a3c:	74730074 	ldrbtvc	r0, [r3], #-116	; 0x74
    1a40:	62646e61 	rsbvs	r6, r4, #1552	; 0x610
    1a44:	73695f79 	cmnvc	r9, #484	; 0x1e4
    1a48:	6273755f 	rsbsvs	r7, r3, #398458880	; 0x17c00000
    1a4c:	6174735f 	cmnvs	r4, pc, asr r3
    1a50:	5f737574 	svcpl	0x00737574
    1a54:	6e616863 	cdpvs	8, 6, cr6, cr1, cr3, {3}
    1a58:	73006567 	movwvc	r6, #1383	; 0x567
    1a5c:	646e6174 	strbtvs	r6, [lr], #-372	; 0x174
    1a60:	715f7962 	cmpvc	pc, r2, ror #18
    1a64:	79726575 	ldmdbvc	r2!, {r0, r2, r4, r5, r6, r8, sl, sp, lr}^
    1a68:	6273755f 	rsbsvs	r7, r3, #398458880	; 0x17c00000
    1a6c:	6576655f 	ldrbvs	r6, [r6, #-1375]!	; 0x55f
    1a70:	7300746e 	movwvc	r7, #1134	; 0x46e
    1a74:	646e6174 	strbtvs	r6, [lr], #-372	; 0x174
    1a78:	755f7962 	ldrbvc	r7, [pc, #-2402]	; 111e <__standby_start+0x111e>
    1a7c:	695f6273 	ldmdbvs	pc, {r0, r1, r4, r5, r6, r9, sp, lr}^
    1a80:	0074696e 	rsbseq	r6, r4, lr, ror #18
    1a84:	616c6564 	cmnvs	ip, r4, ror #10
    1a88:	736d5f79 	cmnvc	sp, #484	; 0x1e4
    1a8c:	2e2f2e00 	cdpcs	14, 2, cr2, cr15, cr0, {0}
    1a90:	6d702f2e 	ldclvs	15, cr2, [r0, #-184]!	; 0xffffff48
    1a94:	6265645f 	rsbvs	r6, r5, #1593835520	; 0x5f000000
    1a98:	632e6775 	teqvs	lr, #30670848	; 0x1d40000
    1a9c:	76617300 	strbtvc	r7, [r1], -r0, lsl #6
    1aa0:	75735f65 	ldrbvc	r5, [r3, #-3941]!	; 0xf65
    1aa4:	5f69356e 	svcpl	0x0069356e
    1aa8:	5f6d656d 	svcpl	0x006d656d
    1aac:	74617473 	strbtvc	r7, [r1], #-1139	; 0x473
    1ab0:	74007375 	strvc	r7, [r0], #-885	; 0x375
    1ab4:	65677261 	strbvs	r7, [r7, #-609]!	; 0x261
    1ab8:	6f690074 	svcvs	0x00690074
    1abc:	696e695f 	stmdbvs	lr!, {r0, r1, r2, r3, r4, r6, r8, fp, sp, lr}^
    1ac0:	69685f74 	stmdbvs	r8!, {r2, r4, r5, r6, r8, r9, sl, fp, ip, lr}^
    1ac4:	63006867 	movwvs	r6, #2151	; 0x867
    1ac8:	676e6168 	strbvs	r6, [lr, -r8, ror #2]!
    1acc:	75725f65 	ldrbvc	r5, [r2, #-3941]!	; 0xf65
    1ad0:	6d69746e 	cfstrdvs	mvd7, [r9, #-440]!	; 0xfffffe48
    1ad4:	6e655f65 	cdpvs	15, 6, cr5, cr5, cr5, {3}
    1ad8:	65720076 	ldrbvs	r0, [r2, #-118]!	; 0x76
    1adc:	726f7473 	rsbvc	r7, pc, #1929379840	; 0x73000000
    1ae0:	65705f65 	ldrbvs	r5, [r0, #-3941]!	; 0xf65
    1ae4:	6f636672 	svcvs	0x00636672
    1ae8:	65746e75 	ldrbvs	r6, [r4, #-3701]!	; 0xe75
    1aec:	6f6c0072 	svcvs	0x006c0072
    1af0:	665f706f 	ldrbvs	r7, [pc], -pc, rrx
    1af4:	0067616c 	rsbeq	r6, r7, ip, ror #2
    1af8:	616c6564 	cmnvs	ip, r4, ror #10
    1afc:	73755f79 	cmnvc	r5, #484	; 0x1e4
    1b00:	65766f00 	ldrbvs	r6, [r6, #-3840]!	; 0xf00
    1b04:	61656872 	smcvs	22146	; 0x5682
    1b08:	6e650064 	cdpvs	0, 6, cr0, cr5, cr4, {3}
    1b0c:	656c6261 	strbvs	r6, [ip, #-609]!	; 0x261
    1b10:	7669645f 	undefined instruction 0x7669645f
    1b14:	72656469 	rsbvc	r6, r5, #1761607680	; 0x69000000
    1b18:	73657200 	cmnvc	r5, #0
    1b1c:	635f7465 	cmpvs	pc, #1694498816	; 0x65000000
    1b20:	746e756f 	strbtvc	r7, [lr], #-1391	; 0x56f
    1b24:	73007265 	movwvc	r7, #613	; 0x265
    1b28:	5f657661 	svcpl	0x00657661
    1b2c:	5f6d656d 	svcpl	0x006d656d
    1b30:	74617473 	strbtvc	r7, [r1], #-1139	; 0x473
    1b34:	6e5f7375 	mrcvs	3, 2, r7, cr15, cr5, {3}
    1b38:	756d6d6f 	strbvc	r6, [sp, #-3439]!	; 0xd6f
    1b3c:	5f6f6900 	svcpl	0x006f6900
    1b40:	68676968 	stmdavs	r7!, {r3, r5, r6, r8, fp, sp, lr}^
    1b44:	63616200 	cmnvs	r1, #0
    1b48:	5f70756b 	svcpl	0x0070756b
    1b4c:	66726570 	undefined instruction 0x66726570
    1b50:	756f635f 	strbvc	r6, [pc, #-863]!	; 17f9 <__standby_start+0x17f9>
    1b54:	7265746e 	rsbvc	r7, r5, #1845493760	; 0x6e000000
    1b58:	616e655f 	cmnvs	lr, pc, asr r5
    1b5c:	5f656c62 	svcpl	0x00656c62
    1b60:	00676572 	rsbeq	r6, r7, r2, ror r5
    1b64:	65766173 	ldrbvs	r6, [r6, #-371]!	; 0x173
    1b68:	6d656d5f 	stclvs	13, cr6, [r5, #-380]!	; 0xfffffe84
    1b6c:	616c665f 	cmnvs	ip, pc, asr r6
    1b70:	6d630067 	stclvs	0, cr0, [r3, #-412]!	; 0xfffffe64
    1b74:	65725f75 	ldrbvs	r5, [r2, #-3957]!	; 0xf75
    1b78:	61620067 	cmnvs	r2, r7, rrx
    1b7c:	70756b63 	rsbsvc	r6, r5, r3, ror #22
    1b80:	7265705f 	rsbvc	r7, r5, #95	; 0x5f
    1b84:	756f6366 	strbvc	r6, [pc, #-870]!	; 1826 <__standby_start+0x1826>
    1b88:	7265746e 	rsbvc	r7, r5, #1845493760	; 0x6e000000
    1b8c:	5f737500 	svcpl	0x00737500
    1b90:	00746e63 	rsbseq	r6, r4, r3, ror #28
    1b94:	725f6f64 	subsvc	r6, pc, #400	; 0x190
    1b98:	74657365 	strbtvc	r7, [r5], #-869	; 0x365
    1b9c:	6b616600 	blvs	185b3a4 <__standby_start+0x185b3a4>
    1ba0:	75625f65 	strbvc	r5, [r2, #-3941]!	; 0xf65
    1ba4:	775f7973 	undefined instruction 0x775f7973
    1ba8:	69746961 	ldmdbvs	r4!, {r0, r5, r6, r8, fp, sp, lr}^
    1bac:	6200676e 	andvs	r6, r0, #28835840	; 0x1b80000
    1bb0:	756b6361 	strbvc	r6, [fp, #-865]!	; 0x361
    1bb4:	65705f70 	ldrbvs	r5, [r0, #-3952]!	; 0xf70
    1bb8:	635f6672 	cmpvs	pc, #119537664	; 0x7200000
    1bbc:	746e756f 	strbtvc	r7, [lr], #-1391	; 0x56f
    1bc0:	635f7265 	cmpvs	pc, #1342177286	; 0x50000006
    1bc4:	5f6c7274 	svcpl	0x006c7274
    1bc8:	00676572 	rsbeq	r6, r7, r2, ror r5
    1bcc:	695f6f69 	ldmdbvs	pc, {r0, r3, r5, r6, r8, r9, sl, fp, sp, lr}^
    1bd0:	5f74696e 	svcpl	0x0074696e
    1bd4:	00776f6c 	rsbseq	r6, r7, ip, ror #30
    1bd8:	5f756d6d 	svcpl	0x00756d6d
    1bdc:	67616c66 	strbvs	r6, [r1, -r6, ror #24]!
    1be0:	5f6f6900 	svcpl	0x006f6900
    1be4:	74696e69 	strbtvc	r6, [r9], #-3689	; 0xe69
    1be8:	74656700 	strbtvc	r6, [r5], #-1792	; 0x700
    1bec:	6d656d5f 	stclvs	13, cr6, [r5, #-380]!	; 0xfffffe84
    1bf0:	6174735f 	cmnvs	r4, pc, asr r3
    1bf4:	00737574 	rsbseq	r7, r3, r4, ror r5
    1bf8:	65766173 	ldrbvs	r6, [r6, #-371]!	; 0x173
    1bfc:	6e75735f 	mrcvs	3, 3, r7, cr5, cr15, {2}
    1c00:	6d5f6935 	ldclvs	9, cr6, [pc, #-212]	; 0xffffff2c
    1c04:	735f6d65 	cmpvc	pc, #6464	; 0x1940
    1c08:	75746174 	ldrbvc	r6, [r4, #-372]!	; 0x174
    1c0c:	6f6e5f73 	svcvs	0x006e5f73
    1c10:	00756d6d 	rsbseq	r6, r5, sp, ror #26
    1c14:	5f746567 	svcpl	0x00746567
    1c18:	6c637963 	stclvs	9, cr7, [r3], #-396	; 0xfffffe74
    1c1c:	756f6365 	strbvc	r6, [pc, #-869]!	; 18bf <__standby_start+0x18bf>
    1c20:	6300746e 	movwvs	r7, #1134	; 0x46e
    1c24:	665f7570 	undefined instruction 0x665f7570
    1c28:	00716572 	rsbseq	r6, r1, r2, ror r5
    1c2c:	74696e69 	strbtvc	r6, [r9], #-3689	; 0xe69
    1c30:	7265705f 	rsbvc	r7, r5, #95	; 0x5f
    1c34:	756f6366 	strbvc	r6, [pc, #-870]!	; 18d6 <__standby_start+0x18d6>
    1c38:	7265746e 	rsbvc	r7, r5, #1845493760	; 0x6e000000
    1c3c:	61660073 	smcvs	24579	; 0x6003
    1c40:	726f7463 	rsbvc	r7, pc, #1660944384	; 0x63000000
    1c44:	66006b5f 	undefined instruction 0x66006b5f
    1c48:	6f746361 	svcvs	0x00746361
    1c4c:	006d5f72 	rsbeq	r5, sp, r2, ror pc
    1c50:	74636166 	strbtvc	r6, [r3], #-358	; 0x166
    1c54:	6e5f726f 	cdpvs	2, 5, cr7, cr15, cr15, {3}
    1c58:	63616600 	cmnvs	r1, #0
    1c5c:	5f726f74 	svcpl	0x00726f74
    1c60:	61730070 	cmnvs	r3, r0, ror r0
    1c64:	5f646576 	svcpl	0x00646576
    1c68:	67616c66 	strbvs	r6, [r1, -r6, ror #24]!
    1c6c:	76617300 	strbtvc	r7, [r1], -r0, lsl #6
    1c70:	656d5f65 	strbvs	r5, [sp, #-3941]!	; 0xf65
    1c74:	74735f6d 	ldrbtvc	r5, [r3], #-3949	; 0xf6d
    1c78:	73757461 	cmnvc	r5, #1627389952	; 0x61000000
    1c7c:	69727000 	ldmdbvs	r2!, {ip, sp, lr}^
    1c80:	5244006f 	subpl	r0, r4, #111	; 0x6f
    1c84:	5f434d41 	svcpl	0x00434d41
    1c88:	72746572 	rsbsvc	r6, r4, #478150656	; 0x1c800000
    1c8c:	696e6961 	stmdbvs	lr!, {r0, r5, r6, r8, fp, sp, lr}^
    1c90:	4400676e 	strmi	r6, [r0], #-1902	; 0x76e
    1c94:	434d4152 	movtmi	r4, #53586	; 0xd152
    1c98:	736f685f 	cmnvc	pc, #6225920	; 0x5f0000
    1c9c:	726f7074 	rsbvc	r7, pc, #116	; 0x74
    1ca0:	6e6f5f74 	mcrvs	15, 3, r5, cr15, cr4, {3}
    1ca4:	66666f5f 	uqsubaddxvs	r6, r6, pc
    1ca8:	67657200 	strbvs	r7, [r5, -r0, lsl #4]!
    1cac:	7272645f 	rsbsvc	r6, r2, #1593835520	; 0x5f000000
    1cb0:	61726400 	cmnvs	r2, r0, lsl #8
    1cb4:	6f705f6d 	svcvs	0x00705f6d
    1cb8:	5f726577 	svcpl	0x00726577
    1cbc:	705f7075 	subsvc	r7, pc, r5, ror r0
    1cc0:	65636f72 	strbvs	r6, [r3, #-3954]!	; 0xf72
    1cc4:	72007373 	andvc	r7, r0, #-872415231	; 0xcc000001
    1cc8:	645f6765 	ldrbvs	r6, [pc], #1893	; 1cd0 <__standby_start+0x1cd0>
    1ccc:	6d007263 	sfmvs	f7, 4, [r0, #-396]	; (stcvs 2, cr7, [r0, #-396])	; 0xfffffe74
    1cd0:	5f6c7463 	svcpl	0x006c7463
    1cd4:	63657270 	cmnvs	r5, #7
    1cd8:	67726168 	ldrbvs	r6, [r2, -r8, ror #2]!
    1cdc:	6c615f65 	stclvs	15, cr5, [r1], #-404	; 0xfffffe6c
    1ce0:	6572006c 	ldrbvs	r0, [r2, #-108]!	; 0x6c
    1ce4:	717a5f67 	cmnvc	sl, r7, ror #30
    1ce8:	70007273 	andvc	r7, r0, r3, ror r2
    1cec:	5f74726f 	svcpl	0x0074726f
    1cf0:	74696177 	strbtvc	r6, [r9], #-375	; 0x177
    1cf4:	6379635f 	cmnvs	r9, #2080374785	; 0x7c000001
    1cf8:	4400656c 	strmi	r6, [r0], #-1388	; 0x56c
    1cfc:	434d4152 	movtmi	r4, #53586	; 0xd152
    1d00:	6978655f 	ldmdbvs	r8!, {r0, r1, r2, r3, r4, r6, r8, sl, sp, lr}^
    1d04:	65735f74 	ldrbvs	r5, [r3, #-3956]!	; 0xf74
    1d08:	6572666c 	ldrbvs	r6, [r2, #-1644]!	; 0x66c
    1d0c:	73657266 	cmnvc	r5, #1610612742	; 0x60000006
    1d10:	65720068 	ldrbvs	r0, [r2, #-104]!	; 0x68
    1d14:	717a5f67 	cmnvc	sl, r7, ror #30
    1d18:	00307263 	eorseq	r7, r0, r3, ror #4
    1d1c:	5f676572 	svcpl	0x00676572
    1d20:	30727074 	rsbscc	r7, r2, r4, ror r0
    1d24:	61726400 	cmnvs	r2, r0, lsl #8
    1d28:	6f685f6d 	svcvs	0x00685f6d
    1d2c:	6f707473 	svcvs	0x00707473
    1d30:	735f7472 	cmpvc	pc, #1912602624	; 0x72000000
    1d34:	70757465 	rsbsvc	r7, r5, r5, ror #8
    1d38:	67657200 	strbvs	r7, [r5, -r0, lsl #4]!
    1d3c:	726d655f 	rsbvc	r6, sp, #398458880	; 0x17c00000
    1d40:	65720032 	ldrbvs	r0, [r2, #-50]!	; 0x32
    1d44:	6d655f67 	stclvs	15, cr5, [r5, #-412]!	; 0xfffffe64
    1d48:	6d003372 	stcvs	3, cr3, [r0, #-456]	; 0xfffffe38
    1d4c:	5f6c7463 	svcpl	0x006c7463
    1d50:	5f626861 	svcpl	0x00626861
    1d54:	65736572 	ldrbvs	r6, [r3, #-1394]!	; 0x572
    1d58:	52440074 	subpl	r0, r4, #116	; 0x74
    1d5c:	5f434d41 	svcpl	0x00434d41
    1d60:	74697865 	strbtvc	r7, [r9], #-2149	; 0x865
    1d64:	776f705f 	undefined instruction 0x776f705f
    1d68:	645f7265 	ldrbvs	r7, [pc], #613	; 1d70 <__standby_start+0x1d70>
    1d6c:	006e776f 	rsbeq	r7, lr, pc, ror #14
    1d70:	6d617264 	sfmvs	f7, 2, [r1, #-400]!	; (stclvs 2, cr7, [r1, #-400]!)	; 0xfffffe70
    1d74:	776f705f 	undefined instruction 0x776f705f
    1d78:	735f7265 	cmpvc	pc, #1342177286	; 0x50000006
    1d7c:	5f657661 	svcpl	0x00657661
    1d80:	636f7270 	cmnvs	pc, #7
    1d84:	00737365 	rsbseq	r7, r3, r5, ror #6
    1d88:	4d415244 	sfmmi	f5, 2, [r1, #-272]	; (stclmi 2, cr5, [r1, #-272])	; 0xfffffef0
    1d8c:	6f685f43 	svcvs	0x00685f43
    1d90:	6f707473 	svcvs	0x00707473
    1d94:	735f7472 	cmpvc	pc, #1912602624	; 0x72000000
    1d98:	70757465 	rsbsvc	r7, r5, r5, ror #8
    1d9c:	67657200 	strbvs	r7, [r5, -r0, lsl #4]!
    1da0:	636f695f 	cmnvs	pc, #1556480	; 0x17c000
    1da4:	72640072 	rsbvc	r0, r4, #114	; 0x72
    1da8:	685f6d61 	ldmdavs	pc, {r0, r5, r6, r8, sl, fp, sp, lr}^
    1dac:	7074736f 	rsbsvc	r7, r4, pc, ror #6
    1db0:	5f74726f 	svcpl	0x0074726f
    1db4:	63656863 	cmnvs	r5, #6488064	; 0x630000
    1db8:	68615f6b 	stmdavs	r1!, {r0, r1, r3, r5, r6, r8, r9, sl, fp, ip, lr}^
    1dbc:	69665f62 	stmdbvs	r6!, {r1, r5, r6, r8, r9, sl, fp, ip, lr}^
    1dc0:	735f6f66 	cmpvc	pc, #408	; 0x198
    1dc4:	75746174 	ldrbvc	r6, [r4, #-372]!	; 0x174
    1dc8:	65720073 	ldrbvs	r0, [r2, #-115]!	; 0x73
    1dcc:	61765f74 	cmnvs	r6, r4, ror pc
    1dd0:	7264006c 	rsbvc	r0, r4, #108	; 0x6c
    1dd4:	685f6d61 	ldmdavs	pc, {r0, r5, r6, r8, sl, fp, sp, lr}^
    1dd8:	7074736f 	rsbsvc	r7, r4, pc, ror #6
    1ddc:	5f74726f 	svcpl	0x0074726f
    1de0:	6f5f6e6f 	svcvs	0x005f6e6f
    1de4:	72006666 	andvc	r6, r0, #106954752	; 0x6600000
    1de8:	745f6765 	ldrbvc	r6, [pc], #1893	; 1df0 <__standby_start+0x1df0>
    1dec:	00317270 	eorseq	r7, r1, r0, ror r2
    1df0:	5f676572 	svcpl	0x00676572
    1df4:	32727074 	rsbscc	r7, r2, #116	; 0x74
    1df8:	67657200 	strbvs	r7, [r5, -r0, lsl #4]!
    1dfc:	7270745f 	rsbsvc	r7, r0, #1593835520	; 0x5f000000
    1e00:	65720033 	ldrbvs	r0, [r2, #-51]!	; 0x33
    1e04:	726d5f67 	rsbvc	r5, sp, #412	; 0x19c
    1e08:	61726400 	cmnvs	r2, r0, lsl #8
    1e0c:	6e655f6d 	cdpvs	15, 6, cr5, cr5, cr13, {3}
    1e10:	5f726574 	svcpl	0x00726574
    1e14:	65776f70 	ldrbvs	r6, [r7, #-3952]!	; 0xf70
    1e18:	6f645f72 	svcvs	0x00645f72
    1e1c:	64006e77 	strvs	r6, [r0], #-3703	; 0xe77
    1e20:	2f6d6172 	svccs	0x006d6172
    1e24:	6d617264 	sfmvs	f7, 2, [r1, #-400]!	; (stclvs 2, cr7, [r1, #-400]!)	; 0xfffffe70
    1e28:	4400632e 	strmi	r6, [r0], #-814	; 0x32e
    1e2c:	434d4152 	movtmi	r4, #53586	; 0xd152
    1e30:	746e655f 	strbtvc	r6, [lr], #-1375	; 0x55f
    1e34:	735f7265 	cmpvc	pc, #1342177286	; 0x50000006
    1e38:	72666c65 	rsbvc	r6, r6, #25856	; 0x6500
    1e3c:	65726665 	ldrbvs	r6, [r2, #-1637]!	; 0x665
    1e40:	63006873 	movwvs	r6, #2163	; 0x873
    1e44:	6e5f646d 	cdpvs	4, 5, cr6, cr15, cr13, {3}
    1e48:	64006d75 	strvs	r6, [r0], #-3445	; 0xd75
    1e4c:	5f6d6172 	svcpl	0x006d6172
    1e50:	74697865 	strbtvc	r7, [r9], #-2149	; 0x865
    1e54:	776f705f 	undefined instruction 0x776f705f
    1e58:	645f7265 	ldrbvs	r7, [pc], #613	; 1e60 <__standby_start+0x1e60>
    1e5c:	006e776f 	rsbeq	r7, lr, pc, ror #14
    1e60:	74726f70 	ldrbtvc	r6, [r2], #-3952	; 0xf70
    1e64:	7864695f 	stmdavc	r4!, {r0, r1, r2, r3, r4, r6, r8, fp, sp, lr}^
    1e68:	41524400 	cmpmi	r2, r0, lsl #8
    1e6c:	655f434d 	ldrbvs	r4, [pc, #-845]	; 1b27 <__standby_start+0x1b27>
    1e70:	7265746e 	rsbvc	r7, r5, #1845493760	; 0x6e000000
    1e74:	776f705f 	undefined instruction 0x776f705f
    1e78:	645f7265 	ldrbvs	r7, [pc], #613	; 1e80 <__standby_start+0x1e80>
    1e7c:	006e776f 	rsbeq	r7, lr, pc, ror #14
    1e80:	5f676572 	svcpl	0x00676572
    1e84:	00726d65 	rsbseq	r6, r2, r5, ror #26
    1e88:	5f676572 	svcpl	0x00676572
    1e8c:	00726363 	rsbseq	r6, r2, r3, ror #6
    1e90:	4d415244 	sfmmi	f5, 2, [r1, #-272]	; (stclmi 2, cr5, [r1, #-272])	; 0xfffffef0
    1e94:	6f685f43 	svcvs	0x00685f43
    1e98:	6f707473 	svcvs	0x00707473
    1e9c:	635f7472 	cmpvs	pc, #1912602624	; 0x72000000
    1ea0:	6b636568 	blvs	18db448 <__standby_start+0x18db448>
    1ea4:	6268615f 	rsbvs	r6, r8, #-1073741801	; 0xc0000017
    1ea8:	6669665f 	undefined instruction 0x6669665f
    1eac:	74735f6f 	ldrbtvc	r5, [r3], #-3951	; 0xf6f
    1eb0:	73757461 	cmnvc	r5, #1627389952	; 0x61000000
    1eb4:	726f7000 	rsbvc	r7, pc, #0
    1eb8:	72705f74 	rsbsvc	r5, r0, #464	; 0x1d0
    1ebc:	656c5f69 	strbvs	r5, [ip, #-3945]!	; 0xf69
    1ec0:	006c6576 	rsbeq	r6, ip, r6, ror r5
    1ec4:	6d617264 	sfmvs	f7, 2, [r1, #-400]!	; (stclvs 2, cr7, [r1, #-400]!)	; 0xfffffe70
    1ec8:	746e655f 	strbtvc	r6, [lr], #-1375	; 0x55f
    1ecc:	735f7265 	cmpvc	pc, #1342177286	; 0x50000006
    1ed0:	72666c65 	rsbvc	r6, r6, #25856	; 0x6500
    1ed4:	65726665 	ldrbvs	r6, [r2, #-1637]!	; 0x665
    1ed8:	6d006873 	stcvs	8, cr6, [r0, #-460]	; 0xfffffe34
    1edc:	5f6c7463 	svcpl	0x006c7463
    1ee0:	65646f6d 	strbvs	r6, [r4, #-3949]!	; 0xf6d
    1ee4:	6978655f 	ldmdbvs	r8!, {r0, r1, r2, r3, r4, r6, r8, sl, sp, lr}^
    1ee8:	72640074 	rsbvc	r0, r4, #116	; 0x74
    1eec:	655f6d61 	ldrbvs	r6, [pc, #-3425]	; 1193 <__standby_start+0x1193>
    1ef0:	5f746978 	svcpl	0x00746978
    1ef4:	666c6573 	undefined instruction 0x666c6573
    1ef8:	72666572 	rsbvc	r6, r6, #478150656	; 0x1c800000
    1efc:	00687365 	rsbeq	r7, r8, r5, ror #6
    1f00:	6c74636d 	ldclvs	3, cr6, [r4], #-436	; 0xfffffe4c
    1f04:	7465735f 	strbtvc	r7, [r5], #-863	; 0x35f
    1f08:	645f7075 	ldrbvs	r7, [pc], #117	; 1f10 <__standby_start+0x1f10>
    1f0c:	5f6d6172 	svcpl	0x006d6172
    1f10:	636f6c63 	cmnvs	pc, #25344	; 0x6300
    1f14:	636d006b 	cmnvs	sp, #107	; 0x6b
    1f18:	635f6c74 	cmpvs	pc, #29696	; 0x7400
    1f1c:	69666e6f 	stmdbvs	r6!, {r0, r1, r2, r3, r5, r6, r9, sl, fp, sp, lr}^
    1f20:	65727567 	ldrbvs	r7, [r2, #-1383]!	; 0x567
    1f24:	736f685f 	cmnvc	pc, #6225920	; 0x5f0000
    1f28:	726f7074 	rsbvc	r7, pc, #116	; 0x74
    1f2c:	5f5f0074 	svcpl	0x005f0074
    1f30:	00343675 	eorseq	r3, r4, r5, ror r6
    1f34:	70696863 	rsbvc	r6, r9, r3, ror #16
    1f38:	6e65645f 	mcrvs	4, 3, r6, cr5, cr15, {2}
    1f3c:	74636d00 	strbtvc	r6, [r3], #-3328	; 0xd00
    1f40:	6e655f6c 	cdpvs	15, 6, cr5, cr5, cr12, {3}
    1f44:	656c6261 	strbvs	r6, [ip, #-609]!	; 0x261
    1f48:	6c6c645f 	cfstrdvs	mvd6, [ip], #-380	; 0xfffffe84
    1f4c:	52440078 	subpl	r0, r4, #120	; 0x78
    1f50:	5f434d41 	svcpl	0x00434d41
    1f54:	5f746567 	svcpl	0x00746567
    1f58:	6d617264 	sfmvs	f7, 2, [r1, #-400]!	; (stclvs 2, cr7, [r1, #-400]!)	; 0xfffffe70
    1f5c:	7a69735f 	bvc	1a5ece0 <__standby_start+0x1a5ece0>
    1f60:	72640065 	rsbvc	r0, r4, #101	; 0x65
    1f64:	735f6d61 	cmpvc	pc, #6208	; 0x1840
    1f68:	635f7465 	cmpvs	pc, #1694498816	; 0x65000000
    1f6c:	6b636f6c 	blvs	18ddd24 <__standby_start+0x18ddd24>
    1f70:	645f5f00 	ldrbvs	r5, [pc], #3840	; 1f78 <__standby_start+0x1f78>
    1f74:	5f6d6172 	svcpl	0x006d6172
    1f78:	61726170 	cmnvs	r2, r0, ror r1
    1f7c:	6400745f 	strvs	r7, [r0], #-1119	; 0x45f
    1f80:	5f6d6172 	svcpl	0x006d6172
    1f84:	5f746573 	svcpl	0x00746573
    1f88:	6f747561 	svcvs	0x00747561
    1f8c:	72666572 	rsbvc	r6, r6, #478150656	; 0x1c800000
    1f90:	5f687365 	svcpl	0x00687365
    1f94:	6c637963 	stclvs	9, cr7, [r3], #-396	; 0xfffffe74
    1f98:	52440065 	subpl	r0, r4, #101	; 0x65
    1f9c:	5f434d41 	svcpl	0x00434d41
    1fa0:	6e616373 	mcrvs	3, 3, r6, cr1, cr3, {3}
    1fa4:	6165725f 	cmnvs	r5, pc, asr r2
    1fa8:	70697064 	rsbvc	r7, r9, r4, rrx
    1fac:	74730065 	ldrbtvc	r0, [r3], #-101	; 0x65
    1fb0:	62646e61 	rsbvs	r6, r4, #1552	; 0x610
    1fb4:	6c755f79 	ldclvs	15, cr5, [r5], #-484	; 0xfffffe1c
    1fb8:	00766964 	rsbseq	r6, r6, r4, ror #18
    1fbc:	6d617264 	sfmvs	f7, 2, [r1, #-400]!	; (stclvs 2, cr7, [r1, #-400]!)	; 0xfffffe70
    1fc0:	7270745f 	rsbsvc	r7, r0, #1593835520	; 0x5f000000
    1fc4:	72640030 	rsbvc	r0, r4, #48	; 0x30
    1fc8:	745f6d61 	ldrbvc	r6, [pc], #3425	; 1fd0 <__standby_start+0x1fd0>
    1fcc:	00317270 	eorseq	r7, r1, r0, ror r2
    1fd0:	6d617264 	sfmvs	f7, 2, [r1, #-400]!	; (stclvs 2, cr7, [r1, #-400]!)	; 0xfffffe70
    1fd4:	7270745f 	rsbsvc	r7, r0, #1593835520	; 0x5f000000
    1fd8:	72640032 	rsbvc	r0, r4, #50	; 0x32
    1fdc:	745f6d61 	ldrbvc	r6, [pc], #3425	; 1fe4 <__standby_start+0x1fe4>
    1fe0:	00337270 	eorseq	r7, r3, r0, ror r2
    1fe4:	6d617264 	sfmvs	f7, 2, [r1, #-400]!	; (stclvs 2, cr7, [r1, #-400]!)	; 0xfffffe70
    1fe8:	7270745f 	rsbsvc	r7, r0, #1593835520	; 0x5f000000
    1fec:	72640034 	rsbvc	r0, r4, #52	; 0x34
    1ff0:	745f6d61 	ldrbvc	r6, [pc], #3425	; 1ff8 <__standby_start+0x1ff8>
    1ff4:	00357270 	eorseq	r7, r5, r0, ror r2
    1ff8:	6d617264 	sfmvs	f7, 2, [r1, #-400]!	; (stclvs 2, cr7, [r1, #-400]!)	; 0xfffffe70
    1ffc:	6163735f 	cmnvs	r3, pc, asr r3
    2000:	65725f6e 	ldrbvs	r5, [r2, #-3950]!	; 0xf6e
    2004:	69706461 	ldmdbvs	r0!, {r0, r5, r6, sl, sp, lr}^
    2008:	64006570 	strvs	r6, [r0], #-1392	; 0x570
    200c:	5f6d6172 	svcpl	0x006d6172
    2010:	31726d65 	cmncc	r2, r5, ror #26
    2014:	61726400 	cmnvs	r2, r0, lsl #8
    2018:	65735f6d 	ldrbvs	r5, [r3, #-3949]!	; 0xf6d
    201c:	72645f74 	rsbvc	r5, r4, #464	; 0x1d0
    2020:	00657669 	rsbeq	r7, r5, r9, ror #12
    2024:	6d617264 	sfmvs	f7, 2, [r1, #-400]!	; (stclvs 2, cr7, [r1, #-400]!)	; 0xfffffe70
    2028:	7465675f 	strbtvc	r6, [r5], #-1887	; 0x75f
    202c:	7a69735f 	bvc	1a5edb0 <__standby_start+0x1a5edb0>
    2030:	71640065 	cmnvc	r4, r5, rrx
    2034:	68705f73 	ldmdavs	r0!, {r0, r1, r4, r5, r6, r8, r9, sl, fp, ip, lr}^
    2038:	00657361 	rsbeq	r7, r5, r1, ror #6
    203c:	6d617264 	sfmvs	f7, 2, [r1, #-400]!	; (stclvs 2, cr7, [r1, #-400]!)	; 0xfffffe70
    2040:	6968635f 	stmdbvs	r8!, {r0, r1, r2, r3, r4, r6, r8, r9, sp, lr}^
    2044:	65645f70 	strbvs	r5, [r4, #-3952]!	; 0xf70
    2048:	7469736e 	strbtvc	r7, [r9], #-878	; 0x36e
    204c:	52440079 	subpl	r0, r4, #121	; 0x79
    2050:	5f434d41 	svcpl	0x00434d41
    2054:	74696e69 	strbtvc	r6, [r9], #-3689	; 0xe69
    2058:	74636d00 	strbtvc	r6, [r3], #-3328	; 0xd00
    205c:	69645f6c 	stmdbvs	r4!, {r2, r3, r5, r6, r8, r9, sl, fp, ip, lr}^
    2060:	6c626173 	stfvse	f6, [r2], #-460	; 0xfffffe34
    2064:	6c645f65 	stclvs	15, cr5, [r4], #-404	; 0xfffffe6c
    2068:	7264006c 	rsbvc	r0, r4, #108	; 0x6c
    206c:	6f5f6d61 	svcvs	0x005f6d61
    2070:	655f7464 	ldrbvs	r7, [pc, #-1124]	; 1c14 <__standby_start+0x1c14>
    2074:	5244006e 	subpl	r0, r4, #110	; 0x6e
    2078:	5f434d41 	svcpl	0x00434d41
    207c:	74697865 	strbtvc	r7, [r9], #-2149	; 0x865
    2080:	61726400 	cmnvs	r2, r0, lsl #8
    2084:	6e695f6d 	cdpvs	15, 6, cr5, cr9, cr13, {3}
    2088:	6d007469 	cfstrsvs	mvf7, [r0, #-420]	; 0xfffffe5c
    208c:	5f6c7463 	svcpl	0x006c7463
    2090:	62616e65 	rsbvs	r6, r1, #1616	; 0x650
    2094:	645f656c 	ldrbvs	r6, [pc], #1388	; 209c <__standby_start+0x209c>
    2098:	00306c6c 	eorseq	r6, r0, ip, ror #24
    209c:	4d415244 	sfmmi	f5, 2, [r1, #-272]	; (stclmi 2, cr5, [r1, #-272])	; 0xfffffef0
    20a0:	6c635f43 	stclvs	15, cr5, [r3], #-268	; 0xfffffef4
    20a4:	5f6b636f 	svcpl	0x006b636f
    20a8:	7074756f 	rsbsvc	r7, r4, pc, ror #10
    20ac:	655f7475 	ldrbvs	r7, [pc, #-1141]	; 1c3f <__standby_start+0x1c3f>
    20b0:	7264006e 	rsbvc	r0, r4, #110	; 0x6e
    20b4:	625f6d61 	subsvs	r6, pc, #6208	; 0x1840
    20b8:	775f7375 	undefined instruction 0x775f7375
    20bc:	68746469 	ldmdavs	r4!, {r0, r3, r5, r6, sl, sp, lr}^
    20c0:	41524400 	cmpmi	r2, r0, lsl #8
    20c4:	735f434d 	cmpvc	pc, #872415233	; 0x34000001
    20c8:	615f7465 	cmpvs	pc, r5, ror #8
    20cc:	726f7475 	rsbvc	r7, pc, #1962934272	; 0x75000000
    20d0:	65726665 	ldrbvs	r6, [r2, #-1637]!	; 0x665
    20d4:	635f6873 	cmpvs	pc, #7536640	; 0x730000
    20d8:	656c6379 	strbvs	r6, [ip, #-889]!	; 0x379
    20dc:	61726400 	cmnvs	r2, r0, lsl #8
    20e0:	61725f6d 	cmnvs	r2, sp, ror #30
    20e4:	6e5f6b6e 	vnmlavs.f64	d22, d15, d30
    20e8:	64006d75 	strvs	r6, [r0], #-3445	; 0xd75
    20ec:	5f6d6172 	svcpl	0x006d6172
    20f0:	65736162 	ldrbvs	r6, [r3, #-354]!	; 0x162
    20f4:	72646461 	rsbvc	r6, r4, #1627389952	; 0x61000000
    20f8:	61726400 	cmnvs	r2, r0, lsl #8
    20fc:	72642f6d 	rsbvc	r2, r4, #436	; 0x1b4
    2100:	695f6d61 	ldmdbvs	pc, {r0, r5, r6, r8, sl, fp, sp, lr}^
    2104:	2e74696e 	cdpcs	9, 7, cr6, cr4, cr14, {3}
    2108:	636d0063 	cmnvs	sp, #99	; 0x63
    210c:	695f6c74 	ldmdbvs	pc, {r2, r4, r5, r6, sl, fp, sp, lr}^
    2110:	645f6d74 	ldrbvs	r6, [pc], #3444	; 2118 <__standby_start+0x2118>
    2114:	62617369 	rsbvs	r7, r1, #-1543503871	; 0xa4000001
    2118:	7400656c 	strvc	r6, [r0], #-1388	; 0x56c
    211c:	765f706d 	ldrbvc	r7, [pc], -sp, rrx
    2120:	64006c61 	strvs	r6, [r0], #-3169	; 0xc61
    2124:	5f6d6172 	svcpl	0x006d6172
    2128:	6400717a 	strvs	r7, [r0], #-378	; 0x17a
    212c:	5f6d6172 	svcpl	0x006d6172
    2130:	32726d65 	rsbscc	r6, r2, #6464	; 0x1940
    2134:	61726400 	cmnvs	r2, r0, lsl #8
    2138:	6d655f6d 	stclvs	15, cr5, [r5, #-436]!	; 0xfffffe4c
    213c:	6d003372 	stcvs	3, cr3, [r0, #-456]	; 0xfffffe38
    2140:	5f6c7463 	svcpl	0x006c7463
    2144:	5f746573 	svcpl	0x00746573
    2148:	76697264 	strbtvc	r7, [r9], -r4, ror #4
    214c:	72640065 	rsbvc	r0, r4, #101	; 0x65
    2150:	655f6d61 	ldrbvs	r6, [pc, #-3425]	; 13f7 <__standby_start+0x13f7>
    2154:	00746978 	rsbseq	r6, r4, r8, ror r9
    2158:	6c74636d 	ldclvs	3, cr6, [r4], #-436	; 0xfffffe4c
    215c:	7264645f 	rsbvc	r6, r4, #1593835520	; 0x5f000000
    2160:	65725f33 	ldrbvs	r5, [r2, #-3891]!	; 0xf33
    2164:	00746573 	rsbseq	r6, r4, r3, ror r5
    2168:	6d617264 	sfmvs	f7, 2, [r1, #-400]!	; (stclvs 2, cr7, [r1, #-400]!)	; 0xfffffe70
    216c:	6b6c635f 	blvs	1b1aef0 <__standby_start+0x1b1aef0>
    2170:	74636d00 	strbtvc	r6, [r3], #-3328	; 0xd00
    2174:	74695f6c 	strbtvc	r5, [r9], #-3948	; 0xf6c
    2178:	6e655f6d 	cdpvs	15, 6, cr5, cr5, cr13, {3}
    217c:	656c6261 	strbvs	r6, [ip, #-609]!	; 0x261
    2180:	63706800 	cmnvs	r0, #0
    2184:	61765f72 	cmnvs	r6, r2, ror pc
    2188:	0065756c 	rsbeq	r7, r5, ip, ror #10
    218c:	6d617264 	sfmvs	f7, 2, [r1, #-400]!	; (stclvs 2, cr7, [r1, #-400]!)	; 0xfffffe70
    2190:	5f6f695f 	svcpl	0x006f695f
    2194:	74646977 	strbtvc	r6, [r4], #-2423	; 0x977
    2198:	72640068 	rsbvc	r0, r4, #104	; 0x68
    219c:	745f6d61 	ldrbvc	r6, [pc], #3425	; 21a4 <__standby_start+0x21a4>
    21a0:	00657079 	rsbeq	r7, r5, r9, ror r0
    21a4:	5f6c6c64 	svcpl	0x006c6c64
    21a8:	006d756e 	rsbeq	r7, sp, lr, ror #10
    21ac:	6d617264 	sfmvs	f7, 2, [r1, #-400]!	; (stclvs 2, cr7, [r1, #-400]!)	; 0xfffffe70
    21b0:	7361635f 	cmnvc	r1, #2080374785	; 0x7c000001
	...

Disassembly of section .comment:

00000000 <.comment>:
   0:	3a434347 	bcc	10d0d24 <__standby_start+0x10d0d24>
   4:	2e342820 	cdpcs	8, 3, cr2, cr4, cr0, {1}
   8:	5f342e34 	svcpl	0x00342e34
   c:	302e3930 	eorcc	r3, lr, r0, lsr r9
  10:	30322e36 	eorscc	r2, r2, r6, lsr lr
  14:	20293031 	eorcs	r3, r9, r1, lsr r0
  18:	2e342e34 	mrccs	14, 1, r2, cr4, cr4, {1}
  1c:	Address 0x0000001c is out of bounds.


Disassembly of section .ARM.attributes:

00000000 <.ARM.attributes>:
   0:	00002a41 	andeq	r2, r0, r1, asr #20
   4:	61656100 	cmnvs	r5, r0, lsl #2
   8:	01006962 	tsteq	r0, r2, ror #18
   c:	00000020 	andeq	r0, r0, r0, lsr #32
  10:	412d3705 	teqmi	sp, r5, lsl #14
  14:	070a0600 	streq	r0, [sl, -r0, lsl #12]
  18:	09010841 	stmdbeq	r1, {r0, r6, fp}
  1c:	14041202 	strne	r1, [r4], #-514	; 0x202
  20:	17011501 	strne	r1, [r1, -r1, lsl #10]
  24:	1a011803 	bne	46038 <__standby_start+0x46038>
  28:	Address 0x00000028 is out of bounds.

