
suspend.elf:     file format elf32-littlearm


Disassembly of section .text:

00000000 <main>:
       0:	e92d4070 	push	{r4, r5, r6, lr}
       4:	eb000078 	bl	1ec <save_sp_nommu>
       8:	e59f3190 	ldr	r3, [pc, #400]	; 1a0 <__suspend_start+0x1a0>
       c:	e59f4190 	ldr	r4, [pc, #400]	; 1a4 <__suspend_start+0x1a4>
      10:	e5830000 	str	r0, [r3]
      14:	e3a00a03 	mov	r0, #12288	; 0x3000
      18:	eb000bbd 	bl	2f14 <save_sun5i_mem_status>
      1c:	eb000077 	bl	200 <mem_flush_tlb>
      20:	e3030001 	movw	r0, #12289	; 0x3001
      24:	eb000bba 	bl	2f14 <save_sun5i_mem_status>
      28:	eb0000f0 	bl	3f0 <mem_preload_tlb>
      2c:	e3030002 	movw	r0, #12290	; 0x3002
      30:	eb000bb7 	bl	2f14 <save_sun5i_mem_status>
      34:	e59f216c 	ldr	r2, [pc, #364]	; 1a8 <__suspend_start+0x1a8>
      38:	e3a03000 	mov	r3, #0
      3c:	e4c43001 	strb	r3, [r4], #1
      40:	e1540002 	cmp	r4, r2
      44:	9afffffc 	bls	3c <__suspend_start+0x3c>
      48:	e3030004 	movw	r0, #12292	; 0x3004
      4c:	e59f414c 	ldr	r4, [pc, #332]	; 1a0 <__suspend_start+0x1a0>
      50:	eb000baf 	bl	2f14 <save_sun5i_mem_status>
      54:	e59f1150 	ldr	r1, [pc, #336]	; 1ac <__suspend_start+0x1ac>
      58:	e3a02e23 	mov	r2, #560	; 0x230
      5c:	e59f014c 	ldr	r0, [pc, #332]	; 1b0 <__suspend_start+0x1b0>
      60:	eb000054 	bl	1b8 <mem_memcpy>
      64:	e59f5148 	ldr	r5, [pc, #328]	; 1b4 <__suspend_start+0x1b4>
      68:	eb000208 	bl	890 <mem_clk_init>
      6c:	e3030005 	movw	r0, #12293	; 0x3005
      70:	eb000ba7 	bl	2f14 <save_sun5i_mem_status>
      74:	eb000199 	bl	6e0 <mem_int_init>
      78:	e3030006 	movw	r0, #12294	; 0x3006
      7c:	eb000ba4 	bl	2f14 <save_sun5i_mem_status>
      80:	eb0001f2 	bl	850 <mem_tmr_init>
      84:	e3030007 	movw	r0, #12295	; 0x3007
      88:	eb000ba1 	bl	2f14 <save_sun5i_mem_status>
      8c:	e3a00000 	mov	r0, #0
      90:	eb00029b 	bl	b04 <mem_twi_init>
      94:	e3030008 	movw	r0, #12296	; 0x3008
      98:	eb000b9d 	bl	2f14 <save_sun5i_mem_status>
      9c:	e5940018 	ldr	r0, [r4, #24]
      a0:	eb000640 	bl	19a8 <mem_power_init>
      a4:	e3500000 	cmp	r0, #0
      a8:	0a000004 	beq	c0 <__suspend_start+0xc0>
      ac:	e5953000 	ldr	r3, [r5]
      b0:	e2433001 	sub	r3, r3, #1
      b4:	e5853000 	str	r3, [r5]
      b8:	e3530000 	cmp	r3, #0
      bc:	1afffff6 	bne	9c <__suspend_start+0x9c>
      c0:	e59f40ec 	ldr	r4, [pc, #236]	; 1b4 <__suspend_start+0x1b4>
      c4:	e5943000 	ldr	r3, [r4]
      c8:	e3530000 	cmp	r3, #0
      cc:	0a000021 	beq	158 <__suspend_start+0x158>
      d0:	e3a03005 	mov	r3, #5
      d4:	e3030009 	movw	r0, #12297	; 0x3009
      d8:	e5843000 	str	r3, [r4]
      dc:	eb000b8c 	bl	2f14 <save_sun5i_mem_status>
      e0:	eb0008d7 	bl	2444 <dram_power_save_process>
      e4:	e3500000 	cmp	r0, #0
      e8:	1a00001a 	bne	158 <__suspend_start+0x158>
      ec:	eb000278 	bl	ad4 <mem_clk_dramgating>
      f0:	e303000d 	movw	r0, #12301	; 0x300d
      f4:	eb000b7a 	bl	2ee4 <save_mem_status>
      f8:	eb000136 	bl	5d8 <disable_mmu>
      fc:	eb00003f 	bl	200 <mem_flush_tlb>
     100:	e3030012 	movw	r0, #12306	; 0x3012
     104:	eb000b7e 	bl	2f04 <save_mem_status_nommu>
     108:	eb0000f5 	bl	4e4 <mem_preload_tlb_nommu>
     10c:	eb000469 	bl	12b8 <mem_power_off_nommu>
     110:	e3500000 	cmp	r0, #0
     114:	0a000004 	beq	12c <__suspend_start+0x12c>
     118:	e5943000 	ldr	r3, [r4]
     11c:	e2433001 	sub	r3, r3, #1
     120:	e5843000 	str	r3, [r4]
     124:	e3530000 	cmp	r3, #0
     128:	1afffff7 	bne	10c <__suspend_start+0x10c>
     12c:	e59f3080 	ldr	r3, [pc, #128]	; 1b4 <__suspend_start+0x1b4>
     130:	e5932000 	ldr	r2, [r3]
     134:	e3520000 	cmp	r2, #0
     138:	0a000004 	beq	150 <__suspend_start+0x150>
     13c:	e3a02005 	mov	r2, #5
     140:	e3030015 	movw	r0, #12309	; 0x3015
     144:	e5832000 	str	r2, [r3]
     148:	eb000b6d 	bl	2f04 <save_mem_status_nommu>
     14c:	ea000000 	b	154 <__suspend_start+0x154>
     150:	eb00012f 	bl	614 <enable_mmu>
     154:	eb000b11 	bl	2da0 <init_DRAM>
     158:	e59f5040 	ldr	r5, [pc, #64]	; 1a0 <__suspend_start+0x1a0>
     15c:	e59f4050 	ldr	r4, [pc, #80]	; 1b4 <__suspend_start+0x1b4>
     160:	e5950018 	ldr	r0, [r5, #24]
     164:	eb0004a3 	bl	13f8 <mem_power_exit>
     168:	e3500000 	cmp	r0, #0
     16c:	0a000004 	beq	184 <__suspend_start+0x184>
     170:	e5943000 	ldr	r3, [r4]
     174:	e2433001 	sub	r3, r3, #1
     178:	e5843000 	str	r3, [r4]
     17c:	e3530000 	cmp	r3, #0
     180:	1afffff6 	bne	160 <__suspend_start+0x160>
     184:	e59f3028 	ldr	r3, [pc, #40]	; 1b4 <__suspend_start+0x1b4>
     188:	e3e00000 	mvn	r0, #0
     18c:	e5932000 	ldr	r2, [r3]
     190:	e3520000 	cmp	r2, #0
     194:	13a02005 	movne	r2, #5
     198:	15832000 	strne	r2, [r3]
     19c:	e8bd8070 	pop	{r4, r5, r6, pc}
     1a0:	00004000 	andeq	r4, r0, r0
     1a4:	00004000 	andeq	r4, r0, r0
     1a8:	00004288 	andeq	r4, r0, r8, lsl #5
     1ac:	c0110000 	andsgt	r0, r1, r0
     1b0:	00004004 	andeq	r4, r0, r4
     1b4:	00003e84 	andeq	r3, r0, r4, lsl #29

000001b8 <mem_memcpy>:
     1b8:	e3a03000 	mov	r3, #0
     1bc:	ea000002 	b	1cc <mem_memcpy+0x14>
     1c0:	e7d1c003 	ldrb	ip, [r1, r3]
     1c4:	e7c0c003 	strb	ip, [r0, r3]
     1c8:	e2833001 	add	r3, r3, #1
     1cc:	e3520000 	cmp	r2, #0
     1d0:	e2422001 	sub	r2, r2, #1
     1d4:	cafffff9 	bgt	1c0 <mem_memcpy+0x8>
     1d8:	e12fff1e 	bx	lr
     1dc:	00000000 	andeq	r0, r0, r0

000001e0 <save_sp>:
     1e0:	e1a0000d 	mov	r0, sp
     1e4:	e59fd468 	ldr	sp, [pc, #1128]	; 654 <__turn_mmu_on+0x14>
     1e8:	e1a0f00e 	mov	pc, lr

000001ec <save_sp_nommu>:
     1ec:	e1a0000d 	mov	r0, sp
     1f0:	e59fd460 	ldr	sp, [pc, #1120]	; 658 <__turn_mmu_on+0x18>
     1f4:	e1a0f00e 	mov	pc, lr

000001f8 <restore_sp>:
     1f8:	e1a0d000 	mov	sp, r0
     1fc:	e1a0f00e 	mov	pc, lr

00000200 <mem_flush_tlb>:
     200:	e92d000f 	push	{r0, r1, r2, r3}
     204:	f57ff04f 	dsb	sy
     208:	e3a00000 	mov	r0, #0
     20c:	ee080f17 	mcr	15, 0, r0, cr8, cr7, {0}
     210:	ee070fd5 	mcr	15, 0, r0, cr7, cr5, {6}
     214:	f57ff04f 	dsb	sy
     218:	f57ff06f 	isb	sy
     21c:	e3a00000 	mov	r0, #0
     220:	ee0a0f10 	mcr	15, 0, r0, cr10, cr0, {0}
     224:	e3a00000 	mov	r0, #0
     228:	ee0a0f30 	mcr	15, 0, r0, cr10, cr0, {1}
     22c:	f57ff04f 	dsb	sy
     230:	f57ff06f 	isb	sy
     234:	e8bd000f 	pop	{r0, r1, r2, r3}
     238:	e1a0f00e 	mov	pc, lr

0000023c <flush_dcache>:
     23c:	e92d1fff 	push	{r0, r1, r2, r3, r4, r5, r6, r7, r8, r9, sl, fp, ip}
     240:	f57ff05f 	dmb	sy
     244:	ee300f30 	mrc	15, 1, r0, cr0, cr0, {1}
     248:	e2103407 	ands	r3, r0, #117440512	; 0x7000000
     24c:	e1a03ba3 	lsr	r3, r3, #23
     250:	0a00001a 	beq	2c0 <finished>
     254:	e3a0a000 	mov	sl, #0

00000258 <loop1>:
     258:	e08a20aa 	add	r2, sl, sl, lsr #1
     25c:	e1a01230 	lsr	r1, r0, r2
     260:	e2011007 	and	r1, r1, #7
     264:	e3510002 	cmp	r1, #2
     268:	ba000011 	blt	2b4 <skip>
     26c:	ee40af10 	mcr	15, 2, sl, cr0, cr0, {0}
     270:	f57ff06f 	isb	sy
     274:	ee301f10 	mrc	15, 1, r1, cr0, cr0, {0}
     278:	e2012007 	and	r2, r1, #7
     27c:	e2822004 	add	r2, r2, #4
     280:	e59f43d4 	ldr	r4, [pc, #980]	; 65c <__turn_mmu_on+0x1c>
     284:	e01441a1 	ands	r4, r4, r1, lsr #3
     288:	e16f5f14 	clz	r5, r4
     28c:	e59f73cc 	ldr	r7, [pc, #972]	; 660 <__turn_mmu_on+0x20>
     290:	e01776a1 	ands	r7, r7, r1, lsr #13

00000294 <loop2>:
     294:	e1a09004 	mov	r9, r4

00000298 <loop3>:
     298:	e18ab519 	orr	fp, sl, r9, lsl r5
     29c:	e18bb217 	orr	fp, fp, r7, lsl r2
     2a0:	ee07bf5e 	mcr	15, 0, fp, cr7, cr14, {2}
     2a4:	e2599001 	subs	r9, r9, #1
     2a8:	aafffffa 	bge	298 <loop3>
     2ac:	e2577001 	subs	r7, r7, #1
     2b0:	aafffff7 	bge	294 <loop2>

000002b4 <skip>:
     2b4:	e28aa002 	add	sl, sl, #2
     2b8:	e153000a 	cmp	r3, sl
     2bc:	caffffe5 	bgt	258 <loop1>

000002c0 <finished>:
     2c0:	e3a0a000 	mov	sl, #0
     2c4:	ee40af10 	mcr	15, 2, sl, cr0, cr0, {0}
     2c8:	f57ff04f 	dsb	sy
     2cc:	f57ff06f 	isb	sy
     2d0:	e8bd1fff 	pop	{r0, r1, r2, r3, r4, r5, r6, r7, r8, r9, sl, fp, ip}
     2d4:	e1a0f00e 	mov	pc, lr

000002d8 <flush_icache>:
     2d8:	e92d000f 	push	{r0, r1, r2, r3}
     2dc:	e3a00000 	mov	r0, #0
     2e0:	ee070f15 	mcr	15, 0, r0, cr7, cr5, {0}
     2e4:	f57ff06f 	isb	sy
     2e8:	e8bd000f 	pop	{r0, r1, r2, r3}
     2ec:	e1a0f00e 	mov	pc, lr

000002f0 <invalidate_branch_predictor>:
     2f0:	e92d000f 	push	{r0, r1, r2, r3}
     2f4:	e3a00000 	mov	r0, #0
     2f8:	ee070fd5 	mcr	15, 0, r0, cr7, cr5, {6}
     2fc:	f57ff06f 	isb	sy
     300:	e8bd000f 	pop	{r0, r1, r2, r3}
     304:	e1a0f00e 	mov	pc, lr

00000308 <disable_cache>:
     308:	e92d000f 	push	{r0, r1, r2, r3}
     30c:	ee110f10 	mrc	15, 0, r0, cr1, cr0, {0}
     310:	e3c00a01 	bic	r0, r0, #4096	; 0x1000
     314:	e3c00004 	bic	r0, r0, #4
     318:	ee010f10 	mcr	15, 0, r0, cr1, cr0, {0}
     31c:	f57ff06f 	isb	sy
     320:	e8bd000f 	pop	{r0, r1, r2, r3}
     324:	e1a0f00e 	mov	pc, lr

00000328 <disable_dcache>:
     328:	e92d000f 	push	{r0, r1, r2, r3}
     32c:	ee110f10 	mrc	15, 0, r0, cr1, cr0, {0}
     330:	e3c00004 	bic	r0, r0, #4
     334:	ee010f10 	mcr	15, 0, r0, cr1, cr0, {0}
     338:	f57ff06f 	isb	sy
     33c:	e8bd000f 	pop	{r0, r1, r2, r3}
     340:	e1a0f00e 	mov	pc, lr

00000344 <disable_icache>:
     344:	e92d000f 	push	{r0, r1, r2, r3}
     348:	ee110f10 	mrc	15, 0, r0, cr1, cr0, {0}
     34c:	e3c00a01 	bic	r0, r0, #4096	; 0x1000
     350:	ee010f10 	mcr	15, 0, r0, cr1, cr0, {0}
     354:	f57ff06f 	isb	sy
     358:	e8bd000f 	pop	{r0, r1, r2, r3}
     35c:	e1a0f00e 	mov	pc, lr

00000360 <enable_icache>:
     360:	e92d000f 	push	{r0, r1, r2, r3}
     364:	ee110f10 	mrc	15, 0, r0, cr1, cr0, {0}
     368:	e3800a01 	orr	r0, r0, #4096	; 0x1000
     36c:	ee010f10 	mcr	15, 0, r0, cr1, cr0, {0}
     370:	f57ff06f 	isb	sy
     374:	e8bd000f 	pop	{r0, r1, r2, r3}
     378:	e1a0f00e 	mov	pc, lr

0000037c <disable_l2cache>:
     37c:	e92d000f 	push	{r0, r1, r2, r3}
     380:	ee110f30 	mrc	15, 0, r0, cr1, cr0, {1}
     384:	e3c00002 	bic	r0, r0, #2
     388:	ee010f30 	mcr	15, 0, r0, cr1, cr0, {1}
     38c:	f57ff06f 	isb	sy
     390:	e8bd000f 	pop	{r0, r1, r2, r3}
     394:	e1a0f00e 	mov	pc, lr

00000398 <disable_program_flow_prediction>:
     398:	e92d000f 	push	{r0, r1, r2, r3}
     39c:	ee110f10 	mrc	15, 0, r0, cr1, cr0, {0}
     3a0:	e3c00b02 	bic	r0, r0, #2048	; 0x800
     3a4:	ee010f10 	mcr	15, 0, r0, cr1, cr0, {0}
     3a8:	f57ff06f 	isb	sy
     3ac:	e8bd000f 	pop	{r0, r1, r2, r3}
     3b0:	e1a0f00e 	mov	pc, lr

000003b4 <enable_cache>:
     3b4:	e92d000f 	push	{r0, r1, r2, r3}
     3b8:	ee110f10 	mrc	15, 0, r0, cr1, cr0, {0}
     3bc:	e3800a01 	orr	r0, r0, #4096	; 0x1000
     3c0:	e3800004 	orr	r0, r0, #4
     3c4:	ee010f10 	mcr	15, 0, r0, cr1, cr0, {0}
     3c8:	f57ff06f 	isb	sy
     3cc:	e8bd000f 	pop	{r0, r1, r2, r3}
     3d0:	e1a0f00e 	mov	pc, lr

000003d4 <enable_program_flow_prediction>:
     3d4:	e92d000f 	push	{r0, r1, r2, r3}
     3d8:	ee110f10 	mrc	15, 0, r0, cr1, cr0, {0}
     3dc:	e3800b02 	orr	r0, r0, #2048	; 0x800
     3e0:	ee010f10 	mcr	15, 0, r0, cr1, cr0, {0}
     3e4:	f57ff06f 	isb	sy
     3e8:	e8bd000f 	pop	{r0, r1, r2, r3}
     3ec:	e1a0f00e 	mov	pc, lr

000003f0 <mem_preload_tlb>:
     3f0:	e92d000f 	push	{r0, r1, r2, r3}
     3f4:	e3a00000 	mov	r0, #0
     3f8:	ee0a0f10 	mcr	15, 0, r0, cr10, cr0, {0}
     3fc:	f57ff06f 	isb	sy
     400:	e59f025c 	ldr	r0, [pc, #604]	; 664 <__turn_mmu_on+0x24>
     404:	ee0a0f11 	mcr	15, 0, r0, cr10, cr1, {0}
     408:	e59f0258 	ldr	r0, [pc, #600]	; 668 <__turn_mmu_on+0x28>
     40c:	ee0a0f11 	mcr	15, 0, r0, cr10, cr1, {0}
     410:	e59f0254 	ldr	r0, [pc, #596]	; 66c <__turn_mmu_on+0x2c>
     414:	ee0a0f11 	mcr	15, 0, r0, cr10, cr1, {0}
     418:	e59f0250 	ldr	r0, [pc, #592]	; 670 <__turn_mmu_on+0x30>
     41c:	ee0a0f11 	mcr	15, 0, r0, cr10, cr1, {0}
     420:	e59f024c 	ldr	r0, [pc, #588]	; 674 <__turn_mmu_on+0x34>
     424:	ee0a0f11 	mcr	15, 0, r0, cr10, cr1, {0}
     428:	e59f0248 	ldr	r0, [pc, #584]	; 678 <__turn_mmu_on+0x38>
     42c:	ee0a0f11 	mcr	15, 0, r0, cr10, cr1, {0}
     430:	e59f0244 	ldr	r0, [pc, #580]	; 67c <__turn_mmu_on+0x3c>
     434:	ee0a0f11 	mcr	15, 0, r0, cr10, cr1, {0}
     438:	e59f0240 	ldr	r0, [pc, #576]	; 680 <__turn_mmu_on+0x40>
     43c:	ee0a0f11 	mcr	15, 0, r0, cr10, cr1, {0}
     440:	e3a0020f 	mov	r0, #-268435456	; 0xf0000000
     444:	ee0a0f11 	mcr	15, 0, r0, cr10, cr1, {0}
     448:	e59f0234 	ldr	r0, [pc, #564]	; 684 <__turn_mmu_on+0x44>
     44c:	ee0a0f11 	mcr	15, 0, r0, cr10, cr1, {0}
     450:	e59f0230 	ldr	r0, [pc, #560]	; 688 <__turn_mmu_on+0x48>
     454:	ee0a0f11 	mcr	15, 0, r0, cr10, cr1, {0}
     458:	e59f022c 	ldr	r0, [pc, #556]	; 68c <__turn_mmu_on+0x4c>
     45c:	ee0a0f11 	mcr	15, 0, r0, cr10, cr1, {0}
     460:	e59f0228 	ldr	r0, [pc, #552]	; 690 <__turn_mmu_on+0x50>
     464:	ee0a0f11 	mcr	15, 0, r0, cr10, cr1, {0}
     468:	e59f0224 	ldr	r0, [pc, #548]	; 694 <__turn_mmu_on+0x54>
     46c:	ee0a0f11 	mcr	15, 0, r0, cr10, cr1, {0}
     470:	e59f0220 	ldr	r0, [pc, #544]	; 698 <__turn_mmu_on+0x58>
     474:	ee0a0f11 	mcr	15, 0, r0, cr10, cr1, {0}
     478:	e59f021c 	ldr	r0, [pc, #540]	; 69c <__turn_mmu_on+0x5c>
     47c:	ee0a0f11 	mcr	15, 0, r0, cr10, cr1, {0}
     480:	e59f0218 	ldr	r0, [pc, #536]	; 6a0 <__turn_mmu_on+0x60>
     484:	ee0a0f11 	mcr	15, 0, r0, cr10, cr1, {0}
     488:	e3a00000 	mov	r0, #0
     48c:	ee0a0f30 	mcr	15, 0, r0, cr10, cr0, {1}
     490:	f57ff06f 	isb	sy
     494:	e3a0020f 	mov	r0, #-268435456	; 0xf0000000
     498:	ee0a0f31 	mcr	15, 0, r0, cr10, cr1, {1}
     49c:	e59f01e0 	ldr	r0, [pc, #480]	; 684 <__turn_mmu_on+0x44>
     4a0:	ee0a0f31 	mcr	15, 0, r0, cr10, cr1, {1}
     4a4:	e59f01dc 	ldr	r0, [pc, #476]	; 688 <__turn_mmu_on+0x48>
     4a8:	ee0a0f31 	mcr	15, 0, r0, cr10, cr1, {1}
     4ac:	e59f01d8 	ldr	r0, [pc, #472]	; 68c <__turn_mmu_on+0x4c>
     4b0:	ee0a0f31 	mcr	15, 0, r0, cr10, cr1, {1}
     4b4:	e59f01d4 	ldr	r0, [pc, #468]	; 690 <__turn_mmu_on+0x50>
     4b8:	ee0a0f31 	mcr	15, 0, r0, cr10, cr1, {1}
     4bc:	e59f01d0 	ldr	r0, [pc, #464]	; 694 <__turn_mmu_on+0x54>
     4c0:	ee0a0f31 	mcr	15, 0, r0, cr10, cr1, {1}
     4c4:	e59f01cc 	ldr	r0, [pc, #460]	; 698 <__turn_mmu_on+0x58>
     4c8:	ee0a0f31 	mcr	15, 0, r0, cr10, cr1, {1}
     4cc:	e59f01c8 	ldr	r0, [pc, #456]	; 69c <__turn_mmu_on+0x5c>
     4d0:	ee0a0f31 	mcr	15, 0, r0, cr10, cr1, {1}
     4d4:	e59f01c4 	ldr	r0, [pc, #452]	; 6a0 <__turn_mmu_on+0x60>
     4d8:	ee0a0f31 	mcr	15, 0, r0, cr10, cr1, {1}
     4dc:	e8bd000f 	pop	{r0, r1, r2, r3}
     4e0:	e1a0f00e 	mov	pc, lr

000004e4 <mem_preload_tlb_nommu>:
     4e4:	e92d000f 	push	{r0, r1, r2, r3}
     4e8:	e3a00000 	mov	r0, #0
     4ec:	ee0a0f10 	mcr	15, 0, r0, cr10, cr0, {0}
     4f0:	f57ff06f 	isb	sy
     4f4:	e59f01a8 	ldr	r0, [pc, #424]	; 6a4 <__turn_mmu_on+0x64>
     4f8:	ee0a0f11 	mcr	15, 0, r0, cr10, cr1, {0}
     4fc:	e59f01a4 	ldr	r0, [pc, #420]	; 6a8 <__turn_mmu_on+0x68>
     500:	ee0a0f11 	mcr	15, 0, r0, cr10, cr1, {0}
     504:	e59f01a0 	ldr	r0, [pc, #416]	; 6ac <__turn_mmu_on+0x6c>
     508:	ee0a0f11 	mcr	15, 0, r0, cr10, cr1, {0}
     50c:	e59f019c 	ldr	r0, [pc, #412]	; 6b0 <__turn_mmu_on+0x70>
     510:	ee0a0f11 	mcr	15, 0, r0, cr10, cr1, {0}
     514:	e59f0198 	ldr	r0, [pc, #408]	; 6b4 <__turn_mmu_on+0x74>
     518:	ee0a0f11 	mcr	15, 0, r0, cr10, cr1, {0}
     51c:	e59f0194 	ldr	r0, [pc, #404]	; 6b8 <__turn_mmu_on+0x78>
     520:	ee0a0f11 	mcr	15, 0, r0, cr10, cr1, {0}
     524:	e59f0190 	ldr	r0, [pc, #400]	; 6bc <__turn_mmu_on+0x7c>
     528:	ee0a0f11 	mcr	15, 0, r0, cr10, cr1, {0}
     52c:	e59f018c 	ldr	r0, [pc, #396]	; 6c0 <__turn_mmu_on+0x80>
     530:	ee0a0f11 	mcr	15, 0, r0, cr10, cr1, {0}
     534:	e3a00000 	mov	r0, #0
     538:	ee0a0f11 	mcr	15, 0, r0, cr10, cr1, {0}
     53c:	e3a00b01 	mov	r0, #1024	; 0x400
     540:	ee0a0f11 	mcr	15, 0, r0, cr10, cr1, {0}
     544:	e3a00b02 	mov	r0, #2048	; 0x800
     548:	ee0a0f11 	mcr	15, 0, r0, cr10, cr1, {0}
     54c:	e3a00b03 	mov	r0, #3072	; 0xc00
     550:	ee0a0f11 	mcr	15, 0, r0, cr10, cr1, {0}
     554:	e3a00a01 	mov	r0, #4096	; 0x1000
     558:	ee0a0f11 	mcr	15, 0, r0, cr10, cr1, {0}
     55c:	e3a00b05 	mov	r0, #5120	; 0x1400
     560:	ee0a0f11 	mcr	15, 0, r0, cr10, cr1, {0}
     564:	e3a00b06 	mov	r0, #6144	; 0x1800
     568:	ee0a0f11 	mcr	15, 0, r0, cr10, cr1, {0}
     56c:	e3a00b07 	mov	r0, #7168	; 0x1c00
     570:	ee0a0f11 	mcr	15, 0, r0, cr10, cr1, {0}
     574:	e3a00b1f 	mov	r0, #31744	; 0x7c00
     578:	ee0a0f11 	mcr	15, 0, r0, cr10, cr1, {0}
     57c:	e3a00000 	mov	r0, #0
     580:	ee0a0f30 	mcr	15, 0, r0, cr10, cr0, {1}
     584:	f57ff06f 	isb	sy
     588:	e3a00000 	mov	r0, #0
     58c:	ee0a0f31 	mcr	15, 0, r0, cr10, cr1, {1}
     590:	e3a00b01 	mov	r0, #1024	; 0x400
     594:	ee0a0f31 	mcr	15, 0, r0, cr10, cr1, {1}
     598:	e3a00b02 	mov	r0, #2048	; 0x800
     59c:	ee0a0f31 	mcr	15, 0, r0, cr10, cr1, {1}
     5a0:	e3a00b03 	mov	r0, #3072	; 0xc00
     5a4:	ee0a0f31 	mcr	15, 0, r0, cr10, cr1, {1}
     5a8:	e3a00a01 	mov	r0, #4096	; 0x1000
     5ac:	ee0a0f31 	mcr	15, 0, r0, cr10, cr1, {1}
     5b0:	e3a00b05 	mov	r0, #5120	; 0x1400
     5b4:	ee0a0f31 	mcr	15, 0, r0, cr10, cr1, {1}
     5b8:	e3a00b06 	mov	r0, #6144	; 0x1800
     5bc:	ee0a0f31 	mcr	15, 0, r0, cr10, cr1, {1}
     5c0:	e3a00b07 	mov	r0, #7168	; 0x1c00
     5c4:	ee0a0f31 	mcr	15, 0, r0, cr10, cr1, {1}
     5c8:	e3a00b1f 	mov	r0, #31744	; 0x7c00
     5cc:	ee0a0f31 	mcr	15, 0, r0, cr10, cr1, {1}
     5d0:	e8bd000f 	pop	{r0, r1, r2, r3}
     5d4:	e1a0f00e 	mov	pc, lr

000005d8 <disable_mmu>:
     5d8:	ee111f10 	mrc	15, 0, r1, cr1, cr0, {0}
     5dc:	e3c11a01 	bic	r1, r1, #4096	; 0x1000
     5e0:	e3c11007 	bic	r1, r1, #7
     5e4:	e3c11000 	bic	r1, r1, #0
     5e8:	ea000004 	b	600 <__turn_mmu_off>
     5ec:	e320f000 	nop	{0}
     5f0:	e320f000 	nop	{0}
     5f4:	e320f000 	nop	{0}
     5f8:	e320f000 	nop	{0}
     5fc:	e320f000 	nop	{0}

00000600 <__turn_mmu_off>:
     600:	ee011f10 	mcr	15, 0, r1, cr1, cr0, {0}
     604:	ee103f10 	mrc	15, 0, r3, cr0, cr0, {0}
     608:	e1a03003 	mov	r3, r3
     60c:	e1a03003 	mov	r3, r3
     610:	e1a0f00e 	mov	pc, lr

00000614 <enable_mmu>:
     614:	ee111f10 	mrc	15, 0, r1, cr1, cr0, {0}
     618:	e3811a01 	orr	r1, r1, #4096	; 0x1000
     61c:	e3811007 	orr	r1, r1, #7
     620:	e3811000 	orr	r1, r1, #0
     624:	ea000005 	b	640 <__turn_mmu_on>
     628:	e320f000 	nop	{0}
     62c:	e320f000 	nop	{0}
     630:	e320f000 	nop	{0}
     634:	e320f000 	nop	{0}
     638:	e320f000 	nop	{0}
     63c:	e320f000 	nop	{0}

00000640 <__turn_mmu_on>:
     640:	ee011f10 	mcr	15, 0, r1, cr1, cr0, {0}
     644:	ee103f10 	mrc	15, 0, r3, cr0, cr0, {0}
     648:	e1a03003 	mov	r3, r3
     64c:	e1a03003 	mov	r3, r3
     650:	e1a0f00e 	mov	pc, lr
     654:	f0007ffc 	undefined instruction 0xf0007ffc
     658:	00007ffc 	strdeq	r7, [r0], -ip
     65c:	000003ff 	strdeq	r0, [r0], -pc
     660:	00007fff 	strdeq	r7, [r0], -pc
     664:	f1c20000 	undefined instruction 0xf1c20000
     668:	f1c2ac00 	undefined instruction 0xf1c2ac00
     66c:	f1c2b000 	undefined instruction 0xf1c2b000
     670:	f1c2b400 	undefined instruction 0xf1c2b400
     674:	f1c20400 	undefined instruction 0xf1c20400
     678:	f1c20c00 	undefined instruction 0xf1c20c00
     67c:	f1c22800 	undefined instruction 0xf1c22800
     680:	f1c01000 	undefined instruction 0xf1c01000
     684:	f0000400 	undefined instruction 0xf0000400
     688:	f0000800 	undefined instruction 0xf0000800
     68c:	f0000c00 	undefined instruction 0xf0000c00
     690:	f0001000 	undefined instruction 0xf0001000
     694:	f0001400 	undefined instruction 0xf0001400
     698:	f0001800 	undefined instruction 0xf0001800
     69c:	f0001c00 	undefined instruction 0xf0001c00
     6a0:	f0007c00 	undefined instruction 0xf0007c00
     6a4:	01c20000 	biceq	r0, r2, r0
     6a8:	01c2ac00 	biceq	sl, r2, r0, lsl #24
     6ac:	01c2b000 	biceq	fp, r2, r0
     6b0:	01c2b400 	biceq	fp, r2, r0, lsl #8
     6b4:	01c20400 	biceq	r0, r2, r0, lsl #8
     6b8:	01c20c00 	biceq	r0, r2, r0, lsl #24
     6bc:	01c22800 	biceq	r2, r2, r0, lsl #16
     6c0:	01c01000 	biceq	r1, r0, r0
     6c4:	e320f000 	nop	{0}
     6c8:	e320f000 	nop	{0}
     6cc:	e320f000 	nop	{0}
     6d0:	e320f000 	nop	{0}
     6d4:	e320f000 	nop	{0}
     6d8:	e320f000 	nop	{0}
     6dc:	e320f000 	nop	{0}

000006e0 <mem_int_init>:
     6e0:	e59f308c 	ldr	r3, [pc, #140]	; 774 <mem_int_init+0x94>
     6e4:	e3a01000 	mov	r1, #0
     6e8:	e59f2088 	ldr	r2, [pc, #136]	; 778 <mem_int_init+0x98>
     6ec:	e3e0c000 	mvn	ip, #0
     6f0:	e92d4ff0 	push	{r4, r5, r6, r7, r8, r9, sl, fp, lr}
     6f4:	e593a040 	ldr	sl, [r3, #64]	; 0x40
     6f8:	e5938044 	ldr	r8, [r3, #68]	; 0x44
     6fc:	e1a00001 	mov	r0, r1
     700:	e5936048 	ldr	r6, [r3, #72]	; 0x48
     704:	e5935050 	ldr	r5, [r3, #80]	; 0x50
     708:	e5934054 	ldr	r4, [r3, #84]	; 0x54
     70c:	e5939058 	ldr	r9, [r3, #88]	; 0x58
     710:	e593b030 	ldr	fp, [r3, #48]	; 0x30
     714:	e5937034 	ldr	r7, [r3, #52]	; 0x34
     718:	e5823000 	str	r3, [r2]
     71c:	e5827020 	str	r7, [r2, #32]
     720:	e5937038 	ldr	r7, [r3, #56]	; 0x38
     724:	e582a004 	str	sl, [r2, #4]
     728:	e5828008 	str	r8, [r2, #8]
     72c:	e5827024 	str	r7, [r2, #36]	; 0x24
     730:	e582600c 	str	r6, [r2, #12]
     734:	e5825010 	str	r5, [r2, #16]
     738:	e5824014 	str	r4, [r2, #20]
     73c:	e5829018 	str	r9, [r2, #24]
     740:	e582b01c 	str	fp, [r2, #28]
     744:	e3a02001 	mov	r2, #1
     748:	e5831040 	str	r1, [r3, #64]	; 0x40
     74c:	e5831044 	str	r1, [r3, #68]	; 0x44
     750:	e5831048 	str	r1, [r3, #72]	; 0x48
     754:	e583c050 	str	ip, [r3, #80]	; 0x50
     758:	e583c054 	str	ip, [r3, #84]	; 0x54
     75c:	e583c058 	str	ip, [r3, #88]	; 0x58
     760:	e5831030 	str	r1, [r3, #48]	; 0x30
     764:	e5831034 	str	r1, [r3, #52]	; 0x34
     768:	e5831038 	str	r1, [r3, #56]	; 0x38
     76c:	e5832010 	str	r2, [r3, #16]
     770:	e8bd8ff0 	pop	{r4, r5, r6, r7, r8, r9, sl, fp, pc}
     774:	f1c20400 	undefined instruction 0xf1c20400
     778:	00004234 	andeq	r4, r0, r4, lsr r2

0000077c <mem_int_exit>:
     77c:	e59f3050 	ldr	r3, [pc, #80]	; 7d4 <mem_int_exit+0x58>
     780:	e3a00000 	mov	r0, #0
     784:	e5931004 	ldr	r1, [r3, #4]
     788:	e5932000 	ldr	r2, [r3]
     78c:	e5821040 	str	r1, [r2, #64]	; 0x40
     790:	e5931008 	ldr	r1, [r3, #8]
     794:	e5821044 	str	r1, [r2, #68]	; 0x44
     798:	e593100c 	ldr	r1, [r3, #12]
     79c:	e5821048 	str	r1, [r2, #72]	; 0x48
     7a0:	e5931010 	ldr	r1, [r3, #16]
     7a4:	e5821050 	str	r1, [r2, #80]	; 0x50
     7a8:	e5931014 	ldr	r1, [r3, #20]
     7ac:	e5821054 	str	r1, [r2, #84]	; 0x54
     7b0:	e5931018 	ldr	r1, [r3, #24]
     7b4:	e5821058 	str	r1, [r2, #88]	; 0x58
     7b8:	e593101c 	ldr	r1, [r3, #28]
     7bc:	e5821030 	str	r1, [r2, #48]	; 0x30
     7c0:	e5931020 	ldr	r1, [r3, #32]
     7c4:	e5821034 	str	r1, [r2, #52]	; 0x34
     7c8:	e5933024 	ldr	r3, [r3, #36]	; 0x24
     7cc:	e5823038 	str	r3, [r2, #56]	; 0x38
     7d0:	e12fff1e 	bx	lr
     7d4:	00004234 	andeq	r4, r0, r4, lsr r2

000007d8 <mem_enable_int>:
     7d8:	e59f303c 	ldr	r3, [pc, #60]	; 81c <mem_enable_int+0x44>
     7dc:	e1a022a0 	lsr	r2, r0, #5
     7e0:	e282c010 	add	ip, r2, #16
     7e4:	e200101f 	and	r1, r0, #31
     7e8:	e92d4010 	push	{r4, lr}
     7ec:	e5933000 	ldr	r3, [r3]
     7f0:	e3a04001 	mov	r4, #1
     7f4:	e2822014 	add	r2, r2, #20
     7f8:	e3a00000 	mov	r0, #0
     7fc:	e1a01114 	lsl	r1, r4, r1
     800:	e793410c 	ldr	r4, [r3, ip, lsl #2]
     804:	e1814004 	orr	r4, r1, r4
     808:	e783410c 	str	r4, [r3, ip, lsl #2]
     80c:	e793c102 	ldr	ip, [r3, r2, lsl #2]
     810:	e1cc1001 	bic	r1, ip, r1
     814:	e7831102 	str	r1, [r3, r2, lsl #2]
     818:	e8bd8010 	pop	{r4, pc}
     81c:	00004234 	andeq	r4, r0, r4, lsr r2

00000820 <mem_query_int>:
     820:	e59f3024 	ldr	r3, [pc, #36]	; 84c <mem_query_int+0x2c>
     824:	e200201f 	and	r2, r0, #31
     828:	e1a002a0 	lsr	r0, r0, #5
     82c:	e3a01001 	mov	r1, #1
     830:	e2800004 	add	r0, r0, #4
     834:	e5933000 	ldr	r3, [r3]
     838:	e7933100 	ldr	r3, [r3, r0, lsl #2]
     83c:	e0131211 	ands	r1, r3, r1, lsl r2
     840:	03e00000 	mvneq	r0, #0
     844:	13a00000 	movne	r0, #0
     848:	e12fff1e 	bx	lr
     84c:	00004234 	andeq	r4, r0, r4, lsr r2

00000850 <mem_tmr_init>:
     850:	e59f2008 	ldr	r2, [pc, #8]	; 860 <mem_tmr_init+0x10>
     854:	e59f3008 	ldr	r3, [pc, #8]	; 864 <mem_tmr_init+0x14>
     858:	e5832000 	str	r2, [r3]
     85c:	e12fff1e 	bx	lr
     860:	f1c20c00 	undefined instruction 0xf1c20c00
     864:	0000425c 	andeq	r4, r0, ip, asr r2

00000868 <mem_tmr_disable_watchdog>:
     868:	e59f301c 	ldr	r3, [pc, #28]	; 88c <mem_tmr_disable_watchdog+0x24>
     86c:	e5933000 	ldr	r3, [r3]
     870:	e5932094 	ldr	r2, [r3, #148]	; 0x94
     874:	e3c22002 	bic	r2, r2, #2
     878:	e5832094 	str	r2, [r3, #148]	; 0x94
     87c:	e5932094 	ldr	r2, [r3, #148]	; 0x94
     880:	e3c22001 	bic	r2, r2, #1
     884:	e5832094 	str	r2, [r3, #148]	; 0x94
     888:	e12fff1e 	bx	lr
     88c:	0000425c 	andeq	r4, r0, ip, asr r2

00000890 <mem_clk_init>:
     890:	e59f200c 	ldr	r2, [pc, #12]	; 8a4 <mem_clk_init+0x14>
     894:	e3a00000 	mov	r0, #0
     898:	e59f3008 	ldr	r3, [pc, #8]	; 8a8 <mem_clk_init+0x18>
     89c:	e5832000 	str	r2, [r3]
     8a0:	e12fff1e 	bx	lr
     8a4:	f1c20000 	undefined instruction 0xf1c20000
     8a8:	00004260 	andeq	r4, r0, r0, ror #4

000008ac <mem_clk_plldisable>:
     8ac:	e59f3050 	ldr	r3, [pc, #80]	; 904 <mem_clk_plldisable+0x58>
     8b0:	e3a00000 	mov	r0, #0
     8b4:	e5933000 	ldr	r3, [r3]
     8b8:	e5932000 	ldr	r2, [r3]
     8bc:	e7df2f9f 	bfc	r2, #31, #1
     8c0:	e5832000 	str	r2, [r3]
     8c4:	e5932008 	ldr	r2, [r3, #8]
     8c8:	e7df2f9f 	bfc	r2, #31, #1
     8cc:	e5832008 	str	r2, [r3, #8]
     8d0:	e5932010 	ldr	r2, [r3, #16]
     8d4:	e7df2f9f 	bfc	r2, #31, #1
     8d8:	e5832010 	str	r2, [r3, #16]
     8dc:	e5932018 	ldr	r2, [r3, #24]
     8e0:	e7df2f9f 	bfc	r2, #31, #1
     8e4:	e5832018 	str	r2, [r3, #24]
     8e8:	e5932028 	ldr	r2, [r3, #40]	; 0x28
     8ec:	e7df2f9f 	bfc	r2, #31, #1
     8f0:	e5832028 	str	r2, [r3, #40]	; 0x28
     8f4:	e5932030 	ldr	r2, [r3, #48]	; 0x30
     8f8:	e7df2f9f 	bfc	r2, #31, #1
     8fc:	e5832030 	str	r2, [r3, #48]	; 0x30
     900:	e12fff1e 	bx	lr
     904:	00004260 	andeq	r4, r0, r0, ror #4

00000908 <mem_clk_pllenable>:
     908:	e59f3050 	ldr	r3, [pc, #80]	; 960 <mem_clk_pllenable+0x58>
     90c:	e3a00000 	mov	r0, #0
     910:	e5933000 	ldr	r3, [r3]
     914:	e5932000 	ldr	r2, [r3]
     918:	e3822102 	orr	r2, r2, #-2147483648	; 0x80000000
     91c:	e5832000 	str	r2, [r3]
     920:	e5932008 	ldr	r2, [r3, #8]
     924:	e3822102 	orr	r2, r2, #-2147483648	; 0x80000000
     928:	e5832008 	str	r2, [r3, #8]
     92c:	e5932010 	ldr	r2, [r3, #16]
     930:	e3822102 	orr	r2, r2, #-2147483648	; 0x80000000
     934:	e5832010 	str	r2, [r3, #16]
     938:	e5932018 	ldr	r2, [r3, #24]
     93c:	e3822102 	orr	r2, r2, #-2147483648	; 0x80000000
     940:	e5832018 	str	r2, [r3, #24]
     944:	e5932028 	ldr	r2, [r3, #40]	; 0x28
     948:	e3822102 	orr	r2, r2, #-2147483648	; 0x80000000
     94c:	e5832028 	str	r2, [r3, #40]	; 0x28
     950:	e5932030 	ldr	r2, [r3, #48]	; 0x30
     954:	e3822102 	orr	r2, r2, #-2147483648	; 0x80000000
     958:	e5832030 	str	r2, [r3, #48]	; 0x30
     95c:	e12fff1e 	bx	lr
     960:	00004260 	andeq	r4, r0, r0, ror #4

00000964 <mem_clk_setdiv>:
     964:	e2502000 	subs	r2, r0, #0
     968:	03e00000 	mvneq	r0, #0
     96c:	012fff1e 	bxeq	lr
     970:	e59f3048 	ldr	r3, [pc, #72]	; 9c0 <mem_clk_setdiv+0x5c>
     974:	e3a00000 	mov	r0, #0
     978:	e59fc044 	ldr	ip, [pc, #68]	; 9c4 <mem_clk_setdiv+0x60>
     97c:	e5931054 	ldr	r1, [r3, #84]	; 0x54
     980:	e58c3000 	str	r3, [ip]
     984:	e592c000 	ldr	ip, [r2]
     988:	e7e1c25c 	ubfx	ip, ip, #4, #2
     98c:	e7c1101c 	bfi	r1, ip, #0, #2
     990:	e5831054 	str	r1, [r3, #84]	; 0x54
     994:	e592c000 	ldr	ip, [r2]
     998:	e5931054 	ldr	r1, [r3, #84]	; 0x54
     99c:	e7e1c45c 	ubfx	ip, ip, #8, #2
     9a0:	e7c5121c 	bfi	r1, ip, #4, #2
     9a4:	e5831054 	str	r1, [r3, #84]	; 0x54
     9a8:	e5921000 	ldr	r1, [r2]
     9ac:	e5932054 	ldr	r2, [r3, #84]	; 0x54
     9b0:	e7e11651 	ubfx	r1, r1, #12, #2
     9b4:	e7c92411 	bfi	r2, r1, #8, #2
     9b8:	e5832054 	str	r2, [r3, #84]	; 0x54
     9bc:	e12fff1e 	bx	lr
     9c0:	f1c20000 	undefined instruction 0xf1c20000
     9c4:	00004260 	andeq	r4, r0, r0, ror #4

000009c8 <mem_clk_getdiv>:
     9c8:	e2503000 	subs	r3, r0, #0
     9cc:	03e00000 	mvneq	r0, #0
     9d0:	012fff1e 	bxeq	lr
     9d4:	e59f2040 	ldr	r2, [pc, #64]	; a1c <mem_clk_getdiv+0x54>
     9d8:	e3a00000 	mov	r0, #0
     9dc:	e59f103c 	ldr	r1, [pc, #60]	; a20 <mem_clk_getdiv+0x58>
     9e0:	e592c054 	ldr	ip, [r2, #84]	; 0x54
     9e4:	e5812000 	str	r2, [r1]
     9e8:	e5931000 	ldr	r1, [r3]
     9ec:	e20cc003 	and	ip, ip, #3
     9f0:	e7c7121c 	bfi	r1, ip, #4, #4
     9f4:	e5831000 	str	r1, [r3]
     9f8:	e592c054 	ldr	ip, [r2, #84]	; 0x54
     9fc:	e7e1c25c 	ubfx	ip, ip, #4, #2
     a00:	e7cb141c 	bfi	r1, ip, #8, #4
     a04:	e5831000 	str	r1, [r3]
     a08:	e5922054 	ldr	r2, [r2, #84]	; 0x54
     a0c:	e7e12452 	ubfx	r2, r2, #8, #2
     a10:	e7cf1612 	bfi	r1, r2, #12, #4
     a14:	e5831000 	str	r1, [r3]
     a18:	e12fff1e 	bx	lr
     a1c:	f1c20000 	undefined instruction 0xf1c20000
     a20:	00004260 	andeq	r4, r0, r0, ror #4

00000a24 <mem_clk_set_pll_factor>:
     a24:	e59f3050 	ldr	r3, [pc, #80]	; a7c <mem_clk_set_pll_factor+0x58>
     a28:	e1a02000 	mov	r2, r0
     a2c:	e59fc04c 	ldr	ip, [pc, #76]	; a80 <mem_clk_set_pll_factor+0x5c>
     a30:	e3a00000 	mov	r0, #0
     a34:	e5931000 	ldr	r1, [r3]
     a38:	e58c3000 	str	r3, [ip]
     a3c:	e5d2c000 	ldrb	ip, [r2]
     a40:	e7cc141c 	bfi	r1, ip, #8, #5
     a44:	e5831000 	str	r1, [r3]
     a48:	e5931000 	ldr	r1, [r3]
     a4c:	e5d2c001 	ldrb	ip, [r2, #1]
     a50:	e7c5121c 	bfi	r1, ip, #4, #2
     a54:	e5831000 	str	r1, [r3]
     a58:	e5931000 	ldr	r1, [r3]
     a5c:	e5d2c002 	ldrb	ip, [r2, #2]
     a60:	e7c1101c 	bfi	r1, ip, #0, #2
     a64:	e5831000 	str	r1, [r3]
     a68:	e5d21003 	ldrb	r1, [r2, #3]
     a6c:	e5932000 	ldr	r2, [r3]
     a70:	e7d12811 	bfi	r2, r1, #16, #2
     a74:	e5832000 	str	r2, [r3]
     a78:	e12fff1e 	bx	lr
     a7c:	f1c20000 	undefined instruction 0xf1c20000
     a80:	00004260 	andeq	r4, r0, r0, ror #4

00000a84 <mem_clk_get_pll_factor>:
     a84:	e59f3040 	ldr	r3, [pc, #64]	; acc <mem_clk_get_pll_factor+0x48>
     a88:	e1a02000 	mov	r2, r0
     a8c:	e59fc03c 	ldr	ip, [pc, #60]	; ad0 <mem_clk_get_pll_factor+0x4c>
     a90:	e3a00000 	mov	r0, #0
     a94:	e5931000 	ldr	r1, [r3]
     a98:	e58c3000 	str	r3, [ip]
     a9c:	e7e41451 	ubfx	r1, r1, #8, #5
     aa0:	e5c21000 	strb	r1, [r2]
     aa4:	e5931000 	ldr	r1, [r3]
     aa8:	e7e11251 	ubfx	r1, r1, #4, #2
     aac:	e5c21001 	strb	r1, [r2, #1]
     ab0:	e5931000 	ldr	r1, [r3]
     ab4:	e2011003 	and	r1, r1, #3
     ab8:	e5c21002 	strb	r1, [r2, #2]
     abc:	e5933000 	ldr	r3, [r3]
     ac0:	e7e13853 	ubfx	r3, r3, #16, #2
     ac4:	e5c23003 	strb	r3, [r2, #3]
     ac8:	e12fff1e 	bx	lr
     acc:	f1c20000 	undefined instruction 0xf1c20000
     ad0:	00004260 	andeq	r4, r0, r0, ror #4

00000ad4 <mem_clk_dramgating>:
     ad4:	e59f3024 	ldr	r3, [pc, #36]	; b00 <mem_clk_dramgating+0x2c>
     ad8:	e3500000 	cmp	r0, #0
     adc:	15932000 	ldrne	r2, [r3]
     ae0:	05933000 	ldreq	r3, [r3]
     ae4:	15923020 	ldrne	r3, [r2, #32]
     ae8:	05932020 	ldreq	r2, [r3, #32]
     aec:	13833202 	orrne	r3, r3, #536870912	; 0x20000000
     af0:	07dd2e90 	bfieq	r2, r0, #29, #1
     af4:	15823020 	strne	r3, [r2, #32]
     af8:	05832020 	streq	r2, [r3, #32]
     afc:	e12fff1e 	bx	lr
     b00:	00004260 	andeq	r4, r0, r0, ror #4

00000b04 <mem_twi_init>:
     b04:	e59f2040 	ldr	r2, [pc, #64]	; b4c <mem_twi_init+0x48>
     b08:	e59f3040 	ldr	r3, [pc, #64]	; b50 <mem_twi_init+0x4c>
     b0c:	e7922100 	ldr	r2, [r2, r0, lsl #2]
     b10:	e5920014 	ldr	r0, [r2, #20]
     b14:	e592100c 	ldr	r1, [r2, #12]
     b18:	e5832000 	str	r2, [r3]
     b1c:	e5830004 	str	r0, [r3, #4]
     b20:	e2011080 	and	r1, r1, #128	; 0x80
     b24:	e5831008 	str	r1, [r3, #8]
     b28:	e3a03028 	mov	r3, #40	; 0x28
     b2c:	e5823014 	str	r3, [r2, #20]
     b30:	e5923018 	ldr	r3, [r2, #24]
     b34:	e3833001 	orr	r3, r3, #1
     b38:	e5823018 	str	r3, [r2, #24]
     b3c:	e5920018 	ldr	r0, [r2, #24]
     b40:	e2100001 	ands	r0, r0, #1
     b44:	1afffffc 	bne	b3c <mem_twi_init+0x38>
     b48:	e12fff1e 	bx	lr
     b4c:	00003e38 	andeq	r3, r0, r8, lsr lr
     b50:	00004264 	andeq	r4, r0, r4, ror #4

00000b54 <_mem_twi_stop>:
     b54:	e59f308c 	ldr	r3, [pc, #140]	; be8 <_mem_twi_stop+0x94>
     b58:	e30f22ff 	movw	r2, #62207	; 0xf2ff
     b5c:	e5933000 	ldr	r3, [r3]
     b60:	e593100c 	ldr	r1, [r3, #12]
     b64:	e20110c0 	and	r1, r1, #192	; 0xc0
     b68:	e3811010 	orr	r1, r1, #16
     b6c:	e583100c 	str	r1, [r3, #12]
     b70:	e593100c 	ldr	r1, [r3, #12]
     b74:	e593100c 	ldr	r1, [r3, #12]
     b78:	e3110010 	tst	r1, #16
     b7c:	0a000002 	beq	b8c <_mem_twi_stop+0x38>
     b80:	e2522001 	subs	r2, r2, #1
     b84:	1afffffa 	bne	b74 <_mem_twi_stop+0x20>
     b88:	ea000014 	b	be0 <_mem_twi_stop+0x8c>
     b8c:	e3520000 	cmp	r2, #0
     b90:	0a000012 	beq	be0 <_mem_twi_stop+0x8c>
     b94:	e30f22ff 	movw	r2, #62207	; 0xf2ff
     b98:	e5931010 	ldr	r1, [r3, #16]
     b9c:	e35100f8 	cmp	r1, #248	; 0xf8
     ba0:	0a000002 	beq	bb0 <_mem_twi_stop+0x5c>
     ba4:	e2522001 	subs	r2, r2, #1
     ba8:	1afffffa 	bne	b98 <_mem_twi_stop+0x44>
     bac:	ea00000b 	b	be0 <_mem_twi_stop+0x8c>
     bb0:	e3520000 	cmp	r2, #0
     bb4:	0a000009 	beq	be0 <_mem_twi_stop+0x8c>
     bb8:	e30f22ff 	movw	r2, #62207	; 0xf2ff
     bbc:	e5931020 	ldr	r1, [r3, #32]
     bc0:	e351003a 	cmp	r1, #58	; 0x3a
     bc4:	0a000002 	beq	bd4 <_mem_twi_stop+0x80>
     bc8:	e2522001 	subs	r2, r2, #1
     bcc:	1afffffa 	bne	bbc <_mem_twi_stop+0x68>
     bd0:	ea000002 	b	be0 <_mem_twi_stop+0x8c>
     bd4:	e3520000 	cmp	r2, #0
     bd8:	13a00000 	movne	r0, #0
     bdc:	112fff1e 	bxne	lr
     be0:	e3e00000 	mvn	r0, #0
     be4:	e12fff1e 	bx	lr
     be8:	00004264 	andeq	r4, r0, r4, ror #4

00000bec <setup_twi_env>:
     bec:	e59f1040 	ldr	r1, [pc, #64]	; c34 <setup_twi_env+0x48>
     bf0:	e3a0c000 	mov	ip, #0
     bf4:	e59f003c 	ldr	r0, [pc, #60]	; c38 <setup_twi_env+0x4c>
     bf8:	e59f303c 	ldr	r3, [pc, #60]	; c3c <setup_twi_env+0x50>
     bfc:	e59f203c 	ldr	r2, [pc, #60]	; c40 <setup_twi_env+0x54>
     c00:	e580c000 	str	ip, [r0]
     c04:	e5910000 	ldr	r0, [r1]
     c08:	e3800001 	orr	r0, r0, #1
     c0c:	e5810000 	str	r0, [r1]
     c10:	e59f002c 	ldr	r0, [pc, #44]	; c44 <setup_twi_env+0x58>
     c14:	e5931824 	ldr	r1, [r3, #2084]	; 0x824
     c18:	e580300c 	str	r3, [r0, #12]
     c1c:	e3811022 	orr	r1, r1, #34	; 0x22
     c20:	e5831824 	str	r1, [r3, #2084]	; 0x824
     c24:	e5923c0c 	ldr	r3, [r2, #3084]	; 0xc0c
     c28:	e3833040 	orr	r3, r3, #64	; 0x40
     c2c:	e5823c0c 	str	r3, [r2, #3084]	; 0xc0c
     c30:	e12fff1e 	bx	lr
     c34:	f1c2006c 	undefined instruction 0xf1c2006c
     c38:	f1c20058 	undefined instruction 0xf1c20058
     c3c:	f1c20000 	undefined instruction 0xf1c20000
     c40:	f1c2a000 	undefined instruction 0xf1c2a000
     c44:	00004264 	andeq	r4, r0, r4, ror #4

00000c48 <twi_byte_rw>:
     c48:	e59fc2c4 	ldr	ip, [pc, #708]	; f14 <twi_byte_rw+0x2cc>
     c4c:	e92d4010 	push	{r4, lr}
     c50:	e59c4000 	ldr	r4, [ip]
     c54:	e3a0c000 	mov	ip, #0
     c58:	e584c01c 	str	ip, [r4, #28]
     c5c:	e594c010 	ldr	ip, [r4, #16]
     c60:	e6efc07c 	uxtb	ip, ip
     c64:	e35c00f8 	cmp	ip, #248	; 0xf8
     c68:	1a00007b 	bne	e5c <twi_byte_rw+0x214>
     c6c:	e594e00c 	ldr	lr, [r4, #12]
     c70:	e30fc2ff 	movw	ip, #62207	; 0xf2ff
     c74:	e38ee020 	orr	lr, lr, #32
     c78:	e584e00c 	str	lr, [r4, #12]
     c7c:	e594e00c 	ldr	lr, [r4, #12]
     c80:	e31e0008 	tst	lr, #8
     c84:	1a000002 	bne	c94 <twi_byte_rw+0x4c>
     c88:	e25cc001 	subs	ip, ip, #1
     c8c:	1afffffa 	bne	c7c <twi_byte_rw+0x34>
     c90:	ea000071 	b	e5c <twi_byte_rw+0x214>
     c94:	e35c0000 	cmp	ip, #0
     c98:	0a00006f 	beq	e5c <twi_byte_rw+0x214>
     c9c:	e594c010 	ldr	ip, [r4, #16]
     ca0:	e6efc07c 	uxtb	ip, ip
     ca4:	e35c0008 	cmp	ip, #8
     ca8:	1a00006b 	bne	e5c <twi_byte_rw+0x214>
     cac:	e1a01081 	lsl	r1, r1, #1
     cb0:	e30fc2ff 	movw	ip, #62207	; 0xf2ff
     cb4:	e5841008 	str	r1, [r4, #8]
     cb8:	e594e00c 	ldr	lr, [r4, #12]
     cbc:	e20ee0f7 	and	lr, lr, #247	; 0xf7
     cc0:	e584e00c 	str	lr, [r4, #12]
     cc4:	e594e00c 	ldr	lr, [r4, #12]
     cc8:	e31e0008 	tst	lr, #8
     ccc:	1a000002 	bne	cdc <twi_byte_rw+0x94>
     cd0:	e25cc001 	subs	ip, ip, #1
     cd4:	1afffffa 	bne	cc4 <twi_byte_rw+0x7c>
     cd8:	ea00005f 	b	e5c <twi_byte_rw+0x214>
     cdc:	e35c0000 	cmp	ip, #0
     ce0:	0a00005d 	beq	e5c <twi_byte_rw+0x214>
     ce4:	e594c010 	ldr	ip, [r4, #16]
     ce8:	e6efc07c 	uxtb	ip, ip
     cec:	e35c0018 	cmp	ip, #24
     cf0:	1a000059 	bne	e5c <twi_byte_rw+0x214>
     cf4:	e5842008 	str	r2, [r4, #8]
     cf8:	e30f22ff 	movw	r2, #62207	; 0xf2ff
     cfc:	e594c00c 	ldr	ip, [r4, #12]
     d00:	e20cc0f7 	and	ip, ip, #247	; 0xf7
     d04:	e584c00c 	str	ip, [r4, #12]
     d08:	e594c00c 	ldr	ip, [r4, #12]
     d0c:	e31c0008 	tst	ip, #8
     d10:	1a000002 	bne	d20 <twi_byte_rw+0xd8>
     d14:	e2522001 	subs	r2, r2, #1
     d18:	1afffffa 	bne	d08 <twi_byte_rw+0xc0>
     d1c:	ea00004e 	b	e5c <twi_byte_rw+0x214>
     d20:	e3520000 	cmp	r2, #0
     d24:	0a00004c 	beq	e5c <twi_byte_rw+0x214>
     d28:	e5942010 	ldr	r2, [r4, #16]
     d2c:	e6ef2072 	uxtb	r2, r2
     d30:	e3520028 	cmp	r2, #40	; 0x28
     d34:	1a000048 	bne	e5c <twi_byte_rw+0x214>
     d38:	e3500001 	cmp	r0, #1
     d3c:	1a000011 	bne	d88 <twi_byte_rw+0x140>
     d40:	e5d32000 	ldrb	r2, [r3]
     d44:	e30f32ff 	movw	r3, #62207	; 0xf2ff
     d48:	e5842008 	str	r2, [r4, #8]
     d4c:	e594200c 	ldr	r2, [r4, #12]
     d50:	e20220f7 	and	r2, r2, #247	; 0xf7
     d54:	e584200c 	str	r2, [r4, #12]
     d58:	e594200c 	ldr	r2, [r4, #12]
     d5c:	e3120008 	tst	r2, #8
     d60:	1a000002 	bne	d70 <twi_byte_rw+0x128>
     d64:	e2533001 	subs	r3, r3, #1
     d68:	1afffffa 	bne	d58 <twi_byte_rw+0x110>
     d6c:	ea00003a 	b	e5c <twi_byte_rw+0x214>
     d70:	e3530000 	cmp	r3, #0
     d74:	0a000038 	beq	e5c <twi_byte_rw+0x214>
     d78:	e5943010 	ldr	r3, [r4, #16]
     d7c:	e6ef3073 	uxtb	r3, r3
     d80:	e3530028 	cmp	r3, #40	; 0x28
     d84:	ea000033 	b	e58 <twi_byte_rw+0x210>
     d88:	e594000c 	ldr	r0, [r4, #12]
     d8c:	e30f22ff 	movw	r2, #62207	; 0xf2ff
     d90:	e20000c0 	and	r0, r0, #192	; 0xc0
     d94:	e3800020 	orr	r0, r0, #32
     d98:	e584000c 	str	r0, [r4, #12]
     d9c:	e594000c 	ldr	r0, [r4, #12]
     da0:	e3100008 	tst	r0, #8
     da4:	1a000002 	bne	db4 <twi_byte_rw+0x16c>
     da8:	e2522001 	subs	r2, r2, #1
     dac:	1afffffa 	bne	d9c <twi_byte_rw+0x154>
     db0:	ea000029 	b	e5c <twi_byte_rw+0x214>
     db4:	e3520000 	cmp	r2, #0
     db8:	0a000027 	beq	e5c <twi_byte_rw+0x214>
     dbc:	e5942010 	ldr	r2, [r4, #16]
     dc0:	e6ef2072 	uxtb	r2, r2
     dc4:	e3520010 	cmp	r2, #16
     dc8:	1a000023 	bne	e5c <twi_byte_rw+0x214>
     dcc:	e3811001 	orr	r1, r1, #1
     dd0:	e30f22ff 	movw	r2, #62207	; 0xf2ff
     dd4:	e5841008 	str	r1, [r4, #8]
     dd8:	e594100c 	ldr	r1, [r4, #12]
     ddc:	e20110f7 	and	r1, r1, #247	; 0xf7
     de0:	e584100c 	str	r1, [r4, #12]
     de4:	e594100c 	ldr	r1, [r4, #12]
     de8:	e3110008 	tst	r1, #8
     dec:	1a000002 	bne	dfc <twi_byte_rw+0x1b4>
     df0:	e2522001 	subs	r2, r2, #1
     df4:	1afffffa 	bne	de4 <twi_byte_rw+0x19c>
     df8:	ea000017 	b	e5c <twi_byte_rw+0x214>
     dfc:	e3520000 	cmp	r2, #0
     e00:	0a000015 	beq	e5c <twi_byte_rw+0x214>
     e04:	e5942010 	ldr	r2, [r4, #16]
     e08:	e6ef2072 	uxtb	r2, r2
     e0c:	e3520040 	cmp	r2, #64	; 0x40
     e10:	1a000011 	bne	e5c <twi_byte_rw+0x214>
     e14:	e594100c 	ldr	r1, [r4, #12]
     e18:	e30f22ff 	movw	r2, #62207	; 0xf2ff
     e1c:	e20110f7 	and	r1, r1, #247	; 0xf7
     e20:	e584100c 	str	r1, [r4, #12]
     e24:	e594100c 	ldr	r1, [r4, #12]
     e28:	e3110008 	tst	r1, #8
     e2c:	1a000002 	bne	e3c <twi_byte_rw+0x1f4>
     e30:	e2522001 	subs	r2, r2, #1
     e34:	1afffffa 	bne	e24 <twi_byte_rw+0x1dc>
     e38:	ea000007 	b	e5c <twi_byte_rw+0x214>
     e3c:	e3520000 	cmp	r2, #0
     e40:	0a000005 	beq	e5c <twi_byte_rw+0x214>
     e44:	e5942008 	ldr	r2, [r4, #8]
     e48:	e5c32000 	strb	r2, [r3]
     e4c:	e5943010 	ldr	r3, [r4, #16]
     e50:	e6ef3073 	uxtb	r3, r3
     e54:	e3530058 	cmp	r3, #88	; 0x58
     e58:	0a000029 	beq	f04 <twi_byte_rw+0x2bc>
     e5c:	e59f30b4 	ldr	r3, [pc, #180]	; f18 <twi_byte_rw+0x2d0>
     e60:	e59f00b4 	ldr	r0, [pc, #180]	; f1c <twi_byte_rw+0x2d4>
     e64:	e59f10a8 	ldr	r1, [pc, #168]	; f14 <twi_byte_rw+0x2cc>
     e68:	e5932000 	ldr	r2, [r3]
     e6c:	e3c22001 	bic	r2, r2, #1
     e70:	e5832000 	str	r2, [r3]
     e74:	e5932000 	ldr	r2, [r3]
     e78:	e581000c 	str	r0, [r1, #12]
     e7c:	e3822001 	orr	r2, r2, #1
     e80:	e5832000 	str	r2, [r3]
     e84:	e3a03028 	mov	r3, #40	; 0x28
     e88:	e5843014 	str	r3, [r4, #20]
     e8c:	e5943018 	ldr	r3, [r4, #24]
     e90:	e3833001 	orr	r3, r3, #1
     e94:	e5843018 	str	r3, [r4, #24]
     e98:	e5943018 	ldr	r3, [r4, #24]
     e9c:	e3130001 	tst	r3, #1
     ea0:	1afffffc 	bne	e98 <twi_byte_rw+0x250>
     ea4:	e3e04000 	mvn	r4, #0
     ea8:	ea000012 	b	ef8 <twi_byte_rw+0x2b0>
     eac:	e59f3064 	ldr	r3, [pc, #100]	; f18 <twi_byte_rw+0x2d0>
     eb0:	e59f0064 	ldr	r0, [pc, #100]	; f1c <twi_byte_rw+0x2d4>
     eb4:	e59f1058 	ldr	r1, [pc, #88]	; f14 <twi_byte_rw+0x2cc>
     eb8:	e5932000 	ldr	r2, [r3]
     ebc:	e3c22001 	bic	r2, r2, #1
     ec0:	e5832000 	str	r2, [r3]
     ec4:	e5932000 	ldr	r2, [r3]
     ec8:	e581000c 	str	r0, [r1, #12]
     ecc:	e3822001 	orr	r2, r2, #1
     ed0:	e5832000 	str	r2, [r3]
     ed4:	e3a03028 	mov	r3, #40	; 0x28
     ed8:	e5843014 	str	r3, [r4, #20]
     edc:	e5943018 	ldr	r3, [r4, #24]
     ee0:	e3833001 	orr	r3, r3, #1
     ee4:	e5843018 	str	r3, [r4, #24]
     ee8:	e5943018 	ldr	r3, [r4, #24]
     eec:	e3130001 	tst	r3, #1
     ef0:	1afffffc 	bne	ee8 <twi_byte_rw+0x2a0>
     ef4:	e3a04000 	mov	r4, #0
     ef8:	ebffff15 	bl	b54 <_mem_twi_stop>
     efc:	e1a00004 	mov	r0, r4
     f00:	e8bd8010 	pop	{r4, pc}
     f04:	ebffff12 	bl	b54 <_mem_twi_stop>
     f08:	e3500000 	cmp	r0, #0
     f0c:	1affffe6 	bne	eac <twi_byte_rw+0x264>
     f10:	eafffff7 	b	ef4 <twi_byte_rw+0x2ac>
     f14:	00004264 	andeq	r4, r0, r4, ror #4
     f18:	f1c2006c 	undefined instruction 0xf1c2006c
     f1c:	f1c20000 	undefined instruction 0xf1c20000

00000f20 <twi_byte_rw_nommu>:
     f20:	e59fc308 	ldr	ip, [pc, #776]	; 1230 <twi_byte_rw_nommu+0x310>
     f24:	e92d4070 	push	{r4, r5, r6, lr}
     f28:	e3a04000 	mov	r4, #0
     f2c:	e58c401c 	str	r4, [ip, #28]
     f30:	e59c4010 	ldr	r4, [ip, #16]
     f34:	e59f52f8 	ldr	r5, [pc, #760]	; 1234 <twi_byte_rw_nommu+0x314>
     f38:	e6ef4074 	uxtb	r4, r4
     f3c:	e35400f8 	cmp	r4, #248	; 0xf8
     f40:	e585c000 	str	ip, [r5]
     f44:	1a000089 	bne	1170 <twi_byte_rw_nommu+0x250>
     f48:	e59c500c 	ldr	r5, [ip, #12]
     f4c:	e1a0600c 	mov	r6, ip
     f50:	e30f42ff 	movw	r4, #62207	; 0xf2ff
     f54:	e3855020 	orr	r5, r5, #32
     f58:	e58c500c 	str	r5, [ip, #12]
     f5c:	e596500c 	ldr	r5, [r6, #12]
     f60:	e59fc2c8 	ldr	ip, [pc, #712]	; 1230 <twi_byte_rw_nommu+0x310>
     f64:	e3150008 	tst	r5, #8
     f68:	1a000002 	bne	f78 <twi_byte_rw_nommu+0x58>
     f6c:	e2544001 	subs	r4, r4, #1
     f70:	1afffff9 	bne	f5c <twi_byte_rw_nommu+0x3c>
     f74:	ea00007d 	b	1170 <twi_byte_rw_nommu+0x250>
     f78:	e3540000 	cmp	r4, #0
     f7c:	0a00007b 	beq	1170 <twi_byte_rw_nommu+0x250>
     f80:	e59c4010 	ldr	r4, [ip, #16]
     f84:	e6ef4074 	uxtb	r4, r4
     f88:	e3540008 	cmp	r4, #8
     f8c:	1a000077 	bne	1170 <twi_byte_rw_nommu+0x250>
     f90:	e1a01081 	lsl	r1, r1, #1
     f94:	e1a0600c 	mov	r6, ip
     f98:	e58c1008 	str	r1, [ip, #8]
     f9c:	e30f42ff 	movw	r4, #62207	; 0xf2ff
     fa0:	e59c500c 	ldr	r5, [ip, #12]
     fa4:	e20550f7 	and	r5, r5, #247	; 0xf7
     fa8:	e58c500c 	str	r5, [ip, #12]
     fac:	e596500c 	ldr	r5, [r6, #12]
     fb0:	e59fc278 	ldr	ip, [pc, #632]	; 1230 <twi_byte_rw_nommu+0x310>
     fb4:	e3150008 	tst	r5, #8
     fb8:	1a000002 	bne	fc8 <twi_byte_rw_nommu+0xa8>
     fbc:	e2544001 	subs	r4, r4, #1
     fc0:	1afffff9 	bne	fac <twi_byte_rw_nommu+0x8c>
     fc4:	ea000069 	b	1170 <twi_byte_rw_nommu+0x250>
     fc8:	e3540000 	cmp	r4, #0
     fcc:	0a000067 	beq	1170 <twi_byte_rw_nommu+0x250>
     fd0:	e59c4010 	ldr	r4, [ip, #16]
     fd4:	e6ef4074 	uxtb	r4, r4
     fd8:	e3540018 	cmp	r4, #24
     fdc:	1a000063 	bne	1170 <twi_byte_rw_nommu+0x250>
     fe0:	e58c2008 	str	r2, [ip, #8]
     fe4:	e1a0500c 	mov	r5, ip
     fe8:	e59c200c 	ldr	r2, [ip, #12]
     fec:	e30f42ff 	movw	r4, #62207	; 0xf2ff
     ff0:	e20220f7 	and	r2, r2, #247	; 0xf7
     ff4:	e58c200c 	str	r2, [ip, #12]
     ff8:	e595c00c 	ldr	ip, [r5, #12]
     ffc:	e59f222c 	ldr	r2, [pc, #556]	; 1230 <twi_byte_rw_nommu+0x310>
    1000:	e31c0008 	tst	ip, #8
    1004:	1a000002 	bne	1014 <twi_byte_rw_nommu+0xf4>
    1008:	e2544001 	subs	r4, r4, #1
    100c:	1afffff9 	bne	ff8 <twi_byte_rw_nommu+0xd8>
    1010:	ea000056 	b	1170 <twi_byte_rw_nommu+0x250>
    1014:	e3540000 	cmp	r4, #0
    1018:	0a000054 	beq	1170 <twi_byte_rw_nommu+0x250>
    101c:	e592c010 	ldr	ip, [r2, #16]
    1020:	e6efc07c 	uxtb	ip, ip
    1024:	e35c0028 	cmp	ip, #40	; 0x28
    1028:	1a000050 	bne	1170 <twi_byte_rw_nommu+0x250>
    102c:	e3500001 	cmp	r0, #1
    1030:	1a000013 	bne	1084 <twi_byte_rw_nommu+0x164>
    1034:	e5d31000 	ldrb	r1, [r3]
    1038:	e1a00002 	mov	r0, r2
    103c:	e30f32ff 	movw	r3, #62207	; 0xf2ff
    1040:	e5821008 	str	r1, [r2, #8]
    1044:	e592100c 	ldr	r1, [r2, #12]
    1048:	e20110f7 	and	r1, r1, #247	; 0xf7
    104c:	e582100c 	str	r1, [r2, #12]
    1050:	e590200c 	ldr	r2, [r0, #12]
    1054:	e3120008 	tst	r2, #8
    1058:	1a000002 	bne	1068 <twi_byte_rw_nommu+0x148>
    105c:	e2533001 	subs	r3, r3, #1
    1060:	1afffffa 	bne	1050 <twi_byte_rw_nommu+0x130>
    1064:	ea000041 	b	1170 <twi_byte_rw_nommu+0x250>
    1068:	e3530000 	cmp	r3, #0
    106c:	0a00003f 	beq	1170 <twi_byte_rw_nommu+0x250>
    1070:	e59f31b8 	ldr	r3, [pc, #440]	; 1230 <twi_byte_rw_nommu+0x310>
    1074:	e5933010 	ldr	r3, [r3, #16]
    1078:	e6ef3073 	uxtb	r3, r3
    107c:	e3530028 	cmp	r3, #40	; 0x28
    1080:	ea000039 	b	116c <twi_byte_rw_nommu+0x24c>
    1084:	e592c00c 	ldr	ip, [r2, #12]
    1088:	e1a04002 	mov	r4, r2
    108c:	e30f02ff 	movw	r0, #62207	; 0xf2ff
    1090:	e20cc0c0 	and	ip, ip, #192	; 0xc0
    1094:	e38cc020 	orr	ip, ip, #32
    1098:	e582c00c 	str	ip, [r2, #12]
    109c:	e594c00c 	ldr	ip, [r4, #12]
    10a0:	e59f2188 	ldr	r2, [pc, #392]	; 1230 <twi_byte_rw_nommu+0x310>
    10a4:	e31c0008 	tst	ip, #8
    10a8:	1a000002 	bne	10b8 <twi_byte_rw_nommu+0x198>
    10ac:	e2500001 	subs	r0, r0, #1
    10b0:	1afffff9 	bne	109c <twi_byte_rw_nommu+0x17c>
    10b4:	ea00002d 	b	1170 <twi_byte_rw_nommu+0x250>
    10b8:	e3500000 	cmp	r0, #0
    10bc:	0a00002b 	beq	1170 <twi_byte_rw_nommu+0x250>
    10c0:	e5920010 	ldr	r0, [r2, #16]
    10c4:	e6ef0070 	uxtb	r0, r0
    10c8:	e3500010 	cmp	r0, #16
    10cc:	1a000027 	bne	1170 <twi_byte_rw_nommu+0x250>
    10d0:	e3811001 	orr	r1, r1, #1
    10d4:	e1a0c002 	mov	ip, r2
    10d8:	e5821008 	str	r1, [r2, #8]
    10dc:	e30f02ff 	movw	r0, #62207	; 0xf2ff
    10e0:	e592100c 	ldr	r1, [r2, #12]
    10e4:	e20110f7 	and	r1, r1, #247	; 0xf7
    10e8:	e582100c 	str	r1, [r2, #12]
    10ec:	e59c200c 	ldr	r2, [ip, #12]
    10f0:	e59f1138 	ldr	r1, [pc, #312]	; 1230 <twi_byte_rw_nommu+0x310>
    10f4:	e3120008 	tst	r2, #8
    10f8:	1a000002 	bne	1108 <twi_byte_rw_nommu+0x1e8>
    10fc:	e2500001 	subs	r0, r0, #1
    1100:	1afffff9 	bne	10ec <twi_byte_rw_nommu+0x1cc>
    1104:	ea000019 	b	1170 <twi_byte_rw_nommu+0x250>
    1108:	e3500000 	cmp	r0, #0
    110c:	0a000017 	beq	1170 <twi_byte_rw_nommu+0x250>
    1110:	e5912010 	ldr	r2, [r1, #16]
    1114:	e6ef2072 	uxtb	r2, r2
    1118:	e3520040 	cmp	r2, #64	; 0x40
    111c:	1a000013 	bne	1170 <twi_byte_rw_nommu+0x250>
    1120:	e591000c 	ldr	r0, [r1, #12]
    1124:	e1a0c001 	mov	ip, r1
    1128:	e30f22ff 	movw	r2, #62207	; 0xf2ff
    112c:	e20000f7 	and	r0, r0, #247	; 0xf7
    1130:	e581000c 	str	r0, [r1, #12]
    1134:	e59c000c 	ldr	r0, [ip, #12]
    1138:	e59f10f0 	ldr	r1, [pc, #240]	; 1230 <twi_byte_rw_nommu+0x310>
    113c:	e3100008 	tst	r0, #8
    1140:	1a000002 	bne	1150 <twi_byte_rw_nommu+0x230>
    1144:	e2522001 	subs	r2, r2, #1
    1148:	1afffff9 	bne	1134 <twi_byte_rw_nommu+0x214>
    114c:	ea000007 	b	1170 <twi_byte_rw_nommu+0x250>
    1150:	e3520000 	cmp	r2, #0
    1154:	0a000005 	beq	1170 <twi_byte_rw_nommu+0x250>
    1158:	e5912008 	ldr	r2, [r1, #8]
    115c:	e5c32000 	strb	r2, [r3]
    1160:	e5913010 	ldr	r3, [r1, #16]
    1164:	e6ef3073 	uxtb	r3, r3
    1168:	e3530058 	cmp	r3, #88	; 0x58
    116c:	0a00002b 	beq	1220 <twi_byte_rw_nommu+0x300>
    1170:	e59f20c0 	ldr	r2, [pc, #192]	; 1238 <twi_byte_rw_nommu+0x318>
    1174:	e59f30b4 	ldr	r3, [pc, #180]	; 1230 <twi_byte_rw_nommu+0x310>
    1178:	e59fc0bc 	ldr	ip, [pc, #188]	; 123c <twi_byte_rw_nommu+0x31c>
    117c:	e5921000 	ldr	r1, [r2]
    1180:	e1a04003 	mov	r4, r3
    1184:	e59f00a8 	ldr	r0, [pc, #168]	; 1234 <twi_byte_rw_nommu+0x314>
    1188:	e3c11001 	bic	r1, r1, #1
    118c:	e5821000 	str	r1, [r2]
    1190:	e5921000 	ldr	r1, [r2]
    1194:	e580c00c 	str	ip, [r0, #12]
    1198:	e3811001 	orr	r1, r1, #1
    119c:	e5821000 	str	r1, [r2]
    11a0:	e3a02028 	mov	r2, #40	; 0x28
    11a4:	e5832014 	str	r2, [r3, #20]
    11a8:	e5932018 	ldr	r2, [r3, #24]
    11ac:	e3822001 	orr	r2, r2, #1
    11b0:	e5832018 	str	r2, [r3, #24]
    11b4:	e5943018 	ldr	r3, [r4, #24]
    11b8:	e3130001 	tst	r3, #1
    11bc:	1afffffc 	bne	11b4 <twi_byte_rw_nommu+0x294>
    11c0:	e3e00000 	mvn	r0, #0
    11c4:	e8bd8070 	pop	{r4, r5, r6, pc}
    11c8:	e59f2068 	ldr	r2, [pc, #104]	; 1238 <twi_byte_rw_nommu+0x318>
    11cc:	e59f305c 	ldr	r3, [pc, #92]	; 1230 <twi_byte_rw_nommu+0x310>
    11d0:	e59fc064 	ldr	ip, [pc, #100]	; 123c <twi_byte_rw_nommu+0x31c>
    11d4:	e5921000 	ldr	r1, [r2]
    11d8:	e1a04003 	mov	r4, r3
    11dc:	e59f0050 	ldr	r0, [pc, #80]	; 1234 <twi_byte_rw_nommu+0x314>
    11e0:	e3c11001 	bic	r1, r1, #1
    11e4:	e5821000 	str	r1, [r2]
    11e8:	e5921000 	ldr	r1, [r2]
    11ec:	e580c00c 	str	ip, [r0, #12]
    11f0:	e3811001 	orr	r1, r1, #1
    11f4:	e5821000 	str	r1, [r2]
    11f8:	e3a02028 	mov	r2, #40	; 0x28
    11fc:	e5832014 	str	r2, [r3, #20]
    1200:	e5932018 	ldr	r2, [r3, #24]
    1204:	e3822001 	orr	r2, r2, #1
    1208:	e5832018 	str	r2, [r3, #24]
    120c:	e5943018 	ldr	r3, [r4, #24]
    1210:	e3130001 	tst	r3, #1
    1214:	1afffffc 	bne	120c <twi_byte_rw_nommu+0x2ec>
    1218:	e3a00000 	mov	r0, #0
    121c:	e8bd8070 	pop	{r4, r5, r6, pc}
    1220:	ebfffe4b 	bl	b54 <_mem_twi_stop>
    1224:	e3500000 	cmp	r0, #0
    1228:	1affffe6 	bne	11c8 <twi_byte_rw_nommu+0x2a8>
    122c:	eafffff9 	b	1218 <twi_byte_rw_nommu+0x2f8>
    1230:	01c2ac00 	biceq	sl, r2, r0, lsl #24
    1234:	00004264 	andeq	r4, r0, r4, ror #4
    1238:	01c2006c 	biceq	r0, r2, ip, rrx
    123c:	01c20000 	biceq	r0, r2, r0

00001240 <mem_twi_exit>:
    1240:	e92d4010 	push	{r4, lr}
    1244:	e59f4040 	ldr	r4, [pc, #64]	; 128c <mem_twi_exit+0x4c>
    1248:	e3a00001 	mov	r0, #1
    124c:	e5943000 	ldr	r3, [r4]
    1250:	e5932018 	ldr	r2, [r3, #24]
    1254:	e1822000 	orr	r2, r2, r0
    1258:	e5832018 	str	r2, [r3, #24]
    125c:	eb00075f 	bl	2fe0 <change_runtime_env>
    1260:	e3a0000a 	mov	r0, #10
    1264:	eb0007c7 	bl	3188 <delay_ms>
    1268:	e5943000 	ldr	r3, [r4]
    126c:	e5941004 	ldr	r1, [r4, #4]
    1270:	e3a00000 	mov	r0, #0
    1274:	e5942008 	ldr	r2, [r4, #8]
    1278:	e5831014 	str	r1, [r3, #20]
    127c:	e593100c 	ldr	r1, [r3, #12]
    1280:	e1812002 	orr	r2, r1, r2
    1284:	e583200c 	str	r2, [r3, #12]
    1288:	e8bd8010 	pop	{r4, pc}
    128c:	00004264 	andeq	r4, r0, r4, ror #4

00001290 <mem_delay>:
    1290:	e92d000f 	push	{r0, r1, r2, r3}
    1294:	e3a01011 	mov	r1, #17
    1298:	e1a03000 	mov	r3, r0

0000129c <loop2>:
    129c:	e2500001 	subs	r0, r0, #1
    12a0:	8afffffd 	bhi	129c <loop2>
    12a4:	e1a00003 	mov	r0, r3
    12a8:	e2511001 	subs	r1, r1, #1
    12ac:	8afffffa 	bhi	129c <loop2>
    12b0:	e8bd000f 	pop	{r0, r1, r2, r3}
    12b4:	e1a0f00e 	mov	pc, lr

000012b8 <mem_power_off_nommu>:
    12b8:	e92d4013 	push	{r0, r1, r4, lr}
    12bc:	e28d4008 	add	r4, sp, #8
    12c0:	e3a03000 	mov	r3, #0
    12c4:	e3a01034 	mov	r1, #52	; 0x34
    12c8:	e1a00003 	mov	r0, r3
    12cc:	e5643001 	strb	r3, [r4, #-1]!
    12d0:	e3a02031 	mov	r2, #49	; 0x31
    12d4:	e1a03004 	mov	r3, r4
    12d8:	ebffff10 	bl	f20 <twi_byte_rw_nommu>
    12dc:	e3500000 	cmp	r0, #0
    12e0:	1a00001a 	bne	1350 <mem_power_off_nommu+0x98>
    12e4:	e5ddc007 	ldrb	ip, [sp, #7]
    12e8:	e2800001 	add	r0, r0, #1
    12ec:	e3a01034 	mov	r1, #52	; 0x34
    12f0:	e3a02031 	mov	r2, #49	; 0x31
    12f4:	e1a03004 	mov	r3, r4
    12f8:	e38cc008 	orr	ip, ip, #8
    12fc:	e5cdc007 	strb	ip, [sp, #7]
    1300:	ebffff06 	bl	f20 <twi_byte_rw_nommu>
    1304:	e3500000 	cmp	r0, #0
    1308:	1a000010 	bne	1350 <mem_power_off_nommu+0x98>
    130c:	e3a01034 	mov	r1, #52	; 0x34
    1310:	e3a02012 	mov	r2, #18
    1314:	e1a03004 	mov	r3, r4
    1318:	ebffff00 	bl	f20 <twi_byte_rw_nommu>
    131c:	e3500000 	cmp	r0, #0
    1320:	1a00000a 	bne	1350 <mem_power_off_nommu+0x98>
    1324:	e5ddc007 	ldrb	ip, [sp, #7]
    1328:	e1a03004 	mov	r3, r4
    132c:	e2800001 	add	r0, r0, #1
    1330:	e3a01034 	mov	r1, #52	; 0x34
    1334:	e3a02012 	mov	r2, #18
    1338:	e3ccc05b 	bic	ip, ip, #91	; 0x5b
    133c:	e5cdc007 	strb	ip, [sp, #7]
    1340:	ebfffef6 	bl	f20 <twi_byte_rw_nommu>
    1344:	e3500000 	cmp	r0, #0
    1348:	1a000000 	bne	1350 <mem_power_off_nommu+0x98>
    134c:	e320f003 	wfi
    1350:	e3e00000 	mvn	r0, #0
    1354:	e8bd801c 	pop	{r2, r3, r4, pc}

00001358 <mem_power_off>:
    1358:	e92d4013 	push	{r0, r1, r4, lr}
    135c:	e28d4008 	add	r4, sp, #8
    1360:	e3a03000 	mov	r3, #0
    1364:	e3a01034 	mov	r1, #52	; 0x34
    1368:	e1a00003 	mov	r0, r3
    136c:	e5643001 	strb	r3, [r4, #-1]!
    1370:	e3a02031 	mov	r2, #49	; 0x31
    1374:	e1a03004 	mov	r3, r4
    1378:	ebfffe32 	bl	c48 <twi_byte_rw>
    137c:	e3500000 	cmp	r0, #0
    1380:	1a00001a 	bne	13f0 <mem_power_off+0x98>
    1384:	e5ddc007 	ldrb	ip, [sp, #7]
    1388:	e2800001 	add	r0, r0, #1
    138c:	e3a01034 	mov	r1, #52	; 0x34
    1390:	e3a02031 	mov	r2, #49	; 0x31
    1394:	e1a03004 	mov	r3, r4
    1398:	e38cc008 	orr	ip, ip, #8
    139c:	e5cdc007 	strb	ip, [sp, #7]
    13a0:	ebfffe28 	bl	c48 <twi_byte_rw>
    13a4:	e3500000 	cmp	r0, #0
    13a8:	1a000010 	bne	13f0 <mem_power_off+0x98>
    13ac:	e3a01034 	mov	r1, #52	; 0x34
    13b0:	e3a02012 	mov	r2, #18
    13b4:	e1a03004 	mov	r3, r4
    13b8:	ebfffe22 	bl	c48 <twi_byte_rw>
    13bc:	e3500000 	cmp	r0, #0
    13c0:	1a00000a 	bne	13f0 <mem_power_off+0x98>
    13c4:	e5ddc007 	ldrb	ip, [sp, #7]
    13c8:	e1a03004 	mov	r3, r4
    13cc:	e2800001 	add	r0, r0, #1
    13d0:	e3a01034 	mov	r1, #52	; 0x34
    13d4:	e3a02012 	mov	r2, #18
    13d8:	e3ccc05b 	bic	ip, ip, #91	; 0x5b
    13dc:	e5cdc007 	strb	ip, [sp, #7]
    13e0:	ebfffe18 	bl	c48 <twi_byte_rw>
    13e4:	e3500000 	cmp	r0, #0
    13e8:	1a000000 	bne	13f0 <mem_power_off+0x98>
    13ec:	e320f003 	wfi
    13f0:	e3e00000 	mvn	r0, #0
    13f4:	e8bd801c 	pop	{r2, r3, r4, pc}

000013f8 <mem_power_exit>:
    13f8:	e3100001 	tst	r0, #1
    13fc:	e92d4037 	push	{r0, r1, r2, r4, r5, lr}
    1400:	e1a04000 	mov	r4, r0
    1404:	0a000011 	beq	1450 <mem_power_exit+0x58>
    1408:	e28d5007 	add	r5, sp, #7
    140c:	e3a00000 	mov	r0, #0
    1410:	e3a01034 	mov	r1, #52	; 0x34
    1414:	e3a02042 	mov	r2, #66	; 0x42
    1418:	e1a03005 	mov	r3, r5
    141c:	ebfffe09 	bl	c48 <twi_byte_rw>
    1420:	e3500000 	cmp	r0, #0
    1424:	1a0000b4 	bne	16fc <mem_power_exit+0x304>
    1428:	e5ddc007 	ldrb	ip, [sp, #7]
    142c:	e1a03005 	mov	r3, r5
    1430:	e2800001 	add	r0, r0, #1
    1434:	e3a01034 	mov	r1, #52	; 0x34
    1438:	e3a02042 	mov	r2, #66	; 0x42
    143c:	e3ccc003 	bic	ip, ip, #3
    1440:	e5cdc007 	strb	ip, [sp, #7]
    1444:	ebfffdff 	bl	c48 <twi_byte_rw>
    1448:	e3500000 	cmp	r0, #0
    144c:	1a0000aa 	bne	16fc <mem_power_exit+0x304>
    1450:	e3140040 	tst	r4, #64	; 0x40
    1454:	0a000011 	beq	14a0 <mem_power_exit+0xa8>
    1458:	e28d5007 	add	r5, sp, #7
    145c:	e3a00000 	mov	r0, #0
    1460:	e3a01034 	mov	r1, #52	; 0x34
    1464:	e3a02042 	mov	r2, #66	; 0x42
    1468:	e1a03005 	mov	r3, r5
    146c:	ebfffdf5 	bl	c48 <twi_byte_rw>
    1470:	e3500000 	cmp	r0, #0
    1474:	1a0000a0 	bne	16fc <mem_power_exit+0x304>
    1478:	e5ddc007 	ldrb	ip, [sp, #7]
    147c:	e1a03005 	mov	r3, r5
    1480:	e2800001 	add	r0, r0, #1
    1484:	e3a01034 	mov	r1, #52	; 0x34
    1488:	e3a02042 	mov	r2, #66	; 0x42
    148c:	e3ccc002 	bic	ip, ip, #2
    1490:	e5cdc007 	strb	ip, [sp, #7]
    1494:	ebfffdeb 	bl	c48 <twi_byte_rw>
    1498:	e3500000 	cmp	r0, #0
    149c:	1a000096 	bne	16fc <mem_power_exit+0x304>
    14a0:	e3140080 	tst	r4, #128	; 0x80
    14a4:	0a000011 	beq	14f0 <mem_power_exit+0xf8>
    14a8:	e28d5007 	add	r5, sp, #7
    14ac:	e3a00000 	mov	r0, #0
    14b0:	e3a01034 	mov	r1, #52	; 0x34
    14b4:	e3a02042 	mov	r2, #66	; 0x42
    14b8:	e1a03005 	mov	r3, r5
    14bc:	ebfffde1 	bl	c48 <twi_byte_rw>
    14c0:	e3500000 	cmp	r0, #0
    14c4:	1a00008c 	bne	16fc <mem_power_exit+0x304>
    14c8:	e5ddc007 	ldrb	ip, [sp, #7]
    14cc:	e1a03005 	mov	r3, r5
    14d0:	e2800001 	add	r0, r0, #1
    14d4:	e3a01034 	mov	r1, #52	; 0x34
    14d8:	e3a02042 	mov	r2, #66	; 0x42
    14dc:	e3ccc001 	bic	ip, ip, #1
    14e0:	e5cdc007 	strb	ip, [sp, #7]
    14e4:	ebfffdd7 	bl	c48 <twi_byte_rw>
    14e8:	e3500000 	cmp	r0, #0
    14ec:	1a000082 	bne	16fc <mem_power_exit+0x304>
    14f0:	e3140010 	tst	r4, #16
    14f4:	0a000011 	beq	1540 <mem_power_exit+0x148>
    14f8:	e28d5007 	add	r5, sp, #7
    14fc:	e3a00000 	mov	r0, #0
    1500:	e3a01034 	mov	r1, #52	; 0x34
    1504:	e3a02044 	mov	r2, #68	; 0x44
    1508:	e1a03005 	mov	r3, r5
    150c:	ebfffdcd 	bl	c48 <twi_byte_rw>
    1510:	e3500000 	cmp	r0, #0
    1514:	1a000078 	bne	16fc <mem_power_exit+0x304>
    1518:	e5ddc007 	ldrb	ip, [sp, #7]
    151c:	e1a03005 	mov	r3, r5
    1520:	e2800001 	add	r0, r0, #1
    1524:	e3a01034 	mov	r1, #52	; 0x34
    1528:	e3a02044 	mov	r2, #68	; 0x44
    152c:	e3ccc040 	bic	ip, ip, #64	; 0x40
    1530:	e5cdc007 	strb	ip, [sp, #7]
    1534:	ebfffdc3 	bl	c48 <twi_byte_rw>
    1538:	e3500000 	cmp	r0, #0
    153c:	1a00006e 	bne	16fc <mem_power_exit+0x304>
    1540:	e3140020 	tst	r4, #32
    1544:	0a000011 	beq	1590 <mem_power_exit+0x198>
    1548:	e28d5007 	add	r5, sp, #7
    154c:	e3a00000 	mov	r0, #0
    1550:	e3a01034 	mov	r1, #52	; 0x34
    1554:	e3a02044 	mov	r2, #68	; 0x44
    1558:	e1a03005 	mov	r3, r5
    155c:	ebfffdb9 	bl	c48 <twi_byte_rw>
    1560:	e3500000 	cmp	r0, #0
    1564:	1a000064 	bne	16fc <mem_power_exit+0x304>
    1568:	e5ddc007 	ldrb	ip, [sp, #7]
    156c:	e1a03005 	mov	r3, r5
    1570:	e2800001 	add	r0, r0, #1
    1574:	e3a01034 	mov	r1, #52	; 0x34
    1578:	e3a02044 	mov	r2, #68	; 0x44
    157c:	e3ccc020 	bic	ip, ip, #32
    1580:	e5cdc007 	strb	ip, [sp, #7]
    1584:	ebfffdaf 	bl	c48 <twi_byte_rw>
    1588:	e3500000 	cmp	r0, #0
    158c:	1a00005a 	bne	16fc <mem_power_exit+0x304>
    1590:	e3140002 	tst	r4, #2
    1594:	0a000011 	beq	15e0 <mem_power_exit+0x1e8>
    1598:	e28d5007 	add	r5, sp, #7
    159c:	e3a00000 	mov	r0, #0
    15a0:	e3a01034 	mov	r1, #52	; 0x34
    15a4:	e3a02043 	mov	r2, #67	; 0x43
    15a8:	e1a03005 	mov	r3, r5
    15ac:	ebfffda5 	bl	c48 <twi_byte_rw>
    15b0:	e3500000 	cmp	r0, #0
    15b4:	1a000050 	bne	16fc <mem_power_exit+0x304>
    15b8:	e5ddc007 	ldrb	ip, [sp, #7]
    15bc:	e1a03005 	mov	r3, r5
    15c0:	e2800001 	add	r0, r0, #1
    15c4:	e3a01034 	mov	r1, #52	; 0x34
    15c8:	e3a02043 	mov	r2, #67	; 0x43
    15cc:	e3ccc003 	bic	ip, ip, #3
    15d0:	e5cdc007 	strb	ip, [sp, #7]
    15d4:	ebfffd9b 	bl	c48 <twi_byte_rw>
    15d8:	e3500000 	cmp	r0, #0
    15dc:	1a000046 	bne	16fc <mem_power_exit+0x304>
    15e0:	e3140004 	tst	r4, #4
    15e4:	0a000030 	beq	16ac <mem_power_exit+0x2b4>
    15e8:	e28d5007 	add	r5, sp, #7
    15ec:	e3a00000 	mov	r0, #0
    15f0:	e3a01034 	mov	r1, #52	; 0x34
    15f4:	e3a02040 	mov	r2, #64	; 0x40
    15f8:	e1a03005 	mov	r3, r5
    15fc:	ebfffd91 	bl	c48 <twi_byte_rw>
    1600:	e3500000 	cmp	r0, #0
    1604:	1a00003c 	bne	16fc <mem_power_exit+0x304>
    1608:	e5ddc007 	ldrb	ip, [sp, #7]
    160c:	e2800001 	add	r0, r0, #1
    1610:	e3a01034 	mov	r1, #52	; 0x34
    1614:	e3a02040 	mov	r2, #64	; 0x40
    1618:	e1a03005 	mov	r3, r5
    161c:	e3ccc00c 	bic	ip, ip, #12
    1620:	e5cdc007 	strb	ip, [sp, #7]
    1624:	ebfffd87 	bl	c48 <twi_byte_rw>
    1628:	e3500000 	cmp	r0, #0
    162c:	1a000032 	bne	16fc <mem_power_exit+0x304>
    1630:	e3a01034 	mov	r1, #52	; 0x34
    1634:	e3a02092 	mov	r2, #146	; 0x92
    1638:	e1a03005 	mov	r3, r5
    163c:	ebfffd81 	bl	c48 <twi_byte_rw>
    1640:	e3500000 	cmp	r0, #0
    1644:	1a00002c 	bne	16fc <mem_power_exit+0x304>
    1648:	e2800001 	add	r0, r0, #1
    164c:	e3a01034 	mov	r1, #52	; 0x34
    1650:	e3a02092 	mov	r2, #146	; 0x92
    1654:	e1a03005 	mov	r3, r5
    1658:	e3a0c007 	mov	ip, #7
    165c:	e5cdc007 	strb	ip, [sp, #7]
    1660:	ebfffd78 	bl	c48 <twi_byte_rw>
    1664:	e3500000 	cmp	r0, #0
    1668:	1a000023 	bne	16fc <mem_power_exit+0x304>
    166c:	e3a01034 	mov	r1, #52	; 0x34
    1670:	e3a02044 	mov	r2, #68	; 0x44
    1674:	e1a03005 	mov	r3, r5
    1678:	ebfffd72 	bl	c48 <twi_byte_rw>
    167c:	e3500000 	cmp	r0, #0
    1680:	1a00001d 	bne	16fc <mem_power_exit+0x304>
    1684:	e5ddc007 	ldrb	ip, [sp, #7]
    1688:	e1a03005 	mov	r3, r5
    168c:	e2800001 	add	r0, r0, #1
    1690:	e3a01034 	mov	r1, #52	; 0x34
    1694:	e3a02044 	mov	r2, #68	; 0x44
    1698:	e3ccc002 	bic	ip, ip, #2
    169c:	e5cdc007 	strb	ip, [sp, #7]
    16a0:	ebfffd68 	bl	c48 <twi_byte_rw>
    16a4:	e3500000 	cmp	r0, #0
    16a8:	1a000013 	bne	16fc <mem_power_exit+0x304>
    16ac:	e3140008 	tst	r4, #8
    16b0:	0a000013 	beq	1704 <mem_power_exit+0x30c>
    16b4:	e28d4007 	add	r4, sp, #7
    16b8:	e3a00000 	mov	r0, #0
    16bc:	e3a01034 	mov	r1, #52	; 0x34
    16c0:	e3a02040 	mov	r2, #64	; 0x40
    16c4:	e1a03004 	mov	r3, r4
    16c8:	ebfffd5e 	bl	c48 <twi_byte_rw>
    16cc:	e3500000 	cmp	r0, #0
    16d0:	1a000009 	bne	16fc <mem_power_exit+0x304>
    16d4:	e5ddc007 	ldrb	ip, [sp, #7]
    16d8:	e1a03004 	mov	r3, r4
    16dc:	e2800001 	add	r0, r0, #1
    16e0:	e3a01034 	mov	r1, #52	; 0x34
    16e4:	e3a02040 	mov	r2, #64	; 0x40
    16e8:	e3ccc060 	bic	ip, ip, #96	; 0x60
    16ec:	e5cdc007 	strb	ip, [sp, #7]
    16f0:	ebfffd54 	bl	c48 <twi_byte_rw>
    16f4:	e3500000 	cmp	r0, #0
    16f8:	0a000001 	beq	1704 <mem_power_exit+0x30c>
    16fc:	e3e00000 	mvn	r0, #0
    1700:	ea000000 	b	1708 <mem_power_exit+0x310>
    1704:	e3a00000 	mov	r0, #0
    1708:	e8bd803e 	pop	{r1, r2, r3, r4, r5, pc}

0000170c <mem_get_voltage>:
    170c:	e59f3098 	ldr	r3, [pc, #152]	; 17ac <mem_get_voltage+0xa0>
    1710:	e92d4037 	push	{r0, r1, r2, r4, r5, lr}
    1714:	e1a05000 	mov	r5, r0
    1718:	e28320a8 	add	r2, r3, #168	; 0xa8
    171c:	ea000002 	b	172c <mem_get_voltage+0x20>
    1720:	e493101c 	ldr	r1, [r3], #28
    1724:	e1510005 	cmp	r1, r5
    1728:	0a000003 	beq	173c <mem_get_voltage+0x30>
    172c:	e1530002 	cmp	r3, r2
    1730:	e1a04003 	mov	r4, r3
    1734:	1afffff9 	bne	1720 <mem_get_voltage+0x14>
    1738:	ea000019 	b	17a4 <mem_get_voltage+0x98>
    173c:	e3540000 	cmp	r4, #0
    1740:	0a000017 	beq	17a4 <mem_get_voltage+0x98>
    1744:	e3a00000 	mov	r0, #0
    1748:	e3a01034 	mov	r1, #52	; 0x34
    174c:	e5d42010 	ldrb	r2, [r4, #16]
    1750:	e28d3007 	add	r3, sp, #7
    1754:	ebfffd3b 	bl	c48 <twi_byte_rw>
    1758:	e3500000 	cmp	r0, #0
    175c:	1a000010 	bne	17a4 <mem_get_voltage+0x98>
    1760:	e3e01000 	mvn	r1, #0
    1764:	e5943018 	ldr	r3, [r4, #24]
    1768:	e5942014 	ldr	r2, [r4, #20]
    176c:	e3550006 	cmp	r5, #6
    1770:	e1e03311 	mvn	r3, r1, lsl r3
    1774:	e5dd1007 	ldrb	r1, [sp, #7]
    1778:	1594000c 	ldrne	r0, [r4, #12]
    177c:	03a00ffa 	moveq	r0, #1000	; 0x3e8
    1780:	e0013213 	and	r3, r1, r3, lsl r2
    1784:	e1a03253 	asr	r3, r3, r2
    1788:	059f2020 	ldreq	r2, [pc, #32]	; 17b0 <mem_get_voltage+0xa4>
    178c:	15942004 	ldrne	r2, [r4, #4]
    1790:	e6ef3073 	uxtb	r3, r3
    1794:	07923103 	ldreq	r3, [r2, r3, lsl #2]
    1798:	10202390 	mlane	r0, r0, r3, r2
    179c:	00000390 	muleq	r0, r0, r3
    17a0:	ea000000 	b	17a8 <mem_get_voltage+0x9c>
    17a4:	e3e00000 	mvn	r0, #0
    17a8:	e8bd803e 	pop	{r1, r2, r3, r4, r5, pc}
    17ac:	00003e88 	andeq	r3, r0, r8, lsl #29
    17b0:	00003e44 	andeq	r3, r0, r4, asr #28

000017b4 <mem_set_voltage>:
    17b4:	e59f31e0 	ldr	r3, [pc, #480]	; 199c <mem_set_voltage+0x1e8>
    17b8:	e92d41f3 	push	{r0, r1, r4, r5, r6, r7, r8, lr}
    17bc:	e28320a8 	add	r2, r3, #168	; 0xa8
    17c0:	ea000002 	b	17d0 <mem_set_voltage+0x1c>
    17c4:	e594c000 	ldr	ip, [r4]
    17c8:	e15c0000 	cmp	ip, r0
    17cc:	0a000004 	beq	17e4 <mem_set_voltage+0x30>
    17d0:	e1530002 	cmp	r3, r2
    17d4:	e1a04003 	mov	r4, r3
    17d8:	e283301c 	add	r3, r3, #28
    17dc:	1afffff8 	bne	17c4 <mem_set_voltage+0x10>
    17e0:	ea000066 	b	1980 <mem_set_voltage+0x1cc>
    17e4:	e3540000 	cmp	r4, #0
    17e8:	0a000064 	beq	1980 <mem_set_voltage+0x1cc>
    17ec:	e5943004 	ldr	r3, [r4, #4]
    17f0:	e1510003 	cmp	r1, r3
    17f4:	ba000061 	blt	1980 <mem_set_voltage+0x1cc>
    17f8:	e5942008 	ldr	r2, [r4, #8]
    17fc:	e1510002 	cmp	r1, r2
    1800:	ca00005e 	bgt	1980 <mem_set_voltage+0x1cc>
    1804:	ea000061 	b	1990 <mem_set_voltage+0x1dc>
    1808:	e594500c 	ldr	r5, [r4, #12]
    180c:	e3550000 	cmp	r5, #0
    1810:	e1a02005 	mov	r2, r5
    1814:	13a00000 	movne	r0, #0
    1818:	1a000002 	bne	1828 <mem_set_voltage+0x74>
    181c:	ea000030 	b	18e4 <mem_set_voltage+0x130>
    1820:	e1a02082 	lsl	r2, r2, #1
    1824:	e2800001 	add	r0, r0, #1
    1828:	e3520000 	cmp	r2, #0
    182c:	aafffffb 	bge	1820 <mem_set_voltage+0x6c>
    1830:	e245c001 	sub	ip, r5, #1
    1834:	e3a05000 	mov	r5, #0
    1838:	e063300c 	rsb	r3, r3, ip
    183c:	e0831001 	add	r1, r3, r1
    1840:	e1510002 	cmp	r1, r2
    1844:	e1a03085 	lsl	r3, r5, #1
    1848:	20621001 	rsbcs	r1, r2, r1
    184c:	e3835001 	orr	r5, r3, #1
    1850:	31a05003 	movcc	r5, r3
    1854:	e2500001 	subs	r0, r0, #1
    1858:	e1a020a2 	lsr	r2, r2, #1
    185c:	5afffff7 	bpl	1840 <mem_set_voltage+0x8c>
    1860:	ea00001f 	b	18e4 <mem_set_voltage+0x130>
    1864:	e59f3134 	ldr	r3, [pc, #308]	; 19a0 <mem_set_voltage+0x1ec>
    1868:	e1510003 	cmp	r1, r3
    186c:	03a05000 	moveq	r5, #0
    1870:	0a000024 	beq	1908 <mem_set_voltage+0x154>
    1874:	e594000c 	ldr	r0, [r4, #12]
    1878:	e3500000 	cmp	r0, #0
    187c:	e1a03000 	mov	r3, r0
    1880:	13a02000 	movne	r2, #0
    1884:	1a000002 	bne	1894 <mem_set_voltage+0xe0>
    1888:	ea000010 	b	18d0 <mem_set_voltage+0x11c>
    188c:	e1a03083 	lsl	r3, r3, #1
    1890:	e2822001 	add	r2, r2, #1
    1894:	e3530000 	cmp	r3, #0
    1898:	aafffffb 	bge	188c <mem_set_voltage+0xd8>
    189c:	e59fc100 	ldr	ip, [pc, #256]	; 19a4 <mem_set_voltage+0x1f0>
    18a0:	e3a05000 	mov	r5, #0
    18a4:	e080c00c 	add	ip, r0, ip
    18a8:	e08c1001 	add	r1, ip, r1
    18ac:	e1510003 	cmp	r1, r3
    18b0:	e1a00085 	lsl	r0, r5, #1
    18b4:	20631001 	rsbcs	r1, r3, r1
    18b8:	e3805001 	orr	r5, r0, #1
    18bc:	31a05000 	movcc	r5, r0
    18c0:	e2522001 	subs	r2, r2, #1
    18c4:	e1a030a3 	lsr	r3, r3, #1
    18c8:	5afffff7 	bpl	18ac <mem_set_voltage+0xf8>
    18cc:	ea000000 	b	18d4 <mem_set_voltage+0x120>
    18d0:	e1a05000 	mov	r5, r0
    18d4:	e6ef5075 	uxtb	r5, r5
    18d8:	e3550010 	cmp	r5, #16
    18dc:	9a000002 	bls	18ec <mem_set_voltage+0x138>
    18e0:	e2455006 	sub	r5, r5, #6
    18e4:	e6ef5075 	uxtb	r5, r5
    18e8:	ea000006 	b	1908 <mem_set_voltage+0x154>
    18ec:	e355000d 	cmp	r5, #13
    18f0:	82455005 	subhi	r5, r5, #5
    18f4:	8afffffa 	bhi	18e4 <mem_set_voltage+0x130>
    18f8:	03a05009 	moveq	r5, #9
    18fc:	0a000001 	beq	1908 <mem_set_voltage+0x154>
    1900:	e3550008 	cmp	r5, #8
    1904:	23a05008 	movcs	r5, #8
    1908:	e28d6007 	add	r6, sp, #7
    190c:	e3a00000 	mov	r0, #0
    1910:	e3a01034 	mov	r1, #52	; 0x34
    1914:	e5d42010 	ldrb	r2, [r4, #16]
    1918:	e1a03006 	mov	r3, r6
    191c:	e5947014 	ldr	r7, [r4, #20]
    1920:	e5948018 	ldr	r8, [r4, #24]
    1924:	ebfffcc7 	bl	c48 <twi_byte_rw>
    1928:	e3500000 	cmp	r0, #0
    192c:	1a000013 	bne	1980 <mem_set_voltage+0x1cc>
    1930:	e2800001 	add	r0, r0, #1
    1934:	e1a05715 	lsl	r5, r5, r7
    1938:	e5dd3007 	ldrb	r3, [sp, #7]
    193c:	e1a08810 	lsl	r8, r0, r8
    1940:	e6ef5075 	uxtb	r5, r5
    1944:	e2488001 	sub	r8, r8, #1
    1948:	e1a07718 	lsl	r7, r8, r7
    194c:	e6ef7077 	uxtb	r7, r7
    1950:	e0072003 	and	r2, r7, r3
    1954:	e1520005 	cmp	r2, r5
    1958:	0a00000a 	beq	1988 <mem_set_voltage+0x1d4>
    195c:	e1c33007 	bic	r3, r3, r7
    1960:	e3a01034 	mov	r1, #52	; 0x34
    1964:	e1855003 	orr	r5, r5, r3
    1968:	e1a03006 	mov	r3, r6
    196c:	e5cd5007 	strb	r5, [sp, #7]
    1970:	e5d42010 	ldrb	r2, [r4, #16]
    1974:	ebfffcb3 	bl	c48 <twi_byte_rw>
    1978:	e3500000 	cmp	r0, #0
    197c:	0a000001 	beq	1988 <mem_set_voltage+0x1d4>
    1980:	e3e00000 	mvn	r0, #0
    1984:	ea000000 	b	198c <mem_set_voltage+0x1d8>
    1988:	e3a00000 	mov	r0, #0
    198c:	e8bd81fc 	pop	{r2, r3, r4, r5, r6, r7, r8, pc}
    1990:	e3500006 	cmp	r0, #6
    1994:	1affff9b 	bne	1808 <mem_set_voltage+0x54>
    1998:	eaffffb1 	b	1864 <mem_set_voltage+0xb0>
    199c:	00003e88 	andeq	r3, r0, r8, lsl #29
    19a0:	001312d0 	undefined instruction 0x001312d0
    19a4:	ffedb07f 	undefined instruction 0xffedb07f

000019a8 <mem_power_init>:
    19a8:	e92d4037 	push	{r0, r1, r2, r4, r5, lr}
    19ac:	e1a04000 	mov	r4, r0
    19b0:	e3a00901 	mov	r0, #16384	; 0x4000
    19b4:	eb00054a 	bl	2ee4 <save_mem_status>
    19b8:	e3140001 	tst	r4, #1
    19bc:	0a000011 	beq	1a08 <mem_power_init+0x60>
    19c0:	e28d5007 	add	r5, sp, #7
    19c4:	e3a00000 	mov	r0, #0
    19c8:	e3a01034 	mov	r1, #52	; 0x34
    19cc:	e3a02042 	mov	r2, #66	; 0x42
    19d0:	e1a03005 	mov	r3, r5
    19d4:	ebfffc9b 	bl	c48 <twi_byte_rw>
    19d8:	e3500000 	cmp	r0, #0
    19dc:	1a0001ed 	bne	2198 <mem_power_init+0x7f0>
    19e0:	e5ddc007 	ldrb	ip, [sp, #7]
    19e4:	e1a03005 	mov	r3, r5
    19e8:	e2800001 	add	r0, r0, #1
    19ec:	e3a01034 	mov	r1, #52	; 0x34
    19f0:	e3a02042 	mov	r2, #66	; 0x42
    19f4:	e38cc003 	orr	ip, ip, #3
    19f8:	e5cdc007 	strb	ip, [sp, #7]
    19fc:	ebfffc91 	bl	c48 <twi_byte_rw>
    1a00:	e3500000 	cmp	r0, #0
    1a04:	1a0001e3 	bne	2198 <mem_power_init+0x7f0>
    1a08:	e3140040 	tst	r4, #64	; 0x40
    1a0c:	0a000011 	beq	1a58 <mem_power_init+0xb0>
    1a10:	e28d5007 	add	r5, sp, #7
    1a14:	e3a00000 	mov	r0, #0
    1a18:	e3a01034 	mov	r1, #52	; 0x34
    1a1c:	e3a02042 	mov	r2, #66	; 0x42
    1a20:	e1a03005 	mov	r3, r5
    1a24:	ebfffc87 	bl	c48 <twi_byte_rw>
    1a28:	e3500000 	cmp	r0, #0
    1a2c:	1a0001d9 	bne	2198 <mem_power_init+0x7f0>
    1a30:	e5ddc007 	ldrb	ip, [sp, #7]
    1a34:	e1a03005 	mov	r3, r5
    1a38:	e2800001 	add	r0, r0, #1
    1a3c:	e3a01034 	mov	r1, #52	; 0x34
    1a40:	e3a02042 	mov	r2, #66	; 0x42
    1a44:	e38cc002 	orr	ip, ip, #2
    1a48:	e5cdc007 	strb	ip, [sp, #7]
    1a4c:	ebfffc7d 	bl	c48 <twi_byte_rw>
    1a50:	e3500000 	cmp	r0, #0
    1a54:	1a0001cf 	bne	2198 <mem_power_init+0x7f0>
    1a58:	e3140080 	tst	r4, #128	; 0x80
    1a5c:	0a000011 	beq	1aa8 <mem_power_init+0x100>
    1a60:	e28d5007 	add	r5, sp, #7
    1a64:	e3a00000 	mov	r0, #0
    1a68:	e3a01034 	mov	r1, #52	; 0x34
    1a6c:	e3a02042 	mov	r2, #66	; 0x42
    1a70:	e1a03005 	mov	r3, r5
    1a74:	ebfffc73 	bl	c48 <twi_byte_rw>
    1a78:	e3500000 	cmp	r0, #0
    1a7c:	1a0001c5 	bne	2198 <mem_power_init+0x7f0>
    1a80:	e5ddc007 	ldrb	ip, [sp, #7]
    1a84:	e2800001 	add	r0, r0, #1
    1a88:	e1a03005 	mov	r3, r5
    1a8c:	e3a01034 	mov	r1, #52	; 0x34
    1a90:	e3a02042 	mov	r2, #66	; 0x42
    1a94:	e18cc000 	orr	ip, ip, r0
    1a98:	e5cdc007 	strb	ip, [sp, #7]
    1a9c:	ebfffc69 	bl	c48 <twi_byte_rw>
    1aa0:	e3500000 	cmp	r0, #0
    1aa4:	1a0001bb 	bne	2198 <mem_power_init+0x7f0>
    1aa8:	e3140010 	tst	r4, #16
    1aac:	0a000011 	beq	1af8 <mem_power_init+0x150>
    1ab0:	e28d5007 	add	r5, sp, #7
    1ab4:	e3a00000 	mov	r0, #0
    1ab8:	e3a01034 	mov	r1, #52	; 0x34
    1abc:	e3a02044 	mov	r2, #68	; 0x44
    1ac0:	e1a03005 	mov	r3, r5
    1ac4:	ebfffc5f 	bl	c48 <twi_byte_rw>
    1ac8:	e3500000 	cmp	r0, #0
    1acc:	1a0001b1 	bne	2198 <mem_power_init+0x7f0>
    1ad0:	e5ddc007 	ldrb	ip, [sp, #7]
    1ad4:	e1a03005 	mov	r3, r5
    1ad8:	e2800001 	add	r0, r0, #1
    1adc:	e3a01034 	mov	r1, #52	; 0x34
    1ae0:	e3a02044 	mov	r2, #68	; 0x44
    1ae4:	e38cc040 	orr	ip, ip, #64	; 0x40
    1ae8:	e5cdc007 	strb	ip, [sp, #7]
    1aec:	ebfffc55 	bl	c48 <twi_byte_rw>
    1af0:	e3500000 	cmp	r0, #0
    1af4:	1a0001a7 	bne	2198 <mem_power_init+0x7f0>
    1af8:	e3140020 	tst	r4, #32
    1afc:	0a000011 	beq	1b48 <mem_power_init+0x1a0>
    1b00:	e28d5007 	add	r5, sp, #7
    1b04:	e3a00000 	mov	r0, #0
    1b08:	e3a01034 	mov	r1, #52	; 0x34
    1b0c:	e3a02044 	mov	r2, #68	; 0x44
    1b10:	e1a03005 	mov	r3, r5
    1b14:	ebfffc4b 	bl	c48 <twi_byte_rw>
    1b18:	e3500000 	cmp	r0, #0
    1b1c:	1a00019d 	bne	2198 <mem_power_init+0x7f0>
    1b20:	e5ddc007 	ldrb	ip, [sp, #7]
    1b24:	e1a03005 	mov	r3, r5
    1b28:	e2800001 	add	r0, r0, #1
    1b2c:	e3a01034 	mov	r1, #52	; 0x34
    1b30:	e3a02044 	mov	r2, #68	; 0x44
    1b34:	e38cc020 	orr	ip, ip, #32
    1b38:	e5cdc007 	strb	ip, [sp, #7]
    1b3c:	ebfffc41 	bl	c48 <twi_byte_rw>
    1b40:	e3500000 	cmp	r0, #0
    1b44:	1a000193 	bne	2198 <mem_power_init+0x7f0>
    1b48:	e3140002 	tst	r4, #2
    1b4c:	0a00001a 	beq	1bbc <mem_power_init+0x214>
    1b50:	e28d5007 	add	r5, sp, #7
    1b54:	e3a00000 	mov	r0, #0
    1b58:	e3a01034 	mov	r1, #52	; 0x34
    1b5c:	e3a02043 	mov	r2, #67	; 0x43
    1b60:	e1a03005 	mov	r3, r5
    1b64:	ebfffc37 	bl	c48 <twi_byte_rw>
    1b68:	e3500000 	cmp	r0, #0
    1b6c:	1a000189 	bne	2198 <mem_power_init+0x7f0>
    1b70:	e5ddc007 	ldrb	ip, [sp, #7]
    1b74:	e2800001 	add	r0, r0, #1
    1b78:	e3a01034 	mov	r1, #52	; 0x34
    1b7c:	e3a02043 	mov	r2, #67	; 0x43
    1b80:	e1a03005 	mov	r3, r5
    1b84:	e38cc003 	orr	ip, ip, #3
    1b88:	e5cdc007 	strb	ip, [sp, #7]
    1b8c:	ebfffc2d 	bl	c48 <twi_byte_rw>
    1b90:	e3500000 	cmp	r0, #0
    1b94:	1a00017f 	bne	2198 <mem_power_init+0x7f0>
    1b98:	e1a03005 	mov	r3, r5
    1b9c:	e2800001 	add	r0, r0, #1
    1ba0:	e3a01034 	mov	r1, #52	; 0x34
    1ba4:	e3a0204b 	mov	r2, #75	; 0x4b
    1ba8:	e3a0c003 	mov	ip, #3
    1bac:	e5cdc007 	strb	ip, [sp, #7]
    1bb0:	ebfffc24 	bl	c48 <twi_byte_rw>
    1bb4:	e3500000 	cmp	r0, #0
    1bb8:	1a000176 	bne	2198 <mem_power_init+0x7f0>
    1bbc:	e3140004 	tst	r4, #4
    1bc0:	0a000030 	beq	1c88 <mem_power_init+0x2e0>
    1bc4:	e28d5007 	add	r5, sp, #7
    1bc8:	e3a00000 	mov	r0, #0
    1bcc:	e3a01034 	mov	r1, #52	; 0x34
    1bd0:	e3a02040 	mov	r2, #64	; 0x40
    1bd4:	e1a03005 	mov	r3, r5
    1bd8:	ebfffc1a 	bl	c48 <twi_byte_rw>
    1bdc:	e3500000 	cmp	r0, #0
    1be0:	1a00016c 	bne	2198 <mem_power_init+0x7f0>
    1be4:	e5ddc007 	ldrb	ip, [sp, #7]
    1be8:	e2800001 	add	r0, r0, #1
    1bec:	e3a01034 	mov	r1, #52	; 0x34
    1bf0:	e3a02040 	mov	r2, #64	; 0x40
    1bf4:	e1a03005 	mov	r3, r5
    1bf8:	e38cc00c 	orr	ip, ip, #12
    1bfc:	e5cdc007 	strb	ip, [sp, #7]
    1c00:	ebfffc10 	bl	c48 <twi_byte_rw>
    1c04:	e3500000 	cmp	r0, #0
    1c08:	1a000162 	bne	2198 <mem_power_init+0x7f0>
    1c0c:	e3a01034 	mov	r1, #52	; 0x34
    1c10:	e3a02092 	mov	r2, #146	; 0x92
    1c14:	e1a03005 	mov	r3, r5
    1c18:	ebfffc0a 	bl	c48 <twi_byte_rw>
    1c1c:	e3500000 	cmp	r0, #0
    1c20:	1a00015c 	bne	2198 <mem_power_init+0x7f0>
    1c24:	e2800001 	add	r0, r0, #1
    1c28:	e3a01034 	mov	r1, #52	; 0x34
    1c2c:	e3a02092 	mov	r2, #146	; 0x92
    1c30:	e1a03005 	mov	r3, r5
    1c34:	e3e0c07d 	mvn	ip, #125	; 0x7d
    1c38:	e5cdc007 	strb	ip, [sp, #7]
    1c3c:	ebfffc01 	bl	c48 <twi_byte_rw>
    1c40:	e3500000 	cmp	r0, #0
    1c44:	1a000153 	bne	2198 <mem_power_init+0x7f0>
    1c48:	e3a01034 	mov	r1, #52	; 0x34
    1c4c:	e3a02044 	mov	r2, #68	; 0x44
    1c50:	e1a03005 	mov	r3, r5
    1c54:	ebfffbfb 	bl	c48 <twi_byte_rw>
    1c58:	e3500000 	cmp	r0, #0
    1c5c:	1a00014d 	bne	2198 <mem_power_init+0x7f0>
    1c60:	e5ddc007 	ldrb	ip, [sp, #7]
    1c64:	e1a03005 	mov	r3, r5
    1c68:	e2800001 	add	r0, r0, #1
    1c6c:	e3a01034 	mov	r1, #52	; 0x34
    1c70:	e3a02044 	mov	r2, #68	; 0x44
    1c74:	e38cc002 	orr	ip, ip, #2
    1c78:	e5cdc007 	strb	ip, [sp, #7]
    1c7c:	ebfffbf1 	bl	c48 <twi_byte_rw>
    1c80:	e3500000 	cmp	r0, #0
    1c84:	1a000143 	bne	2198 <mem_power_init+0x7f0>
    1c88:	e3140008 	tst	r4, #8
    1c8c:	0a000011 	beq	1cd8 <mem_power_init+0x330>
    1c90:	e28d5007 	add	r5, sp, #7
    1c94:	e3a00000 	mov	r0, #0
    1c98:	e3a01034 	mov	r1, #52	; 0x34
    1c9c:	e3a02040 	mov	r2, #64	; 0x40
    1ca0:	e1a03005 	mov	r3, r5
    1ca4:	ebfffbe7 	bl	c48 <twi_byte_rw>
    1ca8:	e3500000 	cmp	r0, #0
    1cac:	1a000139 	bne	2198 <mem_power_init+0x7f0>
    1cb0:	e5ddc007 	ldrb	ip, [sp, #7]
    1cb4:	e1a03005 	mov	r3, r5
    1cb8:	e2800001 	add	r0, r0, #1
    1cbc:	e3a01034 	mov	r1, #52	; 0x34
    1cc0:	e3a02040 	mov	r2, #64	; 0x40
    1cc4:	e38cc060 	orr	ip, ip, #96	; 0x60
    1cc8:	e5cdc007 	strb	ip, [sp, #7]
    1ccc:	ebfffbdd 	bl	c48 <twi_byte_rw>
    1cd0:	e3500000 	cmp	r0, #0
    1cd4:	1a00012f 	bne	2198 <mem_power_init+0x7f0>
    1cd8:	e3140c01 	tst	r4, #256	; 0x100
    1cdc:	0a000022 	beq	1d6c <mem_power_init+0x3c4>
    1ce0:	e28d5007 	add	r5, sp, #7
    1ce4:	e3a00000 	mov	r0, #0
    1ce8:	e3a01034 	mov	r1, #52	; 0x34
    1cec:	e3a02044 	mov	r2, #68	; 0x44
    1cf0:	e1a03005 	mov	r3, r5
    1cf4:	ebfffbd3 	bl	c48 <twi_byte_rw>
    1cf8:	e3500000 	cmp	r0, #0
    1cfc:	1a000125 	bne	2198 <mem_power_init+0x7f0>
    1d00:	e5ddc007 	ldrb	ip, [sp, #7]
    1d04:	e2800001 	add	r0, r0, #1
    1d08:	e3a01034 	mov	r1, #52	; 0x34
    1d0c:	e3a02044 	mov	r2, #68	; 0x44
    1d10:	e1a03005 	mov	r3, r5
    1d14:	e18cc000 	orr	ip, ip, r0
    1d18:	e5cdc007 	strb	ip, [sp, #7]
    1d1c:	ebfffbc9 	bl	c48 <twi_byte_rw>
    1d20:	e3500000 	cmp	r0, #0
    1d24:	1a00011b 	bne	2198 <mem_power_init+0x7f0>
    1d28:	e3a01034 	mov	r1, #52	; 0x34
    1d2c:	e3a02090 	mov	r2, #144	; 0x90
    1d30:	e1a03005 	mov	r3, r5
    1d34:	ebfffbc3 	bl	c48 <twi_byte_rw>
    1d38:	e3500000 	cmp	r0, #0
    1d3c:	1a000115 	bne	2198 <mem_power_init+0x7f0>
    1d40:	e5ddc007 	ldrb	ip, [sp, #7]
    1d44:	e1a03005 	mov	r3, r5
    1d48:	e2800001 	add	r0, r0, #1
    1d4c:	e3a01034 	mov	r1, #52	; 0x34
    1d50:	e3ccc007 	bic	ip, ip, #7
    1d54:	e3a02090 	mov	r2, #144	; 0x90
    1d58:	e38cc042 	orr	ip, ip, #66	; 0x42
    1d5c:	e5cdc007 	strb	ip, [sp, #7]
    1d60:	ebfffbb8 	bl	c48 <twi_byte_rw>
    1d64:	e3500000 	cmp	r0, #0
    1d68:	1a00010a 	bne	2198 <mem_power_init+0x7f0>
    1d6c:	e3140c02 	tst	r4, #512	; 0x200
    1d70:	0a000024 	beq	1e08 <mem_power_init+0x460>
    1d74:	e28d5007 	add	r5, sp, #7
    1d78:	e3a00000 	mov	r0, #0
    1d7c:	e3a01034 	mov	r1, #52	; 0x34
    1d80:	e3a02044 	mov	r2, #68	; 0x44
    1d84:	e1a03005 	mov	r3, r5
    1d88:	ebfffbae 	bl	c48 <twi_byte_rw>
    1d8c:	e3500000 	cmp	r0, #0
    1d90:	1a000100 	bne	2198 <mem_power_init+0x7f0>
    1d94:	e5ddc007 	ldrb	ip, [sp, #7]
    1d98:	e2800001 	add	r0, r0, #1
    1d9c:	e3a01034 	mov	r1, #52	; 0x34
    1da0:	e3a02044 	mov	r2, #68	; 0x44
    1da4:	e1a03005 	mov	r3, r5
    1da8:	e18cc000 	orr	ip, ip, r0
    1dac:	e5cdc007 	strb	ip, [sp, #7]
    1db0:	ebfffba4 	bl	c48 <twi_byte_rw>
    1db4:	e3500000 	cmp	r0, #0
    1db8:	1a0000f6 	bne	2198 <mem_power_init+0x7f0>
    1dbc:	e3a01034 	mov	r1, #52	; 0x34
    1dc0:	e3a02090 	mov	r2, #144	; 0x90
    1dc4:	e1a03005 	mov	r3, r5
    1dc8:	ebfffb9e 	bl	c48 <twi_byte_rw>
    1dcc:	e3500000 	cmp	r0, #0
    1dd0:	1a0000f0 	bne	2198 <mem_power_init+0x7f0>
    1dd4:	e5ddc007 	ldrb	ip, [sp, #7]
    1dd8:	e1a03005 	mov	r3, r5
    1ddc:	e2800001 	add	r0, r0, #1
    1de0:	e3a01034 	mov	r1, #52	; 0x34
    1de4:	e3ccc007 	bic	ip, ip, #7
    1de8:	e3a02090 	mov	r2, #144	; 0x90
    1dec:	e1e0c00c 	mvn	ip, ip
    1df0:	e20cc07d 	and	ip, ip, #125	; 0x7d
    1df4:	e1e0c00c 	mvn	ip, ip
    1df8:	e5cdc007 	strb	ip, [sp, #7]
    1dfc:	ebfffb91 	bl	c48 <twi_byte_rw>
    1e00:	e3500000 	cmp	r0, #0
    1e04:	1a0000e3 	bne	2198 <mem_power_init+0x7f0>
    1e08:	e3140b01 	tst	r4, #1024	; 0x400
    1e0c:	0a000022 	beq	1e9c <mem_power_init+0x4f4>
    1e10:	e28d5007 	add	r5, sp, #7
    1e14:	e3a00000 	mov	r0, #0
    1e18:	e3a01034 	mov	r1, #52	; 0x34
    1e1c:	e3a02044 	mov	r2, #68	; 0x44
    1e20:	e1a03005 	mov	r3, r5
    1e24:	ebfffb87 	bl	c48 <twi_byte_rw>
    1e28:	e3500000 	cmp	r0, #0
    1e2c:	1a0000d9 	bne	2198 <mem_power_init+0x7f0>
    1e30:	e5ddc007 	ldrb	ip, [sp, #7]
    1e34:	e2800001 	add	r0, r0, #1
    1e38:	e3a01034 	mov	r1, #52	; 0x34
    1e3c:	e3a02044 	mov	r2, #68	; 0x44
    1e40:	e1a03005 	mov	r3, r5
    1e44:	e38cc002 	orr	ip, ip, #2
    1e48:	e5cdc007 	strb	ip, [sp, #7]
    1e4c:	ebfffb7d 	bl	c48 <twi_byte_rw>
    1e50:	e3500000 	cmp	r0, #0
    1e54:	1a0000cf 	bne	2198 <mem_power_init+0x7f0>
    1e58:	e3a01034 	mov	r1, #52	; 0x34
    1e5c:	e3a02092 	mov	r2, #146	; 0x92
    1e60:	e1a03005 	mov	r3, r5
    1e64:	ebfffb77 	bl	c48 <twi_byte_rw>
    1e68:	e3500000 	cmp	r0, #0
    1e6c:	1a0000c9 	bne	2198 <mem_power_init+0x7f0>
    1e70:	e5ddc007 	ldrb	ip, [sp, #7]
    1e74:	e1a03005 	mov	r3, r5
    1e78:	e2800001 	add	r0, r0, #1
    1e7c:	e3a01034 	mov	r1, #52	; 0x34
    1e80:	e3ccc007 	bic	ip, ip, #7
    1e84:	e3a02092 	mov	r2, #146	; 0x92
    1e88:	e38cc042 	orr	ip, ip, #66	; 0x42
    1e8c:	e5cdc007 	strb	ip, [sp, #7]
    1e90:	ebfffb6c 	bl	c48 <twi_byte_rw>
    1e94:	e3500000 	cmp	r0, #0
    1e98:	1a0000be 	bne	2198 <mem_power_init+0x7f0>
    1e9c:	e3140b02 	tst	r4, #2048	; 0x800
    1ea0:	0a000024 	beq	1f38 <mem_power_init+0x590>
    1ea4:	e28d5007 	add	r5, sp, #7
    1ea8:	e3a00000 	mov	r0, #0
    1eac:	e3a01034 	mov	r1, #52	; 0x34
    1eb0:	e3a02044 	mov	r2, #68	; 0x44
    1eb4:	e1a03005 	mov	r3, r5
    1eb8:	ebfffb62 	bl	c48 <twi_byte_rw>
    1ebc:	e3500000 	cmp	r0, #0
    1ec0:	1a0000b4 	bne	2198 <mem_power_init+0x7f0>
    1ec4:	e5ddc007 	ldrb	ip, [sp, #7]
    1ec8:	e2800001 	add	r0, r0, #1
    1ecc:	e3a01034 	mov	r1, #52	; 0x34
    1ed0:	e3a02044 	mov	r2, #68	; 0x44
    1ed4:	e1a03005 	mov	r3, r5
    1ed8:	e38cc002 	orr	ip, ip, #2
    1edc:	e5cdc007 	strb	ip, [sp, #7]
    1ee0:	ebfffb58 	bl	c48 <twi_byte_rw>
    1ee4:	e3500000 	cmp	r0, #0
    1ee8:	1a0000aa 	bne	2198 <mem_power_init+0x7f0>
    1eec:	e3a01034 	mov	r1, #52	; 0x34
    1ef0:	e3a02092 	mov	r2, #146	; 0x92
    1ef4:	e1a03005 	mov	r3, r5
    1ef8:	ebfffb52 	bl	c48 <twi_byte_rw>
    1efc:	e3500000 	cmp	r0, #0
    1f00:	1a0000a4 	bne	2198 <mem_power_init+0x7f0>
    1f04:	e5ddc007 	ldrb	ip, [sp, #7]
    1f08:	e1a03005 	mov	r3, r5
    1f0c:	e2800001 	add	r0, r0, #1
    1f10:	e3a01034 	mov	r1, #52	; 0x34
    1f14:	e3ccc007 	bic	ip, ip, #7
    1f18:	e3a02092 	mov	r2, #146	; 0x92
    1f1c:	e1e0c00c 	mvn	ip, ip
    1f20:	e20cc07d 	and	ip, ip, #125	; 0x7d
    1f24:	e1e0c00c 	mvn	ip, ip
    1f28:	e5cdc007 	strb	ip, [sp, #7]
    1f2c:	ebfffb45 	bl	c48 <twi_byte_rw>
    1f30:	e3500000 	cmp	r0, #0
    1f34:	1a000097 	bne	2198 <mem_power_init+0x7f0>
    1f38:	e3140a01 	tst	r4, #4096	; 0x1000
    1f3c:	0a000022 	beq	1fcc <mem_power_init+0x624>
    1f40:	e28d5007 	add	r5, sp, #7
    1f44:	e3a00000 	mov	r0, #0
    1f48:	e3a01034 	mov	r1, #52	; 0x34
    1f4c:	e3a02044 	mov	r2, #68	; 0x44
    1f50:	e1a03005 	mov	r3, r5
    1f54:	ebfffb3b 	bl	c48 <twi_byte_rw>
    1f58:	e3500000 	cmp	r0, #0
    1f5c:	1a00008d 	bne	2198 <mem_power_init+0x7f0>
    1f60:	e5ddc007 	ldrb	ip, [sp, #7]
    1f64:	e2800001 	add	r0, r0, #1
    1f68:	e3a01034 	mov	r1, #52	; 0x34
    1f6c:	e3a02044 	mov	r2, #68	; 0x44
    1f70:	e1a03005 	mov	r3, r5
    1f74:	e38cc004 	orr	ip, ip, #4
    1f78:	e5cdc007 	strb	ip, [sp, #7]
    1f7c:	ebfffb31 	bl	c48 <twi_byte_rw>
    1f80:	e3500000 	cmp	r0, #0
    1f84:	1a000083 	bne	2198 <mem_power_init+0x7f0>
    1f88:	e3a01034 	mov	r1, #52	; 0x34
    1f8c:	e3a02093 	mov	r2, #147	; 0x93
    1f90:	e1a03005 	mov	r3, r5
    1f94:	ebfffb2b 	bl	c48 <twi_byte_rw>
    1f98:	e3500000 	cmp	r0, #0
    1f9c:	1a00007d 	bne	2198 <mem_power_init+0x7f0>
    1fa0:	e5ddc007 	ldrb	ip, [sp, #7]
    1fa4:	e1a03005 	mov	r3, r5
    1fa8:	e2800001 	add	r0, r0, #1
    1fac:	e3a01034 	mov	r1, #52	; 0x34
    1fb0:	e3ccc007 	bic	ip, ip, #7
    1fb4:	e3a02093 	mov	r2, #147	; 0x93
    1fb8:	e38cc042 	orr	ip, ip, #66	; 0x42
    1fbc:	e5cdc007 	strb	ip, [sp, #7]
    1fc0:	ebfffb20 	bl	c48 <twi_byte_rw>
    1fc4:	e3500000 	cmp	r0, #0
    1fc8:	1a000072 	bne	2198 <mem_power_init+0x7f0>
    1fcc:	e3140a02 	tst	r4, #8192	; 0x2000
    1fd0:	0a000024 	beq	2068 <mem_power_init+0x6c0>
    1fd4:	e28d5007 	add	r5, sp, #7
    1fd8:	e3a00000 	mov	r0, #0
    1fdc:	e3a01034 	mov	r1, #52	; 0x34
    1fe0:	e3a02044 	mov	r2, #68	; 0x44
    1fe4:	e1a03005 	mov	r3, r5
    1fe8:	ebfffb16 	bl	c48 <twi_byte_rw>
    1fec:	e3500000 	cmp	r0, #0
    1ff0:	1a000068 	bne	2198 <mem_power_init+0x7f0>
    1ff4:	e5ddc007 	ldrb	ip, [sp, #7]
    1ff8:	e2800001 	add	r0, r0, #1
    1ffc:	e3a01034 	mov	r1, #52	; 0x34
    2000:	e3a02044 	mov	r2, #68	; 0x44
    2004:	e1a03005 	mov	r3, r5
    2008:	e38cc004 	orr	ip, ip, #4
    200c:	e5cdc007 	strb	ip, [sp, #7]
    2010:	ebfffb0c 	bl	c48 <twi_byte_rw>
    2014:	e3500000 	cmp	r0, #0
    2018:	1a00005e 	bne	2198 <mem_power_init+0x7f0>
    201c:	e3a01034 	mov	r1, #52	; 0x34
    2020:	e3a02093 	mov	r2, #147	; 0x93
    2024:	e1a03005 	mov	r3, r5
    2028:	ebfffb06 	bl	c48 <twi_byte_rw>
    202c:	e3500000 	cmp	r0, #0
    2030:	1a000058 	bne	2198 <mem_power_init+0x7f0>
    2034:	e5ddc007 	ldrb	ip, [sp, #7]
    2038:	e1a03005 	mov	r3, r5
    203c:	e2800001 	add	r0, r0, #1
    2040:	e3a01034 	mov	r1, #52	; 0x34
    2044:	e3ccc007 	bic	ip, ip, #7
    2048:	e3a02093 	mov	r2, #147	; 0x93
    204c:	e1e0c00c 	mvn	ip, ip
    2050:	e20cc07d 	and	ip, ip, #125	; 0x7d
    2054:	e1e0c00c 	mvn	ip, ip
    2058:	e5cdc007 	strb	ip, [sp, #7]
    205c:	ebfffaf9 	bl	c48 <twi_byte_rw>
    2060:	e3500000 	cmp	r0, #0
    2064:	1a00004b 	bne	2198 <mem_power_init+0x7f0>
    2068:	e3140901 	tst	r4, #16384	; 0x4000
    206c:	0a000022 	beq	20fc <mem_power_init+0x754>
    2070:	e28d5007 	add	r5, sp, #7
    2074:	e3a00000 	mov	r0, #0
    2078:	e3a01034 	mov	r1, #52	; 0x34
    207c:	e3a02044 	mov	r2, #68	; 0x44
    2080:	e1a03005 	mov	r3, r5
    2084:	ebfffaef 	bl	c48 <twi_byte_rw>
    2088:	e3500000 	cmp	r0, #0
    208c:	1a000041 	bne	2198 <mem_power_init+0x7f0>
    2090:	e5ddc007 	ldrb	ip, [sp, #7]
    2094:	e2800001 	add	r0, r0, #1
    2098:	e3a01034 	mov	r1, #52	; 0x34
    209c:	e3a02044 	mov	r2, #68	; 0x44
    20a0:	e1a03005 	mov	r3, r5
    20a4:	e38cc008 	orr	ip, ip, #8
    20a8:	e5cdc007 	strb	ip, [sp, #7]
    20ac:	ebfffae5 	bl	c48 <twi_byte_rw>
    20b0:	e3500000 	cmp	r0, #0
    20b4:	1a000037 	bne	2198 <mem_power_init+0x7f0>
    20b8:	e3a01034 	mov	r1, #52	; 0x34
    20bc:	e3a02095 	mov	r2, #149	; 0x95
    20c0:	e1a03005 	mov	r3, r5
    20c4:	ebfffadf 	bl	c48 <twi_byte_rw>
    20c8:	e3500000 	cmp	r0, #0
    20cc:	1a000031 	bne	2198 <mem_power_init+0x7f0>
    20d0:	e5ddc007 	ldrb	ip, [sp, #7]
    20d4:	e1a03005 	mov	r3, r5
    20d8:	e2800001 	add	r0, r0, #1
    20dc:	e3a01034 	mov	r1, #52	; 0x34
    20e0:	e3ccc007 	bic	ip, ip, #7
    20e4:	e3a02095 	mov	r2, #149	; 0x95
    20e8:	e38cc042 	orr	ip, ip, #66	; 0x42
    20ec:	e5cdc007 	strb	ip, [sp, #7]
    20f0:	ebfffad4 	bl	c48 <twi_byte_rw>
    20f4:	e3500000 	cmp	r0, #0
    20f8:	1a000026 	bne	2198 <mem_power_init+0x7f0>
    20fc:	e3140902 	tst	r4, #32768	; 0x8000
    2100:	0a000026 	beq	21a0 <mem_power_init+0x7f8>
    2104:	e28d4007 	add	r4, sp, #7
    2108:	e3a00000 	mov	r0, #0
    210c:	e3a01034 	mov	r1, #52	; 0x34
    2110:	e3a02044 	mov	r2, #68	; 0x44
    2114:	e1a03004 	mov	r3, r4
    2118:	ebfffaca 	bl	c48 <twi_byte_rw>
    211c:	e3500000 	cmp	r0, #0
    2120:	1a00001c 	bne	2198 <mem_power_init+0x7f0>
    2124:	e5ddc007 	ldrb	ip, [sp, #7]
    2128:	e2800001 	add	r0, r0, #1
    212c:	e3a01034 	mov	r1, #52	; 0x34
    2130:	e3a02044 	mov	r2, #68	; 0x44
    2134:	e1a03004 	mov	r3, r4
    2138:	e38cc008 	orr	ip, ip, #8
    213c:	e5cdc007 	strb	ip, [sp, #7]
    2140:	ebfffac0 	bl	c48 <twi_byte_rw>
    2144:	e3500000 	cmp	r0, #0
    2148:	1a000012 	bne	2198 <mem_power_init+0x7f0>
    214c:	e3a01034 	mov	r1, #52	; 0x34
    2150:	e3a02095 	mov	r2, #149	; 0x95
    2154:	e1a03004 	mov	r3, r4
    2158:	ebfffaba 	bl	c48 <twi_byte_rw>
    215c:	e3500000 	cmp	r0, #0
    2160:	1a00000c 	bne	2198 <mem_power_init+0x7f0>
    2164:	e5ddc007 	ldrb	ip, [sp, #7]
    2168:	e1a03004 	mov	r3, r4
    216c:	e2800001 	add	r0, r0, #1
    2170:	e3a01034 	mov	r1, #52	; 0x34
    2174:	e3ccc007 	bic	ip, ip, #7
    2178:	e3a02095 	mov	r2, #149	; 0x95
    217c:	e1e0c00c 	mvn	ip, ip
    2180:	e20cc07d 	and	ip, ip, #125	; 0x7d
    2184:	e1e0c00c 	mvn	ip, ip
    2188:	e5cdc007 	strb	ip, [sp, #7]
    218c:	ebfffaad 	bl	c48 <twi_byte_rw>
    2190:	e3500000 	cmp	r0, #0
    2194:	0a000001 	beq	21a0 <mem_power_init+0x7f8>
    2198:	e3e00000 	mvn	r0, #0
    219c:	ea000000 	b	21a4 <mem_power_init+0x7fc>
    21a0:	e3a00000 	mov	r0, #0
    21a4:	e8bd803e 	pop	{r1, r2, r3, r4, r5, pc}

000021a8 <DRAMC_hostport_on_off>:
    21a8:	e350001f 	cmp	r0, #31
    21ac:	812fff1e 	bxhi	lr
    21b0:	e59f3014 	ldr	r3, [pc, #20]	; 21cc <DRAMC_hostport_on_off+0x24>
    21b4:	e3510000 	cmp	r1, #0
    21b8:	e7932100 	ldr	r2, [r3, r0, lsl #2]
    21bc:	13822001 	orrne	r2, r2, #1
    21c0:	03c22001 	biceq	r2, r2, #1
    21c4:	e7832100 	str	r2, [r3, r0, lsl #2]
    21c8:	e12fff1e 	bx	lr
    21cc:	f1c01250 	undefined instruction 0xf1c01250

000021d0 <DRAMC_hostport_check_ahb_fifo_status>:
    21d0:	e350001f 	cmp	r0, #31
    21d4:	83a00000 	movhi	r0, #0
    21d8:	959f300c 	ldrls	r3, [pc, #12]	; 21ec <DRAMC_hostport_check_ahb_fifo_status+0x1c>
    21dc:	95933234 	ldrls	r3, [r3, #564]	; 0x234
    21e0:	91a00033 	lsrls	r0, r3, r0
    21e4:	92000001 	andls	r0, r0, #1
    21e8:	e12fff1e 	bx	lr
    21ec:	f1c01000 	undefined instruction 0xf1c01000

000021f0 <DRAMC_hostport_setup>:
    21f0:	e350001f 	cmp	r0, #31
    21f4:	e92d4010 	push	{r4, lr}
    21f8:	88bd8010 	pophi	{r4, pc}
    21fc:	e59fc030 	ldr	ip, [pc, #48]	; 2234 <DRAMC_hostport_setup+0x44>
    2200:	e1a02202 	lsl	r2, r2, #4
    2204:	e20240ff 	and	r4, r2, #255	; 0xff
    2208:	e2011003 	and	r1, r1, #3
    220c:	e2033003 	and	r3, r3, #3
    2210:	e79c2100 	ldr	r2, [ip, r0, lsl #2]
    2214:	e3c2200c 	bic	r2, r2, #12
    2218:	e1822101 	orr	r2, r2, r1, lsl #2
    221c:	e3c220f0 	bic	r2, r2, #240	; 0xf0
    2220:	e1822004 	orr	r2, r2, r4
    2224:	e3c22cff 	bic	r2, r2, #65280	; 0xff00
    2228:	e1823403 	orr	r3, r2, r3, lsl #8
    222c:	e78c3100 	str	r3, [ip, r0, lsl #2]
    2230:	e8bd8010 	pop	{r4, pc}
    2234:	f1c01250 	undefined instruction 0xf1c01250

00002238 <dram_hostport_on_off>:
    2238:	e350001f 	cmp	r0, #31
    223c:	812fff1e 	bxhi	lr
    2240:	e59f3014 	ldr	r3, [pc, #20]	; 225c <dram_hostport_on_off+0x24>
    2244:	e3510000 	cmp	r1, #0
    2248:	e7932100 	ldr	r2, [r3, r0, lsl #2]
    224c:	13822001 	orrne	r2, r2, #1
    2250:	03c22001 	biceq	r2, r2, #1
    2254:	e7832100 	str	r2, [r3, r0, lsl #2]
    2258:	e12fff1e 	bx	lr
    225c:	f1c01250 	undefined instruction 0xf1c01250

00002260 <dram_hostport_check_ahb_fifo_status>:
    2260:	e350001f 	cmp	r0, #31
    2264:	83a00000 	movhi	r0, #0
    2268:	959f300c 	ldrls	r3, [pc, #12]	; 227c <dram_hostport_check_ahb_fifo_status+0x1c>
    226c:	95933234 	ldrls	r3, [r3, #564]	; 0x234
    2270:	91a00033 	lsrls	r0, r3, r0
    2274:	92000001 	andls	r0, r0, #1
    2278:	e12fff1e 	bx	lr
    227c:	f1c01000 	undefined instruction 0xf1c01000

00002280 <dram_hostport_setup>:
    2280:	eaffffda 	b	21f0 <DRAMC_hostport_setup>

00002284 <mctl_ahb_reset>:
    2284:	e92d4010 	push	{r4, lr}
    2288:	e59f4020 	ldr	r4, [pc, #32]	; 22b0 <mctl_ahb_reset+0x2c>
    228c:	e3a00010 	mov	r0, #16
    2290:	e5943060 	ldr	r3, [r4, #96]	; 0x60
    2294:	e3c33903 	bic	r3, r3, #49152	; 0xc000
    2298:	e5843060 	str	r3, [r4, #96]	; 0x60
    229c:	ebfffbfb 	bl	1290 <mem_delay>
    22a0:	e5943060 	ldr	r3, [r4, #96]	; 0x60
    22a4:	e3833903 	orr	r3, r3, #49152	; 0xc000
    22a8:	e5843060 	str	r3, [r4, #96]	; 0x60
    22ac:	e8bd8010 	pop	{r4, pc}
    22b0:	f1c20000 	undefined instruction 0xf1c20000

000022b4 <DRAMC_enter_power_down>:
    22b4:	e59f3024 	ldr	r3, [pc, #36]	; 22e0 <DRAMC_enter_power_down+0x2c>
    22b8:	e1a01003 	mov	r1, r3
    22bc:	e5932004 	ldr	r2, [r3, #4]
    22c0:	e3c2233e 	bic	r2, r2, #-134217728	; 0xf8000000
    22c4:	e382220f 	orr	r2, r2, #-268435456	; 0xf0000000
    22c8:	e5832004 	str	r2, [r3, #4]
    22cc:	e5913004 	ldr	r3, [r1, #4]
    22d0:	e3530000 	cmp	r3, #0
    22d4:	bafffffc 	blt	22cc <DRAMC_enter_power_down+0x18>
    22d8:	e3a00c01 	mov	r0, #256	; 0x100
    22dc:	eafffbeb 	b	1290 <mem_delay>
    22e0:	f1c01000 	undefined instruction 0xf1c01000

000022e4 <dram_enter_power_down>:
    22e4:	eafffff2 	b	22b4 <DRAMC_enter_power_down>

000022e8 <mctl_mode_exit>:
    22e8:	e59f3024 	ldr	r3, [pc, #36]	; 2314 <mctl_mode_exit+0x2c>
    22ec:	e1a01003 	mov	r1, r3
    22f0:	e5932004 	ldr	r2, [r3, #4]
    22f4:	e3c2233e 	bic	r2, r2, #-134217728	; 0xf8000000
    22f8:	e382232e 	orr	r2, r2, #-1207959552	; 0xb8000000
    22fc:	e5832004 	str	r2, [r3, #4]
    2300:	e5913004 	ldr	r3, [r1, #4]
    2304:	e3530000 	cmp	r3, #0
    2308:	bafffffc 	blt	2300 <mctl_mode_exit+0x18>
    230c:	e3a00c01 	mov	r0, #256	; 0x100
    2310:	eafffbde 	b	1290 <mem_delay>
    2314:	f1c01000 	undefined instruction 0xf1c01000

00002318 <DRAMC_exit_power_down>:
    2318:	eafffff2 	b	22e8 <mctl_mode_exit>

0000231c <dram_exit_power_down>:
    231c:	eafffff1 	b	22e8 <mctl_mode_exit>

00002320 <DRAMC_exit_selfrefresh>:
    2320:	e92d4010 	push	{r4, lr}
    2324:	ebffffef 	bl	22e8 <mctl_mode_exit>
    2328:	e59f3060 	ldr	r3, [pc, #96]	; 2390 <DRAMC_exit_selfrefresh+0x70>
    232c:	e1a01003 	mov	r1, r3
    2330:	e5932004 	ldr	r2, [r3, #4]
    2334:	e3c2233e 	bic	r2, r2, #-134217728	; 0xf8000000
    2338:	e3822326 	orr	r2, r2, #-1744830464	; 0x98000000
    233c:	e5832004 	str	r2, [r3, #4]
    2340:	e5913004 	ldr	r3, [r1, #4]
    2344:	e59f4044 	ldr	r4, [pc, #68]	; 2390 <DRAMC_exit_selfrefresh+0x70>
    2348:	e3530000 	cmp	r3, #0
    234c:	bafffffb 	blt	2340 <DRAMC_exit_selfrefresh+0x20>
    2350:	e3a00c01 	mov	r0, #256	; 0x100
    2354:	ebfffbcd 	bl	1290 <mem_delay>
    2358:	e5942010 	ldr	r2, [r4, #16]
    235c:	e3a03000 	mov	r3, #0
    2360:	e3c22102 	bic	r2, r2, #-2147483648	; 0x80000000
    2364:	e5842010 	str	r2, [r4, #16]
    2368:	e59f2024 	ldr	r2, [pc, #36]	; 2394 <DRAMC_exit_selfrefresh+0x74>
    236c:	e1a01103 	lsl	r1, r3, #2
    2370:	e2833001 	add	r3, r3, #1
    2374:	e0812002 	add	r2, r1, r2
    2378:	e353001f 	cmp	r3, #31
    237c:	e5921000 	ldr	r1, [r2]
    2380:	e3811001 	orr	r1, r1, #1
    2384:	e5821000 	str	r1, [r2]
    2388:	1afffff6 	bne	2368 <DRAMC_exit_selfrefresh+0x48>
    238c:	e8bd8010 	pop	{r4, pc}
    2390:	f1c01000 	undefined instruction 0xf1c01000
    2394:	f1c01250 	undefined instruction 0xf1c01250

00002398 <dram_exit_selfrefresh>:
    2398:	eaffffe0 	b	2320 <DRAMC_exit_selfrefresh>

0000239c <mctl_precharge_all>:
    239c:	e59f3024 	ldr	r3, [pc, #36]	; 23c8 <mctl_precharge_all+0x2c>
    23a0:	e1a01003 	mov	r1, r3
    23a4:	e5932004 	ldr	r2, [r3, #4]
    23a8:	e3c2233e 	bic	r2, r2, #-134217728	; 0xf8000000
    23ac:	e382232a 	orr	r2, r2, #-1476395008	; 0xa8000000
    23b0:	e5832004 	str	r2, [r3, #4]
    23b4:	e5913004 	ldr	r3, [r1, #4]
    23b8:	e3530000 	cmp	r3, #0
    23bc:	bafffffc 	blt	23b4 <mctl_precharge_all+0x18>
    23c0:	e3a00c01 	mov	r0, #256	; 0x100
    23c4:	eafffbb1 	b	1290 <mem_delay>
    23c8:	f1c01000 	undefined instruction 0xf1c01000

000023cc <DRAMC_enter_selfrefresh>:
    23cc:	e3a03000 	mov	r3, #0
    23d0:	e92d4010 	push	{r4, lr}
    23d4:	e59f205c 	ldr	r2, [pc, #92]	; 2438 <DRAMC_enter_selfrefresh+0x6c>
    23d8:	e1a01103 	lsl	r1, r3, #2
    23dc:	e2833001 	add	r3, r3, #1
    23e0:	e0812002 	add	r2, r1, r2
    23e4:	e353001f 	cmp	r3, #31
    23e8:	e5921000 	ldr	r1, [r2]
    23ec:	e3c11001 	bic	r1, r1, #1
    23f0:	e5821000 	str	r1, [r2]
    23f4:	1afffff6 	bne	23d4 <DRAMC_enter_selfrefresh+0x8>
    23f8:	ebffffe7 	bl	239c <mctl_precharge_all>
    23fc:	e59f3038 	ldr	r3, [pc, #56]	; 243c <DRAMC_enter_selfrefresh+0x70>
    2400:	e1a01003 	mov	r1, r3
    2404:	e5932004 	ldr	r2, [r3, #4]
    2408:	e3c2233e 	bic	r2, r2, #-134217728	; 0xf8000000
    240c:	e3822209 	orr	r2, r2, #-1879048192	; 0x90000000
    2410:	e5832004 	str	r2, [r3, #4]
    2414:	e5913004 	ldr	r3, [r1, #4]
    2418:	e3530000 	cmp	r3, #0
    241c:	bafffffc 	blt	2414 <DRAMC_enter_selfrefresh+0x48>
    2420:	e3a00c01 	mov	r0, #256	; 0x100
    2424:	ebfffb99 	bl	1290 <mem_delay>
    2428:	e59f300c 	ldr	r3, [pc, #12]	; 243c <DRAMC_enter_selfrefresh+0x70>
    242c:	e3a02001 	mov	r2, #1
    2430:	e583223c 	str	r2, [r3, #572]	; 0x23c
    2434:	e8bd8010 	pop	{r4, pc}
    2438:	f1c01250 	undefined instruction 0xf1c01250
    243c:	f1c01000 	undefined instruction 0xf1c01000

00002440 <dram_enter_selfrefresh>:
    2440:	eaffffe1 	b	23cc <DRAMC_enter_selfrefresh>

00002444 <dram_power_save_process>:
    2444:	e92d40f7 	push	{r0, r1, r2, r4, r5, r6, r7, lr}
    2448:	e59f70ac 	ldr	r7, [pc, #172]	; 24fc <dram_power_save_process+0xb8>
    244c:	e3a05005 	mov	r5, #5
    2450:	e28d6007 	add	r6, sp, #7
    2454:	e59740b0 	ldr	r4, [r7, #176]	; 0xb0
    2458:	e3a01034 	mov	r1, #52	; 0x34
    245c:	e3a0200a 	mov	r2, #10
    2460:	e1a03006 	mov	r3, r6
    2464:	e3c444ff 	bic	r4, r4, #-16777216	; 0xff000000
    2468:	e3a00001 	mov	r0, #1
    246c:	e3c4460f 	bic	r4, r4, #15728640	; 0xf00000
    2470:	e5cd4007 	strb	r4, [sp, #7]
    2474:	ebfff9f3 	bl	c48 <twi_byte_rw>
    2478:	e3500000 	cmp	r0, #0
    247c:	1a000011 	bne	24c8 <dram_power_save_process+0x84>
    2480:	e3a01034 	mov	r1, #52	; 0x34
    2484:	e3a0200b 	mov	r2, #11
    2488:	e1a03006 	mov	r3, r6
    248c:	e2800001 	add	r0, r0, #1
    2490:	e1a0c424 	lsr	ip, r4, #8
    2494:	e5cdc007 	strb	ip, [sp, #7]
    2498:	ebfff9ea 	bl	c48 <twi_byte_rw>
    249c:	e3500000 	cmp	r0, #0
    24a0:	1a000008 	bne	24c8 <dram_power_save_process+0x84>
    24a4:	e2800001 	add	r0, r0, #1
    24a8:	e3a01034 	mov	r1, #52	; 0x34
    24ac:	e3a0200c 	mov	r2, #12
    24b0:	e1a03006 	mov	r3, r6
    24b4:	e1a04824 	lsr	r4, r4, #16
    24b8:	e5cd4007 	strb	r4, [sp, #7]
    24bc:	ebfff9e1 	bl	c48 <twi_byte_rw>
    24c0:	e2504000 	subs	r4, r0, #0
    24c4:	0a000009 	beq	24f0 <dram_power_save_process+0xac>
    24c8:	e2555001 	subs	r5, r5, #1
    24cc:	1affffe0 	bne	2454 <dram_power_save_process+0x10>
    24d0:	ea000004 	b	24e8 <dram_power_save_process+0xa4>
    24d4:	ebffffbc 	bl	23cc <DRAMC_enter_selfrefresh>
    24d8:	eb000065 	bl	2674 <mctl_itm_disable>
    24dc:	eb000070 	bl	26a4 <mctl_disable_dll>
    24e0:	e1a00004 	mov	r0, r4
    24e4:	ea000000 	b	24ec <dram_power_save_process+0xa8>
    24e8:	e3e00000 	mvn	r0, #0
    24ec:	e8bd80fe 	pop	{r1, r2, r3, r4, r5, r6, r7, pc}
    24f0:	e3550000 	cmp	r5, #0
    24f4:	1afffff6 	bne	24d4 <dram_power_save_process+0x90>
    24f8:	eafffffa 	b	24e8 <dram_power_save_process+0xa4>
    24fc:	f1c01000 	undefined instruction 0xf1c01000

00002500 <DRAMC_retraining>:
    2500:	e59f3144 	ldr	r3, [pc, #324]	; 264c <DRAMC_retraining+0x14c>
    2504:	e92d4ff0 	push	{r4, r5, r6, r7, r8, r9, sl, fp, lr}
    2508:	e24dd024 	sub	sp, sp, #36	; 0x24
    250c:	e5931004 	ldr	r1, [r3, #4]
    2510:	e1a05003 	mov	r5, r3
    2514:	e593b010 	ldr	fp, [r3, #16]
    2518:	e1a04003 	mov	r4, r3
    251c:	e5939014 	ldr	r9, [r3, #20]
    2520:	e593a018 	ldr	sl, [r3, #24]
    2524:	e593801c 	ldr	r8, [r3, #28]
    2528:	e59371f0 	ldr	r7, [r3, #496]	; 0x1f0
    252c:	e59321f4 	ldr	r2, [r3, #500]	; 0x1f4
    2530:	e58d1018 	str	r1, [sp, #24]
    2534:	e59311f8 	ldr	r1, [r3, #504]	; 0x1f8
    2538:	e58d2014 	str	r2, [sp, #20]
    253c:	e59321fc 	ldr	r2, [r3, #508]	; 0x1fc
    2540:	e58d1010 	str	r1, [sp, #16]
    2544:	e58d200c 	str	r2, [sp, #12]
    2548:	e59320a8 	ldr	r2, [r3, #168]	; 0xa8
    254c:	e5931008 	ldr	r1, [r3, #8]
    2550:	e58d1008 	str	r1, [sp, #8]
    2554:	e5931000 	ldr	r1, [r3]
    2558:	e59330b0 	ldr	r3, [r3, #176]	; 0xb0
    255c:	e3c334ff 	bic	r3, r3, #-16777216	; 0xff000000
    2560:	e58d1004 	str	r1, [sp, #4]
    2564:	e3c3360f 	bic	r3, r3, #15728640	; 0xf00000
    2568:	e20216ff 	and	r1, r2, #267386880	; 0xff00000
    256c:	e1833001 	orr	r3, r3, r1
    2570:	e2022202 	and	r2, r2, #536870912	; 0x20000000
    2574:	e3833205 	orr	r3, r3, #1342177280	; 0x50000000
    2578:	e1832002 	orr	r2, r3, r2
    257c:	e58d201c 	str	r2, [sp, #28]
    2580:	ebffff3f 	bl	2284 <mctl_ahb_reset>
    2584:	eb000162 	bl	2b14 <mctl_ddr3_reset>
    2588:	eb000031 	bl	2654 <mctl_set_drive>
    258c:	eb000038 	bl	2674 <mctl_itm_disable>
    2590:	eb00014a 	bl	2ac0 <mctl_enable_dll0>
    2594:	e59d2004 	ldr	r2, [sp, #4]
    2598:	e59d3018 	ldr	r3, [sp, #24]
    259c:	e3a00001 	mov	r0, #1
    25a0:	e59d101c 	ldr	r1, [sp, #28]
    25a4:	e5852000 	str	r2, [r5]
    25a8:	e5853004 	str	r3, [r5, #4]
    25ac:	e58510a8 	str	r1, [r5, #168]	; 0xa8
    25b0:	eb00006f 	bl	2774 <DRAMC_clock_output_en>
    25b4:	e3a00010 	mov	r0, #16
    25b8:	ebfffb34 	bl	1290 <mem_delay>
    25bc:	e5953000 	ldr	r3, [r5]
    25c0:	e3530000 	cmp	r3, #0
    25c4:	bafffffc 	blt	25bc <DRAMC_retraining+0xbc>
    25c8:	eb00010c 	bl	2a00 <mctl_enable_dllx>
    25cc:	e59d2008 	ldr	r2, [sp, #8]
    25d0:	e59d3014 	ldr	r3, [sp, #20]
    25d4:	e59d1010 	ldr	r1, [sp, #16]
    25d8:	e5842008 	str	r2, [r4, #8]
    25dc:	e59d200c 	ldr	r2, [sp, #12]
    25e0:	e584b010 	str	fp, [r4, #16]
    25e4:	e5849014 	str	r9, [r4, #20]
    25e8:	e584a018 	str	sl, [r4, #24]
    25ec:	e584801c 	str	r8, [r4, #28]
    25f0:	e58471f0 	str	r7, [r4, #496]	; 0x1f0
    25f4:	e58431f4 	str	r3, [r4, #500]	; 0x1f4
    25f8:	e58411f8 	str	r1, [r4, #504]	; 0x1f8
    25fc:	e58421fc 	str	r2, [r4, #508]	; 0x1fc
    2600:	e5943000 	ldr	r3, [r4]
    2604:	e3833102 	orr	r3, r3, #-2147483648	; 0x80000000
    2608:	e5843000 	str	r3, [r4]
    260c:	e5953000 	ldr	r3, [r5]
    2610:	e3530000 	cmp	r3, #0
    2614:	bafffffc 	blt	260c <DRAMC_retraining+0x10c>
    2618:	e3a03000 	mov	r3, #0
    261c:	e3a00801 	mov	r0, #65536	; 0x10000
    2620:	e584323c 	str	r3, [r4, #572]	; 0x23c
    2624:	ebfffb19 	bl	1290 <mem_delay>
    2628:	eb000017 	bl	268c <mctl_itm_enable>
    262c:	eb000042 	bl	273c <DRAMC_scan_readpipe>
    2630:	e1a06000 	mov	r6, r0
    2634:	eb000031 	bl	2700 <mctl_configure_hostport>
    2638:	e3560000 	cmp	r6, #0
    263c:	1affffcf 	bne	2580 <DRAMC_retraining+0x80>
    2640:	e1a00006 	mov	r0, r6
    2644:	e28dd024 	add	sp, sp, #36	; 0x24
    2648:	e8bd8ff0 	pop	{r4, r5, r6, r7, r8, r9, sl, fp, pc}
    264c:	f1c01000 	undefined instruction 0xf1c01000

00002650 <dram_power_up_process>:
    2650:	eaffffaa 	b	2500 <DRAMC_retraining>

00002654 <mctl_set_drive>:
    2654:	e59f2014 	ldr	r2, [pc, #20]	; 2670 <mctl_set_drive+0x1c>
    2658:	e5923230 	ldr	r3, [r2, #560]	; 0x230
    265c:	e3833c6f 	orr	r3, r3, #28416	; 0x6f00
    2660:	e38330fc 	orr	r3, r3, #252	; 0xfc
    2664:	e3c33003 	bic	r3, r3, #3
    2668:	e5823230 	str	r3, [r2, #560]	; 0x230
    266c:	e12fff1e 	bx	lr
    2670:	f1c01000 	undefined instruction 0xf1c01000

00002674 <mctl_itm_disable>:
    2674:	e59f300c 	ldr	r3, [pc, #12]	; 2688 <mctl_itm_disable+0x14>
    2678:	e5932000 	ldr	r2, [r3]
    267c:	e3822201 	orr	r2, r2, #268435456	; 0x10000000
    2680:	e5832000 	str	r2, [r3]
    2684:	e12fff1e 	bx	lr
    2688:	f1c01000 	undefined instruction 0xf1c01000

0000268c <mctl_itm_enable>:
    268c:	e59f300c 	ldr	r3, [pc, #12]	; 26a0 <mctl_itm_enable+0x14>
    2690:	e5932000 	ldr	r2, [r3]
    2694:	e3c22201 	bic	r2, r2, #268435456	; 0x10000000
    2698:	e5832000 	str	r2, [r3]
    269c:	e12fff1e 	bx	lr
    26a0:	f1c01000 	undefined instruction 0xf1c01000

000026a4 <mctl_disable_dll>:
    26a4:	e59f3050 	ldr	r3, [pc, #80]	; 26fc <mctl_disable_dll+0x58>
    26a8:	e5932204 	ldr	r2, [r3, #516]	; 0x204
    26ac:	e3c22101 	bic	r2, r2, #1073741824	; 0x40000000
    26b0:	e3822102 	orr	r2, r2, #-2147483648	; 0x80000000
    26b4:	e5832204 	str	r2, [r3, #516]	; 0x204
    26b8:	e5932208 	ldr	r2, [r3, #520]	; 0x208
    26bc:	e3c22101 	bic	r2, r2, #1073741824	; 0x40000000
    26c0:	e3822102 	orr	r2, r2, #-2147483648	; 0x80000000
    26c4:	e5832208 	str	r2, [r3, #520]	; 0x208
    26c8:	e593220c 	ldr	r2, [r3, #524]	; 0x20c
    26cc:	e3c22101 	bic	r2, r2, #1073741824	; 0x40000000
    26d0:	e3822102 	orr	r2, r2, #-2147483648	; 0x80000000
    26d4:	e583220c 	str	r2, [r3, #524]	; 0x20c
    26d8:	e5932210 	ldr	r2, [r3, #528]	; 0x210
    26dc:	e3c22101 	bic	r2, r2, #1073741824	; 0x40000000
    26e0:	e3822102 	orr	r2, r2, #-2147483648	; 0x80000000
    26e4:	e5832210 	str	r2, [r3, #528]	; 0x210
    26e8:	e5932214 	ldr	r2, [r3, #532]	; 0x214
    26ec:	e3c22101 	bic	r2, r2, #1073741824	; 0x40000000
    26f0:	e3822102 	orr	r2, r2, #-2147483648	; 0x80000000
    26f4:	e5832214 	str	r2, [r3, #532]	; 0x214
    26f8:	e12fff1e 	bx	lr
    26fc:	f1c01000 	undefined instruction 0xf1c01000

00002700 <mctl_configure_hostport>:
    2700:	e59f1024 	ldr	r1, [pc, #36]	; 272c <mctl_configure_hostport+0x2c>
    2704:	e3a03000 	mov	r3, #0
    2708:	e59f2020 	ldr	r2, [pc, #32]	; 2730 <mctl_configure_hostport+0x30>
    270c:	e1a0c103 	lsl	ip, r3, #2
    2710:	e7910103 	ldr	r0, [r1, r3, lsl #2]
    2714:	e2833001 	add	r3, r3, #1
    2718:	e08c2002 	add	r2, ip, r2
    271c:	e3530020 	cmp	r3, #32
    2720:	e5820000 	str	r0, [r2]
    2724:	1afffff7 	bne	2708 <mctl_configure_hostport+0x8>
    2728:	e12fff1e 	bx	lr
    272c:	00003f30 	andeq	r3, r0, r0, lsr pc
    2730:	f1c01250 	undefined instruction 0xf1c01250

00002734 <DRAMC_exit>:
    2734:	e3a00000 	mov	r0, #0
    2738:	e12fff1e 	bx	lr

0000273c <DRAMC_scan_readpipe>:
    273c:	e59f302c 	ldr	r3, [pc, #44]	; 2770 <DRAMC_scan_readpipe+0x34>
    2740:	e1a01003 	mov	r1, r3
    2744:	e5932000 	ldr	r2, [r3]
    2748:	e3822101 	orr	r2, r2, #1073741824	; 0x40000000
    274c:	e5832000 	str	r2, [r3]
    2750:	e5913000 	ldr	r3, [r1]
    2754:	e3130101 	tst	r3, #1073741824	; 0x40000000
    2758:	1afffffc 	bne	2750 <DRAMC_scan_readpipe+0x14>
    275c:	e59f300c 	ldr	r3, [pc, #12]	; 2770 <DRAMC_scan_readpipe+0x34>
    2760:	e593000c 	ldr	r0, [r3, #12]
    2764:	e2100601 	ands	r0, r0, #1048576	; 0x100000
    2768:	13e00000 	mvnne	r0, #0
    276c:	e12fff1e 	bx	lr
    2770:	f1c01000 	undefined instruction 0xf1c01000

00002774 <DRAMC_clock_output_en>:
    2774:	e59f3018 	ldr	r3, [pc, #24]	; 2794 <DRAMC_clock_output_en+0x20>
    2778:	e3500000 	cmp	r0, #0
    277c:	e59f2010 	ldr	r2, [pc, #16]	; 2794 <DRAMC_clock_output_en+0x20>
    2780:	e5933230 	ldr	r3, [r3, #560]	; 0x230
    2784:	13833801 	orrne	r3, r3, #65536	; 0x10000
    2788:	03c33801 	biceq	r3, r3, #65536	; 0x10000
    278c:	e5823230 	str	r3, [r2, #560]	; 0x230
    2790:	e12fff1e 	bx	lr
    2794:	f1c01000 	undefined instruction 0xf1c01000

00002798 <DRAMC_set_autorefresh_cycle>:
    2798:	e3013f33 	movw	r3, #7987	; 0x1f33
    279c:	e3a02009 	mov	r2, #9
    27a0:	e59f101c 	ldr	r1, [pc, #28]	; 27c4 <DRAMC_set_autorefresh_cycle+0x2c>
    27a4:	e0030093 	mul	r3, r3, r0
    27a8:	e1a03523 	lsr	r3, r3, #10
    27ac:	e0020392 	mul	r2, r2, r3
    27b0:	e59f3010 	ldr	r3, [pc, #16]	; 27c8 <DRAMC_set_autorefresh_cycle+0x30>
    27b4:	e24220c8 	sub	r2, r2, #200	; 0xc8
    27b8:	e1812402 	orr	r2, r1, r2, lsl #8
    27bc:	e5832010 	str	r2, [r3, #16]
    27c0:	e12fff1e 	bx	lr
    27c4:	08000083 	stmdaeq	r0, {r0, r1, r7}
    27c8:	f1c01000 	undefined instruction 0xf1c01000

000027cc <DRAMC_get_dram_size>:
    27cc:	e59f3068 	ldr	r3, [pc, #104]	; 283c <DRAMC_get_dram_size+0x70>
    27d0:	e5933004 	ldr	r3, [r3, #4]
    27d4:	e7e201d3 	ubfx	r0, r3, #3, #3
    27d8:	e3500000 	cmp	r0, #0
    27dc:	02800020 	addeq	r0, r0, #32
    27e0:	0a00000b 	beq	2814 <DRAMC_get_dram_size+0x48>
    27e4:	e3500001 	cmp	r0, #1
    27e8:	0280003f 	addeq	r0, r0, #63	; 0x3f
    27ec:	0a000008 	beq	2814 <DRAMC_get_dram_size+0x48>
    27f0:	e3500002 	cmp	r0, #2
    27f4:	0280007e 	addeq	r0, r0, #126	; 0x7e
    27f8:	0a000005 	beq	2814 <DRAMC_get_dram_size+0x48>
    27fc:	e3500003 	cmp	r0, #3
    2800:	028000fd 	addeq	r0, r0, #253	; 0xfd
    2804:	0a000002 	beq	2814 <DRAMC_get_dram_size+0x48>
    2808:	e3500004 	cmp	r0, #4
    280c:	03a00c02 	moveq	r0, #512	; 0x200
    2810:	13a00b01 	movne	r0, #1024	; 0x400
    2814:	e7e120d3 	ubfx	r2, r3, #1, #2
    2818:	e3520001 	cmp	r2, #1
    281c:	e7e22353 	ubfx	r2, r3, #6, #3
    2820:	01a00080 	lsleq	r0, r0, #1
    2824:	e3520003 	cmp	r2, #3
    2828:	e7e13553 	ubfx	r3, r3, #10, #2
    282c:	01a00080 	lsleq	r0, r0, #1
    2830:	e3530001 	cmp	r3, #1
    2834:	01a00080 	lsleq	r0, r0, #1
    2838:	e12fff1e 	bx	lr
    283c:	f1c01000 	undefined instruction 0xf1c01000

00002840 <dram_init>:
    2840:	e3a00000 	mov	r0, #0
    2844:	e12fff1e 	bx	lr

00002848 <dram_exit>:
    2848:	e3a00000 	mov	r0, #0
    284c:	e12fff1e 	bx	lr

00002850 <dram_get_size>:
    2850:	eaffffdd 	b	27cc <DRAMC_get_dram_size>

00002854 <dram_set_drive>:
    2854:	e59f2014 	ldr	r2, [pc, #20]	; 2870 <dram_set_drive+0x1c>
    2858:	e5923230 	ldr	r3, [r2, #560]	; 0x230
    285c:	e3833c6f 	orr	r3, r3, #28416	; 0x6f00
    2860:	e38330fc 	orr	r3, r3, #252	; 0xfc
    2864:	e3c33003 	bic	r3, r3, #3
    2868:	e5823230 	str	r3, [r2, #560]	; 0x230
    286c:	e12fff1e 	bx	lr
    2870:	f1c01000 	undefined instruction 0xf1c01000

00002874 <dram_set_autorefresh_cycle>:
    2874:	e3013f33 	movw	r3, #7987	; 0x1f33
    2878:	e3a02009 	mov	r2, #9
    287c:	e59f101c 	ldr	r1, [pc, #28]	; 28a0 <dram_set_autorefresh_cycle+0x2c>
    2880:	e0030093 	mul	r3, r3, r0
    2884:	e1a03523 	lsr	r3, r3, #10
    2888:	e0020392 	mul	r2, r2, r3
    288c:	e59f3010 	ldr	r3, [pc, #16]	; 28a4 <dram_set_autorefresh_cycle+0x30>
    2890:	e24220c8 	sub	r2, r2, #200	; 0xc8
    2894:	e1812402 	orr	r2, r1, r2, lsl #8
    2898:	e5832010 	str	r2, [r3, #16]
    289c:	e12fff1e 	bx	lr
    28a0:	08000083 	stmdaeq	r0, {r0, r1, r7}
    28a4:	f1c01000 	undefined instruction 0xf1c01000

000028a8 <dram_scan_readpipe>:
    28a8:	e59f302c 	ldr	r3, [pc, #44]	; 28dc <dram_scan_readpipe+0x34>
    28ac:	e1a01003 	mov	r1, r3
    28b0:	e5932000 	ldr	r2, [r3]
    28b4:	e3822101 	orr	r2, r2, #1073741824	; 0x40000000
    28b8:	e5832000 	str	r2, [r3]
    28bc:	e5913000 	ldr	r3, [r1]
    28c0:	e3130101 	tst	r3, #1073741824	; 0x40000000
    28c4:	1afffffc 	bne	28bc <dram_scan_readpipe+0x14>
    28c8:	e59f300c 	ldr	r3, [pc, #12]	; 28dc <dram_scan_readpipe+0x34>
    28cc:	e593000c 	ldr	r0, [r3, #12]
    28d0:	e2100601 	ands	r0, r0, #1048576	; 0x100000
    28d4:	13e00000 	mvnne	r0, #0
    28d8:	e12fff1e 	bx	lr
    28dc:	f1c01000 	undefined instruction 0xf1c01000

000028e0 <get_boot0_dram_para>:
    28e0:	e59f1004 	ldr	r1, [pc, #4]	; 28ec <get_boot0_dram_para+0xc>
    28e4:	e3a02050 	mov	r2, #80	; 0x50
    28e8:	eafff632 	b	1b8 <mem_memcpy>
    28ec:	00003fb0 	undefined instruction 0x00003fb0

000028f0 <mctl_setup_dram_clock>:
    28f0:	e59f30fc 	ldr	r3, [pc, #252]	; 29f4 <mctl_setup_dram_clock+0x104>
    28f4:	e3a01000 	mov	r1, #0
    28f8:	e92d4ff1 	push	{r0, r4, r5, r6, r7, r8, r9, sl, fp, lr}
    28fc:	e3a04018 	mov	r4, #24
    2900:	e593c020 	ldr	ip, [r3, #32]
    2904:	e3a05000 	mov	r5, #0
    2908:	e0944004 	adds	r4, r4, r4
    290c:	e2811001 	add	r1, r1, #1
    2910:	e0a55005 	adc	r5, r5, r5
    2914:	e351003b 	cmp	r1, #59	; 0x3b
    2918:	1afffffa 	bne	2908 <mctl_setup_dram_clock+0x18>
    291c:	e1a06000 	mov	r6, r0
    2920:	e3a07000 	mov	r7, #0
    2924:	e3a02000 	mov	r2, #0
    2928:	e3a03000 	mov	r3, #0
    292c:	e3a08001 	mov	r8, #1
    2930:	e3a09000 	mov	r9, #0
    2934:	e1550007 	cmp	r5, r7
    2938:	8a000009 	bhi	2964 <mctl_setup_dram_clock+0x74>
    293c:	1a000001 	bne	2948 <mctl_setup_dram_clock+0x58>
    2940:	e1540006 	cmp	r4, r6
    2944:	8a000006 	bhi	2964 <mctl_setup_dram_clock+0x74>
    2948:	e092a002 	adds	sl, r2, r2
    294c:	e0a3b003 	adc	fp, r3, r3
    2950:	e18a2008 	orr	r2, sl, r8
    2954:	e0566004 	subs	r6, r6, r4
    2958:	e0c77005 	sbc	r7, r7, r5
    295c:	e18b3009 	orr	r3, fp, r9
    2960:	ea000001 	b	296c <mctl_setup_dram_clock+0x7c>
    2964:	e0922002 	adds	r2, r2, r2
    2968:	e0a33003 	adc	r3, r3, r3
    296c:	e2511001 	subs	r1, r1, #1
    2970:	4a000002 	bmi	2980 <mctl_setup_dram_clock+0x90>
    2974:	e1b050a5 	lsrs	r5, r5, #1
    2978:	e1a04064 	rrx	r4, r4
    297c:	eaffffec 	b	2934 <mctl_setup_dram_clock+0x44>
    2980:	e3cc1033 	bic	r1, ip, #51	; 0x33
    2984:	e202201f 	and	r2, r2, #31
    2988:	e3813011 	orr	r3, r1, #17
    298c:	e59f4060 	ldr	r4, [pc, #96]	; 29f4 <mctl_setup_dram_clock+0x104>
    2990:	e3c33c1f 	bic	r3, r3, #7936	; 0x1f00
    2994:	e3a00601 	mov	r0, #1048576	; 0x100000
    2998:	e1833402 	orr	r3, r3, r2, lsl #8
    299c:	e3c33803 	bic	r3, r3, #196608	; 0x30000
    29a0:	e3833801 	orr	r3, r3, #65536	; 0x10000
    29a4:	e3c33202 	bic	r3, r3, #536870912	; 0x20000000
    29a8:	e3833102 	orr	r3, r3, #-2147483648	; 0x80000000
    29ac:	e5843020 	str	r3, [r4, #32]
    29b0:	ebfffa36 	bl	1290 <mem_delay>
    29b4:	e5943020 	ldr	r3, [r4, #32]
    29b8:	e3a00a01 	mov	r0, #4096	; 0x1000
    29bc:	e3833202 	orr	r3, r3, #536870912	; 0x20000000
    29c0:	e5843020 	str	r3, [r4, #32]
    29c4:	e59f302c 	ldr	r3, [pc, #44]	; 29f8 <mctl_setup_dram_clock+0x108>
    29c8:	e584315c 	str	r3, [r4, #348]	; 0x15c
    29cc:	e5945060 	ldr	r5, [r4, #96]	; 0x60
    29d0:	e3c55903 	bic	r5, r5, #49152	; 0xc000
    29d4:	e5845060 	str	r5, [r4, #96]	; 0x60
    29d8:	ebfffa2c 	bl	1290 <mem_delay>
    29dc:	e3855903 	orr	r5, r5, #49152	; 0xc000
    29e0:	e3a00a01 	mov	r0, #4096	; 0x1000
    29e4:	e5845060 	str	r5, [r4, #96]	; 0x60
    29e8:	e28dd004 	add	sp, sp, #4
    29ec:	e8bd4ff0 	pop	{r4, r5, r6, r7, r8, r9, sl, fp, lr}
    29f0:	eafffa26 	b	1290 <mem_delay>
    29f4:	f1c20000 	undefined instruction 0xf1c20000
    29f8:	82000001 	andhi	r0, r0, #1

000029fc <dram_set_clock>:
    29fc:	eaffffbb 	b	28f0 <mctl_setup_dram_clock>

00002a00 <mctl_enable_dllx>:
    2a00:	e59f20b0 	ldr	r2, [pc, #176]	; 2ab8 <mctl_enable_dllx+0xb8>
    2a04:	e3a03001 	mov	r3, #1
    2a08:	e92d4010 	push	{r4, lr}
    2a0c:	e5924004 	ldr	r4, [r2, #4]
    2a10:	e7e24354 	ubfx	r4, r4, #6, #3
    2a14:	e3540003 	cmp	r4, #3
    2a18:	03a04005 	moveq	r4, #5
    2a1c:	13a04003 	movne	r4, #3
    2a20:	e59f2094 	ldr	r2, [pc, #148]	; 2abc <mctl_enable_dllx+0xbc>
    2a24:	e1a01103 	lsl	r1, r3, #2
    2a28:	e2833001 	add	r3, r3, #1
    2a2c:	e0812002 	add	r2, r1, r2
    2a30:	e1530004 	cmp	r3, r4
    2a34:	e5921000 	ldr	r1, [r2]
    2a38:	e3c11103 	bic	r1, r1, #-1073741824	; 0xc0000000
    2a3c:	e3811102 	orr	r1, r1, #-2147483648	; 0x80000000
    2a40:	e5821000 	str	r1, [r2]
    2a44:	3afffff5 	bcc	2a20 <mctl_enable_dllx+0x20>
    2a48:	e3a00c01 	mov	r0, #256	; 0x100
    2a4c:	ebfffa0f 	bl	1290 <mem_delay>
    2a50:	e3a03001 	mov	r3, #1
    2a54:	e59f2060 	ldr	r2, [pc, #96]	; 2abc <mctl_enable_dllx+0xbc>
    2a58:	e1a01103 	lsl	r1, r3, #2
    2a5c:	e2833001 	add	r3, r3, #1
    2a60:	e0812002 	add	r2, r1, r2
    2a64:	e1530004 	cmp	r3, r4
    2a68:	e5921000 	ldr	r1, [r2]
    2a6c:	e3c11103 	bic	r1, r1, #-1073741824	; 0xc0000000
    2a70:	e5821000 	str	r1, [r2]
    2a74:	3afffff6 	bcc	2a54 <mctl_enable_dllx+0x54>
    2a78:	e3a00a01 	mov	r0, #4096	; 0x1000
    2a7c:	ebfffa03 	bl	1290 <mem_delay>
    2a80:	e3a03001 	mov	r3, #1
    2a84:	e59f2030 	ldr	r2, [pc, #48]	; 2abc <mctl_enable_dllx+0xbc>
    2a88:	e1a01103 	lsl	r1, r3, #2
    2a8c:	e2833001 	add	r3, r3, #1
    2a90:	e0812002 	add	r2, r1, r2
    2a94:	e1530004 	cmp	r3, r4
    2a98:	e5921000 	ldr	r1, [r2]
    2a9c:	e3c11103 	bic	r1, r1, #-1073741824	; 0xc0000000
    2aa0:	e3811101 	orr	r1, r1, #1073741824	; 0x40000000
    2aa4:	e5821000 	str	r1, [r2]
    2aa8:	3afffff5 	bcc	2a84 <mctl_enable_dllx+0x84>
    2aac:	e3a00a01 	mov	r0, #4096	; 0x1000
    2ab0:	e8bd4010 	pop	{r4, lr}
    2ab4:	eafff9f5 	b	1290 <mem_delay>
    2ab8:	f1c01000 	undefined instruction 0xf1c01000
    2abc:	f1c01204 	undefined instruction 0xf1c01204

00002ac0 <mctl_enable_dll0>:
    2ac0:	e92d4010 	push	{r4, lr}
    2ac4:	e59f4044 	ldr	r4, [pc, #68]	; 2b10 <mctl_enable_dll0+0x50>
    2ac8:	e3a00c01 	mov	r0, #256	; 0x100
    2acc:	e5943204 	ldr	r3, [r4, #516]	; 0x204
    2ad0:	e3c33103 	bic	r3, r3, #-1073741824	; 0xc0000000
    2ad4:	e3833102 	orr	r3, r3, #-2147483648	; 0x80000000
    2ad8:	e5843204 	str	r3, [r4, #516]	; 0x204
    2adc:	ebfff9eb 	bl	1290 <mem_delay>
    2ae0:	e5943204 	ldr	r3, [r4, #516]	; 0x204
    2ae4:	e3a00a01 	mov	r0, #4096	; 0x1000
    2ae8:	e3c33103 	bic	r3, r3, #-1073741824	; 0xc0000000
    2aec:	e5843204 	str	r3, [r4, #516]	; 0x204
    2af0:	ebfff9e6 	bl	1290 <mem_delay>
    2af4:	e5943204 	ldr	r3, [r4, #516]	; 0x204
    2af8:	e3a00a01 	mov	r0, #4096	; 0x1000
    2afc:	e3c33103 	bic	r3, r3, #-1073741824	; 0xc0000000
    2b00:	e3833101 	orr	r3, r3, #1073741824	; 0x40000000
    2b04:	e5843204 	str	r3, [r4, #516]	; 0x204
    2b08:	e8bd4010 	pop	{r4, lr}
    2b0c:	eafff9df 	b	1290 <mem_delay>
    2b10:	f1c01000 	undefined instruction 0xf1c01000

00002b14 <mctl_ddr3_reset>:
    2b14:	e92d4010 	push	{r4, lr}
    2b18:	e59f4020 	ldr	r4, [pc, #32]	; 2b40 <mctl_ddr3_reset+0x2c>
    2b1c:	e3a00c01 	mov	r0, #256	; 0x100
    2b20:	e5943230 	ldr	r3, [r4, #560]	; 0x230
    2b24:	e3c33a01 	bic	r3, r3, #4096	; 0x1000
    2b28:	e5843230 	str	r3, [r4, #560]	; 0x230
    2b2c:	ebfff9d7 	bl	1290 <mem_delay>
    2b30:	e5943230 	ldr	r3, [r4, #560]	; 0x230
    2b34:	e3833a01 	orr	r3, r3, #4096	; 0x1000
    2b38:	e5843230 	str	r3, [r4, #560]	; 0x230
    2b3c:	e8bd8010 	pop	{r4, pc}
    2b40:	f1c01000 	undefined instruction 0xf1c01000

00002b44 <DRAMC_init>:
    2b44:	e92d41f0 	push	{r4, r5, r6, r7, r8, lr}
    2b48:	e2504000 	subs	r4, r0, #0
    2b4c:	03e00000 	mvneq	r0, #0
    2b50:	08bd81f0 	popeq	{r4, r5, r6, r7, r8, pc}
    2b54:	e59f5238 	ldr	r5, [pc, #568]	; 2d94 <DRAMC_init+0x250>
    2b58:	e5940004 	ldr	r0, [r4, #4]
    2b5c:	ebffff63 	bl	28f0 <mctl_setup_dram_clock>
    2b60:	e3a03000 	mov	r3, #0
    2b64:	e585323c 	str	r3, [r5, #572]	; 0x23c
    2b68:	ebffffe9 	bl	2b14 <mctl_ddr3_reset>
    2b6c:	e5953230 	ldr	r3, [r5, #560]	; 0x230
    2b70:	e3833c6f 	orr	r3, r3, #28416	; 0x6f00
    2b74:	e38330fc 	orr	r3, r3, #252	; 0xfc
    2b78:	e3c33003 	bic	r3, r3, #3
    2b7c:	e5853230 	str	r3, [r5, #560]	; 0x230
    2b80:	e5953230 	ldr	r3, [r5, #560]	; 0x230
    2b84:	e3c33801 	bic	r3, r3, #65536	; 0x10000
    2b88:	e5853230 	str	r3, [r5, #560]	; 0x230
    2b8c:	e5953000 	ldr	r3, [r5]
    2b90:	e3833201 	orr	r3, r3, #268435456	; 0x10000000
    2b94:	e5853000 	str	r3, [r5]
    2b98:	ebffffc8 	bl	2ac0 <mctl_enable_dll0>
    2b9c:	e5943014 	ldr	r3, [r4, #20]
    2ba0:	e5941008 	ldr	r1, [r4, #8]
    2ba4:	e5942010 	ldr	r2, [r4, #16]
    2ba8:	e3510003 	cmp	r1, #3
    2bac:	13a01000 	movne	r1, #0
    2bb0:	03a01001 	moveq	r1, #1
    2bb4:	e1a031a3 	lsr	r3, r3, #3
    2bb8:	e3520c01 	cmp	r2, #256	; 0x100
    2bbc:	e1813083 	orr	r3, r1, r3, lsl #1
    2bc0:	0a00000d 	beq	2bfc <DRAMC_init+0xb8>
    2bc4:	e3520c02 	cmp	r2, #512	; 0x200
    2bc8:	03833008 	orreq	r3, r3, #8
    2bcc:	0a00000a 	beq	2bfc <DRAMC_init+0xb8>
    2bd0:	e3520b01 	cmp	r2, #1024	; 0x400
    2bd4:	03833010 	orreq	r3, r3, #16
    2bd8:	0a000007 	beq	2bfc <DRAMC_init+0xb8>
    2bdc:	e3520b02 	cmp	r2, #2048	; 0x800
    2be0:	03833018 	orreq	r3, r3, #24
    2be4:	0a000004 	beq	2bfc <DRAMC_init+0xb8>
    2be8:	e3520a01 	cmp	r2, #4096	; 0x1000
    2bec:	03833020 	orreq	r3, r3, #32
    2bf0:	0a000001 	beq	2bfc <DRAMC_init+0xb8>
    2bf4:	e3520a02 	cmp	r2, #8192	; 0x2000
    2bf8:	03833028 	orreq	r3, r3, #40	; 0x28
    2bfc:	e594200c 	ldr	r2, [r4, #12]
    2c00:	e3a00010 	mov	r0, #16
    2c04:	e5941018 	ldr	r1, [r4, #24]
    2c08:	e2422001 	sub	r2, r2, #1
    2c0c:	e59f6180 	ldr	r6, [pc, #384]	; 2d94 <DRAMC_init+0x250>
    2c10:	e1a011a1 	lsr	r1, r1, #3
    2c14:	e1a02502 	lsl	r2, r2, #10
    2c18:	e2411001 	sub	r1, r1, #1
    2c1c:	e3822a03 	orr	r2, r2, #12288	; 0x3000
    2c20:	e1822301 	orr	r2, r2, r1, lsl #6
    2c24:	e1823003 	orr	r3, r2, r3
    2c28:	e5863004 	str	r3, [r6, #4]
    2c2c:	e5943020 	ldr	r3, [r4, #32]
    2c30:	e20350ff 	and	r5, r3, #255	; 0xff
    2c34:	e7f32453 	ubfx	r2, r3, #8, #20
    2c38:	e203320f 	and	r3, r3, #-268435456	; 0xf0000000
    2c3c:	e1825a05 	orr	r5, r2, r5, lsl #20
    2c40:	e1855003 	orr	r5, r5, r3
    2c44:	e58650a8 	str	r5, [r6, #168]	; 0xa8
    2c48:	e5963230 	ldr	r3, [r6, #560]	; 0x230
    2c4c:	e3833801 	orr	r3, r3, #65536	; 0x10000
    2c50:	e5863230 	str	r3, [r6, #560]	; 0x230
    2c54:	ebfff98d 	bl	1290 <mem_delay>
    2c58:	e5963000 	ldr	r3, [r6]
    2c5c:	e59f7130 	ldr	r7, [pc, #304]	; 2d94 <DRAMC_init+0x250>
    2c60:	e3530000 	cmp	r3, #0
    2c64:	bafffffb 	blt	2c58 <DRAMC_init+0x114>
    2c68:	ebffff64 	bl	2a00 <mctl_enable_dllx>
    2c6c:	e5942004 	ldr	r2, [r4, #4]
    2c70:	e3013f33 	movw	r3, #7987	; 0x1f33
    2c74:	e0030392 	mul	r3, r2, r3
    2c78:	e3a02009 	mov	r2, #9
    2c7c:	e1a03523 	lsr	r3, r3, #10
    2c80:	e0030392 	mul	r3, r2, r3
    2c84:	e24330c8 	sub	r3, r3, #200	; 0xc8
    2c88:	e1a03403 	lsl	r3, r3, #8
    2c8c:	e3833302 	orr	r3, r3, #134217728	; 0x8000000
    2c90:	e3833083 	orr	r3, r3, #131	; 0x83
    2c94:	e5873010 	str	r3, [r7, #16]
    2c98:	e594302c 	ldr	r3, [r4, #44]	; 0x2c
    2c9c:	e5873014 	str	r3, [r7, #20]
    2ca0:	e5943030 	ldr	r3, [r4, #48]	; 0x30
    2ca4:	e5873018 	str	r3, [r7, #24]
    2ca8:	e5943034 	ldr	r3, [r4, #52]	; 0x34
    2cac:	e587301c 	str	r3, [r7, #28]
    2cb0:	e5943008 	ldr	r3, [r4, #8]
    2cb4:	e3530003 	cmp	r3, #3
    2cb8:	0594501c 	ldreq	r5, [r4, #28]
    2cbc:	02455004 	subeq	r5, r5, #4
    2cc0:	01a05205 	lsleq	r5, r5, #4
    2cc4:	03855c1a 	orreq	r5, r5, #6656	; 0x1a00
    2cc8:	0a000004 	beq	2ce0 <DRAMC_init+0x19c>
    2ccc:	e3530002 	cmp	r3, #2
    2cd0:	0594501c 	ldreq	r5, [r4, #28]
    2cd4:	01a05205 	lsleq	r5, r5, #4
    2cd8:	03855c0a 	orreq	r5, r5, #2560	; 0xa00
    2cdc:	03855002 	orreq	r5, r5, #2
    2ce0:	e59f30ac 	ldr	r3, [pc, #172]	; 2d94 <DRAMC_init+0x250>
    2ce4:	e1a01003 	mov	r1, r3
    2ce8:	e58351f0 	str	r5, [r3, #496]	; 0x1f0
    2cec:	e5942044 	ldr	r2, [r4, #68]	; 0x44
    2cf0:	e58321f4 	str	r2, [r3, #500]	; 0x1f4
    2cf4:	e5942048 	ldr	r2, [r4, #72]	; 0x48
    2cf8:	e58321f8 	str	r2, [r3, #504]	; 0x1f8
    2cfc:	e594204c 	ldr	r2, [r4, #76]	; 0x4c
    2d00:	e58321fc 	str	r2, [r3, #508]	; 0x1fc
    2d04:	e5932000 	ldr	r2, [r3]
    2d08:	e3822901 	orr	r2, r2, #16384	; 0x4000
    2d0c:	e3c22802 	bic	r2, r2, #131072	; 0x20000
    2d10:	e5832000 	str	r2, [r3]
    2d14:	e5932000 	ldr	r2, [r3]
    2d18:	e3822102 	orr	r2, r2, #-2147483648	; 0x80000000
    2d1c:	e5832000 	str	r2, [r3]
    2d20:	e5912000 	ldr	r2, [r1]
    2d24:	e59f3068 	ldr	r3, [pc, #104]	; 2d94 <DRAMC_init+0x250>
    2d28:	e3520000 	cmp	r2, #0
    2d2c:	bafffffb 	blt	2d20 <DRAMC_init+0x1dc>
    2d30:	e5932000 	ldr	r2, [r3]
    2d34:	e1a01003 	mov	r1, r3
    2d38:	e3c22201 	bic	r2, r2, #268435456	; 0x10000000
    2d3c:	e5832000 	str	r2, [r3]
    2d40:	e5932000 	ldr	r2, [r3]
    2d44:	e3822101 	orr	r2, r2, #1073741824	; 0x40000000
    2d48:	e5832000 	str	r2, [r3]
    2d4c:	e5910000 	ldr	r0, [r1]
    2d50:	e2100101 	ands	r0, r0, #1073741824	; 0x40000000
    2d54:	1afffffc 	bne	2d4c <DRAMC_init+0x208>
    2d58:	e59f3034 	ldr	r3, [pc, #52]	; 2d94 <DRAMC_init+0x250>
    2d5c:	e593300c 	ldr	r3, [r3, #12]
    2d60:	e2133601 	ands	r3, r3, #1048576	; 0x100000
    2d64:	18bd81f0 	popne	{r4, r5, r6, r7, r8, pc}
    2d68:	e59f1028 	ldr	r1, [pc, #40]	; 2d98 <DRAMC_init+0x254>
    2d6c:	e59f2028 	ldr	r2, [pc, #40]	; 2d9c <DRAMC_init+0x258>
    2d70:	e1a0c103 	lsl	ip, r3, #2
    2d74:	e7910103 	ldr	r0, [r1, r3, lsl #2]
    2d78:	e2833001 	add	r3, r3, #1
    2d7c:	e08c2002 	add	r2, ip, r2
    2d80:	e3530020 	cmp	r3, #32
    2d84:	e5820000 	str	r0, [r2]
    2d88:	1afffff7 	bne	2d6c <DRAMC_init+0x228>
    2d8c:	e8bd41f0 	pop	{r4, r5, r6, r7, r8, lr}
    2d90:	eafffe8d 	b	27cc <DRAMC_get_dram_size>
    2d94:	f1c01000 	undefined instruction 0xf1c01000
    2d98:	00003f30 	andeq	r3, r0, r0, lsr pc
    2d9c:	f1c01250 	undefined instruction 0xf1c01250

00002da0 <init_DRAM>:
    2da0:	e92d43f0 	push	{r4, r5, r6, r7, r8, r9, lr}
    2da4:	e24dd054 	sub	sp, sp, #84	; 0x54
    2da8:	e1a0000d 	mov	r0, sp
    2dac:	ebfffecb 	bl	28e0 <get_boot0_dram_para>
    2db0:	e59d4004 	ldr	r4, [sp, #4]
    2db4:	e3540e7d 	cmp	r4, #2000	; 0x7d0
    2db8:	9a000020 	bls	2e40 <init_DRAM+0xa0>
    2dbc:	e59f20c4 	ldr	r2, [pc, #196]	; 2e88 <init_DRAM+0xe8>
    2dc0:	e3a0c000 	mov	ip, #0
    2dc4:	e3a03000 	mov	r3, #0
    2dc8:	e0922002 	adds	r2, r2, r2
    2dcc:	e28cc001 	add	ip, ip, #1
    2dd0:	e0a33003 	adc	r3, r3, r3
    2dd4:	e35c002c 	cmp	ip, #44	; 0x2c
    2dd8:	1afffffa 	bne	2dc8 <init_DRAM+0x28>
    2ddc:	e3a05000 	mov	r5, #0
    2de0:	e3a00000 	mov	r0, #0
    2de4:	e3a01000 	mov	r1, #0
    2de8:	e3a06001 	mov	r6, #1
    2dec:	e3a07000 	mov	r7, #0
    2df0:	e1530005 	cmp	r3, r5
    2df4:	8a000009 	bhi	2e20 <init_DRAM+0x80>
    2df8:	1a000001 	bne	2e04 <init_DRAM+0x64>
    2dfc:	e1520004 	cmp	r2, r4
    2e00:	8a000006 	bhi	2e20 <init_DRAM+0x80>
    2e04:	e0908000 	adds	r8, r0, r0
    2e08:	e0a19001 	adc	r9, r1, r1
    2e0c:	e1880006 	orr	r0, r8, r6
    2e10:	e0544002 	subs	r4, r4, r2
    2e14:	e0c55003 	sbc	r5, r5, r3
    2e18:	e1891007 	orr	r1, r9, r7
    2e1c:	ea000001 	b	2e28 <init_DRAM+0x88>
    2e20:	e0900000 	adds	r0, r0, r0
    2e24:	e0a11001 	adc	r1, r1, r1
    2e28:	e25cc001 	subs	ip, ip, #1
    2e2c:	4a000002 	bmi	2e3c <init_DRAM+0x9c>
    2e30:	e1b030a3 	lsrs	r3, r3, #1
    2e34:	e1a02062 	rrx	r2, r2
    2e38:	eaffffec 	b	2df0 <init_DRAM+0x50>
    2e3c:	e58d0004 	str	r0, [sp, #4]
    2e40:	e3030010 	movw	r0, #12304	; 0x3010
    2e44:	e3a04000 	mov	r4, #0
    2e48:	eb000025 	bl	2ee4 <save_mem_status>
    2e4c:	e1a05004 	mov	r5, r4
    2e50:	e1a0600d 	mov	r6, sp
    2e54:	ea000001 	b	2e60 <init_DRAM+0xc0>
    2e58:	ebffff39 	bl	2b44 <DRAMC_init>
    2e5c:	e1a04000 	mov	r4, r0
    2e60:	e3550003 	cmp	r5, #3
    2e64:	93540000 	cmpls	r4, #0
    2e68:	e1a0000d 	mov	r0, sp
    2e6c:	e2855001 	add	r5, r5, #1
    2e70:	0afffff8 	beq	2e58 <init_DRAM+0xb8>
    2e74:	e3030011 	movw	r0, #12305	; 0x3011
    2e78:	eb000019 	bl	2ee4 <save_mem_status>
    2e7c:	e1a00004 	mov	r0, r4
    2e80:	e28dd054 	add	sp, sp, #84	; 0x54
    2e84:	e8bd83f0 	pop	{r4, r5, r6, r7, r8, r9, pc}
    2e88:	000f4240 	andeq	r4, pc, r0, asr #4

00002e8c <busy_waiting>:
    2e8c:	e24dd008 	sub	sp, sp, #8
    2e90:	e3a03001 	mov	r3, #1
    2e94:	e58d3004 	str	r3, [sp, #4]
    2e98:	e59d3004 	ldr	r3, [sp, #4]
    2e9c:	e3530001 	cmp	r3, #1
    2ea0:	0afffffc 	beq	2e98 <busy_waiting+0xc>
    2ea4:	e28dd008 	add	sp, sp, #8
    2ea8:	e12fff1e 	bx	lr

00002eac <fake_busy_waiting>:
    2eac:	e24dd008 	sub	sp, sp, #8
    2eb0:	e3a03002 	mov	r3, #2
    2eb4:	e58d3004 	str	r3, [sp, #4]
    2eb8:	e59d3004 	ldr	r3, [sp, #4]
    2ebc:	e3530001 	cmp	r3, #1
    2ec0:	0afffffc 	beq	2eb8 <fake_busy_waiting+0xc>
    2ec4:	e28dd008 	add	sp, sp, #8
    2ec8:	e12fff1e 	bx	lr

00002ecc <save_mem_flag>:
    2ecc:	e59f300c 	ldr	r3, [pc, #12]	; 2ee0 <save_mem_flag+0x14>
    2ed0:	e593223c 	ldr	r2, [r3, #572]	; 0x23c
    2ed4:	e3822001 	orr	r2, r2, #1
    2ed8:	e583223c 	str	r2, [r3, #572]	; 0x23c
    2edc:	e12fff1e 	bx	lr
    2ee0:	f1c01000 	undefined instruction 0xf1c01000

00002ee4 <save_mem_status>:
    2ee4:	e24dd008 	sub	sp, sp, #8
    2ee8:	e58d0004 	str	r0, [sp, #4]
    2eec:	e28dd008 	add	sp, sp, #8
    2ef0:	e12fff1e 	bx	lr

00002ef4 <get_mem_status>:
    2ef4:	e59f3004 	ldr	r3, [pc, #4]	; 2f00 <get_mem_status+0xc>
    2ef8:	e5930004 	ldr	r0, [r3, #4]
    2efc:	e12fff1e 	bx	lr
    2f00:	c0200000 	eorgt	r0, r0, r0

00002f04 <save_mem_status_nommu>:
    2f04:	e24dd008 	sub	sp, sp, #8
    2f08:	e58d0004 	str	r0, [sp, #4]
    2f0c:	e28dd008 	add	sp, sp, #8
    2f10:	e12fff1e 	bx	lr

00002f14 <save_sun5i_mem_status>:
    2f14:	e24dd008 	sub	sp, sp, #8
    2f18:	e59f3014 	ldr	r3, [pc, #20]	; 2f34 <save_sun5i_mem_status+0x20>
    2f1c:	e58d0004 	str	r0, [sp, #4]
    2f20:	e5930ffc 	ldr	r0, [r3, #4092]	; 0xffc
    2f24:	e59d2004 	ldr	r2, [sp, #4]
    2f28:	e5832ffc 	str	r2, [r3, #4092]	; 0xffc
    2f2c:	e28dd008 	add	sp, sp, #8
    2f30:	e12fff1e 	bx	lr
    2f34:	c010f000 	andsgt	pc, r0, r0

00002f38 <save_sun5i_mem_status_nommu>:
    2f38:	e24dd008 	sub	sp, sp, #8
    2f3c:	e59f3014 	ldr	r3, [pc, #20]	; 2f58 <save_sun5i_mem_status_nommu+0x20>
    2f40:	e58d0004 	str	r0, [sp, #4]
    2f44:	e5930ffc 	ldr	r0, [r3, #4092]	; 0xffc
    2f48:	e59d2004 	ldr	r2, [sp, #4]
    2f4c:	e5832ffc 	str	r2, [r3, #4092]	; 0xffc
    2f50:	e28dd008 	add	sp, sp, #8
    2f54:	e12fff1e 	bx	lr
    2f58:	4010f000 	andsmi	pc, r0, r0

00002f5c <get_cyclecount>:
    2f5c:	ee190f1d 	mrc	15, 0, r0, cr9, cr13, {0}
    2f60:	e12fff1e 	bx	lr

00002f64 <backup_perfcounter>:
    2f64:	ee192f1c 	mrc	15, 0, r2, cr9, cr12, {0}
    2f68:	e59f300c 	ldr	r3, [pc, #12]	; 2f7c <backup_perfcounter+0x18>
    2f6c:	e5832000 	str	r2, [r3]
    2f70:	ee192f3c 	mrc	15, 0, r2, cr9, cr12, {1}
    2f74:	e5832004 	str	r2, [r3, #4]
    2f78:	e12fff1e 	bx	lr
    2f7c:	00004274 	andeq	r4, r0, r4, ror r2

00002f80 <init_perfcounters>:
    2f80:	e3500000 	cmp	r0, #0
    2f84:	03a00001 	moveq	r0, #1
    2f88:	13a00007 	movne	r0, #7
    2f8c:	e3510000 	cmp	r1, #0
    2f90:	13800008 	orrne	r0, r0, #8
    2f94:	e3800010 	orr	r0, r0, #16
    2f98:	ee090f1c 	mcr	15, 0, r0, cr9, cr12, {0}
    2f9c:	e3a0313e 	mov	r3, #-2147483633	; 0x8000000f
    2fa0:	ee093f3c 	mcr	15, 0, r3, cr9, cr12, {1}
    2fa4:	ee093f7c 	mcr	15, 0, r3, cr9, cr12, {3}
    2fa8:	e12fff1e 	bx	lr

00002fac <restore_perfcounter>:
    2fac:	e59f3014 	ldr	r3, [pc, #20]	; 2fc8 <restore_perfcounter+0x1c>
    2fb0:	e5933000 	ldr	r3, [r3]
    2fb4:	ee093f1c 	mcr	15, 0, r3, cr9, cr12, {0}
    2fb8:	e59f3008 	ldr	r3, [pc, #8]	; 2fc8 <restore_perfcounter+0x1c>
    2fbc:	e5933004 	ldr	r3, [r3, #4]
    2fc0:	ee093f3c 	mcr	15, 0, r3, cr9, cr12, {1}
    2fc4:	e12fff1e 	bx	lr
    2fc8:	00004274 	andeq	r4, r0, r4, ror r2

00002fcc <reset_counter>:
    2fcc:	e3a03000 	mov	r3, #0
    2fd0:	ee193f1c 	mrc	15, 0, r3, cr9, cr12, {0}
    2fd4:	e2833004 	add	r3, r3, #4
    2fd8:	ee093f1c 	mcr	15, 0, r3, cr9, cr12, {0}
    2fdc:	e12fff1e 	bx	lr

00002fe0 <change_runtime_env>:
    2fe0:	e92d4013 	push	{r0, r1, r4, lr}
    2fe4:	e3a03000 	mov	r3, #0
    2fe8:	e59f1108 	ldr	r1, [pc, #264]	; 30f8 <change_runtime_env+0x118>
    2fec:	e1500003 	cmp	r0, r3
    2ff0:	e58d3004 	str	r3, [sp, #4]
    2ff4:	e59f2100 	ldr	r2, [pc, #256]	; 30fc <change_runtime_env+0x11c>
    2ff8:	11a02001 	movne	r2, r1
    2ffc:	ee191f1d 	mrc	15, 0, r1, cr9, cr13, {0}
    3000:	ee190f1d 	mrc	15, 0, r0, cr9, cr13, {0}
    3004:	e59fc0f4 	ldr	ip, [pc, #244]	; 3100 <change_runtime_env+0x120>
    3008:	e0611000 	rsb	r1, r1, r0
    300c:	e58c1008 	str	r1, [ip, #8]
    3010:	e5921054 	ldr	r1, [r2, #84]	; 0x54
    3014:	e58d1004 	str	r1, [sp, #4]
    3018:	e59d1004 	ldr	r1, [sp, #4]
    301c:	e1a01821 	lsr	r1, r1, #16
    3020:	e58d1004 	str	r1, [sp, #4]
    3024:	e59d1004 	ldr	r1, [sp, #4]
    3028:	e2011003 	and	r1, r1, #3
    302c:	e58d1004 	str	r1, [sp, #4]
    3030:	e59d1004 	ldr	r1, [sp, #4]
    3034:	e1510003 	cmp	r1, r3
    3038:	02833020 	addeq	r3, r3, #32
    303c:	0a000003 	beq	3050 <change_runtime_env+0x70>
    3040:	e59d1004 	ldr	r1, [sp, #4]
    3044:	e3510001 	cmp	r1, #1
    3048:	1a000002 	bne	3058 <change_runtime_env+0x78>
    304c:	e3053dc0 	movw	r3, #24000	; 0x5dc0
    3050:	e58c300c 	str	r3, [ip, #12]
    3054:	ea000026 	b	30f4 <change_runtime_env+0x114>
    3058:	e59d1004 	ldr	r1, [sp, #4]
    305c:	e3510002 	cmp	r1, #2
    3060:	1a000023 	bne	30f4 <change_runtime_env+0x114>
    3064:	e5922000 	ldr	r2, [r2]
    3068:	e3a04001 	mov	r4, #1
    306c:	e58d2004 	str	r2, [sp, #4]
    3070:	e59d1004 	ldr	r1, [sp, #4]
    3074:	e59dc004 	ldr	ip, [sp, #4]
    3078:	e59d0004 	ldr	r0, [sp, #4]
    307c:	e7e11851 	ubfx	r1, r1, #16, #2
    3080:	e59d2004 	ldr	r2, [sp, #4]
    3084:	e1a01114 	lsl	r1, r4, r1
    3088:	e2022003 	and	r2, r2, #3
    308c:	e0822004 	add	r2, r2, r4
    3090:	e0120192 	muls	r2, r2, r1
    3094:	01a01002 	moveq	r1, r2
    3098:	0a000013 	beq	30ec <change_runtime_env+0x10c>
    309c:	ea000001 	b	30a8 <change_runtime_env+0xc8>
    30a0:	e1a02082 	lsl	r2, r2, #1
    30a4:	e2833001 	add	r3, r3, #1
    30a8:	e3520000 	cmp	r2, #0
    30ac:	aafffffb 	bge	30a0 <change_runtime_env+0xc0>
    30b0:	e7e4c45c 	ubfx	ip, ip, #8, #5
    30b4:	e3054dc0 	movw	r4, #24000	; 0x5dc0
    30b8:	e7e10250 	ubfx	r0, r0, #4, #2
    30bc:	e3a01000 	mov	r1, #0
    30c0:	e00c0c94 	mul	ip, r4, ip
    30c4:	e2800001 	add	r0, r0, #1
    30c8:	e0000c90 	mul	r0, r0, ip
    30cc:	e1500002 	cmp	r0, r2
    30d0:	e1a0c081 	lsl	ip, r1, #1
    30d4:	20620000 	rsbcs	r0, r2, r0
    30d8:	e38c1001 	orr	r1, ip, #1
    30dc:	31a0100c 	movcc	r1, ip
    30e0:	e2533001 	subs	r3, r3, #1
    30e4:	e1a020a2 	lsr	r2, r2, #1
    30e8:	5afffff7 	bpl	30cc <change_runtime_env+0xec>
    30ec:	e59f300c 	ldr	r3, [pc, #12]	; 3100 <change_runtime_env+0x120>
    30f0:	e583100c 	str	r1, [r3, #12]
    30f4:	e8bd801c 	pop	{r2, r3, r4, pc}
    30f8:	f1c20000 	undefined instruction 0xf1c20000
    30fc:	01c20000 	biceq	r0, r2, r0
    3100:	00004274 	andeq	r4, r0, r4, ror r2

00003104 <delay_us>:
    3104:	e59f3078 	ldr	r3, [pc, #120]	; 3184 <delay_us+0x80>
    3108:	e92d4010 	push	{r4, lr}
    310c:	e593c00c 	ldr	ip, [r3, #12]
    3110:	e35c0ffa 	cmp	ip, #1000	; 0x3e8
    3114:	98bd8010 	popls	{r4, pc}
    3118:	e3a02000 	mov	r2, #0
    311c:	e3a03ffa 	mov	r3, #1000	; 0x3e8
    3120:	e2822001 	add	r2, r2, #1
    3124:	e1a03083 	lsl	r3, r3, #1
    3128:	e3520016 	cmp	r2, #22
    312c:	1afffffb 	bne	3120 <delay_us+0x1c>
    3130:	e3a01000 	mov	r1, #0
    3134:	e15c0003 	cmp	ip, r3
    3138:	e1a04081 	lsl	r4, r1, #1
    313c:	2063c00c 	rsbcs	ip, r3, ip
    3140:	e3841001 	orr	r1, r4, #1
    3144:	31a01004 	movcc	r1, r4
    3148:	e2522001 	subs	r2, r2, #1
    314c:	e1a030a3 	lsr	r3, r3, #1
    3150:	5afffff7 	bpl	3134 <delay_us+0x30>
    3154:	ee193f1d 	mrc	15, 0, r3, cr9, cr13, {0}
    3158:	e59f2024 	ldr	r2, [pc, #36]	; 3184 <delay_us+0x80>
    315c:	e2811001 	add	r1, r1, #1
    3160:	e5922008 	ldr	r2, [r2, #8]
    3164:	e0622003 	rsb	r2, r2, r3
    3168:	e0212190 	mla	r1, r0, r1, r2
    316c:	ea000000 	b	3174 <delay_us+0x70>
    3170:	ee193f1d 	mrc	15, 0, r3, cr9, cr13, {0}
    3174:	e0613003 	rsb	r3, r1, r3
    3178:	e3530000 	cmp	r3, #0
    317c:	bafffffb 	blt	3170 <delay_us+0x6c>
    3180:	e8bd8010 	pop	{r4, pc}
    3184:	00004274 	andeq	r4, r0, r4, ror r2

00003188 <delay_ms>:
    3188:	e3a03ffa 	mov	r3, #1000	; 0x3e8
    318c:	e0000093 	mul	r0, r3, r0
    3190:	eaffffdb 	b	3104 <delay_us>

00003194 <io_init>:
    3194:	e59f2008 	ldr	r2, [pc, #8]	; 31a4 <io_init+0x10>
    3198:	e59f3008 	ldr	r3, [pc, #8]	; 31a8 <io_init+0x14>
    319c:	e5832890 	str	r2, [r3, #2192]	; 0x890
    31a0:	e12fff1e 	bx	lr
    31a4:	00111111 	andseq	r1, r1, r1, lsl r1
    31a8:	f1c20000 	undefined instruction 0xf1c20000

000031ac <io_init_high>:
    31ac:	e59f300c 	ldr	r3, [pc, #12]	; 31c0 <io_init_high+0x14>
    31b0:	e59328a0 	ldr	r2, [r3, #2208]	; 0x8a0
    31b4:	e382203f 	orr	r2, r2, #63	; 0x3f
    31b8:	e58328a0 	str	r2, [r3, #2208]	; 0x8a0
    31bc:	e12fff1e 	bx	lr
    31c0:	f1c20000 	undefined instruction 0xf1c20000

000031c4 <io_init_low>:
    31c4:	e59f300c 	ldr	r3, [pc, #12]	; 31d8 <io_init_low+0x14>
    31c8:	e59328a0 	ldr	r2, [r3, #2208]	; 0x8a0
    31cc:	e3c2203f 	bic	r2, r2, #63	; 0x3f
    31d0:	e58328a0 	str	r2, [r3, #2208]	; 0x8a0
    31d4:	e12fff1e 	bx	lr
    31d8:	f1c20000 	undefined instruction 0xf1c20000

000031dc <io_high>:
    31dc:	e92d4070 	push	{r4, r5, r6, lr}
    31e0:	e59f4024 	ldr	r4, [pc, #36]	; 320c <io_high+0x30>
    31e4:	e3a05001 	mov	r5, #1
    31e8:	e59468a0 	ldr	r6, [r4, #2208]	; 0x8a0
    31ec:	e1a05015 	lsl	r5, r5, r0
    31f0:	e3020710 	movw	r0, #10000	; 0x2710
    31f4:	e1c66005 	bic	r6, r6, r5
    31f8:	e58468a0 	str	r6, [r4, #2208]	; 0x8a0
    31fc:	ebffffc0 	bl	3104 <delay_us>
    3200:	e1865005 	orr	r5, r6, r5
    3204:	e58458a0 	str	r5, [r4, #2208]	; 0x8a0
    3208:	e8bd8070 	pop	{r4, r5, r6, pc}
    320c:	f1c20000 	undefined instruction 0xf1c20000

00003210 <invalidate_dcache>:
    3210:	f57ff05f 	dmb	sy
    3214:	ee300f30 	mrc	15, 1, r0, cr0, cr0, {1}
    3218:	e2103407 	ands	r3, r0, #117440512	; 0x7000000
    321c:	e1a03ba3 	lsr	r3, r3, #23
    3220:	0a00001a 	beq	3290 <inv_finished>
    3224:	e3a0a000 	mov	sl, #0

00003228 <inv_loop1>:
    3228:	e08a20aa 	add	r2, sl, sl, lsr #1
    322c:	e1a01230 	lsr	r1, r0, r2
    3230:	e2011007 	and	r1, r1, #7
    3234:	e3510002 	cmp	r1, #2
    3238:	ba000011 	blt	3284 <inv_skip>
    323c:	ee40af10 	mcr	15, 2, sl, cr0, cr0, {0}
    3240:	f57ff06f 	isb	sy
    3244:	ee301f10 	mrc	15, 1, r1, cr0, cr0, {0}
    3248:	e2012007 	and	r2, r1, #7
    324c:	e2822004 	add	r2, r2, #4
    3250:	e59f4100 	ldr	r4, [pc, #256]	; 3358 <clear_reg_context+0x38>
    3254:	e01441a1 	ands	r4, r4, r1, lsr #3
    3258:	e16f5f14 	clz	r5, r4
    325c:	e59f70f8 	ldr	r7, [pc, #248]	; 335c <clear_reg_context+0x3c>
    3260:	e01776a1 	ands	r7, r7, r1, lsr #13

00003264 <inv_loop2>:
    3264:	e1a09004 	mov	r9, r4

00003268 <inv_loop3>:
    3268:	e18ab519 	orr	fp, sl, r9, lsl r5
    326c:	e18bb217 	orr	fp, fp, r7, lsl r2
    3270:	ee07bf56 	mcr	15, 0, fp, cr7, cr6, {2}
    3274:	e2599001 	subs	r9, r9, #1
    3278:	aafffffa 	bge	3268 <inv_loop3>
    327c:	e2577001 	subs	r7, r7, #1
    3280:	aafffff7 	bge	3264 <inv_loop2>

00003284 <inv_skip>:
    3284:	e28aa002 	add	sl, sl, #2
    3288:	e153000a 	cmp	r3, sl
    328c:	caffffe5 	bgt	3228 <inv_loop1>

00003290 <inv_finished>:
    3290:	e3a0a000 	mov	sl, #0
    3294:	ee40af10 	mcr	15, 2, sl, cr0, cr0, {0}
    3298:	f57ff04f 	dsb	sy
    329c:	f57ff06f 	isb	sy
    32a0:	e1a0f00e 	mov	pc, lr
    32a4:	e320f000 	nop	{0}
    32a8:	e320f000 	nop	{0}
    32ac:	e320f000 	nop	{0}

000032b0 <jump_to_resume>:
    32b0:	e1a0c000 	mov	ip, r0
    32b4:	e1a08001 	mov	r8, r1
    32b8:	ebffffd4 	bl	3210 <invalidate_dcache>
    32bc:	e1a01008 	mov	r1, r8
    32c0:	e1a0e00c 	mov	lr, ip
    32c4:	e8913fff 	ldm	r1, {r0, r1, r2, r3, r4, r5, r6, r7, r8, r9, sl, fp, ip, sp}
    32c8:	e1a0f00e 	mov	pc, lr
    32cc:	e320f000 	nop	{0}

000032d0 <jump_to_resume0>:
    32d0:	e1a0e000 	mov	lr, r0
    32d4:	e1a0f00e 	mov	pc, lr
    32d8:	e320f000 	nop	{0}
    32dc:	e320f000 	nop	{0}

000032e0 <jump_to_resume0_nommu>:
    32e0:	ee111f10 	mrc	15, 0, r1, cr1, cr0, {0}
    32e4:	e3c11a01 	bic	r1, r1, #4096	; 0x1000
    32e8:	e3c11007 	bic	r1, r1, #7
    32ec:	ee011f10 	mcr	15, 0, r1, cr1, cr0, {0}
    32f0:	ee103f10 	mrc	15, 0, r3, cr0, cr0, {0}
    32f4:	e1a03003 	mov	r3, r3
    32f8:	e1a03003 	mov	r3, r3
    32fc:	e1a0e000 	mov	lr, r0
    3300:	f57ff06f 	isb	sy
    3304:	e1a0f00e 	mov	pc, lr
    3308:	e320f000 	nop	{0}
    330c:	e320f000 	nop	{0}

00003310 <save_runtime_context>:
    3310:	e8803fff 	stm	r0, {r0, r1, r2, r3, r4, r5, r6, r7, r8, r9, sl, fp, ip, sp}
    3314:	e1a0f00e 	mov	pc, lr
    3318:	e320f000 	nop	{0}
    331c:	e320f000 	nop	{0}

00003320 <clear_reg_context>:
    3320:	e3a00000 	mov	r0, #0
    3324:	e3a01000 	mov	r1, #0
    3328:	e3a02000 	mov	r2, #0
    332c:	e3a03000 	mov	r3, #0
    3330:	e3a04000 	mov	r4, #0
    3334:	e3a05000 	mov	r5, #0
    3338:	e3a06000 	mov	r6, #0
    333c:	e3a07000 	mov	r7, #0
    3340:	e3a08000 	mov	r8, #0
    3344:	e3a09000 	mov	r9, #0
    3348:	e3a0a000 	mov	sl, #0
    334c:	e3a0b000 	mov	fp, #0
    3350:	e3a0c000 	mov	ip, #0
    3354:	e1a0f00e 	mov	pc, lr
    3358:	000003ff 	strdeq	r0, [r0], -pc
    335c:	00007fff 	strdeq	r7, [r0], -pc

00003360 <save_mmu_state>:
    3360:	ee503f10 	mrc	15, 2, r3, cr0, cr0, {0}
    3364:	e5803000 	str	r3, [r0]
    3368:	ee113f50 	mrc	15, 0, r3, cr1, cr0, {2}
    336c:	e5803008 	str	r3, [r0, #8]
    3370:	ee133f10 	mrc	15, 0, r3, cr3, cr0, {0}
    3374:	e5803018 	str	r3, [r0, #24]
    3378:	ee123f10 	mrc	15, 0, r3, cr2, cr0, {0}
    337c:	e580300c 	str	r3, [r0, #12]
    3380:	ee123f30 	mrc	15, 0, r3, cr2, cr0, {1}
    3384:	e5803010 	str	r3, [r0, #16]
    3388:	ee123f50 	mrc	15, 0, r3, cr2, cr0, {2}
    338c:	e5803014 	str	r3, [r0, #20]
    3390:	ee113f10 	mrc	15, 0, r3, cr1, cr0, {0}
    3394:	e5803004 	str	r3, [r0, #4]
    3398:	e12fff1e 	bx	lr

0000339c <restore_mmu_state>:
    339c:	e5903000 	ldr	r3, [r0]
    33a0:	ee403f10 	mcr	15, 2, r3, cr0, cr0, {0}
    33a4:	e5903008 	ldr	r3, [r0, #8]
    33a8:	ee013f50 	mcr	15, 0, r3, cr1, cr0, {2}
    33ac:	e5903018 	ldr	r3, [r0, #24]
    33b0:	ee033f10 	mcr	15, 0, r3, cr3, cr0, {0}
    33b4:	e5903010 	ldr	r3, [r0, #16]
    33b8:	ee023f10 	mcr	15, 0, r3, cr2, cr0, {0}
    33bc:	ee023f30 	mcr	15, 0, r3, cr2, cr0, {1}
    33c0:	e5903014 	ldr	r3, [r0, #20]
    33c4:	ee023f50 	mcr	15, 0, r3, cr2, cr0, {2}
    33c8:	ea000004 	b	33e0 <__turn_mmu_on>
    33cc:	e320f000 	nop	{0}
    33d0:	e320f000 	nop	{0}
    33d4:	e320f000 	nop	{0}
    33d8:	e320f000 	nop	{0}
    33dc:	e320f000 	nop	{0}

000033e0 <__turn_mmu_on>:
    33e0:	e1a00000 	nop			; (mov r0, r0)
    33e4:	e5903004 	ldr	r3, [r0, #4]
    33e8:	ee013f10 	mcr	15, 0, r3, cr1, cr0, {0}
    33ec:	ee103f10 	mrc	15, 0, r3, cr0, cr0, {0}
    33f0:	e1a03003 	mov	r3, r3
    33f4:	e1a03003 	mov	r3, r3
    33f8:	f57ff06f 	isb	sy
    33fc:	e12fff1e 	bx	lr

00003400 <set_ttbr0>:
    3400:	ee123f30 	mrc	15, 0, r3, cr2, cr0, {1}
    3404:	ee023f10 	mcr	15, 0, r3, cr2, cr0, {0}
    3408:	f57ff06f 	isb	sy
    340c:	e12fff1e 	bx	lr
    3410:	e320f000 	nop	{0}
    3414:	e320f000 	nop	{0}
    3418:	e320f000 	nop	{0}
    341c:	e320f000 	nop	{0}

00003420 <__save_processor_state>:
    3420:	ee503f10 	mrc	15, 2, r3, cr0, cr0, {0}
    3424:	e5c03000 	strb	r3, [r0]
    3428:	e1a02c23 	lsr	r2, r3, #24
    342c:	e5c02003 	strb	r2, [r0, #3]
    3430:	e7e72453 	ubfx	r2, r3, #8, #8
    3434:	e7e73853 	ubfx	r3, r3, #16, #8
    3438:	e5c02001 	strb	r2, [r0, #1]
    343c:	e5c03002 	strb	r3, [r0, #2]
    3440:	ee113f10 	mrc	15, 0, r3, cr1, cr0, {0}
    3444:	e5c03004 	strb	r3, [r0, #4]
    3448:	e1a02c23 	lsr	r2, r3, #24
    344c:	e5c02007 	strb	r2, [r0, #7]
    3450:	e7e72453 	ubfx	r2, r3, #8, #8
    3454:	e7e73853 	ubfx	r3, r3, #16, #8
    3458:	e5c02005 	strb	r2, [r0, #5]
    345c:	e5c03006 	strb	r3, [r0, #6]
    3460:	ee113f50 	mrc	15, 0, r3, cr1, cr0, {2}
    3464:	e5c0300c 	strb	r3, [r0, #12]
    3468:	e1a02c23 	lsr	r2, r3, #24
    346c:	e5c0200f 	strb	r2, [r0, #15]
    3470:	e7e72453 	ubfx	r2, r3, #8, #8
    3474:	e7e73853 	ubfx	r3, r3, #16, #8
    3478:	e5c0200d 	strb	r2, [r0, #13]
    347c:	e5c0300e 	strb	r3, [r0, #14]
    3480:	ee123f10 	mrc	15, 0, r3, cr2, cr0, {0}
    3484:	e5c0301c 	strb	r3, [r0, #28]
    3488:	e1a02c23 	lsr	r2, r3, #24
    348c:	e5c0201f 	strb	r2, [r0, #31]
    3490:	e7e72453 	ubfx	r2, r3, #8, #8
    3494:	e7e73853 	ubfx	r3, r3, #16, #8
    3498:	e5c0201d 	strb	r2, [r0, #29]
    349c:	e5c0301e 	strb	r3, [r0, #30]
    34a0:	ee123f30 	mrc	15, 0, r3, cr2, cr0, {1}
    34a4:	e5c03020 	strb	r3, [r0, #32]
    34a8:	e1a02c23 	lsr	r2, r3, #24
    34ac:	e5c02023 	strb	r2, [r0, #35]	; 0x23
    34b0:	e7e72453 	ubfx	r2, r3, #8, #8
    34b4:	e7e73853 	ubfx	r3, r3, #16, #8
    34b8:	e5c02021 	strb	r2, [r0, #33]	; 0x21
    34bc:	e5c03022 	strb	r3, [r0, #34]	; 0x22
    34c0:	ee123f50 	mrc	15, 0, r3, cr2, cr0, {2}
    34c4:	e5c03024 	strb	r3, [r0, #36]	; 0x24
    34c8:	e1a02c23 	lsr	r2, r3, #24
    34cc:	e5c02027 	strb	r2, [r0, #39]	; 0x27
    34d0:	e7e72453 	ubfx	r2, r3, #8, #8
    34d4:	e7e73853 	ubfx	r3, r3, #16, #8
    34d8:	e5c02025 	strb	r2, [r0, #37]	; 0x25
    34dc:	e5c03026 	strb	r3, [r0, #38]	; 0x26
    34e0:	ee133f10 	mrc	15, 0, r3, cr3, cr0, {0}
    34e4:	e5c03028 	strb	r3, [r0, #40]	; 0x28
    34e8:	e1a02c23 	lsr	r2, r3, #24
    34ec:	e5c0202b 	strb	r2, [r0, #43]	; 0x2b
    34f0:	e7e72453 	ubfx	r2, r3, #8, #8
    34f4:	e7e73853 	ubfx	r3, r3, #16, #8
    34f8:	e5c02029 	strb	r2, [r0, #41]	; 0x29
    34fc:	e5c0302a 	strb	r3, [r0, #42]	; 0x2a
    3500:	ee153f10 	mrc	15, 0, r3, cr5, cr0, {0}
    3504:	e5c0302c 	strb	r3, [r0, #44]	; 0x2c
    3508:	e1a02c23 	lsr	r2, r3, #24
    350c:	e5c0202f 	strb	r2, [r0, #47]	; 0x2f
    3510:	e7e72453 	ubfx	r2, r3, #8, #8
    3514:	e7e73853 	ubfx	r3, r3, #16, #8
    3518:	e5c0202d 	strb	r2, [r0, #45]	; 0x2d
    351c:	e5c0302e 	strb	r3, [r0, #46]	; 0x2e
    3520:	ee153f30 	mrc	15, 0, r3, cr5, cr0, {1}
    3524:	e5c03030 	strb	r3, [r0, #48]	; 0x30
    3528:	e1a02c23 	lsr	r2, r3, #24
    352c:	e7e71453 	ubfx	r1, r3, #8, #8
    3530:	e7e73853 	ubfx	r3, r3, #16, #8
    3534:	e5c01031 	strb	r1, [r0, #49]	; 0x31
    3538:	e5c02033 	strb	r2, [r0, #51]	; 0x33
    353c:	e5c03032 	strb	r3, [r0, #50]	; 0x32
    3540:	ee153f11 	mrc	15, 0, r3, cr5, cr1, {0}
    3544:	e5c03034 	strb	r3, [r0, #52]	; 0x34
    3548:	e1a02c23 	lsr	r2, r3, #24
    354c:	e5c02037 	strb	r2, [r0, #55]	; 0x37
    3550:	e7e72453 	ubfx	r2, r3, #8, #8
    3554:	e7e73853 	ubfx	r3, r3, #16, #8
    3558:	e5c02035 	strb	r2, [r0, #53]	; 0x35
    355c:	e5c03036 	strb	r3, [r0, #54]	; 0x36
    3560:	ee153f31 	mrc	15, 0, r3, cr5, cr1, {1}
    3564:	e5c03038 	strb	r3, [r0, #56]	; 0x38
    3568:	e1a02c23 	lsr	r2, r3, #24
    356c:	e5c0203b 	strb	r2, [r0, #59]	; 0x3b
    3570:	e7e72453 	ubfx	r2, r3, #8, #8
    3574:	e7e73853 	ubfx	r3, r3, #16, #8
    3578:	e5c02039 	strb	r2, [r0, #57]	; 0x39
    357c:	e5c0303a 	strb	r3, [r0, #58]	; 0x3a
    3580:	ee163f10 	mrc	15, 0, r3, cr6, cr0, {0}
    3584:	e5c0303c 	strb	r3, [r0, #60]	; 0x3c
    3588:	e1a02c23 	lsr	r2, r3, #24
    358c:	e5c0203f 	strb	r2, [r0, #63]	; 0x3f
    3590:	e7e72453 	ubfx	r2, r3, #8, #8
    3594:	e7e73853 	ubfx	r3, r3, #16, #8
    3598:	e5c0203d 	strb	r2, [r0, #61]	; 0x3d
    359c:	e5c0303e 	strb	r3, [r0, #62]	; 0x3e
    35a0:	ee163f50 	mrc	15, 0, r3, cr6, cr0, {2}
    35a4:	e5c03040 	strb	r3, [r0, #64]	; 0x40
    35a8:	e1a02c23 	lsr	r2, r3, #24
    35ac:	e5c02043 	strb	r2, [r0, #67]	; 0x43
    35b0:	e7e72453 	ubfx	r2, r3, #8, #8
    35b4:	e7e73853 	ubfx	r3, r3, #16, #8
    35b8:	e5c02041 	strb	r2, [r0, #65]	; 0x41
    35bc:	e5c03042 	strb	r3, [r0, #66]	; 0x42
    35c0:	ee173f14 	mrc	15, 0, r3, cr7, cr4, {0}
    35c4:	e5c03044 	strb	r3, [r0, #68]	; 0x44
    35c8:	e1a02c23 	lsr	r2, r3, #24
    35cc:	e5c02047 	strb	r2, [r0, #71]	; 0x47
    35d0:	e7e72453 	ubfx	r2, r3, #8, #8
    35d4:	e7e73853 	ubfx	r3, r3, #16, #8
    35d8:	e5c02045 	strb	r2, [r0, #69]	; 0x45
    35dc:	e5c03046 	strb	r3, [r0, #70]	; 0x46
    35e0:	ee193f1c 	mrc	15, 0, r3, cr9, cr12, {0}
    35e4:	e5c03048 	strb	r3, [r0, #72]	; 0x48
    35e8:	e1a02c23 	lsr	r2, r3, #24
    35ec:	e5c0204b 	strb	r2, [r0, #75]	; 0x4b
    35f0:	e7e72453 	ubfx	r2, r3, #8, #8
    35f4:	e7e73853 	ubfx	r3, r3, #16, #8
    35f8:	e5c02049 	strb	r2, [r0, #73]	; 0x49
    35fc:	e5c0304a 	strb	r3, [r0, #74]	; 0x4a
    3600:	ee193f3c 	mrc	15, 0, r3, cr9, cr12, {1}
    3604:	e5c0304c 	strb	r3, [r0, #76]	; 0x4c
    3608:	e1a02c23 	lsr	r2, r3, #24
    360c:	e5c0204f 	strb	r2, [r0, #79]	; 0x4f
    3610:	e7e72453 	ubfx	r2, r3, #8, #8
    3614:	e7e73853 	ubfx	r3, r3, #16, #8
    3618:	e5c0204d 	strb	r2, [r0, #77]	; 0x4d
    361c:	e5c0304e 	strb	r3, [r0, #78]	; 0x4e
    3620:	ee193f5c 	mrc	15, 0, r3, cr9, cr12, {2}
    3624:	e5c03050 	strb	r3, [r0, #80]	; 0x50
    3628:	e1a02c23 	lsr	r2, r3, #24
    362c:	e7e71453 	ubfx	r1, r3, #8, #8
    3630:	e7e73853 	ubfx	r3, r3, #16, #8
    3634:	e5c01051 	strb	r1, [r0, #81]	; 0x51
    3638:	e5c03052 	strb	r3, [r0, #82]	; 0x52
    363c:	e5c02053 	strb	r2, [r0, #83]	; 0x53
    3640:	ee193f7c 	mrc	15, 0, r3, cr9, cr12, {3}
    3644:	e5c03054 	strb	r3, [r0, #84]	; 0x54
    3648:	e1a02c23 	lsr	r2, r3, #24
    364c:	e5c02057 	strb	r2, [r0, #87]	; 0x57
    3650:	e7e72453 	ubfx	r2, r3, #8, #8
    3654:	e7e73853 	ubfx	r3, r3, #16, #8
    3658:	e5c02055 	strb	r2, [r0, #85]	; 0x55
    365c:	e5c03056 	strb	r3, [r0, #86]	; 0x56
    3660:	ee193f9c 	mrc	15, 0, r3, cr9, cr12, {4}
    3664:	e5c03058 	strb	r3, [r0, #88]	; 0x58
    3668:	e1a02c23 	lsr	r2, r3, #24
    366c:	e5c0205b 	strb	r2, [r0, #91]	; 0x5b
    3670:	e7e72453 	ubfx	r2, r3, #8, #8
    3674:	e7e73853 	ubfx	r3, r3, #16, #8
    3678:	e5c02059 	strb	r2, [r0, #89]	; 0x59
    367c:	e5c0305a 	strb	r3, [r0, #90]	; 0x5a
    3680:	ee193fbc 	mrc	15, 0, r3, cr9, cr12, {5}
    3684:	e5c0305c 	strb	r3, [r0, #92]	; 0x5c
    3688:	e1a02c23 	lsr	r2, r3, #24
    368c:	e5c0205f 	strb	r2, [r0, #95]	; 0x5f
    3690:	e7e72453 	ubfx	r2, r3, #8, #8
    3694:	e7e73853 	ubfx	r3, r3, #16, #8
    3698:	e5c0205d 	strb	r2, [r0, #93]	; 0x5d
    369c:	e5c0305e 	strb	r3, [r0, #94]	; 0x5e
    36a0:	ee193f1d 	mrc	15, 0, r3, cr9, cr13, {0}
    36a4:	e5c03060 	strb	r3, [r0, #96]	; 0x60
    36a8:	e1a02c23 	lsr	r2, r3, #24
    36ac:	e5c02063 	strb	r2, [r0, #99]	; 0x63
    36b0:	e7e72453 	ubfx	r2, r3, #8, #8
    36b4:	e7e73853 	ubfx	r3, r3, #16, #8
    36b8:	e5c02061 	strb	r2, [r0, #97]	; 0x61
    36bc:	e5c03062 	strb	r3, [r0, #98]	; 0x62
    36c0:	ee193f3d 	mrc	15, 0, r3, cr9, cr13, {1}
    36c4:	e5c03064 	strb	r3, [r0, #100]	; 0x64
    36c8:	e1a02c23 	lsr	r2, r3, #24
    36cc:	e5c02067 	strb	r2, [r0, #103]	; 0x67
    36d0:	e7e72453 	ubfx	r2, r3, #8, #8
    36d4:	e7e73853 	ubfx	r3, r3, #16, #8
    36d8:	e5c02065 	strb	r2, [r0, #101]	; 0x65
    36dc:	e5c03066 	strb	r3, [r0, #102]	; 0x66
    36e0:	ee193f5d 	mrc	15, 0, r3, cr9, cr13, {2}
    36e4:	e5c03068 	strb	r3, [r0, #104]	; 0x68
    36e8:	e1a02c23 	lsr	r2, r3, #24
    36ec:	e5c0206b 	strb	r2, [r0, #107]	; 0x6b
    36f0:	e7e72453 	ubfx	r2, r3, #8, #8
    36f4:	e7e73853 	ubfx	r3, r3, #16, #8
    36f8:	e5c02069 	strb	r2, [r0, #105]	; 0x69
    36fc:	e5c0306a 	strb	r3, [r0, #106]	; 0x6a
    3700:	ee193f1e 	mrc	15, 0, r3, cr9, cr14, {0}
    3704:	e5c0306c 	strb	r3, [r0, #108]	; 0x6c
    3708:	e1a02c23 	lsr	r2, r3, #24
    370c:	e5c0206f 	strb	r2, [r0, #111]	; 0x6f
    3710:	e7e72453 	ubfx	r2, r3, #8, #8
    3714:	e7e73853 	ubfx	r3, r3, #16, #8
    3718:	e5c0206d 	strb	r2, [r0, #109]	; 0x6d
    371c:	e5c0306e 	strb	r3, [r0, #110]	; 0x6e
    3720:	ee193f3e 	mrc	15, 0, r3, cr9, cr14, {1}
    3724:	e5c03070 	strb	r3, [r0, #112]	; 0x70
    3728:	e1a02c23 	lsr	r2, r3, #24
    372c:	e5c02073 	strb	r2, [r0, #115]	; 0x73
    3730:	e7e72453 	ubfx	r2, r3, #8, #8
    3734:	e7e73853 	ubfx	r3, r3, #16, #8
    3738:	e5c02071 	strb	r2, [r0, #113]	; 0x71
    373c:	e5c03072 	strb	r3, [r0, #114]	; 0x72
    3740:	ee193f5e 	mrc	15, 0, r3, cr9, cr14, {2}
    3744:	e5c03074 	strb	r3, [r0, #116]	; 0x74
    3748:	e1a02c23 	lsr	r2, r3, #24
    374c:	e7e71453 	ubfx	r1, r3, #8, #8
    3750:	e7e73853 	ubfx	r3, r3, #16, #8
    3754:	e5c01075 	strb	r1, [r0, #117]	; 0x75
    3758:	e5c02077 	strb	r2, [r0, #119]	; 0x77
    375c:	e5c03076 	strb	r3, [r0, #118]	; 0x76
    3760:	ee393f10 	mrc	15, 1, r3, cr9, cr0, {0}
    3764:	e5c03078 	strb	r3, [r0, #120]	; 0x78
    3768:	e1a02c23 	lsr	r2, r3, #24
    376c:	e5c0207b 	strb	r2, [r0, #123]	; 0x7b
    3770:	e7e72453 	ubfx	r2, r3, #8, #8
    3774:	e7e73853 	ubfx	r3, r3, #16, #8
    3778:	e5c02079 	strb	r2, [r0, #121]	; 0x79
    377c:	e5c0307a 	strb	r3, [r0, #122]	; 0x7a
    3780:	ee393f50 	mrc	15, 1, r3, cr9, cr0, {2}
    3784:	e5c0307c 	strb	r3, [r0, #124]	; 0x7c
    3788:	e1a02c23 	lsr	r2, r3, #24
    378c:	e5c0207f 	strb	r2, [r0, #127]	; 0x7f
    3790:	e7e72453 	ubfx	r2, r3, #8, #8
    3794:	e7e73853 	ubfx	r3, r3, #16, #8
    3798:	e5c0207d 	strb	r2, [r0, #125]	; 0x7d
    379c:	e5c0307e 	strb	r3, [r0, #126]	; 0x7e
    37a0:	ee1a3f10 	mrc	15, 0, r3, cr10, cr0, {0}
    37a4:	e5c03080 	strb	r3, [r0, #128]	; 0x80
    37a8:	e1a02c23 	lsr	r2, r3, #24
    37ac:	e5c02083 	strb	r2, [r0, #131]	; 0x83
    37b0:	e7e72453 	ubfx	r2, r3, #8, #8
    37b4:	e7e73853 	ubfx	r3, r3, #16, #8
    37b8:	e5c02081 	strb	r2, [r0, #129]	; 0x81
    37bc:	e5c03082 	strb	r3, [r0, #130]	; 0x82
    37c0:	ee1a3f30 	mrc	15, 0, r3, cr10, cr0, {1}
    37c4:	e5c03084 	strb	r3, [r0, #132]	; 0x84
    37c8:	e1a02c23 	lsr	r2, r3, #24
    37cc:	e5c02087 	strb	r2, [r0, #135]	; 0x87
    37d0:	e7e72453 	ubfx	r2, r3, #8, #8
    37d4:	e7e73853 	ubfx	r3, r3, #16, #8
    37d8:	e5c02085 	strb	r2, [r0, #133]	; 0x85
    37dc:	e5c03086 	strb	r3, [r0, #134]	; 0x86
    37e0:	ee1a3f12 	mrc	15, 0, r3, cr10, cr2, {0}
    37e4:	e5c03088 	strb	r3, [r0, #136]	; 0x88
    37e8:	e1a02c23 	lsr	r2, r3, #24
    37ec:	e5c0208b 	strb	r2, [r0, #139]	; 0x8b
    37f0:	e7e72453 	ubfx	r2, r3, #8, #8
    37f4:	e7e73853 	ubfx	r3, r3, #16, #8
    37f8:	e5c02089 	strb	r2, [r0, #137]	; 0x89
    37fc:	e5c0308a 	strb	r3, [r0, #138]	; 0x8a
    3800:	ee1a3f32 	mrc	15, 0, r3, cr10, cr2, {1}
    3804:	e5c0308c 	strb	r3, [r0, #140]	; 0x8c
    3808:	e1a02c23 	lsr	r2, r3, #24
    380c:	e5c0208f 	strb	r2, [r0, #143]	; 0x8f
    3810:	e7e72453 	ubfx	r2, r3, #8, #8
    3814:	e7e73853 	ubfx	r3, r3, #16, #8
    3818:	e5c0208d 	strb	r2, [r0, #141]	; 0x8d
    381c:	e5c0308e 	strb	r3, [r0, #142]	; 0x8e
    3820:	ee1b3f11 	mrc	15, 0, r3, cr11, cr1, {0}
    3824:	e5c03090 	strb	r3, [r0, #144]	; 0x90
    3828:	e1a02c23 	lsr	r2, r3, #24
    382c:	e5c02093 	strb	r2, [r0, #147]	; 0x93
    3830:	e7e72453 	ubfx	r2, r3, #8, #8
    3834:	e7e73853 	ubfx	r3, r3, #16, #8
    3838:	e5c02091 	strb	r2, [r0, #145]	; 0x91
    383c:	e5c03092 	strb	r3, [r0, #146]	; 0x92
    3840:	ee1b3f12 	mrc	15, 0, r3, cr11, cr2, {0}
    3844:	e5c03094 	strb	r3, [r0, #148]	; 0x94
    3848:	e1a02c23 	lsr	r2, r3, #24
    384c:	e7e71453 	ubfx	r1, r3, #8, #8
    3850:	e7e73853 	ubfx	r3, r3, #16, #8
    3854:	e5c01095 	strb	r1, [r0, #149]	; 0x95
    3858:	e5c03096 	strb	r3, [r0, #150]	; 0x96
    385c:	e5c02097 	strb	r2, [r0, #151]	; 0x97
    3860:	ee1b3f14 	mrc	15, 0, r3, cr11, cr4, {0}
    3864:	e5c03098 	strb	r3, [r0, #152]	; 0x98
    3868:	e1a02c23 	lsr	r2, r3, #24
    386c:	e5c0209b 	strb	r2, [r0, #155]	; 0x9b
    3870:	e7e72453 	ubfx	r2, r3, #8, #8
    3874:	e7e73853 	ubfx	r3, r3, #16, #8
    3878:	e5c02099 	strb	r2, [r0, #153]	; 0x99
    387c:	e5c0309a 	strb	r3, [r0, #154]	; 0x9a
    3880:	ee1b3f15 	mrc	15, 0, r3, cr11, cr5, {0}
    3884:	e5c0309c 	strb	r3, [r0, #156]	; 0x9c
    3888:	e1a02c23 	lsr	r2, r3, #24
    388c:	e5c0209f 	strb	r2, [r0, #159]	; 0x9f
    3890:	e7e72453 	ubfx	r2, r3, #8, #8
    3894:	e7e73853 	ubfx	r3, r3, #16, #8
    3898:	e5c0209d 	strb	r2, [r0, #157]	; 0x9d
    389c:	e5c0309e 	strb	r3, [r0, #158]	; 0x9e
    38a0:	ee1b3f17 	mrc	15, 0, r3, cr11, cr7, {0}
    38a4:	e5c030a0 	strb	r3, [r0, #160]	; 0xa0
    38a8:	e1a02c23 	lsr	r2, r3, #24
    38ac:	e5c020a3 	strb	r2, [r0, #163]	; 0xa3
    38b0:	e7e72453 	ubfx	r2, r3, #8, #8
    38b4:	e7e73853 	ubfx	r3, r3, #16, #8
    38b8:	e5c020a1 	strb	r2, [r0, #161]	; 0xa1
    38bc:	e5c030a2 	strb	r3, [r0, #162]	; 0xa2
    38c0:	ee1b3f1f 	mrc	15, 0, r3, cr11, cr15, {0}
    38c4:	e5c030a4 	strb	r3, [r0, #164]	; 0xa4
    38c8:	e1a02c23 	lsr	r2, r3, #24
    38cc:	e5c020a7 	strb	r2, [r0, #167]	; 0xa7
    38d0:	e7e72453 	ubfx	r2, r3, #8, #8
    38d4:	e7e73853 	ubfx	r3, r3, #16, #8
    38d8:	e5c020a5 	strb	r2, [r0, #165]	; 0xa5
    38dc:	e5c030a6 	strb	r3, [r0, #166]	; 0xa6
    38e0:	ee1c3f10 	mrc	15, 0, r3, cr12, cr0, {0}
    38e4:	e5c030a8 	strb	r3, [r0, #168]	; 0xa8
    38e8:	e1a02c23 	lsr	r2, r3, #24
    38ec:	e5c020ab 	strb	r2, [r0, #171]	; 0xab
    38f0:	e7e72453 	ubfx	r2, r3, #8, #8
    38f4:	e7e73853 	ubfx	r3, r3, #16, #8
    38f8:	e5c020a9 	strb	r2, [r0, #169]	; 0xa9
    38fc:	e5c030aa 	strb	r3, [r0, #170]	; 0xaa
    3900:	ee1c3f30 	mrc	15, 0, r3, cr12, cr0, {1}
    3904:	e5c030ac 	strb	r3, [r0, #172]	; 0xac
    3908:	e1a02c23 	lsr	r2, r3, #24
    390c:	e5c020af 	strb	r2, [r0, #175]	; 0xaf
    3910:	e7e72453 	ubfx	r2, r3, #8, #8
    3914:	e7e73853 	ubfx	r3, r3, #16, #8
    3918:	e5c020ad 	strb	r2, [r0, #173]	; 0xad
    391c:	e5c030ae 	strb	r3, [r0, #174]	; 0xae
    3920:	ee1d3f10 	mrc	15, 0, r3, cr13, cr0, {0}
    3924:	e5c030b0 	strb	r3, [r0, #176]	; 0xb0
    3928:	e1a02c23 	lsr	r2, r3, #24
    392c:	e5c020b3 	strb	r2, [r0, #179]	; 0xb3
    3930:	e7e72453 	ubfx	r2, r3, #8, #8
    3934:	e7e73853 	ubfx	r3, r3, #16, #8
    3938:	e5c020b1 	strb	r2, [r0, #177]	; 0xb1
    393c:	e5c030b2 	strb	r3, [r0, #178]	; 0xb2
    3940:	ee1d3f30 	mrc	15, 0, r3, cr13, cr0, {1}
    3944:	e5c030b4 	strb	r3, [r0, #180]	; 0xb4
    3948:	e1a02c23 	lsr	r2, r3, #24
    394c:	e5c020b7 	strb	r2, [r0, #183]	; 0xb7
    3950:	e7e72453 	ubfx	r2, r3, #8, #8
    3954:	e7e73853 	ubfx	r3, r3, #16, #8
    3958:	e5c020b5 	strb	r2, [r0, #181]	; 0xb5
    395c:	e5c030b6 	strb	r3, [r0, #182]	; 0xb6
    3960:	ee1d3f50 	mrc	15, 0, r3, cr13, cr0, {2}
    3964:	e5c030b8 	strb	r3, [r0, #184]	; 0xb8
    3968:	e1a02c23 	lsr	r2, r3, #24
    396c:	e7e71453 	ubfx	r1, r3, #8, #8
    3970:	e7e73853 	ubfx	r3, r3, #16, #8
    3974:	e5c010b9 	strb	r1, [r0, #185]	; 0xb9
    3978:	e5c020bb 	strb	r2, [r0, #187]	; 0xbb
    397c:	e5c030ba 	strb	r3, [r0, #186]	; 0xba
    3980:	ee1d3f70 	mrc	15, 0, r3, cr13, cr0, {3}
    3984:	e1a02c23 	lsr	r2, r3, #24
    3988:	e5c030bc 	strb	r3, [r0, #188]	; 0xbc
    398c:	e5c020bf 	strb	r2, [r0, #191]	; 0xbf
    3990:	e7e72453 	ubfx	r2, r3, #8, #8
    3994:	e7e73853 	ubfx	r3, r3, #16, #8
    3998:	e5c020bd 	strb	r2, [r0, #189]	; 0xbd
    399c:	e5c030be 	strb	r3, [r0, #190]	; 0xbe
    39a0:	ee1d3f90 	mrc	15, 0, r3, cr13, cr0, {4}
    39a4:	e1a02c23 	lsr	r2, r3, #24
    39a8:	e5c030c0 	strb	r3, [r0, #192]	; 0xc0
    39ac:	e5c020c3 	strb	r2, [r0, #195]	; 0xc3
    39b0:	e7e72453 	ubfx	r2, r3, #8, #8
    39b4:	e7e73853 	ubfx	r3, r3, #16, #8
    39b8:	e5c020c1 	strb	r2, [r0, #193]	; 0xc1
    39bc:	e5c030c2 	strb	r3, [r0, #194]	; 0xc2
    39c0:	e12fff1e 	bx	lr

000039c4 <__restore_processor_state>:
    39c4:	e5d0c001 	ldrb	ip, [r0, #1]
    39c8:	e5d03000 	ldrb	r3, [r0]
    39cc:	e5d01002 	ldrb	r1, [r0, #2]
    39d0:	e5d02003 	ldrb	r2, [r0, #3]
    39d4:	e183340c 	orr	r3, r3, ip, lsl #8
    39d8:	e1833801 	orr	r3, r3, r1, lsl #16
    39dc:	e1833c02 	orr	r3, r3, r2, lsl #24
    39e0:	ee403f10 	mcr	15, 2, r3, cr0, cr0, {0}
    39e4:	e5d0c00d 	ldrb	ip, [r0, #13]
    39e8:	e5d0300c 	ldrb	r3, [r0, #12]
    39ec:	e5d0100e 	ldrb	r1, [r0, #14]
    39f0:	e5d0200f 	ldrb	r2, [r0, #15]
    39f4:	e183340c 	orr	r3, r3, ip, lsl #8
    39f8:	e1833801 	orr	r3, r3, r1, lsl #16
    39fc:	e1833c02 	orr	r3, r3, r2, lsl #24
    3a00:	ee013f50 	mcr	15, 0, r3, cr1, cr0, {2}
    3a04:	e5d0c01d 	ldrb	ip, [r0, #29]
    3a08:	e5d0301c 	ldrb	r3, [r0, #28]
    3a0c:	e5d0101e 	ldrb	r1, [r0, #30]
    3a10:	e5d0201f 	ldrb	r2, [r0, #31]
    3a14:	e183340c 	orr	r3, r3, ip, lsl #8
    3a18:	e1833801 	orr	r3, r3, r1, lsl #16
    3a1c:	e1833c02 	orr	r3, r3, r2, lsl #24
    3a20:	ee023f10 	mcr	15, 0, r3, cr2, cr0, {0}
    3a24:	f57ff04f 	dsb	sy
    3a28:	f57ff06f 	isb	sy
    3a2c:	e5d0c021 	ldrb	ip, [r0, #33]	; 0x21
    3a30:	e5d03020 	ldrb	r3, [r0, #32]
    3a34:	e5d01022 	ldrb	r1, [r0, #34]	; 0x22
    3a38:	e5d02023 	ldrb	r2, [r0, #35]	; 0x23
    3a3c:	e183340c 	orr	r3, r3, ip, lsl #8
    3a40:	e1833801 	orr	r3, r3, r1, lsl #16
    3a44:	e1833c02 	orr	r3, r3, r2, lsl #24
    3a48:	ee023f30 	mcr	15, 0, r3, cr2, cr0, {1}
    3a4c:	f57ff04f 	dsb	sy
    3a50:	f57ff06f 	isb	sy
    3a54:	e5d0c025 	ldrb	ip, [r0, #37]	; 0x25
    3a58:	e5d03024 	ldrb	r3, [r0, #36]	; 0x24
    3a5c:	e5d01026 	ldrb	r1, [r0, #38]	; 0x26
    3a60:	e5d02027 	ldrb	r2, [r0, #39]	; 0x27
    3a64:	e183340c 	orr	r3, r3, ip, lsl #8
    3a68:	e1833801 	orr	r3, r3, r1, lsl #16
    3a6c:	e1833c02 	orr	r3, r3, r2, lsl #24
    3a70:	ee023f50 	mcr	15, 0, r3, cr2, cr0, {2}
    3a74:	f57ff04f 	dsb	sy
    3a78:	f57ff06f 	isb	sy
    3a7c:	e5d0c029 	ldrb	ip, [r0, #41]	; 0x29
    3a80:	e5d03028 	ldrb	r3, [r0, #40]	; 0x28
    3a84:	e5d0102a 	ldrb	r1, [r0, #42]	; 0x2a
    3a88:	e5d0202b 	ldrb	r2, [r0, #43]	; 0x2b
    3a8c:	e183340c 	orr	r3, r3, ip, lsl #8
    3a90:	e1833801 	orr	r3, r3, r1, lsl #16
    3a94:	e1833c02 	orr	r3, r3, r2, lsl #24
    3a98:	ee033f10 	mcr	15, 0, r3, cr3, cr0, {0}
    3a9c:	e5d0c045 	ldrb	ip, [r0, #69]	; 0x45
    3aa0:	e5d03044 	ldrb	r3, [r0, #68]	; 0x44
    3aa4:	e5d01046 	ldrb	r1, [r0, #70]	; 0x46
    3aa8:	e5d02047 	ldrb	r2, [r0, #71]	; 0x47
    3aac:	e183340c 	orr	r3, r3, ip, lsl #8
    3ab0:	e1833801 	orr	r3, r3, r1, lsl #16
    3ab4:	e1833c02 	orr	r3, r3, r2, lsl #24
    3ab8:	ee073f14 	mcr	15, 0, r3, cr7, cr4, {0}
    3abc:	e5d0c06d 	ldrb	ip, [r0, #109]	; 0x6d
    3ac0:	e5d0306c 	ldrb	r3, [r0, #108]	; 0x6c
    3ac4:	e5d0106e 	ldrb	r1, [r0, #110]	; 0x6e
    3ac8:	e5d0206f 	ldrb	r2, [r0, #111]	; 0x6f
    3acc:	e183340c 	orr	r3, r3, ip, lsl #8
    3ad0:	e1833801 	orr	r3, r3, r1, lsl #16
    3ad4:	e1833c02 	orr	r3, r3, r2, lsl #24
    3ad8:	ee093f1e 	mcr	15, 0, r3, cr9, cr14, {0}
    3adc:	e5d0c071 	ldrb	ip, [r0, #113]	; 0x71
    3ae0:	e5d03070 	ldrb	r3, [r0, #112]	; 0x70
    3ae4:	e5d01072 	ldrb	r1, [r0, #114]	; 0x72
    3ae8:	e5d02073 	ldrb	r2, [r0, #115]	; 0x73
    3aec:	e183340c 	orr	r3, r3, ip, lsl #8
    3af0:	e1833801 	orr	r3, r3, r1, lsl #16
    3af4:	e1833c02 	orr	r3, r3, r2, lsl #24
    3af8:	ee093f3e 	mcr	15, 0, r3, cr9, cr14, {1}
    3afc:	e5d0c075 	ldrb	ip, [r0, #117]	; 0x75
    3b00:	e5d03074 	ldrb	r3, [r0, #116]	; 0x74
    3b04:	e5d01076 	ldrb	r1, [r0, #118]	; 0x76
    3b08:	e5d02077 	ldrb	r2, [r0, #119]	; 0x77
    3b0c:	e183340c 	orr	r3, r3, ip, lsl #8
    3b10:	e1833801 	orr	r3, r3, r1, lsl #16
    3b14:	e1833c02 	orr	r3, r3, r2, lsl #24
    3b18:	ee093f5e 	mcr	15, 0, r3, cr9, cr14, {2}
    3b1c:	e5d0c079 	ldrb	ip, [r0, #121]	; 0x79
    3b20:	e5d03078 	ldrb	r3, [r0, #120]	; 0x78
    3b24:	e5d0107a 	ldrb	r1, [r0, #122]	; 0x7a
    3b28:	e5d0207b 	ldrb	r2, [r0, #123]	; 0x7b
    3b2c:	e183340c 	orr	r3, r3, ip, lsl #8
    3b30:	e1833801 	orr	r3, r3, r1, lsl #16
    3b34:	e1833c02 	orr	r3, r3, r2, lsl #24
    3b38:	ee293f10 	mcr	15, 1, r3, cr9, cr0, {0}
    3b3c:	e5d0c07d 	ldrb	ip, [r0, #125]	; 0x7d
    3b40:	e5d0307c 	ldrb	r3, [r0, #124]	; 0x7c
    3b44:	e5d0107e 	ldrb	r1, [r0, #126]	; 0x7e
    3b48:	e5d0207f 	ldrb	r2, [r0, #127]	; 0x7f
    3b4c:	e183340c 	orr	r3, r3, ip, lsl #8
    3b50:	e1833801 	orr	r3, r3, r1, lsl #16
    3b54:	e1833c02 	orr	r3, r3, r2, lsl #24
    3b58:	ee293f50 	mcr	15, 1, r3, cr9, cr0, {2}
    3b5c:	e5d0c089 	ldrb	ip, [r0, #137]	; 0x89
    3b60:	e5d03088 	ldrb	r3, [r0, #136]	; 0x88
    3b64:	e5d0108a 	ldrb	r1, [r0, #138]	; 0x8a
    3b68:	e5d0208b 	ldrb	r2, [r0, #139]	; 0x8b
    3b6c:	e183340c 	orr	r3, r3, ip, lsl #8
    3b70:	e1833801 	orr	r3, r3, r1, lsl #16
    3b74:	e1833c02 	orr	r3, r3, r2, lsl #24
    3b78:	ee0a3f12 	mcr	15, 0, r3, cr10, cr2, {0}
    3b7c:	e5d0c08d 	ldrb	ip, [r0, #141]	; 0x8d
    3b80:	e5d0308c 	ldrb	r3, [r0, #140]	; 0x8c
    3b84:	e5d0108e 	ldrb	r1, [r0, #142]	; 0x8e
    3b88:	e5d0208f 	ldrb	r2, [r0, #143]	; 0x8f
    3b8c:	e183340c 	orr	r3, r3, ip, lsl #8
    3b90:	e1833801 	orr	r3, r3, r1, lsl #16
    3b94:	e1833c02 	orr	r3, r3, r2, lsl #24
    3b98:	ee0a3f32 	mcr	15, 0, r3, cr10, cr2, {1}
    3b9c:	e5d0c091 	ldrb	ip, [r0, #145]	; 0x91
    3ba0:	e5d03090 	ldrb	r3, [r0, #144]	; 0x90
    3ba4:	e5d01092 	ldrb	r1, [r0, #146]	; 0x92
    3ba8:	e5d02093 	ldrb	r2, [r0, #147]	; 0x93
    3bac:	e183340c 	orr	r3, r3, ip, lsl #8
    3bb0:	e1833801 	orr	r3, r3, r1, lsl #16
    3bb4:	e1833c02 	orr	r3, r3, r2, lsl #24
    3bb8:	ee0b3f11 	mcr	15, 0, r3, cr11, cr1, {0}
    3bbc:	e5d0c095 	ldrb	ip, [r0, #149]	; 0x95
    3bc0:	e5d03094 	ldrb	r3, [r0, #148]	; 0x94
    3bc4:	e5d01096 	ldrb	r1, [r0, #150]	; 0x96
    3bc8:	e5d02097 	ldrb	r2, [r0, #151]	; 0x97
    3bcc:	e183340c 	orr	r3, r3, ip, lsl #8
    3bd0:	e1833801 	orr	r3, r3, r1, lsl #16
    3bd4:	e1833c02 	orr	r3, r3, r2, lsl #24
    3bd8:	ee0b3f12 	mcr	15, 0, r3, cr11, cr2, {0}
    3bdc:	e5d0c099 	ldrb	ip, [r0, #153]	; 0x99
    3be0:	e5d03098 	ldrb	r3, [r0, #152]	; 0x98
    3be4:	e5d0109a 	ldrb	r1, [r0, #154]	; 0x9a
    3be8:	e5d0209b 	ldrb	r2, [r0, #155]	; 0x9b
    3bec:	e183340c 	orr	r3, r3, ip, lsl #8
    3bf0:	e1833801 	orr	r3, r3, r1, lsl #16
    3bf4:	e1833c02 	orr	r3, r3, r2, lsl #24
    3bf8:	ee0b3f14 	mcr	15, 0, r3, cr11, cr4, {0}
    3bfc:	e5d0c09d 	ldrb	ip, [r0, #157]	; 0x9d
    3c00:	e5d0309c 	ldrb	r3, [r0, #156]	; 0x9c
    3c04:	e5d0109e 	ldrb	r1, [r0, #158]	; 0x9e
    3c08:	e5d0209f 	ldrb	r2, [r0, #159]	; 0x9f
    3c0c:	e183340c 	orr	r3, r3, ip, lsl #8
    3c10:	e1833801 	orr	r3, r3, r1, lsl #16
    3c14:	e1833c02 	orr	r3, r3, r2, lsl #24
    3c18:	ee0b3f15 	mcr	15, 0, r3, cr11, cr5, {0}
    3c1c:	e5d0c0a1 	ldrb	ip, [r0, #161]	; 0xa1
    3c20:	e5d030a0 	ldrb	r3, [r0, #160]	; 0xa0
    3c24:	e5d010a2 	ldrb	r1, [r0, #162]	; 0xa2
    3c28:	e5d020a3 	ldrb	r2, [r0, #163]	; 0xa3
    3c2c:	e183340c 	orr	r3, r3, ip, lsl #8
    3c30:	e1833801 	orr	r3, r3, r1, lsl #16
    3c34:	e1833c02 	orr	r3, r3, r2, lsl #24
    3c38:	ee0b3f17 	mcr	15, 0, r3, cr11, cr7, {0}
    3c3c:	e5d0c0a5 	ldrb	ip, [r0, #165]	; 0xa5
    3c40:	e5d030a4 	ldrb	r3, [r0, #164]	; 0xa4
    3c44:	e5d010a6 	ldrb	r1, [r0, #166]	; 0xa6
    3c48:	e5d020a7 	ldrb	r2, [r0, #167]	; 0xa7
    3c4c:	e183340c 	orr	r3, r3, ip, lsl #8
    3c50:	e1833801 	orr	r3, r3, r1, lsl #16
    3c54:	e1833c02 	orr	r3, r3, r2, lsl #24
    3c58:	ee0b3f1f 	mcr	15, 0, r3, cr11, cr15, {0}
    3c5c:	e5d0c0a9 	ldrb	ip, [r0, #169]	; 0xa9
    3c60:	e5d030a8 	ldrb	r3, [r0, #168]	; 0xa8
    3c64:	e5d010aa 	ldrb	r1, [r0, #170]	; 0xaa
    3c68:	e5d020ab 	ldrb	r2, [r0, #171]	; 0xab
    3c6c:	e183340c 	orr	r3, r3, ip, lsl #8
    3c70:	e1833801 	orr	r3, r3, r1, lsl #16
    3c74:	e1833c02 	orr	r3, r3, r2, lsl #24
    3c78:	ee0c3f10 	mcr	15, 0, r3, cr12, cr0, {0}
    3c7c:	e5d0c0ad 	ldrb	ip, [r0, #173]	; 0xad
    3c80:	e5d030ac 	ldrb	r3, [r0, #172]	; 0xac
    3c84:	e5d010ae 	ldrb	r1, [r0, #174]	; 0xae
    3c88:	e5d020af 	ldrb	r2, [r0, #175]	; 0xaf
    3c8c:	e183340c 	orr	r3, r3, ip, lsl #8
    3c90:	e1833801 	orr	r3, r3, r1, lsl #16
    3c94:	e1833c02 	orr	r3, r3, r2, lsl #24
    3c98:	ee0c3f30 	mcr	15, 0, r3, cr12, cr0, {1}
    3c9c:	e5d0c0b1 	ldrb	ip, [r0, #177]	; 0xb1
    3ca0:	e5d030b0 	ldrb	r3, [r0, #176]	; 0xb0
    3ca4:	e5d010b2 	ldrb	r1, [r0, #178]	; 0xb2
    3ca8:	e5d020b3 	ldrb	r2, [r0, #179]	; 0xb3
    3cac:	e183340c 	orr	r3, r3, ip, lsl #8
    3cb0:	e1833801 	orr	r3, r3, r1, lsl #16
    3cb4:	e1833c02 	orr	r3, r3, r2, lsl #24
    3cb8:	ee0d3f10 	mcr	15, 0, r3, cr13, cr0, {0}
    3cbc:	e5d0c0b5 	ldrb	ip, [r0, #181]	; 0xb5
    3cc0:	e5d030b4 	ldrb	r3, [r0, #180]	; 0xb4
    3cc4:	e5d010b6 	ldrb	r1, [r0, #182]	; 0xb6
    3cc8:	e5d020b7 	ldrb	r2, [r0, #183]	; 0xb7
    3ccc:	e183340c 	orr	r3, r3, ip, lsl #8
    3cd0:	e1833801 	orr	r3, r3, r1, lsl #16
    3cd4:	e1833c02 	orr	r3, r3, r2, lsl #24
    3cd8:	ee0d3f30 	mcr	15, 0, r3, cr13, cr0, {1}
    3cdc:	e5d0c0b9 	ldrb	ip, [r0, #185]	; 0xb9
    3ce0:	e5d030b8 	ldrb	r3, [r0, #184]	; 0xb8
    3ce4:	e5d010ba 	ldrb	r1, [r0, #186]	; 0xba
    3ce8:	e5d020bb 	ldrb	r2, [r0, #187]	; 0xbb
    3cec:	e183340c 	orr	r3, r3, ip, lsl #8
    3cf0:	e1833801 	orr	r3, r3, r1, lsl #16
    3cf4:	e1833c02 	orr	r3, r3, r2, lsl #24
    3cf8:	ee0d3f50 	mcr	15, 0, r3, cr13, cr0, {2}
    3cfc:	e5d0c0bd 	ldrb	ip, [r0, #189]	; 0xbd
    3d00:	e5d030bc 	ldrb	r3, [r0, #188]	; 0xbc
    3d04:	e5d010be 	ldrb	r1, [r0, #190]	; 0xbe
    3d08:	e5d020bf 	ldrb	r2, [r0, #191]	; 0xbf
    3d0c:	e183340c 	orr	r3, r3, ip, lsl #8
    3d10:	e1833801 	orr	r3, r3, r1, lsl #16
    3d14:	e1833c02 	orr	r3, r3, r2, lsl #24
    3d18:	ee0d3f70 	mcr	15, 0, r3, cr13, cr0, {3}
    3d1c:	e5d0c0c1 	ldrb	ip, [r0, #193]	; 0xc1
    3d20:	e5d030c0 	ldrb	r3, [r0, #192]	; 0xc0
    3d24:	e5d010c2 	ldrb	r1, [r0, #194]	; 0xc2
    3d28:	e5d020c3 	ldrb	r2, [r0, #195]	; 0xc3
    3d2c:	e183340c 	orr	r3, r3, ip, lsl #8
    3d30:	e1833801 	orr	r3, r3, r1, lsl #16
    3d34:	e1833c02 	orr	r3, r3, r2, lsl #24
    3d38:	ee0d3f90 	mcr	15, 0, r3, cr13, cr0, {4}
    3d3c:	f57ff04f 	dsb	sy
    3d40:	f57ff06f 	isb	sy
    3d44:	e12fff1e 	bx	lr

00003d48 <mem_restore_processor_state>:
    3d48:	e12fff1e 	bx	lr

00003d4c <disable_cache_invalidate>:
    3d4c:	e59f300c 	ldr	r3, [pc, #12]	; 3d60 <disable_cache_invalidate+0x14>
    3d50:	e5932d3c 	ldr	r2, [r3, #3388]	; 0xd3c
    3d54:	e3822003 	orr	r2, r2, #3
    3d58:	e5832d3c 	str	r2, [r3, #3388]	; 0xd3c
    3d5c:	e12fff1e 	bx	lr
    3d60:	f1c20000 	undefined instruction 0xf1c20000

00003d64 <set_copro_default>:
    3d64:	e3a03002 	mov	r3, #2
    3d68:	ee403f10 	mcr	15, 2, r3, cr0, cr0, {0}
    3d6c:	e59f30b8 	ldr	r3, [pc, #184]	; 3e2c <set_copro_default+0xc8>
    3d70:	ee013f10 	mcr	15, 0, r3, cr1, cr0, {0}
    3d74:	e3a03002 	mov	r3, #2
    3d78:	ee013f30 	mcr	15, 0, r3, cr1, cr0, {1}
    3d7c:	e3a03000 	mov	r3, #0
    3d80:	ee013f50 	mcr	15, 0, r3, cr1, cr0, {2}
    3d84:	ee013f11 	mcr	15, 0, r3, cr1, cr1, {0}
    3d88:	ee013f31 	mcr	15, 0, r3, cr1, cr1, {1}
    3d8c:	ee013f51 	mcr	15, 0, r3, cr1, cr1, {2}
    3d90:	ee023f10 	mcr	15, 0, r3, cr2, cr0, {0}
    3d94:	ee023f30 	mcr	15, 0, r3, cr2, cr0, {1}
    3d98:	ee023f50 	mcr	15, 0, r3, cr2, cr0, {2}
    3d9c:	ee033f10 	mcr	15, 0, r3, cr3, cr0, {0}
    3da0:	ee053f10 	mcr	15, 0, r3, cr5, cr0, {0}
    3da4:	ee053f30 	mcr	15, 0, r3, cr5, cr0, {1}
    3da8:	ee053f11 	mcr	15, 0, r3, cr5, cr1, {0}
    3dac:	ee053f31 	mcr	15, 0, r3, cr5, cr1, {1}
    3db0:	ee063f10 	mcr	15, 0, r3, cr6, cr0, {0}
    3db4:	ee063f50 	mcr	15, 0, r3, cr6, cr0, {2}
    3db8:	ee073f14 	mcr	15, 0, r3, cr7, cr4, {0}
    3dbc:	ee093f1e 	mcr	15, 0, r3, cr9, cr14, {0}
    3dc0:	ee093f3e 	mcr	15, 0, r3, cr9, cr14, {1}
    3dc4:	ee093f5e 	mcr	15, 0, r3, cr9, cr14, {2}
    3dc8:	ee293f10 	mcr	15, 1, r3, cr9, cr0, {0}
    3dcc:	e2833042 	add	r3, r3, #66	; 0x42
    3dd0:	ee293f50 	mcr	15, 1, r3, cr9, cr0, {2}
    3dd4:	e3a03000 	mov	r3, #0
    3dd8:	ee0a3f10 	mcr	15, 0, r3, cr10, cr0, {0}
    3ddc:	ee0a3f30 	mcr	15, 0, r3, cr10, cr0, {1}
    3de0:	e59f3048 	ldr	r3, [pc, #72]	; 3e30 <set_copro_default+0xcc>
    3de4:	ee0a3f12 	mcr	15, 0, r3, cr10, cr2, {0}
    3de8:	e59f3044 	ldr	r3, [pc, #68]	; 3e34 <set_copro_default+0xd0>
    3dec:	ee0a3f32 	mcr	15, 0, r3, cr10, cr2, {1}
    3df0:	e3a03000 	mov	r3, #0
    3df4:	ee0b3f11 	mcr	15, 0, r3, cr11, cr1, {0}
    3df8:	ee0b3f12 	mcr	15, 0, r3, cr11, cr2, {0}
    3dfc:	ee0b3f14 	mcr	15, 0, r3, cr11, cr4, {0}
    3e00:	ee0b3f15 	mcr	15, 0, r3, cr11, cr5, {0}
    3e04:	ee0b3f17 	mcr	15, 0, r3, cr11, cr7, {0}
    3e08:	ee0b3f1f 	mcr	15, 0, r3, cr11, cr15, {0}
    3e0c:	ee0c3f10 	mcr	15, 0, r3, cr12, cr0, {0}
    3e10:	ee0c3f30 	mcr	15, 0, r3, cr12, cr0, {1}
    3e14:	ee0d3f10 	mcr	15, 0, r3, cr13, cr0, {0}
    3e18:	ee0d3f30 	mcr	15, 0, r3, cr13, cr0, {1}
    3e1c:	ee0d3f50 	mcr	15, 0, r3, cr13, cr0, {2}
    3e20:	ee0d3f70 	mcr	15, 0, r3, cr13, cr0, {3}
    3e24:	ee0d3f90 	mcr	15, 0, r3, cr13, cr0, {4}
    3e28:	e12fff1e 	bx	lr
    3e2c:	00c52078 	sbceq	r2, r5, r8, ror r0
    3e30:	00098aa4 	andeq	r8, r9, r4, lsr #21
    3e34:	44e048e0 	strbtmi	r4, [r0], #2272	; 0x8e0

Disassembly of section .rodata:

00003e38 <TWI_REG_BASE>:
    3e38:	f1c2ac00 	undefined instruction 0xf1c2ac00
    3e3c:	f1c2b000 	undefined instruction 0xf1c2b000
    3e40:	f1c2b400 	undefined instruction 0xf1c2b400

00003e44 <axp20_ldo4_data>:
    3e44:	000004e2 	andeq	r0, r0, r2, ror #9
    3e48:	00000514 	andeq	r0, r0, r4, lsl r5
    3e4c:	00000578 	andeq	r0, r0, r8, ror r5
    3e50:	000005dc 	ldrdeq	r0, [r0], -ip
    3e54:	00000640 	andeq	r0, r0, r0, asr #12
    3e58:	000006a4 	andeq	r0, r0, r4, lsr #13
    3e5c:	00000708 	andeq	r0, r0, r8, lsl #14
    3e60:	0000076c 	andeq	r0, r0, ip, ror #14
    3e64:	000007d0 	ldrdeq	r0, [r0], -r0
    3e68:	000009c4 	andeq	r0, r0, r4, asr #19
    3e6c:	00000a8c 	andeq	r0, r0, ip, lsl #21
    3e70:	00000af0 	strdeq	r0, [r0], -r0
    3e74:	00000bb8 	undefined instruction 0x00000bb8
    3e78:	00000c1c 	andeq	r0, r0, ip, lsl ip
    3e7c:	00000c80 	andeq	r0, r0, r0, lsl #25
    3e80:	00000ce4 	andeq	r0, r0, r4, ror #25

Disassembly of section .data:

00003e84 <retry>:
    3e84:	00000005 	andeq	r0, r0, r5

00003e88 <axp20_info>:
    3e88:	00000003 	andeq	r0, r0, r3
    3e8c:	00000514 	andeq	r0, r0, r4, lsl r5
    3e90:	00000514 	andeq	r0, r0, r4, lsl r5
	...
    3ea4:	00000004 	andeq	r0, r0, r4
    3ea8:	00000708 	andeq	r0, r0, r8, lsl #14
    3eac:	00000ce4 	andeq	r0, r0, r4, ror #25
    3eb0:	00000064 	andeq	r0, r0, r4, rrx
    3eb4:	00000028 	andeq	r0, r0, r8, lsr #32
    3eb8:	00000004 	andeq	r0, r0, r4
    3ebc:	00000004 	andeq	r0, r0, r4
    3ec0:	00000005 	andeq	r0, r0, r5
    3ec4:	000002bc 	undefined instruction 0x000002bc
    3ec8:	00000dac 	andeq	r0, r0, ip, lsr #27
    3ecc:	00000019 	andeq	r0, r0, r9, lsl r0
    3ed0:	00000029 	andeq	r0, r0, r9, lsr #32
    3ed4:	00000000 	andeq	r0, r0, r0
    3ed8:	00000007 	andeq	r0, r0, r7
    3edc:	00000006 	andeq	r0, r0, r6
    3ee0:	000004e2 	andeq	r0, r0, r2, ror #9
    3ee4:	00000ce4 	andeq	r0, r0, r4, ror #25
    3ee8:	00000064 	andeq	r0, r0, r4, rrx
    3eec:	00000028 	andeq	r0, r0, r8, lsr #32
    3ef0:	00000000 	andeq	r0, r0, r0
    3ef4:	00000004 	andeq	r0, r0, r4
    3ef8:	00000001 	andeq	r0, r0, r1
    3efc:	000002bc 	undefined instruction 0x000002bc
    3f00:	000008e3 	andeq	r0, r0, r3, ror #17
    3f04:	00000019 	andeq	r0, r0, r9, lsl r0
    3f08:	00000023 	andeq	r0, r0, r3, lsr #32
    3f0c:	00000000 	andeq	r0, r0, r0
    3f10:	00000006 	andeq	r0, r0, r6
    3f14:	00000002 	andeq	r0, r0, r2
    3f18:	000002bc 	undefined instruction 0x000002bc
    3f1c:	00000dac 	andeq	r0, r0, ip, lsr #27
    3f20:	00000019 	andeq	r0, r0, r9, lsl r0
    3f24:	00000027 	andeq	r0, r0, r7, lsr #32
    3f28:	00000000 	andeq	r0, r0, r0
    3f2c:	00000007 	andeq	r0, r0, r7

00003f30 <hpcr_value>:
	...
    3f70:	00001031 	andeq	r1, r0, r1, lsr r0
    3f74:	00001031 	andeq	r1, r0, r1, lsr r0
    3f78:	00000735 	andeq	r0, r0, r5, lsr r7
    3f7c:	00001035 	andeq	r1, r0, r5, lsr r0
    3f80:	00001035 	andeq	r1, r0, r5, lsr r0
    3f84:	00000731 	andeq	r0, r0, r1, lsr r7
    3f88:	00001031 	andeq	r1, r0, r1, lsr r0
    3f8c:	00000000 	andeq	r0, r0, r0
    3f90:	00000301 	andeq	r0, r0, r1, lsl #6
    3f94:	00000301 	andeq	r0, r0, r1, lsl #6
    3f98:	00000301 	andeq	r0, r0, r1, lsl #6
    3f9c:	00000301 	andeq	r0, r0, r1, lsl #6
    3fa0:	00000301 	andeq	r0, r0, r1, lsl #6
    3fa4:	00000301 	andeq	r0, r0, r1, lsl #6
    3fa8:	00000301 	andeq	r0, r0, r1, lsl #6
    3fac:	00000000 	andeq	r0, r0, r0

00003fb0 <tmp>:
    3fb0:	40000000 	andmi	r0, r0, r0
    3fb4:	00000168 	andeq	r0, r0, r8, ror #2
    3fb8:	00000003 	andeq	r0, r0, r3
    3fbc:	00000002 	andeq	r0, r0, r2
    3fc0:	00000800 	andeq	r0, r0, r0, lsl #16
    3fc4:	00000010 	andeq	r0, r0, r0, lsl r0
    3fc8:	00000020 	andeq	r0, r0, r0, lsr #32
    3fcc:	00000006 	andeq	r0, r0, r6
    3fd0:	0000007b 	andeq	r0, r0, fp, ror r0
    3fd4:	00000000 	andeq	r0, r0, r0
    3fd8:	00000200 	andeq	r0, r0, r0, lsl #4
    3fdc:	30926692 	umullscc	r6, r2, r2, r6
    3fe0:	00001090 	muleq	r0, r0, r0
    3fe4:	0001a0c8 	andeq	sl, r1, r8, asr #1
	...

Disassembly of section .bss:

00004000 <sp_backup.2131>:
    4000:	00000000 	andeq	r0, r0, r0

00004004 <mem_para_info>:
	...

00004234 <IntcReg>:
    4234:	00000000 	andeq	r0, r0, r0

00004238 <IrqEnReg>:
	...

00004244 <IrqMaskReg>:
	...

00004250 <IrqSelReg>:
	...

0000425c <TmrReg>:
    425c:	00000000 	andeq	r0, r0, r0

00004260 <CmuReg>:
    4260:	00000000 	andeq	r0, r0, r0

00004264 <twi_reg>:
    4264:	00000000 	andeq	r0, r0, r0

00004268 <TwiClkRegBak>:
    4268:	00000000 	andeq	r0, r0, r0

0000426c <TwiCtlRegBak>:
    426c:	00000000 	andeq	r0, r0, r0

00004270 <CmuReg>:
    4270:	00000000 	andeq	r0, r0, r0

00004274 <backup_perf_counter_ctrl_reg>:
    4274:	00000000 	andeq	r0, r0, r0

00004278 <backup_perf_counter_enable_reg>:
    4278:	00000000 	andeq	r0, r0, r0

0000427c <overhead>:
    427c:	00000000 	andeq	r0, r0, r0

00004280 <cpu_freq>:
    4280:	00000000 	andeq	r0, r0, r0

00004284 <cpu_ms_loopcnt>:
    4284:	00000000 	andeq	r0, r0, r0

Disassembly of section .debug_abbrev:

00000000 <.debug_abbrev>:
       0:	25011101 	strcs	r1, [r1, #-257]	; 0x101
       4:	030b130e 	movweq	r1, #45838	; 0xb30e
       8:	110e1b0e 	tstne	lr, lr, lsl #22
       c:	10011201 	andne	r1, r1, r1, lsl #4
      10:	02000006 	andeq	r0, r0, #6
      14:	0b0b0024 	bleq	2c00ac <__bss_end+0x2bbe24>
      18:	0e030b3e 	vmoveq.16	d3[0], r0
      1c:	16030000 	strne	r0, [r3], -r0
      20:	3a0e0300 	bcc	380c28 <__bss_end+0x37c9a0>
      24:	490b3b0b 	stmdbmi	fp, {r0, r1, r3, r8, r9, fp, ip, sp}
      28:	04000013 	streq	r0, [r0], #-19
      2c:	0b0b0024 	bleq	2c00c4 <__bss_end+0x2bbe3c>
      30:	08030b3e 	stmdaeq	r3, {r1, r2, r3, r4, r5, r8, r9, fp}
      34:	13050000 	movwne	r0, #20480	; 0x5000
      38:	0b0e0301 	bleq	380c44 <__bss_end+0x37c9bc>
      3c:	3b0b3a0b 	blcc	2ce870 <__bss_end+0x2ca5e8>
      40:	0013010b 	andseq	r0, r3, fp, lsl #2
      44:	000d0600 	andeq	r0, sp, r0, lsl #12
      48:	0b3a0e03 	bleq	e8385c <__bss_end+0xe7f5d4>
      4c:	13490b3b 	movtne	r0, #39739	; 0x9b3b
      50:	00000a38 	andeq	r0, r0, r8, lsr sl
      54:	03000d07 	movweq	r0, #3335	; 0xd07
      58:	3b0b3a08 	blcc	2ce880 <__bss_end+0x2ca5f8>
      5c:	3813490b 	ldmdacc	r3, {r0, r1, r3, r8, fp, lr}
      60:	0800000a 	stmdaeq	r0, {r1, r3}
      64:	0e03000d 	cdpeq	0, 0, cr0, cr3, cr13, {0}
      68:	0b3b0b3a 	bleq	ec2d58 <__bss_end+0xebead0>
      6c:	0b0b1349 	bleq	2c4d98 <__bss_end+0x2c0b10>
      70:	0b0c0b0d 	bleq	302cac <__bss_end+0x2fea24>
      74:	00000a38 	andeq	r0, r0, r8, lsr sl
      78:	03011309 	movweq	r1, #4873	; 0x1309
      7c:	3a050b0e 	bcc	142cbc <__bss_end+0x13ea34>
      80:	010b3b0b 	tsteq	fp, fp, lsl #22
      84:	0a000013 	beq	d8 <__suspend_start+0xd8>
      88:	0b0b000f 	bleq	2c00cc <__bss_end+0x2bbe44>
      8c:	00001349 	andeq	r1, r0, r9, asr #6
      90:	0b000f0b 	bleq	3cc4 <__restore_processor_state+0x300>
      94:	0c00000b 	stceq	0, cr0, [r0], {11}
      98:	13490101 	movtne	r0, #37121	; 0x9101
      9c:	00001301 	andeq	r1, r0, r1, lsl #6
      a0:	4900210d 	stmdbmi	r0, {r0, r2, r3, r8, sp}
      a4:	000b2f13 	andeq	r2, fp, r3, lsl pc
      a8:	00240e00 	eoreq	r0, r4, r0, lsl #28
      ac:	0b3e0b0b 	bleq	f82ce0 <__bss_end+0xf7ea58>
      b0:	2e0f0000 	cdpcs	0, 0, cr0, cr15, cr0, {0}
      b4:	3a0e0301 	bcc	380cc0 <__bss_end+0x37ca38>
      b8:	270b3b0b 	strcs	r3, [fp, -fp, lsl #22]
      bc:	2013490c 	andscs	r4, r3, ip, lsl #18
      c0:	0013010b 	andseq	r0, r3, fp, lsl #2
      c4:	000a1000 	andeq	r1, sl, r0
      c8:	0b3a0e03 	bleq	e838dc <__bss_end+0xe7f654>
      cc:	0000053b 	andeq	r0, r0, fp, lsr r5
      d0:	3f012e11 	svccc	0x00012e11
      d4:	3a0e030c 	bcc	380d0c <__bss_end+0x37ca84>
      d8:	270b3b0b 	strcs	r3, [fp, -fp, lsl #22]
      dc:	1113490c 	tstne	r3, ip, lsl #18
      e0:	40011201 	andmi	r1, r1, r1, lsl #4
      e4:	00130106 	andseq	r0, r3, r6, lsl #2
      e8:	00341200 	eorseq	r1, r4, r0, lsl #4
      ec:	0b3a0e03 	bleq	e83900 <__bss_end+0xe7f678>
      f0:	13490b3b 	movtne	r0, #39739	; 0x9b3b
      f4:	00000602 	andeq	r0, r0, r2, lsl #12
      f8:	03003413 	movweq	r3, #1043	; 0x413
      fc:	3b0b3a0e 	blcc	2ce93c <__bss_end+0x2ca6b4>
     100:	0213490b 	andseq	r4, r3, #180224	; 0x2c000
     104:	1400000a 	strne	r0, [r0], #-10
     108:	0e030034 	mcreq	0, 0, r0, cr3, cr4, {1}
     10c:	0b3b0b3a 	bleq	ec2dfc <__bss_end+0xebeb74>
     110:	00001349 	andeq	r1, r0, r9, asr #6
     114:	03000a15 	movweq	r0, #2581	; 0xa15
     118:	3b0b3a0e 	blcc	2ce958 <__bss_end+0x2ca6d0>
     11c:	1600000b 	strne	r0, [r0], -fp
     120:	0e03000a 	cdpeq	0, 0, cr0, cr3, cr10, {0}
     124:	0b3b0b3a 	bleq	ec2e14 <__bss_end+0xebeb8c>
     128:	00000111 	andeq	r0, r0, r1, lsl r1
     12c:	31011d17 	tstcc	r1, r7, lsl sp
     130:	12011113 	andne	r1, r1, #-1073741820	; 0xc0000004
     134:	590b5801 	stmdbpl	fp, {r0, fp, ip, lr}
     138:	1800000b 	stmdane	r0, {r0, r1, r3}
     13c:	0111010b 	tsteq	r1, fp, lsl #2
     140:	00000112 	andeq	r0, r0, r2, lsl r1
     144:	31000a19 	tstcc	r0, r9, lsl sl
     148:	00011113 	andeq	r1, r1, r3, lsl r1
     14c:	00341a00 	eorseq	r1, r4, r0, lsl #20
     150:	0b3a0e03 	bleq	e83964 <__bss_end+0xe7f6dc>
     154:	13490b3b 	movtne	r0, #39739	; 0x9b3b
     158:	0c3c0c3f 	ldceq	12, cr0, [ip], #-252	; 0xffffff04
     15c:	01000000 	tsteq	r0, r0
     160:	0e250111 	mcreq	1, 1, r0, cr5, cr1, {0}
     164:	0e030b13 	vmoveq.32	d3[0], r0
     168:	01110e1b 	tsteq	r1, fp, lsl lr
     16c:	06100112 	undefined instruction 0x06100112
     170:	24020000 	strcs	r0, [r2]
     174:	3e0b0b00 	vmlacc.f64	d0, d11, d0
     178:	000e030b 	andeq	r0, lr, fp, lsl #6
     17c:	00240300 	eoreq	r0, r4, r0, lsl #6
     180:	0b3e0b0b 	bleq	f82db4 <__bss_end+0xf7eb2c>
     184:	00000803 	andeq	r0, r0, r3, lsl #16
     188:	0b000f04 	bleq	3da0 <set_copro_default+0x3c>
     18c:	0500000b 	streq	r0, [r0, #-11]
     190:	0b0b0024 	bleq	2c0228 <__bss_end+0x2bbfa0>
     194:	00000b3e 	andeq	r0, r0, lr, lsr fp
     198:	3f012e06 	svccc	0x00012e06
     19c:	3a0e030c 	bcc	380dd4 <__bss_end+0x37cb4c>
     1a0:	270b3b0b 	strcs	r3, [fp, -fp, lsl #22]
     1a4:	1201110c 	andne	r1, r1, #3
     1a8:	010a4001 	tsteq	sl, r1
     1ac:	07000013 	smladeq	r0, r3, r0, r0
     1b0:	0e030005 	cdpeq	0, 0, cr0, cr3, cr5, {0}
     1b4:	0b3b0b3a 	bleq	ec2ea4 <__bss_end+0xebec1c>
     1b8:	0a021349 	beq	84ee4 <__bss_end+0x80c5c>
     1bc:	05080000 	streq	r0, [r8]
     1c0:	3a080300 	bcc	200dc8 <__bss_end+0x1fcb40>
     1c4:	490b3b0b 	stmdbmi	fp, {r0, r1, r3, r8, r9, fp, ip, sp}
     1c8:	000a0213 	andeq	r0, sl, r3, lsl r2
     1cc:	00340900 	eorseq	r0, r4, r0, lsl #18
     1d0:	0b3a0e03 	bleq	e839e4 <__bss_end+0xe7f75c>
     1d4:	13490b3b 	movtne	r0, #39739	; 0x9b3b
     1d8:	0f0a0000 	svceq	0x000a0000
     1dc:	490b0b00 	stmdbmi	fp, {r8, r9, fp}
     1e0:	00000013 	andeq	r0, r0, r3, lsl r0
     1e4:	10001101 	andne	r1, r0, r1, lsl #2
     1e8:	12011106 	andne	r1, r1, #-2147483647	; 0x80000001
     1ec:	1b080301 	blne	200df8 <__bss_end+0x1fcb70>
     1f0:	13082508 	movwne	r2, #34056	; 0x8508
     1f4:	00000005 	andeq	r0, r0, r5
     1f8:	25011101 	strcs	r1, [r1, #-257]	; 0x101
     1fc:	030b130e 	movweq	r1, #45838	; 0xb30e
     200:	110e1b0e 	tstne	lr, lr, lsl #22
     204:	10011201 	andne	r1, r1, r1, lsl #4
     208:	02000006 	andeq	r0, r0, #6
     20c:	0b0b0024 	bleq	2c02a4 <__bss_end+0x2bc01c>
     210:	0e030b3e 	vmoveq.16	d3[0], r0
     214:	16030000 	strne	r0, [r3], -r0
     218:	3a0e0300 	bcc	380e20 <__bss_end+0x37cb98>
     21c:	490b3b0b 	stmdbmi	fp, {r0, r1, r3, r8, r9, fp, ip, sp}
     220:	04000013 	streq	r0, [r0], #-19
     224:	0b0b0024 	bleq	2c02bc <__bss_end+0x2bc034>
     228:	08030b3e 	stmdaeq	r3, {r1, r2, r3, r4, r5, r8, r9, fp}
     22c:	24050000 	strcs	r0, [r5]
     230:	3e0b0b00 	vmlacc.f64	d0, d11, d0
     234:	0600000b 	streq	r0, [r0], -fp
     238:	13490035 	movtne	r0, #36917	; 0x9035
     23c:	01070000 	tsteq	r7, r0
     240:	01134901 	tsteq	r3, r1, lsl #18
     244:	08000013 	stmdaeq	r0, {r0, r1, r4}
     248:	13490021 	movtne	r0, #36897	; 0x9021
     24c:	00000b2f 	andeq	r0, r0, pc, lsr #22
     250:	03010409 	movweq	r0, #5129	; 0x1409
     254:	3a0b0b0e 	bcc	2c2e94 <__bss_end+0x2bec0c>
     258:	010b3b0b 	tsteq	fp, fp, lsl #22
     25c:	0a000013 	beq	2b0 <loop3+0x18>
     260:	0e030028 	cdpeq	0, 0, cr0, cr3, cr8, {1}
     264:	00000d1c 	andeq	r0, r0, ip, lsl sp
     268:	0301130b 	movweq	r1, #4875	; 0x130b
     26c:	3a0b0b0e 	bcc	2c2eac <__bss_end+0x2bec24>
     270:	010b3b0b 	tsteq	fp, fp, lsl #22
     274:	0c000013 	stceq	0, cr0, [r0], {19}
     278:	0e03000d 	cdpeq	0, 0, cr0, cr3, cr13, {0}
     27c:	0b3b0b3a 	bleq	ec2f6c <__bss_end+0xebece4>
     280:	0a381349 	beq	e04fac <__bss_end+0xe00d24>
     284:	2e0d0000 	cdpcs	0, 0, cr0, cr13, cr0, {0}
     288:	030c3f00 	movweq	r3, #52992	; 0xcf00
     28c:	3b0b3a0e 	blcc	2ceacc <__bss_end+0x2ca844>
     290:	490c270b 	stmdbmi	ip, {r0, r1, r3, r8, r9, sl, sp}
     294:	12011113 	andne	r1, r1, #-1073741820	; 0xc0000004
     298:	00064001 	andeq	r4, r6, r1
     29c:	002e0e00 	eoreq	r0, lr, r0, lsl #28
     2a0:	0e030c3f 	mcreq	12, 0, r0, cr3, cr15, {1}
     2a4:	0b3b0b3a 	bleq	ec2f94 <__bss_end+0xebed0c>
     2a8:	13490c27 	movtne	r0, #39975	; 0x9c27
     2ac:	01120111 	tsteq	r2, r1, lsl r1
     2b0:	00000a40 	andeq	r0, r0, r0, asr #20
     2b4:	3f012e0f 	svccc	0x00012e0f
     2b8:	3a0e030c 	bcc	380ef0 <__bss_end+0x37cc68>
     2bc:	270b3b0b 	strcs	r3, [fp, -fp, lsl #22]
     2c0:	1113490c 	tstne	r3, ip, lsl #18
     2c4:	40011201 	andmi	r1, r1, r1, lsl #4
     2c8:	00130106 	andseq	r0, r3, r6, lsl #2
     2cc:	00051000 	andeq	r1, r5, r0
     2d0:	0b3a0803 	bleq	e822e4 <__bss_end+0xe7e05c>
     2d4:	13490b3b 	movtne	r0, #39739	; 0x9b3b
     2d8:	00000602 	andeq	r0, r0, r2, lsl #12
     2dc:	03003411 	movweq	r3, #1041	; 0x411
     2e0:	3b0b3a0e 	blcc	2ceb20 <__bss_end+0x2ca898>
     2e4:	0213490b 	andseq	r4, r3, #180224	; 0x2c000
     2e8:	12000006 	andne	r0, r0, #6
     2ec:	0e030034 	mcreq	0, 0, r0, cr3, cr4, {1}
     2f0:	0b3b0b3a 	bleq	ec2fe0 <__bss_end+0xebed58>
     2f4:	00001349 	andeq	r1, r0, r9, asr #6
     2f8:	3f012e13 	svccc	0x00012e13
     2fc:	3a0e030c 	bcc	380f34 <__bss_end+0x37ccac>
     300:	270b3b0b 	strcs	r3, [fp, -fp, lsl #22]
     304:	1113490c 	tstne	r3, ip, lsl #18
     308:	40011201 	andmi	r1, r1, r1, lsl #4
     30c:	0013010a 	andseq	r0, r3, sl, lsl #2
     310:	00341400 	eorseq	r1, r4, r0, lsl #8
     314:	0b3a0e03 	bleq	e83b28 <__bss_end+0xe7f8a0>
     318:	13490b3b 	movtne	r0, #39739	; 0x9b3b
     31c:	00000a02 	andeq	r0, r0, r2, lsl #20
     320:	0b000f15 	bleq	3f7c <hpcr_value+0x4c>
     324:	0013490b 	andseq	r4, r3, fp, lsl #18
     328:	11010000 	tstne	r1, r0
     32c:	130e2501 	movwne	r2, #58625	; 0xe501
     330:	1b0e030b 	blne	380f64 <__bss_end+0x37ccdc>
     334:	1201110e 	andne	r1, r1, #-2147483645	; 0x80000003
     338:	00061001 	andeq	r1, r6, r1
     33c:	00240200 	eoreq	r0, r4, r0, lsl #4
     340:	0b3e0b0b 	bleq	f82f74 <__bss_end+0xf7ecec>
     344:	00000e03 	andeq	r0, r0, r3, lsl #28
     348:	0b002403 	bleq	935c <__bss_end+0x50d4>
     34c:	030b3e0b 	movweq	r3, #48651	; 0xbe0b
     350:	04000008 	streq	r0, [r0], #-8
     354:	0e030016 	mcreq	0, 0, r0, cr3, cr6, {0}
     358:	0b3b0b3a 	bleq	ec3048 <__bss_end+0xebedc0>
     35c:	00001349 	andeq	r1, r0, r9, asr #6
     360:	0b002405 	bleq	937c <__bss_end+0x50f4>
     364:	000b3e0b 	andeq	r3, fp, fp, lsl #28
     368:	00350600 	eorseq	r0, r5, r0, lsl #12
     36c:	00001349 	andeq	r1, r0, r9, asr #6
     370:	49010107 	stmdbmi	r1, {r0, r1, r2, r8}
     374:	00130113 	andseq	r0, r3, r3, lsl r1
     378:	00210800 	eoreq	r0, r1, r0, lsl #16
     37c:	0b2f1349 	bleq	bc50a8 <__bss_end+0xbc0e20>
     380:	13090000 	movwne	r0, #36864	; 0x9000
     384:	0b0e0301 	bleq	380f90 <__bss_end+0x37cd08>
     388:	3b0b3a05 	blcc	2ceba4 <__bss_end+0x2ca91c>
     38c:	0013010b 	andseq	r0, r3, fp, lsl #2
     390:	000d0a00 	andeq	r0, sp, r0, lsl #20
     394:	0b3a0e03 	bleq	e83ba8 <__bss_end+0xe7f920>
     398:	13490b3b 	movtne	r0, #39739	; 0x9b3b
     39c:	00000a38 	andeq	r0, r0, r8, lsr sl
     3a0:	3f002e0b 	svccc	0x00002e0b
     3a4:	3a0e030c 	bcc	380fdc <__bss_end+0x37cd54>
     3a8:	270b3b0b 	strcs	r3, [fp, -fp, lsl #22]
     3ac:	1201110c 	andne	r1, r1, #3
     3b0:	000a4001 	andeq	r4, sl, r1
     3b4:	00340c00 	eorseq	r0, r4, r0, lsl #24
     3b8:	0b3a0e03 	bleq	e83bcc <__bss_end+0xe7f944>
     3bc:	13490b3b 	movtne	r0, #39739	; 0x9b3b
     3c0:	00000a02 	andeq	r0, r0, r2, lsl #20
     3c4:	0b000f0d 	bleq	4000 <__bss_start>
     3c8:	0013490b 	andseq	r4, r3, fp, lsl #18
     3cc:	00340e00 	eorseq	r0, r4, r0, lsl #28
     3d0:	0b3a0e03 	bleq	e83be4 <__bss_end+0xe7f95c>
     3d4:	13490b3b 	movtne	r0, #39739	; 0x9b3b
     3d8:	01000000 	tsteq	r0, r0
     3dc:	0e250111 	mcreq	1, 1, r0, cr5, cr1, {0}
     3e0:	0e030b13 	vmoveq.32	d3[0], r0
     3e4:	01110e1b 	tsteq	r1, fp, lsl lr
     3e8:	06100112 	undefined instruction 0x06100112
     3ec:	24020000 	strcs	r0, [r2]
     3f0:	3e0b0b00 	vmlacc.f64	d0, d11, d0
     3f4:	000e030b 	andeq	r0, lr, fp, lsl #6
     3f8:	00160300 	andseq	r0, r6, r0, lsl #6
     3fc:	0b3a0e03 	bleq	e83c10 <__bss_end+0xe7f988>
     400:	13490b3b 	movtne	r0, #39739	; 0x9b3b
     404:	24040000 	strcs	r0, [r4]
     408:	3e0b0b00 	vmlacc.f64	d0, d11, d0
     40c:	0008030b 	andeq	r0, r8, fp, lsl #6
     410:	01130500 	tsteq	r3, r0, lsl #10
     414:	0b0b0e03 	bleq	2c3c28 <__bss_end+0x2bf9a0>
     418:	0b3b0b3a 	bleq	ec3108 <__bss_end+0xebee80>
     41c:	00001301 	andeq	r1, r0, r1, lsl #6
     420:	03000d06 	movweq	r0, #3334	; 0xd06
     424:	3b0b3a0e 	blcc	2cec64 <__bss_end+0x2ca9dc>
     428:	0b13490b 	bleq	4d285c <__bss_end+0x4ce5d4>
     42c:	0c0b0d0b 	stceq	13, cr0, [fp], {11}
     430:	000a380b 	andeq	r3, sl, fp, lsl #16
     434:	000d0700 	andeq	r0, sp, r0, lsl #14
     438:	0b3a0e03 	bleq	e83c4c <__bss_end+0xe7f9c4>
     43c:	13490b3b 	movtne	r0, #39739	; 0x9b3b
     440:	00000a38 	andeq	r0, r0, r8, lsr sl
     444:	03000d08 	movweq	r0, #3336	; 0xd08
     448:	3b0b3a08 	blcc	2cec70 <__bss_end+0x2ca9e8>
     44c:	3813490b 	ldmdacc	r3, {r0, r1, r3, r8, fp, lr}
     450:	0900000a 	stmdbeq	r0, {r1, r3}
     454:	0b0b0024 	bleq	2c04ec <__bss_end+0x2bc264>
     458:	00000b3e 	andeq	r0, r0, lr, lsr fp
     45c:	03000d0a 	movweq	r0, #3338	; 0xd0a
     460:	3b0b3a0e 	blcc	2ceca0 <__bss_end+0x2caa18>
     464:	0b134905 	bleq	4d2880 <__bss_end+0x4ce5f8>
     468:	0c0b0d0b 	stceq	13, cr0, [fp], {11}
     46c:	000a380b 	andeq	r3, sl, fp, lsl #16
     470:	00160b00 	andseq	r0, r6, r0, lsl #22
     474:	0b3a0e03 	bleq	e83c88 <__bss_end+0xe7fa00>
     478:	1349053b 	movtne	r0, #38203	; 0x953b
     47c:	130c0000 	movwne	r0, #49152	; 0xc000
     480:	0b0e0301 	bleq	38108c <__bss_end+0x37ce04>
     484:	3b0b3a0b 	blcc	2cecb8 <__bss_end+0x2caa30>
     488:	00130105 	andseq	r0, r3, r5, lsl #2
     48c:	01130d00 	tsteq	r3, r0, lsl #26
     490:	050b0e03 	streq	r0, [fp, #-3587]	; 0xe03
     494:	053b0b3a 	ldreq	r0, [fp, #-2874]!	; 0xb3a
     498:	00001301 	andeq	r1, r0, r1, lsl #6
     49c:	03000d0e 	movweq	r0, #3342	; 0xd0e
     4a0:	3b0b3a0e 	blcc	2cece0 <__bss_end+0x2caa58>
     4a4:	38134905 	ldmdacc	r3, {r0, r2, r8, fp, lr}
     4a8:	0f00000a 	svceq	0x0000000a
     4ac:	13490035 	movtne	r0, #36917	; 0x9035
     4b0:	01100000 	tsteq	r0, r0
     4b4:	01134901 	tsteq	r3, r1, lsl #18
     4b8:	11000013 	tstne	r0, r3, lsl r0
     4bc:	13490021 	movtne	r0, #36897	; 0x9021
     4c0:	00000b2f 	andeq	r0, r0, pc, lsr #22
     4c4:	3f002e12 	svccc	0x00002e12
     4c8:	3a0e030c 	bcc	381100 <__bss_end+0x37ce78>
     4cc:	270b3b0b 	strcs	r3, [fp, -fp, lsl #22]
     4d0:	1113490c 	tstne	r3, ip, lsl #18
     4d4:	40011201 	andmi	r1, r1, r1, lsl #4
     4d8:	1300000a 	movwne	r0, #10
     4dc:	0c3f012e 	ldfeqs	f0, [pc], #-184	; 0xffffff48
     4e0:	0b3a0e03 	bleq	e83cf4 <__bss_end+0xe7fa6c>
     4e4:	0c270b3b 	stceq	11, cr0, [r7], #-236	; 0xffffff14
     4e8:	01111349 	tsteq	r1, r9, asr #6
     4ec:	0a400112 	beq	100093c <__bss_end+0xffc6b4>
     4f0:	00001301 	andeq	r1, r0, r1, lsl #6
     4f4:	03000514 	movweq	r0, #1300	; 0x514
     4f8:	3b0b3a0e 	blcc	2ced38 <__bss_end+0x2caab0>
     4fc:	0213490b 	andseq	r4, r3, #180224	; 0x2c000
     500:	15000006 	strne	r0, [r0, #-6]
     504:	0b0b000f 	bleq	2c0548 <__bss_end+0x2bc2c0>
     508:	00001349 	andeq	r1, r0, r9, asr #6
     50c:	3f012e16 	svccc	0x00012e16
     510:	3a0e030c 	bcc	381148 <__bss_end+0x37cec0>
     514:	270b3b0b 	strcs	r3, [fp, -fp, lsl #22]
     518:	1201110c 	andne	r1, r1, #3
     51c:	010a4001 	tsteq	sl, r1
     520:	17000013 	smladne	r0, r3, r0, r0
     524:	0e030005 	cdpeq	0, 0, cr0, cr3, cr5, {0}
     528:	0b3b0b3a 	bleq	ec3218 <__bss_end+0xebef90>
     52c:	0a021349 	beq	85258 <__bss_end+0x80fd0>
     530:	34180000 	ldrcc	r0, [r8]
     534:	3a0e0300 	bcc	38113c <__bss_end+0x37ceb4>
     538:	490b3b0b 	stmdbmi	fp, {r0, r1, r3, r8, r9, fp, ip, sp}
     53c:	000a0213 	andeq	r0, sl, r3, lsl r2
     540:	00341900 	eorseq	r1, r4, r0, lsl #18
     544:	0b3a0e03 	bleq	e83d58 <__bss_end+0xe7fad0>
     548:	13490b3b 	movtne	r0, #39739	; 0x9b3b
     54c:	0a020c3f 	beq	83650 <__bss_end+0x7f3c8>
     550:	01000000 	tsteq	r0, r0
     554:	0e250111 	mcreq	1, 1, r0, cr5, cr1, {0}
     558:	0e030b13 	vmoveq.32	d3[0], r0
     55c:	01110e1b 	tsteq	r1, fp, lsl lr
     560:	06100112 	undefined instruction 0x06100112
     564:	24020000 	strcs	r0, [r2]
     568:	3e0b0b00 	vmlacc.f64	d0, d11, d0
     56c:	000e030b 	andeq	r0, lr, fp, lsl #6
     570:	00160300 	andseq	r0, r6, r0, lsl #6
     574:	0b3a0e03 	bleq	e83d88 <__bss_end+0xe7fb00>
     578:	13490b3b 	movtne	r0, #39739	; 0x9b3b
     57c:	24040000 	strcs	r0, [r4]
     580:	3e0b0b00 	vmlacc.f64	d0, d11, d0
     584:	0008030b 	andeq	r0, r8, fp, lsl #6
     588:	00240500 	eoreq	r0, r4, r0, lsl #10
     58c:	0b3e0b0b 	bleq	f831c0 <__bss_end+0xf7ef38>
     590:	13060000 	movwne	r0, #24576	; 0x6000
     594:	0b0e0301 	bleq	3811a0 <__bss_end+0x37cf18>
     598:	3b0b3a0b 	blcc	2cedcc <__bss_end+0x2cab44>
     59c:	0013010b 	andseq	r0, r3, fp, lsl #2
     5a0:	000d0700 	andeq	r0, sp, r0, lsl #14
     5a4:	0b3a0e03 	bleq	e83db8 <__bss_end+0xe7fb30>
     5a8:	13490b3b 	movtne	r0, #39739	; 0x9b3b
     5ac:	0b0d0b0b 	bleq	3431e0 <__bss_end+0x33ef58>
     5b0:	0a380b0c 	beq	e031e8 <__bss_end+0xdfef60>
     5b4:	0d080000 	stceq	0, cr0, [r8]
     5b8:	3a0e0300 	bcc	3811c0 <__bss_end+0x37cf38>
     5bc:	49053b0b 	stmdbmi	r5, {r0, r1, r3, r8, r9, fp, ip, sp}
     5c0:	0d0b0b13 	vstreq	d0, [fp, #-76]	; 0xffffffb4
     5c4:	380b0c0b 	stmdacc	fp, {r0, r1, r3, sl, fp}
     5c8:	0900000a 	stmdbeq	r0, {r1, r3}
     5cc:	0e030016 	mcreq	0, 0, r0, cr3, cr6, {0}
     5d0:	053b0b3a 	ldreq	r0, [fp, #-2874]!	; 0xb3a
     5d4:	00001349 	andeq	r1, r0, r9, asr #6
     5d8:	0301130a 	movweq	r1, #4874	; 0x130a
     5dc:	3a0b0b0e 	bcc	2c321c <__bss_end+0x2bef94>
     5e0:	01053b0b 	tsteq	r5, fp, lsl #22
     5e4:	0b000013 	bleq	638 <enable_mmu+0x24>
     5e8:	0e030113 	mcreq	1, 0, r0, cr3, cr3, {0}
     5ec:	0b3a050b 	bleq	e81a20 <__bss_end+0xe7d798>
     5f0:	1301053b 	movwne	r0, #5435	; 0x153b
     5f4:	0d0c0000 	stceq	0, cr0, [ip]
     5f8:	3a0e0300 	bcc	381200 <__bss_end+0x37cf78>
     5fc:	49053b0b 	stmdbmi	r5, {r0, r1, r3, r8, r9, fp, ip, sp}
     600:	000a3813 	andeq	r3, sl, r3, lsl r8
     604:	00350d00 	eorseq	r0, r5, r0, lsl #26
     608:	00001349 	andeq	r1, r0, r9, asr #6
     60c:	4901010e 	stmdbmi	r1, {r1, r2, r3, r8}
     610:	00130113 	andseq	r0, r3, r3, lsl r1
     614:	00210f00 	eoreq	r0, r1, r0, lsl #30
     618:	0b2f1349 	bleq	bc5344 <__bss_end+0xbc10bc>
     61c:	0d100000 	ldceq	0, cr0, [r0]
     620:	3a0e0300 	bcc	381228 <__bss_end+0x37cfa0>
     624:	490b3b0b 	stmdbmi	fp, {r0, r1, r3, r8, r9, fp, ip, sp}
     628:	000a3813 	andeq	r3, sl, r3, lsl r8
     62c:	01041100 	tsteq	r4, r0, lsl #2
     630:	0b0b0e03 	bleq	2c3e44 <__bss_end+0x2bfbbc>
     634:	0b3b0b3a 	bleq	ec3324 <__bss_end+0xebf09c>
     638:	00001301 	andeq	r1, r0, r1, lsl #6
     63c:	03002812 	movweq	r2, #2066	; 0x812
     640:	000d1c0e 	andeq	r1, sp, lr, lsl #24
     644:	002e1300 	eoreq	r1, lr, r0, lsl #6
     648:	0b3a0e03 	bleq	e83e5c <__bss_end+0xe7fbd4>
     64c:	0c270b3b 	stceq	11, cr0, [r7], #-236	; 0xffffff14
     650:	0b201349 	bleq	80537c <__bss_end+0x8010f4>
     654:	2e140000 	cdpcs	0, 1, cr0, cr4, cr0, {0}
     658:	030c3f01 	movweq	r3, #52993	; 0xcf01
     65c:	3b0b3a0e 	blcc	2cee9c <__bss_end+0x2cac14>
     660:	490c270b 	stmdbmi	ip, {r0, r1, r3, r8, r9, sl, sp}
     664:	12011113 	andne	r1, r1, #-1073741820	; 0xc0000004
     668:	010a4001 	tsteq	sl, r1
     66c:	15000013 	strne	r0, [r0, #-19]
     670:	0e030005 	cdpeq	0, 0, cr0, cr3, cr5, {0}
     674:	0b3b0b3a 	bleq	ec3364 <__bss_end+0xebf0dc>
     678:	06021349 	streq	r1, [r2], -r9, asr #6
     67c:	2e160000 	cdpcs	0, 1, cr0, cr6, cr0, {0}
     680:	3a0e0301 	bcc	38128c <__bss_end+0x37d004>
     684:	270b3b0b 	strcs	r3, [fp, -fp, lsl #22]
     688:	1113490c 	tstne	r3, ip, lsl #18
     68c:	40011201 	andmi	r1, r1, r1, lsl #4
     690:	0013010a 	andseq	r0, r3, sl, lsl #2
     694:	00341700 	eorseq	r1, r4, r0, lsl #14
     698:	0b3a0e03 	bleq	e83eac <__bss_end+0xe7fc24>
     69c:	13490b3b 	movtne	r0, #39739	; 0x9b3b
     6a0:	00000602 	andeq	r0, r0, r2, lsl #12
     6a4:	03003418 	movweq	r3, #1048	; 0x418
     6a8:	3b0b3a0e 	blcc	2ceee8 <__bss_end+0x2cac60>
     6ac:	0213490b 	andseq	r4, r3, #180224	; 0x2c000
     6b0:	1900000a 	stmdbne	r0, {r1, r3}
     6b4:	0c3f002e 	ldceq	0, cr0, [pc], #-184	; 0xffffff48
     6b8:	0b3a0e03 	bleq	e83ecc <__bss_end+0xe7fc44>
     6bc:	0c270b3b 	stceq	11, cr0, [r7], #-236	; 0xffffff14
     6c0:	01120111 	tsteq	r2, r1, lsl r1
     6c4:	00000a40 	andeq	r0, r0, r0, asr #20
     6c8:	3f012e1a 	svccc	0x00012e1a
     6cc:	3a0e030c 	bcc	381304 <__bss_end+0x37d07c>
     6d0:	270b3b0b 	strcs	r3, [fp, -fp, lsl #22]
     6d4:	1113490c 	tstne	r3, ip, lsl #18
     6d8:	40011201 	andmi	r1, r1, r1, lsl #4
     6dc:	00130106 	andseq	r0, r3, r6, lsl #2
     6e0:	00051b00 	andeq	r1, r5, r0, lsl #22
     6e4:	0b3a0803 	bleq	e826f8 <__bss_end+0xe7e470>
     6e8:	13490b3b 	movtne	r0, #39739	; 0x9b3b
     6ec:	00000602 	andeq	r0, r0, r2, lsl #12
     6f0:	0300341c 	movweq	r3, #1052	; 0x41c
     6f4:	3b0b3a0e 	blcc	2cef34 <__bss_end+0x2cacac>
     6f8:	0013490b 	andseq	r4, r3, fp, lsl #18
     6fc:	00341d00 	eorseq	r1, r4, r0, lsl #26
     700:	0b3a0803 	bleq	e82714 <__bss_end+0xe7e48c>
     704:	13490b3b 	movtne	r0, #39739	; 0x9b3b
     708:	00000602 	andeq	r0, r0, r2, lsl #12
     70c:	03000a1e 	movweq	r0, #2590	; 0xa1e
     710:	3b0b3a0e 	blcc	2cef50 <__bss_end+0x2cacc8>
     714:	00011105 	andeq	r1, r1, r5, lsl #2
     718:	001d1f00 	andseq	r1, sp, r0, lsl #30
     71c:	01111331 	tsteq	r1, r1, lsr r3
     720:	0b580112 	bleq	1600b70 <__bss_end+0x15fc8e8>
     724:	00000559 	andeq	r0, r0, r9, asr r5
     728:	0b000f20 	bleq	43b0 <__bss_end+0x128>
     72c:	0013490b 	andseq	r4, r3, fp, lsl #18
     730:	012e2100 	teqeq	lr, r0, lsl #2
     734:	0e030c3f 	mcreq	12, 0, r0, cr3, cr15, {1}
     738:	053b0b3a 	ldreq	r0, [fp, #-2874]!	; 0xb3a
     73c:	13490c27 	movtne	r0, #39975	; 0x9c27
     740:	01120111 	tsteq	r2, r1, lsl r1
     744:	13010640 	movwne	r0, #5696	; 0x1640
     748:	05220000 	streq	r0, [r2]!
     74c:	3a080300 	bcc	201354 <__bss_end+0x1fd0cc>
     750:	49053b0b 	stmdbmi	r5, {r0, r1, r3, r8, r9, fp, ip, sp}
     754:	00060213 	andeq	r0, r6, r3, lsl r2
     758:	00052300 	andeq	r2, r5, r0, lsl #6
     75c:	0b3a0e03 	bleq	e83f70 <__bss_end+0xe7fce8>
     760:	1349053b 	movtne	r0, #38203	; 0x953b
     764:	00000602 	andeq	r0, r0, r2, lsl #12
     768:	03003424 	movweq	r3, #1060	; 0x424
     76c:	3b0b3a0e 	blcc	2cefac <__bss_end+0x2cad24>
     770:	00134905 	andseq	r4, r3, r5, lsl #18
     774:	00342500 	eorseq	r2, r4, r0, lsl #10
     778:	0b3a0e03 	bleq	e83f8c <__bss_end+0xe7fd04>
     77c:	1349053b 	movtne	r0, #38203	; 0x953b
     780:	00000602 	andeq	r0, r0, r2, lsl #12
     784:	03003426 	movweq	r3, #1062	; 0x426
     788:	3b0b3a08 	blcc	2cefb0 <__bss_end+0x2cad28>
     78c:	02134905 	andseq	r4, r3, #81920	; 0x14000
     790:	27000006 	strcs	r0, [r0, -r6]
     794:	0c3f002e 	ldceq	0, cr0, [pc], #-184	; 0xffffff48
     798:	0b3a0e03 	bleq	e83fac <__bss_end+0xe7fd24>
     79c:	0c270b3b 	stceq	11, cr0, [r7], #-236	; 0xffffff14
     7a0:	01111349 	tsteq	r1, r9, asr #6
     7a4:	06400112 	undefined instruction 0x06400112
     7a8:	26280000 	strtcs	r0, [r8], -r0
     7ac:	00134900 	andseq	r4, r3, r0, lsl #18
     7b0:	11010000 	tstne	r1, r0
     7b4:	11061000 	tstne	r6, r0
     7b8:	03011201 	movweq	r1, #4609	; 0x1201
     7bc:	25081b08 	strcs	r1, [r8, #-2824]	; 0xb08
     7c0:	00051308 	andeq	r1, r5, r8, lsl #6
     7c4:	11010000 	tstne	r1, r0
     7c8:	130e2501 	movwne	r2, #58625	; 0xe501
     7cc:	1b0e030b 	blne	381400 <__bss_end+0x37d178>
     7d0:	1201110e 	andne	r1, r1, #-2147483645	; 0x80000003
     7d4:	00061001 	andeq	r1, r6, r1
     7d8:	00240200 	eoreq	r0, r4, r0, lsl #4
     7dc:	0b3e0b0b 	bleq	f83410 <__bss_end+0xf7f188>
     7e0:	00000e03 	andeq	r0, r0, r3, lsl #28
     7e4:	03001603 	movweq	r1, #1539	; 0x603
     7e8:	3b0b3a0e 	blcc	2cf028 <__bss_end+0x2cada0>
     7ec:	0013490b 	andseq	r4, r3, fp, lsl #18
     7f0:	00240400 	eoreq	r0, r4, r0, lsl #8
     7f4:	0b3e0b0b 	bleq	f83428 <__bss_end+0xf7f1a0>
     7f8:	00000803 	andeq	r0, r0, r3, lsl #16
     7fc:	0b002405 	bleq	9818 <__bss_end+0x5590>
     800:	000b3e0b 	andeq	r3, fp, fp, lsl #28
     804:	01040600 	tsteq	r4, r0, lsl #12
     808:	0b0b0e03 	bleq	2c401c <__bss_end+0x2bfd94>
     80c:	0b3b0b3a 	bleq	ec34fc <__bss_end+0xebf274>
     810:	00001301 	andeq	r1, r0, r1, lsl #6
     814:	03002807 	movweq	r2, #2055	; 0x807
     818:	000d1c0e 	andeq	r1, sp, lr, lsl #24
     81c:	01130800 	tsteq	r3, r0, lsl #16
     820:	0b0b0e03 	bleq	2c4034 <__bss_end+0x2bfdac>
     824:	0b3b0b3a 	bleq	ec3514 <__bss_end+0xebf28c>
     828:	00001301 	andeq	r1, r0, r1, lsl #6
     82c:	03000d09 	movweq	r0, #3337	; 0xd09
     830:	3b0b3a08 	blcc	2cf058 <__bss_end+0x2cadd0>
     834:	3813490b 	ldmdacc	r3, {r0, r1, r3, r8, fp, lr}
     838:	0a00000a 	beq	868 <mem_tmr_disable_watchdog>
     83c:	0e03000d 	cdpeq	0, 0, cr0, cr3, cr13, {0}
     840:	0b3b0b3a 	bleq	ec3530 <__bss_end+0xebf2a8>
     844:	0a381349 	beq	e05570 <__bss_end+0xe012e8>
     848:	2e0b0000 	cdpcs	0, 0, cr0, cr11, cr0, {0}
     84c:	3a0e0301 	bcc	381458 <__bss_end+0x37d1d0>
     850:	270b3b0b 	strcs	r3, [fp, -fp, lsl #22]
     854:	2013490c 	andscs	r4, r3, ip, lsl #18
     858:	0013010b 	andseq	r0, r3, fp, lsl #2
     85c:	00050c00 	andeq	r0, r5, r0, lsl #24
     860:	0b3a0803 	bleq	e82874 <__bss_end+0xe7e5ec>
     864:	13490b3b 	movtne	r0, #39739	; 0x9b3b
     868:	340d0000 	strcc	r0, [sp]
     86c:	3a080300 	bcc	201474 <__bss_end+0x1fd1ec>
     870:	490b3b0b 	stmdbmi	fp, {r0, r1, r3, r8, r9, fp, ip, sp}
     874:	0e000013 	mcreq	0, 0, r0, cr0, cr3, {0}
     878:	0b0b000f 	bleq	2c08bc <__bss_end+0x2bc634>
     87c:	00001349 	andeq	r1, r0, r9, asr #6
     880:	0300050f 	movweq	r0, #1295	; 0x50f
     884:	3b0b3a0e 	blcc	2cf0c4 <__bss_end+0x2cae3c>
     888:	0013490b 	andseq	r4, r3, fp, lsl #18
     88c:	00341000 	eorseq	r1, r4, r0
     890:	0b3a0e03 	bleq	e840a4 <__bss_end+0xe7fe1c>
     894:	13490b3b 	movtne	r0, #39739	; 0x9b3b
     898:	2e110000 	cdpcs	0, 1, cr0, cr1, cr0, {0}
     89c:	030c3f01 	movweq	r3, #52993	; 0xcf01
     8a0:	3b0b3a0e 	blcc	2cf0e0 <__bss_end+0x2cae58>
     8a4:	490c2705 	stmdbmi	ip, {r0, r2, r8, r9, sl, sp}
     8a8:	12011113 	andne	r1, r1, #-1073741820	; 0xc0000004
     8ac:	01064001 	tsteq	r6, r1
     8b0:	12000013 	andne	r0, r0, #19
     8b4:	0e030034 	mcreq	0, 0, r0, cr3, cr4, {1}
     8b8:	053b0b3a 	ldreq	r0, [fp, #-2874]!	; 0xb3a
     8bc:	06021349 	streq	r1, [r2], -r9, asr #6
     8c0:	05130000 	ldreq	r0, [r3]
     8c4:	3a0e0300 	bcc	3814cc <__bss_end+0x37d244>
     8c8:	49053b0b 	stmdbmi	r5, {r0, r1, r3, r8, r9, fp, ip, sp}
     8cc:	00060213 	andeq	r0, r6, r3, lsl r2
     8d0:	012e1400 	teqeq	lr, r0, lsl #8
     8d4:	0e030c3f 	mcreq	12, 0, r0, cr3, cr15, {1}
     8d8:	0b3b0b3a 	bleq	ec35c8 <__bss_end+0xebf340>
     8dc:	13490c27 	movtne	r0, #39975	; 0x9c27
     8e0:	01120111 	tsteq	r2, r1, lsl r1
     8e4:	13010640 	movwne	r0, #5696	; 0x1640
     8e8:	05150000 	ldreq	r0, [r5]
     8ec:	3a0e0300 	bcc	3814f4 <__bss_end+0x37d26c>
     8f0:	490b3b0b 	stmdbmi	fp, {r0, r1, r3, r8, r9, fp, ip, sp}
     8f4:	00060213 	andeq	r0, r6, r3, lsl r2
     8f8:	00341600 	eorseq	r1, r4, r0, lsl #12
     8fc:	0b3a0e03 	bleq	e84110 <__bss_end+0xe7fe88>
     900:	13490b3b 	movtne	r0, #39739	; 0x9b3b
     904:	00000a02 	andeq	r0, r0, r2, lsl #20
     908:	03003417 	movweq	r3, #1047	; 0x417
     90c:	3b0b3a08 	blcc	2cf134 <__bss_end+0x2caeac>
     910:	0213490b 	andseq	r4, r3, #180224	; 0x2c000
     914:	18000006 	stmdane	r0, {r1, r2}
     918:	1331011d 	teqne	r1, #1073741831	; 0x40000007
     91c:	06550152 	undefined instruction 0x06550152
     920:	0b590b58 	bleq	1643688 <__bss_end+0x163f400>
     924:	05190000 	ldreq	r0, [r9]
     928:	00133100 	andseq	r3, r3, r0, lsl #2
     92c:	010b1a00 	tsteq	fp, r0, lsl #20
     930:	00000655 	andeq	r0, r0, r5, asr r6
     934:	3100341b 	tstcc	r0, fp, lsl r4
     938:	1c000013 	stcne	0, cr0, [r0], {19}
     93c:	0e030034 	mcreq	0, 0, r0, cr3, cr4, {1}
     940:	0b3b0b3a 	bleq	ec3630 <__bss_end+0xebf3a8>
     944:	06021349 	streq	r1, [r2], -r9, asr #6
     948:	1d1d0000 	ldcne	0, cr0, [sp]
     94c:	52133101 	andspl	r3, r3, #1073741824	; 0x40000000
     950:	58065501 	stmdapl	r6, {r0, r8, sl, ip, lr}
     954:	010b590b 	tsteq	fp, fp, lsl #18
     958:	1e000013 	mcrne	0, 0, r0, cr0, cr3, {0}
     95c:	1331011d 	teqne	r1, #1073741831	; 0x40000007
     960:	01120111 	tsteq	r2, r1, lsl r1
     964:	0b590b58 	bleq	16436cc <__bss_end+0x163f444>
     968:	00001301 	andeq	r1, r0, r1, lsl #6
     96c:	3100051f 	tstcc	r0, pc, lsl r5
     970:	00060213 	andeq	r0, r6, r3, lsl r2
     974:	00342000 	eorseq	r2, r4, r0
     978:	06021331 	undefined instruction 0x06021331
     97c:	01210000 	teqeq	r1, r0
     980:	01134901 	tsteq	r3, r1, lsl #18
     984:	22000013 	andcs	r0, r0, #19
     988:	13490021 	movtne	r0, #36897	; 0x9021
     98c:	00000b2f 	andeq	r0, r0, pc, lsr #22
     990:	49002623 	stmdbmi	r0, {r0, r1, r5, r9, sl, sp}
     994:	00000013 	andeq	r0, r0, r3, lsl r0
     998:	25011101 	strcs	r1, [r1, #-257]	; 0x101
     99c:	030b130e 	movweq	r1, #45838	; 0xb30e
     9a0:	110e1b0e 	tstne	lr, lr, lsl #22
     9a4:	10011201 	andne	r1, r1, r1, lsl #4
     9a8:	02000006 	andeq	r0, r0, #6
     9ac:	0b0b0024 	bleq	2c0a44 <__bss_end+0x2bc7bc>
     9b0:	0e030b3e 	vmoveq.16	d3[0], r0
     9b4:	24030000 	strcs	r0, [r3]
     9b8:	3e0b0b00 	vmlacc.f64	d0, d11, d0
     9bc:	0400000b 	streq	r0, [r0], #-11
     9c0:	0e030016 	mcreq	0, 0, r0, cr3, cr6, {0}
     9c4:	0b3b0b3a 	bleq	ec36b4 <__bss_end+0xebf42c>
     9c8:	00001349 	andeq	r1, r0, r9, asr #6
     9cc:	0b002405 	bleq	99e8 <__bss_end+0x5760>
     9d0:	030b3e0b 	movweq	r3, #48651	; 0xbe0b
     9d4:	06000008 	streq	r0, [r0], -r8
     9d8:	0e030104 	adfeqs	f0, f3, f4
     9dc:	0b3a0b0b 	bleq	e83610 <__bss_end+0xe7f388>
     9e0:	13010b3b 	movwne	r0, #6971	; 0x1b3b
     9e4:	28070000 	stmdacs	r7, {}
     9e8:	1c0e0300 	stcne	3, cr0, [lr], {0}
     9ec:	0800000d 	stmdaeq	r0, {r0, r2, r3}
     9f0:	0c3f012e 	ldfeqs	f0, [pc], #-184	; 0xffffff48
     9f4:	0b3a0e03 	bleq	e84208 <__bss_end+0xe7ff80>
     9f8:	0c270b3b 	stceq	11, cr0, [r7], #-236	; 0xffffff14
     9fc:	13010b20 	movwne	r0, #6944	; 0x1b20
     a00:	05090000 	streq	r0, [r9]
     a04:	3a0e0300 	bcc	38160c <__bss_end+0x37d384>
     a08:	490b3b0b 	stmdbmi	fp, {r0, r1, r3, r8, r9, fp, ip, sp}
     a0c:	0a000013 	beq	a60 <mem_clk_set_pll_factor+0x3c>
     a10:	08030005 	stmdaeq	r3, {r0, r2}
     a14:	0b3b0b3a 	bleq	ec3704 <__bss_end+0xebf47c>
     a18:	00001349 	andeq	r1, r0, r9, asr #6
     a1c:	0300340b 	movweq	r3, #1035	; 0x40b
     a20:	3b0b3a0e 	blcc	2cf260 <__bss_end+0x2cafd8>
     a24:	0013490b 	andseq	r4, r3, fp, lsl #18
     a28:	012e0c00 	teqeq	lr, r0, lsl #24
     a2c:	0e030c3f 	mcreq	12, 0, r0, cr3, cr15, {1}
     a30:	0b3b0b3a 	bleq	ec3720 <__bss_end+0xebf498>
     a34:	13490c27 	movtne	r0, #39975	; 0x9c27
     a38:	13010b20 	movwne	r0, #6944	; 0x1b20
     a3c:	2e0d0000 	cdpcs	0, 0, cr0, cr13, cr0, {0}
     a40:	030c3f00 	movweq	r3, #52992	; 0xcf00
     a44:	3b0b3a0e 	blcc	2cf284 <__bss_end+0x2caffc>
     a48:	200c270b 	andcs	r2, ip, fp, lsl #14
     a4c:	0e00000b 	cdpeq	0, 0, cr0, cr0, cr11, {0}
     a50:	0e03012e 	adfeqsp	f0, f3, #0.5
     a54:	053b0b3a 	ldreq	r0, [fp, #-2874]!	; 0xb3a
     a58:	13490c27 	movtne	r0, #39975	; 0x9c27
     a5c:	13010b20 	movwne	r0, #6944	; 0x1b20
     a60:	340f0000 	strcc	r0, [pc], #0	; a68 <mem_clk_set_pll_factor+0x44>
     a64:	3a0e0300 	bcc	38166c <__bss_end+0x37d3e4>
     a68:	49053b0b 	stmdbmi	r5, {r0, r1, r3, r8, r9, fp, ip, sp}
     a6c:	10000013 	andne	r0, r0, r3, lsl r0
     a70:	1331012e 	teqne	r1, #-2147483637	; 0x8000000b
     a74:	01120111 	tsteq	r2, r1, lsl r1
     a78:	13010a40 	movwne	r0, #6720	; 0x1a40
     a7c:	05110000 	ldreq	r0, [r1]
     a80:	02133100 	andseq	r3, r3, #0
     a84:	1200000a 	andne	r0, r0, #10
     a88:	13310034 	teqne	r1, #52	; 0x34
     a8c:	00000a02 	andeq	r0, r0, r2, lsl #20
     a90:	31000513 	tstcc	r0, r3, lsl r5
     a94:	00060213 	andeq	r0, r6, r3, lsl r2
     a98:	012e1400 	teqeq	lr, r0, lsl #8
     a9c:	0e030c3f 	mcreq	12, 0, r0, cr3, cr15, {1}
     aa0:	0b3b0b3a 	bleq	ec3790 <__bss_end+0xebf508>
     aa4:	01110c27 	tsteq	r1, r7, lsr #24
     aa8:	06400112 	undefined instruction 0x06400112
     aac:	00001301 	andeq	r1, r0, r1, lsl #6
     ab0:	03000515 	movweq	r0, #1301	; 0x515
     ab4:	3b0b3a0e 	blcc	2cf2f4 <__bss_end+0x2cb06c>
     ab8:	0213490b 	andseq	r4, r3, #180224	; 0x2c000
     abc:	1600000a 	strne	r0, [r0], -sl
     ac0:	0e030005 	cdpeq	0, 0, cr0, cr3, cr5, {0}
     ac4:	0b3b0b3a 	bleq	ec37b4 <__bss_end+0xebf52c>
     ac8:	06021349 	streq	r1, [r2], -r9, asr #6
     acc:	34170000 	ldrcc	r0, [r7]
     ad0:	3a0e0300 	bcc	3816d8 <__bss_end+0x37d450>
     ad4:	490b3b0b 	stmdbmi	fp, {r0, r1, r3, r8, r9, fp, ip, sp}
     ad8:	00060213 	andeq	r0, r6, r3, lsl r2
     adc:	012e1800 	teqeq	lr, r0, lsl #16
     ae0:	0e030c3f 	mcreq	12, 0, r0, cr3, cr15, {1}
     ae4:	053b0b3a 	ldreq	r0, [fp, #-2874]!	; 0xb3a
     ae8:	01110c27 	tsteq	r1, r7, lsr #24
     aec:	0a400112 	beq	1000f3c <__bss_end+0xffccb4>
     af0:	00001301 	andeq	r1, r0, r1, lsl #6
     af4:	03000519 	movweq	r0, #1305	; 0x519
     af8:	3b0b3a0e 	blcc	2cf338 <__bss_end+0x2cb0b0>
     afc:	02134905 	andseq	r4, r3, #81920	; 0x14000
     b00:	1a00000a 	bne	b30 <mem_twi_init+0x2c>
     b04:	08030005 	stmdaeq	r3, {r0, r2}
     b08:	053b0b3a 	ldreq	r0, [fp, #-2874]!	; 0xb3a
     b0c:	0a021349 	beq	85838 <__bss_end+0x815b0>
     b10:	1d1b0000 	ldcne	0, cr0, [fp]
     b14:	11133101 	tstne	r3, r1, lsl #2
     b18:	58011201 	stmdapl	r1, {r0, r9, ip}
     b1c:	0005590b 	andeq	r5, r5, fp, lsl #18
     b20:	00051c00 	andeq	r1, r5, r0, lsl #24
     b24:	00001331 	andeq	r1, r0, r1, lsr r3
     b28:	11010b1d 	tstne	r1, sp, lsl fp
     b2c:	00011201 	andeq	r1, r1, r1, lsl #4
     b30:	012e1e00 	teqeq	lr, r0, lsl #28
     b34:	0e030c3f 	mcreq	12, 0, r0, cr3, cr15, {1}
     b38:	053b0b3a 	ldreq	r0, [fp, #-2874]!	; 0xb3a
     b3c:	13490c27 	movtne	r0, #39975	; 0x9c27
     b40:	01120111 	tsteq	r2, r1, lsl r1
     b44:	13010a40 	movwne	r0, #6720	; 0x1a40
     b48:	051f0000 	ldreq	r0, [pc, #0]	; b50 <mem_twi_init+0x4c>
     b4c:	3a0e0300 	bcc	381754 <__bss_end+0x37d4cc>
     b50:	49053b0b 	stmdbmi	r5, {r0, r1, r3, r8, r9, fp, ip, sp}
     b54:	00060213 	andeq	r0, r6, r3, lsl r2
     b58:	012e2000 	teqeq	lr, r0
     b5c:	0e030c3f 	mcreq	12, 0, r0, cr3, cr15, {1}
     b60:	0b3b0b3a 	bleq	ec3850 <__bss_end+0xebf5c8>
     b64:	13490c27 	movtne	r0, #39975	; 0x9c27
     b68:	01120111 	tsteq	r2, r1, lsl r1
     b6c:	13010640 	movwne	r0, #5696	; 0x1640
     b70:	34210000 	strtcc	r0, [r1]
     b74:	3a080300 	bcc	20177c <__bss_end+0x1fd4f4>
     b78:	490b3b0b 	stmdbmi	fp, {r0, r1, r3, r8, r9, fp, ip, sp}
     b7c:	22000013 	andcs	r0, r0, #19
     b80:	0c3f012e 	ldfeqs	f0, [pc], #-184	; 0xffffff48
     b84:	0b3a0e03 	bleq	e84398 <__bss_end+0xe80110>
     b88:	0c270b3b 	stceq	11, cr0, [r7], #-236	; 0xffffff14
     b8c:	01120111 	tsteq	r2, r1, lsl r1
     b90:	13010a40 	movwne	r0, #6720	; 0x1a40
     b94:	2e230000 	cdpcs	0, 2, cr0, cr3, cr0, {0}
     b98:	030c3f00 	movweq	r3, #52992	; 0xcf00
     b9c:	3b0b3a0e 	blcc	2cf3dc <__bss_end+0x2cb154>
     ba0:	110c2705 	tstne	ip, r5, lsl #14
     ba4:	40011201 	andmi	r1, r1, r1, lsl #4
     ba8:	2400000a 	strcs	r0, [r0], #-10
     bac:	1331002e 	teqne	r1, #46	; 0x2e
     bb0:	01120111 	tsteq	r2, r1, lsl r1
     bb4:	00000a40 	andeq	r0, r0, r0, asr #20
     bb8:	31001d25 	tstcc	r0, r5, lsr #26
     bbc:	12011113 	andne	r1, r1, #-1073741820	; 0xc0000004
     bc0:	590b5801 	stmdbpl	fp, {r0, fp, ip, lr}
     bc4:	26000005 	strcs	r0, [r0], -r5
     bc8:	08030034 	stmdaeq	r3, {r2, r4, r5}
     bcc:	0b3b0b3a 	bleq	ec38bc <__bss_end+0xebf634>
     bd0:	0a021349 	beq	858fc <__bss_end+0x81674>
     bd4:	1d270000 	stcne	0, cr0, [r7]
     bd8:	52133101 	andspl	r3, r3, #1073741824	; 0x40000000
     bdc:	58065501 	stmdapl	r6, {r0, r8, sl, ip, lr}
     be0:	000b590b 	andeq	r5, fp, fp, lsl #18
     be4:	010b2800 	tsteq	fp, r0, lsl #16
     be8:	00000655 	andeq	r0, r0, r5, asr r6
     bec:	03003429 	movweq	r3, #1065	; 0x429
     bf0:	3b0b3a08 	blcc	2cf418 <__bss_end+0x2cb190>
     bf4:	0213490b 	andseq	r4, r3, #180224	; 0x2c000
     bf8:	2a000006 	bcs	c18 <setup_twi_env+0x2c>
     bfc:	13310034 	teqne	r1, #52	; 0x34
     c00:	00000602 	andeq	r0, r0, r2, lsl #12
     c04:	3f012e2b 	svccc	0x00012e2b
     c08:	3a0e030c 	bcc	381840 <__bss_end+0x37d5b8>
     c0c:	27053b0b 	strcs	r3, [r5, -fp, lsl #22]
     c10:	1113490c 	tstne	r3, ip, lsl #18
     c14:	40011201 	andmi	r1, r1, r1, lsl #4
     c18:	00130106 	andseq	r0, r3, r6, lsl #2
     c1c:	00342c00 	eorseq	r2, r4, r0, lsl #24
     c20:	0b3a0e03 	bleq	e84434 <__bss_end+0xe801ac>
     c24:	1349053b 	movtne	r0, #38203	; 0x953b
     c28:	00000a02 	andeq	r0, r0, r2, lsl #20
     c2c:	31011d2d 	tstcc	r1, sp, lsr #26
     c30:	55015213 	strpl	r5, [r1, #-531]	; 0x213
     c34:	590b5806 	stmdbpl	fp, {r1, r2, fp, ip, lr}
     c38:	2e000005 	cdpcs	0, 0, cr0, cr0, cr5, {0}
     c3c:	13310034 	teqne	r1, #52	; 0x34
     c40:	342f0000 	strtcc	r0, [pc], #0	; c48 <twi_byte_rw>
     c44:	3a080300 	bcc	20184c <__bss_end+0x1fd5c4>
     c48:	49053b0b 	stmdbmi	r5, {r0, r1, r3, r8, r9, fp, ip, sp}
     c4c:	30000013 	andcc	r0, r0, r3, lsl r0
     c50:	0e030034 	mcreq	0, 0, r0, cr3, cr4, {1}
     c54:	053b0b3a 	ldreq	r0, [fp, #-2874]!	; 0xb3a
     c58:	06021349 	streq	r1, [r2], -r9, asr #6
     c5c:	2e310000 	cdpcs	0, 3, cr0, cr1, cr0, {0}
     c60:	030c3f00 	movweq	r3, #52992	; 0xcf00
     c64:	3b0b3a0e 	blcc	2cf4a4 <__bss_end+0x2cb21c>
     c68:	490c2705 	stmdbmi	ip, {r0, r2, r8, r9, sl, sp}
     c6c:	12011113 	andne	r1, r1, #-1073741820	; 0xc0000004
     c70:	000a4001 	andeq	r4, sl, r1
     c74:	11010000 	tstne	r1, r0
     c78:	130e2501 	movwne	r2, #58625	; 0xe501
     c7c:	1b0e030b 	blne	3818b0 <__bss_end+0x37d628>
     c80:	1201110e 	andne	r1, r1, #-2147483645	; 0x80000003
     c84:	00061001 	andeq	r1, r6, r1
     c88:	00240200 	eoreq	r0, r4, r0, lsl #4
     c8c:	0b3e0b0b 	bleq	f838c0 <__bss_end+0xf7f638>
     c90:	00000e03 	andeq	r0, r0, r3, lsl #28
     c94:	0b002403 	bleq	9ca8 <__bss_end+0x5a20>
     c98:	000b3e0b 	andeq	r3, fp, fp, lsl #28
     c9c:	00160400 	andseq	r0, r6, r0, lsl #8
     ca0:	0b3a0e03 	bleq	e844b4 <__bss_end+0xe8022c>
     ca4:	13490b3b 	movtne	r0, #39739	; 0x9b3b
     ca8:	24050000 	strcs	r0, [r5]
     cac:	3e0b0b00 	vmlacc.f64	d0, d11, d0
     cb0:	0008030b 	andeq	r0, r8, fp, lsl #6
     cb4:	01130600 	tsteq	r3, r0, lsl #12
     cb8:	0b0b0e03 	bleq	2c44cc <__bss_end+0x2c0244>
     cbc:	0b3b0b3a 	bleq	ec39ac <__bss_end+0xebf724>
     cc0:	00001301 	andeq	r1, r0, r1, lsl #6
     cc4:	03000d07 	movweq	r0, #3335	; 0xd07
     cc8:	3b0b3a0e 	blcc	2cf508 <__bss_end+0x2cb280>
     ccc:	3813490b 	ldmdacc	r3, {r0, r1, r3, r8, fp, lr}
     cd0:	0800000a 	stmdaeq	r0, {r1, r3}
     cd4:	0c3f002e 	ldceq	0, cr0, [pc], #-184	; 0xffffff48
     cd8:	0b3a0e03 	bleq	e844ec <__bss_end+0xe80264>
     cdc:	0c27053b 	cfstr32eq	mvfx0, [r7], #-236	; 0xffffff14
     ce0:	0b201349 	bleq	805a0c <__bss_end+0x801784>
     ce4:	2e090000 	cdpcs	0, 0, cr0, cr9, cr0, {0}
     ce8:	030c3f01 	movweq	r3, #52993	; 0xcf01
     cec:	3b0b3a0e 	blcc	2cf52c <__bss_end+0x2cb2a4>
     cf0:	200c270b 	andcs	r2, ip, fp, lsl #14
     cf4:	0013010b 	andseq	r0, r3, fp, lsl #2
     cf8:	00340a00 	eorseq	r0, r4, r0, lsl #20
     cfc:	0b3a0e03 	bleq	e84510 <__bss_end+0xe80288>
     d00:	13490b3b 	movtne	r0, #39739	; 0x9b3b
     d04:	2e0b0000 	cdpcs	0, 0, cr0, cr11, cr0, {0}
     d08:	030c3f01 	movweq	r3, #52993	; 0xcf01
     d0c:	3b0b3a0e 	blcc	2cf54c <__bss_end+0x2cb2c4>
     d10:	200c2705 	andcs	r2, ip, r5, lsl #14
     d14:	0013010b 	andseq	r0, r3, fp, lsl #2
     d18:	00050c00 	andeq	r0, r5, r0, lsl #24
     d1c:	0b3a0803 	bleq	e82d30 <__bss_end+0xe7eaa8>
     d20:	1349053b 	movtne	r0, #38203	; 0x953b
     d24:	340d0000 	strcc	r0, [sp]
     d28:	3a0e0300 	bcc	381930 <__bss_end+0x37d6a8>
     d2c:	49053b0b 	stmdbmi	r5, {r0, r1, r3, r8, r9, fp, ip, sp}
     d30:	0e000013 	mcreq	0, 0, r0, cr0, cr3, {0}
     d34:	0c3f012e 	ldfeqs	f0, [pc], #-184	; 0xffffff48
     d38:	0b3a0e03 	bleq	e8454c <__bss_end+0xe802c4>
     d3c:	0c27053b 	cfstr32eq	mvfx0, [r7], #-236	; 0xffffff14
     d40:	0b201349 	bleq	805a6c <__bss_end+0x8017e4>
     d44:	00001301 	andeq	r1, r0, r1, lsl #6
     d48:	03012e0f 	movweq	r2, #7695	; 0x1e0f
     d4c:	3b0b3a0e 	blcc	2cf58c <__bss_end+0x2cb304>
     d50:	490c270b 	stmdbmi	ip, {r0, r1, r3, r8, r9, sl, sp}
     d54:	010b2013 	tsteq	fp, r3, lsl r0
     d58:	10000013 	andne	r0, r0, r3, lsl r0
     d5c:	0e030005 	cdpeq	0, 0, cr0, cr3, cr5, {0}
     d60:	0b3b0b3a 	bleq	ec3a50 <__bss_end+0xebf7c8>
     d64:	00001349 	andeq	r1, r0, r9, asr #6
     d68:	03003411 	movweq	r3, #1041	; 0x411
     d6c:	3b0b3a08 	blcc	2cf594 <__bss_end+0x2cb30c>
     d70:	00134905 	andseq	r4, r3, r5, lsl #18
     d74:	012e1200 	teqeq	lr, r0, lsl #4
     d78:	01111331 	tsteq	r1, r1, lsr r3
     d7c:	0a400112 	beq	10011cc <__bss_end+0xffcf44>
     d80:	00001301 	andeq	r1, r0, r1, lsl #6
     d84:	31003413 	tstcc	r0, r3, lsl r4
     d88:	000a0213 	andeq	r0, sl, r3, lsl r2
     d8c:	012e1400 	teqeq	lr, r0, lsl #8
     d90:	0e030c3f 	mcreq	12, 0, r0, cr3, cr15, {1}
     d94:	0b3b0b3a 	bleq	ec3a84 <__bss_end+0xebf7fc>
     d98:	01110c27 	tsteq	r1, r7, lsr #24
     d9c:	0a400112 	beq	10011ec <__bss_end+0xffcf64>
     da0:	00001301 	andeq	r1, r0, r1, lsl #6
     da4:	03003415 	movweq	r3, #1045	; 0x415
     da8:	3b0b3a0e 	blcc	2cf5e8 <__bss_end+0x2cb360>
     dac:	0213490b 	andseq	r4, r3, #180224	; 0x2c000
     db0:	1600000a 	strne	r0, [r0], -sl
     db4:	1331002e 	teqne	r1, #46	; 0x2e
     db8:	01120111 	tsteq	r2, r1, lsl r1
     dbc:	00000a40 	andeq	r0, r0, r0, asr #20
     dc0:	31003417 	tstcc	r0, r7, lsl r4
     dc4:	00060213 	andeq	r0, r6, r3, lsl r2
     dc8:	00051800 	andeq	r1, r5, r0, lsl #16
     dcc:	0a021331 	beq	85a98 <__bss_end+0x81810>
     dd0:	34190000 	ldrcc	r0, [r9]
     dd4:	00133100 	andseq	r3, r3, r0, lsl #2
     dd8:	012e1a00 	teqeq	lr, r0, lsl #20
     ddc:	0e030c3f 	mcreq	12, 0, r0, cr3, cr15, {1}
     de0:	053b0b3a 	ldreq	r0, [fp, #-2874]!	; 0xb3a
     de4:	13490c27 	movtne	r0, #39975	; 0x9c27
     de8:	01120111 	tsteq	r2, r1, lsl r1
     dec:	13010a40 	movwne	r0, #6720	; 0x1a40
     df0:	341b0000 	ldrcc	r0, [fp]
     df4:	3a0e0300 	bcc	3819fc <__bss_end+0x37d774>
     df8:	49053b0b 	stmdbmi	r5, {r0, r1, r3, r8, r9, fp, ip, sp}
     dfc:	00060213 	andeq	r0, r6, r3, lsl r2
     e00:	002e1c00 	eoreq	r1, lr, r0, lsl #24
     e04:	0e030c3f 	mcreq	12, 0, r0, cr3, cr15, {1}
     e08:	053b0b3a 	ldreq	r0, [fp, #-2874]!	; 0xb3a
     e0c:	13490c27 	movtne	r0, #39975	; 0x9c27
     e10:	01120111 	tsteq	r2, r1, lsl r1
     e14:	00000a40 	andeq	r0, r0, r0, asr #20
     e18:	3f012e1d 	svccc	0x00012e1d
     e1c:	3a0e030c 	bcc	381a54 <__bss_end+0x37d7cc>
     e20:	27053b0b 	strcs	r3, [r5, -fp, lsl #22]
     e24:	1201110c 	andne	r1, r1, #3
     e28:	010a4001 	tsteq	sl, r1
     e2c:	1e000013 	mcrne	0, 0, r0, cr0, cr3, {0}
     e30:	1331011d 	teqne	r1, #1073741831	; 0x40000007
     e34:	01120111 	tsteq	r2, r1, lsl r1
     e38:	05590b58 	ldrbeq	r0, [r9, #-2904]	; 0xb58
     e3c:	0b1f0000 	bleq	7c0e44 <__bss_end+0x7bcbbc>
     e40:	12011101 	andne	r1, r1, #1073741824	; 0x40000000
     e44:	20000001 	andcs	r0, r0, r1
     e48:	08030005 	stmdaeq	r3, {r0, r2}
     e4c:	053b0b3a 	ldreq	r0, [fp, #-2874]!	; 0xb3a
     e50:	0a021349 	beq	85b7c <__bss_end+0x818f4>
     e54:	05210000 	streq	r0, [r1]!
     e58:	00133100 	andseq	r3, r3, r0, lsl #2
     e5c:	00052200 	andeq	r2, r5, r0, lsl #4
     e60:	0b3a0e03 	bleq	e84674 <__bss_end+0xe803ec>
     e64:	1349053b 	movtne	r0, #38203	; 0x953b
     e68:	00000602 	andeq	r0, r0, r2, lsl #12
     e6c:	0b000f23 	bleq	4b00 <__bss_end+0x878>
     e70:	0013490b 	andseq	r4, r3, fp, lsl #18
     e74:	012e2400 	teqeq	lr, r0, lsl #8
     e78:	0e030c3f 	mcreq	12, 0, r0, cr3, cr15, {1}
     e7c:	053b0b3a 	ldreq	r0, [fp, #-2874]!	; 0xb3a
     e80:	01110c27 	tsteq	r1, r7, lsr #24
     e84:	06400112 	undefined instruction 0x06400112
     e88:	00001301 	andeq	r1, r0, r1, lsl #6
     e8c:	03000525 	movweq	r0, #1317	; 0x525
     e90:	3b0b3a08 	blcc	2cf6b8 <__bss_end+0x2cb430>
     e94:	02134905 	andseq	r4, r3, #81920	; 0x14000
     e98:	26000006 	strcs	r0, [r0], -r6
     e9c:	1331011d 	teqne	r1, #1073741831	; 0x40000007
     ea0:	06550152 	undefined instruction 0x06550152
     ea4:	05590b58 	ldrbeq	r0, [r9, #-2904]	; 0xb58
     ea8:	0b270000 	bleq	9c0eb0 <__bss_end+0x9bcc28>
     eac:	00065501 	andeq	r5, r6, r1, lsl #10
     eb0:	012e2800 	teqeq	lr, r0, lsl #16
     eb4:	0e030c3f 	mcreq	12, 0, r0, cr3, cr15, {1}
     eb8:	0b3b0b3a 	bleq	ec3ba8 <__bss_end+0xebf920>
     ebc:	01110c27 	tsteq	r1, r7, lsr #24
     ec0:	06400112 	undefined instruction 0x06400112
     ec4:	00001301 	andeq	r1, r0, r1, lsl #6
     ec8:	03003429 	movweq	r3, #1065	; 0x429
     ecc:	3b0b3a08 	blcc	2cf6f4 <__bss_end+0x2cb46c>
     ed0:	0213490b 	andseq	r4, r3, #180224	; 0x2c000
     ed4:	2a000006 	bcs	ef4 <twi_byte_rw+0x2ac>
     ed8:	0e030034 	mcreq	0, 0, r0, cr3, cr4, {1}
     edc:	0b3b0b3a 	bleq	ec3bcc <__bss_end+0xebf944>
     ee0:	06021349 	streq	r1, [r2], -r9, asr #6
     ee4:	342b0000 	strtcc	r0, [fp]
     ee8:	3a080300 	bcc	201af0 <__bss_end+0x1fd868>
     eec:	490b3b0b 	stmdbmi	fp, {r0, r1, r3, r8, r9, fp, ip, sp}
     ef0:	2c000013 	stccs	0, cr0, [r0], {19}
     ef4:	0c3f012e 	ldfeqs	f0, [pc], #-184	; 0xffffff48
     ef8:	0b3a0e03 	bleq	e8470c <__bss_end+0xe80484>
     efc:	0c27053b 	cfstr32eq	mvfx0, [r7], #-236	; 0xffffff14
     f00:	01111349 	tsteq	r1, r9, asr #6
     f04:	06400112 	undefined instruction 0x06400112
     f08:	00001301 	andeq	r1, r0, r1, lsl #6
     f0c:	31011d2d 	tstcc	r1, sp, lsr #26
     f10:	12011113 	andne	r1, r1, #-1073741820	; 0xc0000004
     f14:	590b5801 	stmdbpl	fp, {r0, fp, ip, lr}
     f18:	00130105 	andseq	r0, r3, r5, lsl #2
     f1c:	011d2e00 	tsteq	sp, r0, lsl #28
     f20:	01521331 	cmpeq	r2, r1, lsr r3
     f24:	0b580655 	bleq	1602880 <__bss_end+0x15fe5f8>
     f28:	13010559 	movwne	r0, #5465	; 0x1559
     f2c:	342f0000 	strtcc	r0, [pc], #0	; f34 <twi_byte_rw_nommu+0x14>
     f30:	3a080300 	bcc	201b38 <__bss_end+0x1fd8b0>
     f34:	49053b0b 	stmdbmi	r5, {r0, r1, r3, r8, r9, fp, ip, sp}
     f38:	000a0213 	andeq	r0, sl, r3, lsl r2
     f3c:	00343000 	eorseq	r3, r4, r0
     f40:	0b3a0e03 	bleq	e84754 <__bss_end+0xe804cc>
     f44:	1349053b 	movtne	r0, #38203	; 0x953b
     f48:	00000a02 	andeq	r0, r0, r2, lsl #20
     f4c:	31000531 	tstcc	r0, r1, lsr r5
     f50:	00060213 	andeq	r0, r6, r3, lsl r2
     f54:	00343200 	eorseq	r3, r4, r0, lsl #4
     f58:	0b3a0803 	bleq	e82f6c <__bss_end+0xe7ece4>
     f5c:	13490b3b 	movtne	r0, #39739	; 0x9b3b
     f60:	00000a02 	andeq	r0, r0, r2, lsl #20
     f64:	49010133 	stmdbmi	r1, {r0, r1, r4, r5, r8}
     f68:	00130113 	andseq	r0, r3, r3, lsl r1
     f6c:	00213400 	eoreq	r3, r1, r0, lsl #8
     f70:	0b2f1349 	bleq	bc5c9c <__bss_end+0xbc1a14>
     f74:	34350000 	ldrtcc	r0, [r5]
     f78:	3a0e0300 	bcc	381b80 <__bss_end+0x37d8f8>
     f7c:	49053b0b 	stmdbmi	r5, {r0, r1, r3, r8, r9, fp, ip, sp}
     f80:	020c3f13 	andeq	r3, ip, #76	; 0x4c
     f84:	0000000a 	andeq	r0, r0, sl
     f88:	25011101 	strcs	r1, [r1, #-257]	; 0x101
     f8c:	030b130e 	movweq	r1, #45838	; 0xb30e
     f90:	110e1b0e 	tstne	lr, lr, lsl #22
     f94:	10011201 	andne	r1, r1, r1, lsl #4
     f98:	02000006 	andeq	r0, r0, #6
     f9c:	0b0b0024 	bleq	2c1034 <__bss_end+0x2bcdac>
     fa0:	0e030b3e 	vmoveq.16	d3[0], r0
     fa4:	16030000 	strne	r0, [r3], -r0
     fa8:	3a0e0300 	bcc	381bb0 <__bss_end+0x37d928>
     fac:	490b3b0b 	stmdbmi	fp, {r0, r1, r3, r8, r9, fp, ip, sp}
     fb0:	04000013 	streq	r0, [r0], #-19
     fb4:	0b0b0024 	bleq	2c104c <__bss_end+0x2bcdc4>
     fb8:	08030b3e 	stmdaeq	r3, {r1, r2, r3, r4, r5, r8, r9, fp}
     fbc:	24050000 	strcs	r0, [r5]
     fc0:	3e0b0b00 	vmlacc.f64	d0, d11, d0
     fc4:	0600000b 	streq	r0, [r0], -fp
     fc8:	0c3f012e 	ldfeqs	f0, [pc], #-184	; 0xffffff48
     fcc:	0b3a0e03 	bleq	e847e0 <__bss_end+0xe80558>
     fd0:	0c270b3b 	stceq	11, cr0, [r7], #-236	; 0xffffff14
     fd4:	0b201349 	bleq	805d00 <__bss_end+0x801a78>
     fd8:	00001301 	andeq	r1, r0, r1, lsl #6
     fdc:	03003407 	movweq	r3, #1031	; 0x407
     fe0:	3b0b3a0e 	blcc	2cf820 <__bss_end+0x2cb598>
     fe4:	0013490b 	andseq	r4, r3, fp, lsl #18
     fe8:	012e0800 	teqeq	lr, r0, lsl #16
     fec:	0b3a0e03 	bleq	e84800 <__bss_end+0xe80578>
     ff0:	0c270b3b 	stceq	11, cr0, [r7], #-236	; 0xffffff14
     ff4:	0b201349 	bleq	805d20 <__bss_end+0x801a98>
     ff8:	00001301 	andeq	r1, r0, r1, lsl #6
     ffc:	03000509 	movweq	r0, #1289	; 0x509
    1000:	3b0b3a0e 	blcc	2cf840 <__bss_end+0x2cb5b8>
    1004:	0013490b 	andseq	r4, r3, fp, lsl #18
    1008:	012e0a00 	teqeq	lr, r0, lsl #20
    100c:	0e030c3f 	mcreq	12, 0, r0, cr3, cr15, {1}
    1010:	0b3b0b3a 	bleq	ec3d00 <__bss_end+0xebfa78>
    1014:	01110c27 	tsteq	r1, r7, lsr #24
    1018:	06400112 	undefined instruction 0x06400112
    101c:	00001301 	andeq	r1, r0, r1, lsl #6
    1020:	0300340b 	movweq	r3, #1035	; 0x40b
    1024:	3b0b3a0e 	blcc	2cf864 <__bss_end+0x2cb5dc>
    1028:	0213490b 	andseq	r4, r3, #180224	; 0x2c000
    102c:	0c000006 	stceq	0, cr0, [r0], {6}
    1030:	13490035 	movtne	r0, #36917	; 0x9035
    1034:	2e0d0000 	cdpcs	0, 0, cr0, cr13, cr0, {0}
    1038:	030c3f01 	movweq	r3, #52993	; 0xcf01
    103c:	3b0b3a0e 	blcc	2cf87c <__bss_end+0x2cb5f4>
    1040:	110c270b 	tstne	ip, fp, lsl #14
    1044:	40011201 	andmi	r1, r1, r1, lsl #4
    1048:	0013010a 	andseq	r0, r3, sl, lsl #2
    104c:	00340e00 	eorseq	r0, r4, r0, lsl #28
    1050:	0b3a0e03 	bleq	e84864 <__bss_end+0xe805dc>
    1054:	13490b3b 	movtne	r0, #39739	; 0x9b3b
    1058:	00000a02 	andeq	r0, r0, r2, lsl #20
    105c:	0300050f 	movweq	r0, #1295	; 0x50f
    1060:	3b0b3a08 	blcc	2cf888 <__bss_end+0x2cb600>
    1064:	0213490b 	andseq	r4, r3, #180224	; 0x2c000
    1068:	1000000a 	andne	r0, r0, sl
    106c:	0c3f002e 	ldceq	0, cr0, [pc], #-184	; 0xffffff48
    1070:	0b3a0e03 	bleq	e84884 <__bss_end+0xe805fc>
    1074:	0c270b3b 	stceq	11, cr0, [r7], #-236	; 0xffffff14
    1078:	01111349 	tsteq	r1, r9, asr #6
    107c:	0a400112 	beq	10014cc <__bss_end+0xffd244>
    1080:	2e110000 	cdpcs	0, 1, cr0, cr1, cr0, {0}
    1084:	030c3f01 	movweq	r3, #52993	; 0xcf01
    1088:	3b0b3a0e 	blcc	2cf8c8 <__bss_end+0x2cb640>
    108c:	490c270b 	stmdbmi	ip, {r0, r1, r3, r8, r9, sl, sp}
    1090:	12011113 	andne	r1, r1, #-1073741820	; 0xc0000004
    1094:	01064001 	tsteq	r6, r1
    1098:	12000013 	andne	r0, r0, #19
    109c:	08030005 	stmdaeq	r3, {r0, r2}
    10a0:	0b3b0b3a 	bleq	ec3d90 <__bss_end+0xebfb08>
    10a4:	06021349 	streq	r1, [r2], -r9, asr #6
    10a8:	34130000 	ldrcc	r0, [r3]
    10ac:	3a080300 	bcc	201cb4 <__bss_end+0x1fda2c>
    10b0:	490b3b0b 	stmdbmi	fp, {r0, r1, r3, r8, r9, fp, ip, sp}
    10b4:	00060213 	andeq	r0, r6, r3, lsl r2
    10b8:	012e1400 	teqeq	lr, r0, lsl #8
    10bc:	01111331 	tsteq	r1, r1, lsr r3
    10c0:	0a400112 	beq	1001510 <__bss_end+0xffd288>
    10c4:	00001301 	andeq	r1, r0, r1, lsl #6
    10c8:	31003415 	tstcc	r0, r5, lsl r4
    10cc:	00060213 	andeq	r0, r6, r3, lsl r2
    10d0:	002e1600 	eoreq	r1, lr, r0, lsl #12
    10d4:	0e030c3f 	mcreq	12, 0, r0, cr3, cr15, {1}
    10d8:	0b3b0b3a 	bleq	ec3dc8 <__bss_end+0xebfb40>
    10dc:	01110c27 	tsteq	r1, r7, lsr #24
    10e0:	0a400112 	beq	1001530 <__bss_end+0xffd2a8>
    10e4:	05170000 	ldreq	r0, [r7]
    10e8:	3a0e0300 	bcc	381cf0 <__bss_end+0x37da68>
    10ec:	490b3b0b 	stmdbmi	fp, {r0, r1, r3, r8, r9, fp, ip, sp}
    10f0:	00060213 	andeq	r0, r6, r3, lsl r2
    10f4:	00051800 	andeq	r1, r5, r0, lsl #16
    10f8:	0b3a0e03 	bleq	e8490c <__bss_end+0xe80684>
    10fc:	13490b3b 	movtne	r0, #39739	; 0x9b3b
    1100:	00000a02 	andeq	r0, r0, r2, lsl #20
    1104:	31011d19 	tstcc	r1, r9, lsl sp
    1108:	12011113 	andne	r1, r1, #-1073741820	; 0xc0000004
    110c:	590b5801 	stmdbpl	fp, {r0, fp, ip, lr}
    1110:	0013010b 	andseq	r0, r3, fp, lsl #2
    1114:	010b1a00 	tsteq	fp, r0, lsl #20
    1118:	01120111 	tsteq	r2, r1, lsl r1
    111c:	341b0000 	ldrcc	r0, [fp]
    1120:	00133100 	andseq	r3, r3, r0, lsl #2
    1124:	011d1c00 	tsteq	sp, r0, lsl #24
    1128:	01521331 	cmpeq	r2, r1, lsr r3
    112c:	0b580655 	bleq	1602a88 <__bss_end+0x15fe800>
    1130:	00000b59 	andeq	r0, r0, r9, asr fp
    1134:	3100051d 	tstcc	r0, sp, lsl r5
    1138:	1e000013 	mcrne	0, 0, r0, cr0, cr3, {0}
    113c:	13310005 	teqne	r1, #5
    1140:	00000a02 	andeq	r0, r0, r2, lsl #20
    1144:	55010b1f 	strpl	r0, [r1, #-2847]	; 0xb1f
    1148:	20000006 	andcs	r0, r0, r6
    114c:	13310034 	teqne	r1, #52	; 0x34
    1150:	00000a02 	andeq	r0, r0, r2, lsl #20
    1154:	31011d21 	tstcc	r1, r1, lsr #26
    1158:	12011113 	andne	r1, r1, #-1073741820	; 0xc0000004
    115c:	590b5801 	stmdbpl	fp, {r0, fp, ip, lr}
    1160:	2200000b 	andcs	r0, r0, #11
    1164:	0c3f012e 	ldfeqs	f0, [pc], #-184	; 0xffffff48
    1168:	0b3a0e03 	bleq	e8497c <__bss_end+0xe806f4>
    116c:	0c27053b 	cfstr32eq	mvfx0, [r7], #-236	; 0xffffff14
    1170:	01120111 	tsteq	r2, r1, lsl r1
    1174:	13010a40 	movwne	r0, #6720	; 0x1a40
    1178:	05230000 	streq	r0, [r3]!
    117c:	3a080300 	bcc	201d84 <__bss_end+0x1fdafc>
    1180:	49053b0b 	stmdbmi	r5, {r0, r1, r3, r8, r9, fp, ip, sp}
    1184:	00060213 	andeq	r0, r6, r3, lsl r2
    1188:	002e2400 	eoreq	r2, lr, r0, lsl #8
    118c:	0e030c3f 	mcreq	12, 0, r0, cr3, cr15, {1}
    1190:	053b0b3a 	ldreq	r0, [fp, #-2874]!	; 0xb3a
    1194:	01110c27 	tsteq	r1, r7, lsr #24
    1198:	0a400112 	beq	10015e8 <__bss_end+0xffd360>
    119c:	34250000 	strtcc	r0, [r5]
    11a0:	3a0e0300 	bcc	381da8 <__bss_end+0x37db20>
    11a4:	49053b0b 	stmdbmi	r5, {r0, r1, r3, r8, r9, fp, ip, sp}
    11a8:	000a0213 	andeq	r0, sl, r3, lsl r2
    11ac:	012e2600 	teqeq	lr, r0, lsl #12
    11b0:	0e030c3f 	mcreq	12, 0, r0, cr3, cr15, {1}
    11b4:	053b0b3a 	ldreq	r0, [fp, #-2874]!	; 0xb3a
    11b8:	01110c27 	tsteq	r1, r7, lsr #24
    11bc:	06400112 	undefined instruction 0x06400112
    11c0:	00001301 	andeq	r1, r0, r1, lsl #6
    11c4:	03003427 	movweq	r3, #1063	; 0x427
    11c8:	3b0b3a0e 	blcc	2cfa08 <__bss_end+0x2cb780>
    11cc:	02134905 	andseq	r4, r3, #81920	; 0x14000
    11d0:	00000006 	andeq	r0, r0, r6
    11d4:	10001101 	andne	r1, r0, r1, lsl #2
    11d8:	12011106 	andne	r1, r1, #-2147483647	; 0x80000001
    11dc:	1b080301 	blne	201de8 <__bss_end+0x1fdb60>
    11e0:	13082508 	movwne	r2, #34056	; 0x8508
    11e4:	00000005 	andeq	r0, r0, r5
    11e8:	25011101 	strcs	r1, [r1, #-257]	; 0x101
    11ec:	030b130e 	movweq	r1, #45838	; 0xb30e
    11f0:	110e1b0e 	tstne	lr, lr, lsl #22
    11f4:	10011201 	andne	r1, r1, r1, lsl #4
    11f8:	02000006 	andeq	r0, r0, #6
    11fc:	0b0b0024 	bleq	2c1294 <__bss_end+0x2bd00c>
    1200:	0e030b3e 	vmoveq.16	d3[0], r0
    1204:	24030000 	strcs	r0, [r3]
    1208:	3e0b0b00 	vmlacc.f64	d0, d11, d0
    120c:	0008030b 	andeq	r0, r8, fp, lsl #6
    1210:	00240400 	eoreq	r0, r4, r0, lsl #8
    1214:	0b3e0b0b 	bleq	f83e48 <__bss_end+0xf7fbc0>
    1218:	16050000 	strne	r0, [r5], -r0
    121c:	3a0e0300 	bcc	381e24 <__bss_end+0x37db9c>
    1220:	490b3b0b 	stmdbmi	fp, {r0, r1, r3, r8, r9, fp, ip, sp}
    1224:	06000013 	undefined instruction 0x06000013
    1228:	0e030113 	mcreq	1, 0, r0, cr3, cr3, {0}
    122c:	0b3a0b0b 	bleq	e83e60 <__bss_end+0xe7fbd8>
    1230:	13010b3b 	movwne	r0, #6971	; 0x1b3b
    1234:	0d070000 	stceq	0, cr0, [r7]
    1238:	3a0e0300 	bcc	381e40 <__bss_end+0x37dbb8>
    123c:	490b3b0b 	stmdbmi	fp, {r0, r1, r3, r8, r9, fp, ip, sp}
    1240:	000a3813 	andeq	r3, sl, r3, lsl r8
    1244:	000d0800 	andeq	r0, sp, r0, lsl #16
    1248:	0b3a0803 	bleq	e8325c <__bss_end+0xe7efd4>
    124c:	13490b3b 	movtne	r0, #39739	; 0x9b3b
    1250:	00000a38 	andeq	r0, r0, r8, lsr sl
    1254:	3f012e09 	svccc	0x00012e09
    1258:	3a0e030c 	bcc	381e90 <__bss_end+0x37dc08>
    125c:	270b3b0b 	strcs	r3, [fp, -fp, lsl #22]
    1260:	1201110c 	andne	r1, r1, #3
    1264:	010a4001 	tsteq	sl, r1
    1268:	0a000013 	beq	12bc <mem_power_off_nommu+0x4>
    126c:	0e030005 	cdpeq	0, 0, cr0, cr3, cr5, {0}
    1270:	0b3b0b3a 	bleq	ec3f60 <__bss_end+0xebfcd8>
    1274:	0a021349 	beq	85fa0 <__bss_end+0x81d18>
    1278:	0f0b0000 	svceq	0x000b0000
    127c:	490b0b00 	stmdbmi	fp, {r8, r9, fp}
    1280:	0c000013 	stceq	0, cr0, [r0], {19}
    1284:	0c3f012e 	ldfeqs	f0, [pc], #-184	; 0xffffff48
    1288:	0b3a0e03 	bleq	e84a9c <__bss_end+0xe80814>
    128c:	0c270b3b 	stceq	11, cr0, [r7], #-236	; 0xffffff14
    1290:	01120111 	tsteq	r2, r1, lsl r1
    1294:	00000a40 	andeq	r0, r0, r0, asr #20
    1298:	0300340d 	movweq	r3, #1037	; 0x40d
    129c:	3b0b3a08 	blcc	2cfac4 <__bss_end+0x2cb83c>
    12a0:	0213490b 	andseq	r4, r3, #180224	; 0x2c000
    12a4:	0000000a 	andeq	r0, r0, sl
    12a8:	25011101 	strcs	r1, [r1, #-257]	; 0x101
    12ac:	030b130e 	movweq	r1, #45838	; 0xb30e
    12b0:	110e1b0e 	tstne	lr, lr, lsl #22
    12b4:	10011201 	andne	r1, r1, r1, lsl #4
    12b8:	02000006 	andeq	r0, r0, #6
    12bc:	0b0b0024 	bleq	2c1354 <__bss_end+0x2bd0cc>
    12c0:	0e030b3e 	vmoveq.16	d3[0], r0
    12c4:	24030000 	strcs	r0, [r3]
    12c8:	3e0b0b00 	vmlacc.f64	d0, d11, d0
    12cc:	0008030b 	andeq	r0, r8, fp, lsl #6
    12d0:	00160400 	andseq	r0, r6, r0, lsl #8
    12d4:	0b3a0e03 	bleq	e84ae8 <__bss_end+0xe80860>
    12d8:	13490b3b 	movtne	r0, #39739	; 0x9b3b
    12dc:	24050000 	strcs	r0, [r5]
    12e0:	3e0b0b00 	vmlacc.f64	d0, d11, d0
    12e4:	0600000b 	streq	r0, [r0], -fp
    12e8:	0e030113 	mcreq	1, 0, r0, cr3, cr3, {0}
    12ec:	0b3a0b0b 	bleq	e83f20 <__bss_end+0xe7fc98>
    12f0:	13010b3b 	movwne	r0, #6971	; 0x1b3b
    12f4:	0d070000 	stceq	0, cr0, [r7]
    12f8:	3a0e0300 	bcc	381f00 <__bss_end+0x37dc78>
    12fc:	490b3b0b 	stmdbmi	fp, {r0, r1, r3, r8, r9, fp, ip, sp}
    1300:	000a3813 	andeq	r3, sl, r3, lsl r8
    1304:	000d0800 	andeq	r0, sp, r0, lsl #16
    1308:	0b3a0803 	bleq	e8331c <__bss_end+0xe7f094>
    130c:	13490b3b 	movtne	r0, #39739	; 0x9b3b
    1310:	00000a38 	andeq	r0, r0, r8, lsr sl
    1314:	3f012e09 	svccc	0x00012e09
    1318:	3a0e030c 	bcc	381f50 <__bss_end+0x37dcc8>
    131c:	270b3b0b 	strcs	r3, [fp, -fp, lsl #22]
    1320:	1201110c 	andne	r1, r1, #3
    1324:	010a4001 	tsteq	sl, r1
    1328:	0a000013 	beq	137c <mem_power_off+0x24>
    132c:	0e030005 	cdpeq	0, 0, cr0, cr3, cr5, {0}
    1330:	0b3b0b3a 	bleq	ec4020 <__bss_end+0xebfd98>
    1334:	0a021349 	beq	86060 <__bss_end+0x81dd8>
    1338:	0f0b0000 	svceq	0x000b0000
    133c:	490b0b00 	stmdbmi	fp, {r8, r9, fp}
    1340:	0c000013 	stceq	0, cr0, [r0], {19}
    1344:	0c3f012e 	ldfeqs	f0, [pc], #-184	; 0xffffff48
    1348:	0b3a0e03 	bleq	e84b5c <__bss_end+0xe808d4>
    134c:	0c27053b 	cfstr32eq	mvfx0, [r7], #-236	; 0xffffff14
    1350:	01120111 	tsteq	r2, r1, lsl r1
    1354:	13010a40 	movwne	r0, #6720	; 0x1a40
    1358:	050d0000 	streq	r0, [sp]
    135c:	3a0e0300 	bcc	381f64 <__bss_end+0x37dcdc>
    1360:	49053b0b 	stmdbmi	r5, {r0, r1, r3, r8, r9, fp, ip, sp}
    1364:	000a0213 	andeq	r0, sl, r3, lsl r2
    1368:	00340e00 	eorseq	r0, r4, r0, lsl #28
    136c:	0b3a0803 	bleq	e83380 <__bss_end+0xe7f0f8>
    1370:	1349053b 	movtne	r0, #38203	; 0x953b
    1374:	00000a02 	andeq	r0, r0, r2, lsl #20
    1378:	0300340f 	movweq	r3, #1039	; 0x40f
    137c:	3b0b3a0e 	blcc	2cfbbc <__bss_end+0x2cb934>
    1380:	00134905 	andseq	r4, r3, r5, lsl #18
    1384:	00341000 	eorseq	r1, r4, r0
    1388:	0b3a0e03 	bleq	e84b9c <__bss_end+0xe80914>
    138c:	13490b3b 	movtne	r0, #39739	; 0x9b3b
    1390:	00000a1c 	andeq	r0, r0, ip, lsl sl
    1394:	49002611 	stmdbmi	r0, {r0, r4, r9, sl, sp}
    1398:	00000013 	andeq	r0, r0, r3, lsl r0

Disassembly of section .debug_info:

00000000 <.debug_info>:
       0:	0000065f 	andeq	r0, r0, pc, asr r6
       4:	00000002 	andeq	r0, r0, r2
       8:	01040000 	tsteq	r4, r0
       c:	00000055 	andeq	r0, r0, r5, asr r0
      10:	0002c401 	andeq	ip, r2, r1, lsl #8
      14:	00028b00 	andeq	r8, r2, r0, lsl #22
      18:	00000000 	andeq	r0, r0, r0
      1c:	0001b800 	andeq	fp, r1, r0, lsl #16
      20:	00000000 	andeq	r0, r0, r0
      24:	06010200 	streq	r0, [r1], -r0, lsl #4
      28:	0000018f 	andeq	r0, r0, pc, lsl #3
      2c:	0002f803 	andeq	pc, r2, r3, lsl #16
      30:	370f0200 	strcc	r0, [pc, -r0, lsl #4]
      34:	02000000 	andeq	r0, r0, #0
      38:	018d0801 	orreq	r0, sp, r1, lsl #16
      3c:	02020000 	andeq	r0, r2, #0
      40:	00006105 	andeq	r6, r0, r5, lsl #2
      44:	07020200 	streq	r0, [r2, -r0, lsl #4]
      48:	00000268 	andeq	r0, r0, r8, ror #4
      4c:	0001f703 	andeq	pc, r1, r3, lsl #14
      50:	57120200 	ldrpl	r0, [r2, -r0, lsl #4]
      54:	04000000 	streq	r0, [r0]
      58:	6e690504 	cdpvs	5, 6, cr0, cr9, cr4, {0}
      5c:	08030074 	stmdaeq	r3, {r2, r4, r5, r6}
      60:	02000001 	andeq	r0, r0, #1
      64:	00006913 	andeq	r6, r0, r3, lsl r9
      68:	07040200 	streq	r0, [r4, -r0, lsl #4]
      6c:	0000022e 	andeq	r0, r0, lr, lsr #4
      70:	1c050802 	stcne	8, cr0, [r5], {2}
      74:	02000001 	andeq	r0, r0, #1
      78:	02240708 	eoreq	r0, r4, #2097152	; 0x200000
      7c:	7f050000 	svcvc	0x00050000
      80:	c4000001 	strgt	r0, [r0], #-1
      84:	03491b03 	movteq	r1, #39683	; 0x9b03
      88:	a6060000 	strge	r0, [r6], -r0
      8c:	03000000 	movweq	r0, #0
      90:	00005e20 	andeq	r5, r0, r0, lsr #28
      94:	00230200 	eoreq	r0, r3, r0, lsl #4
      98:	00726307 	rsbseq	r6, r2, r7, lsl #6
      9c:	005e2303 	subseq	r2, lr, r3, lsl #6
      a0:	23020000 	movwcs	r0, #8192	; 0x2000
      a4:	63610704 	cmnvs	r1, #1048576	; 0x100000
      a8:	24030072 	strcs	r0, [r3], #-114	; 0x72
      ac:	0000005e 	andeq	r0, r0, lr, asr r0
      b0:	06082302 	streq	r2, [r8], -r2, lsl #6
      b4:	00000391 	muleq	r0, r1, r3
      b8:	005e2503 	subseq	r2, lr, r3, lsl #10
      bc:	23020000 	movwcs	r0, #8192	; 0x2000
      c0:	0026060c 	eoreq	r0, r6, ip, lsl #12
      c4:	26030000 	strcs	r0, [r3], -r0
      c8:	0000005e 	andeq	r0, r0, lr, asr r0
      cc:	06102302 	ldreq	r2, [r0], -r2, lsl #6
      d0:	000000be 	strheq	r0, [r0], -lr
      d4:	005e2703 	subseq	r2, lr, r3, lsl #14
      d8:	23020000 	movwcs	r0, #8192	; 0x2000
      dc:	01ea0614 	mvneq	r0, r4, lsl r6
      e0:	28030000 	stmdacs	r3, {}
      e4:	0000005e 	andeq	r0, r0, lr, asr r0
      e8:	06182302 	ldreq	r2, [r8], -r2, lsl #6
      ec:	00000140 	andeq	r0, r0, r0, asr #2
      f0:	005e3203 	subseq	r3, lr, r3, lsl #4
      f4:	23020000 	movwcs	r0, #8192	; 0x2000
      f8:	031f061c 	tsteq	pc, #29360128	; 0x1c00000
      fc:	33030000 	movwcc	r0, #12288	; 0x3000
     100:	0000005e 	andeq	r0, r0, lr, asr r0
     104:	06202302 	strteq	r2, [r0], -r2, lsl #6
     108:	00000347 	andeq	r0, r0, r7, asr #6
     10c:	005e3403 	subseq	r3, lr, r3, lsl #8
     110:	23020000 	movwcs	r0, #8192	; 0x2000
     114:	00eb0624 	rsceq	r0, fp, r4, lsr #12
     118:	36030000 	strcc	r0, [r3], -r0
     11c:	0000005e 	andeq	r0, r0, lr, asr r0
     120:	06282302 	strteq	r2, [r8], -r2, lsl #6
     124:	0000004f 	andeq	r0, r0, pc, asr #32
     128:	005e3803 	subseq	r3, lr, r3, lsl #16
     12c:	23020000 	movwcs	r0, #8192	; 0x2000
     130:	033c062c 	teqeq	ip, #46137344	; 0x2c00000
     134:	39030000 	stmdbcc	r3, {}
     138:	0000005e 	andeq	r0, r0, lr, asr r0
     13c:	06302302 	ldrteq	r2, [r0], -r2, lsl #6
     140:	00000178 	andeq	r0, r0, r8, ror r1
     144:	005e3a03 	subseq	r3, lr, r3, lsl #20
     148:	23020000 	movwcs	r0, #8192	; 0x2000
     14c:	03560634 	cmpeq	r6, #54525952	; 0x3400000
     150:	3b030000 	blcc	c0158 <__bss_end+0xbbed0>
     154:	0000005e 	andeq	r0, r0, lr, asr r0
     158:	06382302 	ldrteq	r2, [r8], -r2, lsl #6
     15c:	0000010e 	andeq	r0, r0, lr, lsl #2
     160:	005e3d03 	subseq	r3, lr, r3, lsl #26
     164:	23020000 	movwcs	r0, #8192	; 0x2000
     168:	0018063c 	andseq	r0, r8, ip, lsr r6
     16c:	3e030000 	cdpcc	0, 0, cr0, cr3, cr0, {0}
     170:	0000005e 	andeq	r0, r0, lr, asr r0
     174:	07402302 	strbeq	r2, [r0, -r2, lsl #6]
     178:	00726170 	rsbseq	r6, r2, r0, ror r1
     17c:	005e4003 	subseq	r4, lr, r3
     180:	23020000 	movwcs	r0, #8192	; 0x2000
     184:	03020644 	movweq	r0, #9796	; 0x2644
     188:	42030000 	andmi	r0, r3, #0
     18c:	0000005e 	andeq	r0, r0, lr, asr r0
     190:	06482302 	strbeq	r2, [r8], -r2, lsl #6
     194:	0000030d 	andeq	r0, r0, sp, lsl #6
     198:	005e4303 	subseq	r4, lr, r3, lsl #6
     19c:	23020000 	movwcs	r0, #8192	; 0x2000
     1a0:	021f064c 	andseq	r0, pc, #79691776	; 0x4c00000
     1a4:	44030000 	strmi	r0, [r3]
     1a8:	0000005e 	andeq	r0, r0, lr, asr r0
     1ac:	06502302 	ldrbeq	r2, [r0], -r2, lsl #6
     1b0:	000002fd 	strdeq	r0, [r0], -sp
     1b4:	005e4503 	subseq	r4, lr, r3, lsl #10
     1b8:	23020000 	movwcs	r0, #8192	; 0x2000
     1bc:	69730754 	ldmdbvs	r3!, {r2, r4, r6, r8, r9, sl}^
     1c0:	47030072 	smlsdxmi	r3, r2, r0, r0
     1c4:	0000005e 	andeq	r0, r0, lr, asr r0
     1c8:	06582302 	ldrbeq	r2, [r8], -r2, lsl #6
     1cc:	00000147 	andeq	r0, r0, r7, asr #2
     1d0:	005e4903 	subseq	r4, lr, r3, lsl #18
     1d4:	23020000 	movwcs	r0, #8192	; 0x2000
     1d8:	6363075c 	cmnvs	r3, #24117248	; 0x1700000
     1dc:	4a030072 	bmi	c03ac <__bss_end+0xbc124>
     1e0:	0000005e 	andeq	r0, r0, lr, asr r0
     1e4:	07602302 	strbeq	r2, [r0, -r2, lsl #6]!
     1e8:	00727365 	rsbseq	r7, r2, r5, ror #6
     1ec:	005e4b03 	subseq	r4, lr, r3, lsl #22
     1f0:	23020000 	movwcs	r0, #8192	; 0x2000
     1f4:	034d0664 	movteq	r0, #54884	; 0xd664
     1f8:	4c030000 	stcmi	0, cr0, [r3], {0}
     1fc:	0000005e 	andeq	r0, r0, lr, asr r0
     200:	07682302 	strbeq	r2, [r8, -r2, lsl #6]!
     204:	00726575 	rsbseq	r6, r2, r5, ror r5
     208:	005e4d03 	subseq	r4, lr, r3, lsl #26
     20c:	23020000 	movwcs	r0, #8192	; 0x2000
     210:	012a066c 	teqeq	sl, ip, ror #12
     214:	4e030000 	cdpmi	0, 0, cr0, cr3, cr0, {0}
     218:	0000005e 	andeq	r0, r0, lr, asr r0
     21c:	06702302 	ldrbteq	r2, [r0], -r2, lsl #6
     220:	0000023b 	andeq	r0, r0, fp, lsr r2
     224:	005e4f03 	subseq	r4, lr, r3, lsl #30
     228:	23020000 	movwcs	r0, #8192	; 0x2000
     22c:	038b0674 	orreq	r0, fp, #121634816	; 0x7400000
     230:	51030000 	tstpl	r3, r0
     234:	0000005e 	andeq	r0, r0, lr, asr r0
     238:	06782302 	ldrbteq	r2, [r8], -r2, lsl #6
     23c:	000000df 	ldrdeq	r0, [r0], -pc
     240:	005e5203 	subseq	r5, lr, r3, lsl #4
     244:	23020000 	movwcs	r0, #8192	; 0x2000
     248:	02de067c 	sbcseq	r0, lr, #130023424	; 0x7c00000
     24c:	56030000 	strpl	r0, [r3], -r0
     250:	0000005e 	andeq	r0, r0, lr, asr r0
     254:	01802303 	orreq	r2, r0, r3, lsl #6
     258:	0001b906 	andeq	fp, r1, r6, lsl #18
     25c:	5e580300 	cdppl	3, 5, cr0, cr8, cr0, {0}
     260:	03000000 	movweq	r0, #0
     264:	06018423 	streq	r8, [r1], -r3, lsr #8
     268:	0000019b 	muleq	r0, fp, r1
     26c:	005e5a03 	subseq	r5, lr, r3, lsl #20
     270:	23030000 	movwcs	r0, #12288	; 0x3000
     274:	42060188 	andmi	r0, r6, #34	; 0x22
     278:	03000003 	movweq	r0, #3
     27c:	00005e5b 	andeq	r5, r0, fp, asr lr
     280:	8c230300 	stchi	3, cr0, [r3]
     284:	015e0601 	cmpeq	lr, r1, lsl #12
     288:	5e030000 	cdppl	0, 0, cr0, cr3, cr0, {0}
     28c:	0000005e 	andeq	r0, r0, lr, asr r0
     290:	01902303 	orrseq	r2, r0, r3, lsl #6
     294:	00037d06 	andeq	r7, r3, r6, lsl #26
     298:	5e5f0300 	cdppl	3, 5, cr0, cr15, cr0, {0}
     29c:	03000000 	movweq	r0, #0
     2a0:	06019423 	streq	r9, [r1], -r3, lsr #8
     2a4:	000001fd 	strdeq	r0, [r0], -sp
     2a8:	005e6003 	subseq	r6, lr, r3
     2ac:	23030000 	movwcs	r0, #12288	; 0x3000
     2b0:	d7060198 	undefined instruction 0xd7060198
     2b4:	03000000 	movweq	r0, #0
     2b8:	00005e61 	andeq	r5, r0, r1, ror #28
     2bc:	9c230300 	stcls	3, cr0, [r3]
     2c0:	03340601 	teqeq	r4, #1048576	; 0x100000
     2c4:	62030000 	andvs	r0, r3, #0
     2c8:	0000005e 	andeq	r0, r0, lr, asr r0
     2cc:	01a02303 	lsleq	r2, r3, #6
     2d0:	00027b06 	andeq	r7, r2, r6, lsl #22
     2d4:	5e630300 	cdppl	3, 6, cr0, cr3, cr0, {0}
     2d8:	03000000 	movweq	r0, #0
     2dc:	0601a423 	streq	sl, [r1], -r3, lsr #8
     2e0:	00000240 	andeq	r0, r0, r0, asr #4
     2e4:	005e6703 	subseq	r6, lr, r3, lsl #14
     2e8:	23030000 	movwcs	r0, #12288	; 0x3000
     2ec:	8d0601a8 	stfhis	f0, [r6, #-672]	; 0xfffffd60
     2f0:	03000000 	movweq	r0, #0
     2f4:	00005e68 	andeq	r5, r0, r8, ror #28
     2f8:	ac230300 	stcge	3, cr0, [r3]
     2fc:	02f30601 	rscseq	r0, r3, #1048576	; 0x100000
     300:	70030000 	andvc	r0, r3, r0
     304:	0000005e 	andeq	r0, r0, lr, asr r0
     308:	01b02303 	lslseq	r2, r3, #6
     30c:	64696307 	strbtvs	r6, [r9], #-775	; 0x307
     310:	5e710300 	cdppl	3, 7, cr0, cr1, cr0, {0}
     314:	03000000 	movweq	r0, #0
     318:	0601b423 	streq	fp, [r1], -r3, lsr #8
     31c:	0000006b 	andeq	r0, r0, fp, rrx
     320:	005e7203 	subseq	r7, lr, r3, lsl #4
     324:	23030000 	movwcs	r0, #12288	; 0x3000
     328:	830601b8 	movwhi	r0, #25016	; 0x61b8
     32c:	03000002 	movweq	r0, #2
     330:	00005e73 	andeq	r5, r0, r3, ror lr
     334:	bc230300 	stclt	3, cr0, [r3]
     338:	03840601 	orreq	r0, r4, #1048576	; 0x100000
     33c:	74030000 	strvc	r0, [r3]
     340:	0000005e 	andeq	r0, r0, lr, asr r0
     344:	01c02303 	biceq	r2, r0, r3, lsl #6
     348:	00970500 	addseq	r0, r7, r0, lsl #10
     34c:	04040000 	streq	r0, [r4]
     350:	0003ab11 	andeq	sl, r3, r1, lsl fp
     354:	001e0800 	andseq	r0, lr, r0, lsl #16
     358:	12040000 	andne	r0, r4, #0
     35c:	0000005e 	andeq	r0, r0, lr, asr r0
     360:	021c0404 	andseq	r0, ip, #67108864	; 0x4000000
     364:	c9080023 	stmdbgt	r8, {r0, r1, r5}
     368:	04000000 	streq	r0, [r0]
     36c:	00005e13 	andeq	r5, r0, r3, lsl lr
     370:	18040400 	stmdane	r4, {sl}
     374:	08002302 	stmdaeq	r0, {r1, r8, r9, sp}
     378:	0000012f 	andeq	r0, r0, pc, lsr #2
     37c:	005e1404 	subseq	r1, lr, r4, lsl #8
     380:	04040000 	streq	r0, [r4]
     384:	00230214 	eoreq	r0, r3, r4, lsl r2
     388:	00011408 	andeq	r1, r1, r8, lsl #8
     38c:	5e150400 	cfmulspl	mvf0, mvf5, mvf0
     390:	04000000 	streq	r0, [r0]
     394:	23021004 	movwcs	r1, #8196	; 0x2004
     398:	01370800 	teqeq	r7, r0, lsl #16
     39c:	16040000 	strne	r0, [r4], -r0
     3a0:	0000005e 	andeq	r0, r0, lr, asr r0
     3a4:	02001004 	andeq	r1, r0, #4
     3a8:	05000023 	streq	r0, [r0, #-35]	; 0x23
     3ac:	000002e6 	andeq	r0, r0, r6, ror #5
     3b0:	fe180408 	cdp2	4, 1, cr0, cr8, cr8, {0}
     3b4:	06000003 	streq	r0, [r0], -r3
     3b8:	00000008 	andeq	r0, r0, r8
     3bc:	002c1904 	eoreq	r1, ip, r4, lsl #18
     3c0:	23020000 	movwcs	r0, #8192	; 0x2000
     3c4:	03960600 	orrseq	r0, r6, #0
     3c8:	1a040000 	bne	1003d0 <__bss_end+0xfc148>
     3cc:	0000002c 	andeq	r0, r0, ip, lsr #32
     3d0:	06012302 	streq	r2, [r1], -r2, lsl #6
     3d4:	00000000 	andeq	r0, r0, r0
     3d8:	002c1b04 	eoreq	r1, ip, r4, lsl #22
     3dc:	23020000 	movwcs	r0, #8192	; 0x2000
     3e0:	00100602 	andseq	r0, r0, r2, lsl #12
     3e4:	1c040000 	stcne	0, cr0, [r4], {0}
     3e8:	0000002c 	andeq	r0, r0, ip, lsr #32
     3ec:	07032302 	streq	r2, [r3, -r2, lsl #6]
     3f0:	006c6c50 	rsbeq	r6, ip, r0, asr ip
     3f4:	005e1d04 	subseq	r1, lr, r4, lsl #26
     3f8:	23020000 	movwcs	r0, #8192	; 0x2000
     3fc:	83050004 	movwhi	r0, #20484	; 0x5004
     400:	24000000 	strcs	r0, [r0]
     404:	04882004 	streq	r2, [r8], #4
     408:	a6060000 	strge	r0, [r6], -r0
     40c:	04000000 	streq	r0, [r0]
     410:	00005e22 	andeq	r5, r0, r2, lsr #28
     414:	00230200 	eoreq	r0, r3, r0, lsl #4
     418:	00726307 	rsbseq	r6, r2, r7, lsl #6
     41c:	005e2404 	subseq	r2, lr, r4, lsl #8
     420:	23020000 	movwcs	r0, #8192	; 0x2000
     424:	03910604 	orrseq	r0, r1, #4194304	; 0x400000
     428:	25040000 	strcs	r0, [r4]
     42c:	0000005e 	andeq	r0, r0, lr, asr r0
     430:	06082302 	streq	r2, [r8], -r2, lsl #6
     434:	00000140 	andeq	r0, r0, r0, asr #2
     438:	005e2704 	subseq	r2, lr, r4, lsl #14
     43c:	23020000 	movwcs	r0, #8192	; 0x2000
     440:	031f060c 	tsteq	pc, #12582912	; 0xc00000
     444:	28040000 	stmdacs	r4, {}
     448:	0000005e 	andeq	r0, r0, lr, asr r0
     44c:	06102302 	ldreq	r2, [r0], -r2, lsl #6
     450:	00000347 	andeq	r0, r0, r7, asr #6
     454:	005e2904 	subseq	r2, lr, r4, lsl #18
     458:	23020000 	movwcs	r0, #8192	; 0x2000
     45c:	00eb0614 	rsceq	r0, fp, r4, lsl r6
     460:	2c040000 	stccs	0, cr0, [r4], {0}
     464:	0000005e 	andeq	r0, r0, lr, asr r0
     468:	06182302 	ldreq	r2, [r8], -r2, lsl #6
     46c:	0000019b 	muleq	r0, fp, r1
     470:	005e2f04 	subseq	r2, lr, r4, lsl #30
     474:	23020000 	movwcs	r0, #8192	; 0x2000
     478:	0342061c 	movteq	r0, #9756	; 0x261c
     47c:	30040000 	andcc	r0, r4, r0
     480:	0000005e 	andeq	r0, r0, lr, asr r0
     484:	00202302 	eoreq	r2, r0, r2, lsl #6
     488:	00016509 	andeq	r6, r1, r9, lsl #10
     48c:	04023000 	streq	r3, [r2]
     490:	00054f36 	andeq	r4, r5, r6, lsr pc
     494:	036e0600 	cmneq	lr, #0
     498:	37040000 	strcc	r0, [r4, -r0]
     49c:	0000054f 	andeq	r0, r0, pc, asr #10
     4a0:	06002302 	streq	r2, [r0], -r2, lsl #6
     4a4:	00001fa0 	andeq	r1, r0, r0, lsr #31
     4a8:	005e3804 	subseq	r3, lr, r4, lsl #16
     4ac:	23020000 	movwcs	r0, #8192	; 0x2000
     4b0:	02030604 	andeq	r0, r3, #4194304	; 0x400000
     4b4:	3a040000 	bcc	1004bc <__bss_end+0xfc234>
     4b8:	0000004c 	andeq	r0, r0, ip, asr #32
     4bc:	06082302 	streq	r2, [r8], -r2, lsl #6
     4c0:	00000211 	andeq	r0, r0, r1, lsl r2
     4c4:	004c3b04 	subeq	r3, ip, r4, lsl #22
     4c8:	23020000 	movwcs	r0, #8192	; 0x2000
     4cc:	0312060c 	tsteq	r2, #12582912	; 0xc00000
     4d0:	3c040000 	stccc	0, cr0, [r4], {0}
     4d4:	0000005e 	andeq	r0, r0, lr, asr r0
     4d8:	06102302 	ldreq	r2, [r0], -r2, lsl #6
     4dc:	0000025e 	andeq	r0, r0, lr, asr r2
     4e0:	005e3d04 	subseq	r3, lr, r4, lsl #26
     4e4:	23020000 	movwcs	r0, #8192	; 0x2000
     4e8:	01cd0614 	biceq	r0, sp, r4, lsl r6
     4ec:	3e040000 	cdpcc	0, 0, cr0, cr4, cr0, {0}
     4f0:	0000005e 	andeq	r0, r0, lr, asr r0
     4f4:	06182302 	ldreq	r2, [r8], -r2, lsl #6
     4f8:	0000002d 	andeq	r0, r0, sp, lsr #32
     4fc:	03493f04 	movteq	r3, #40708	; 0x9f04
     500:	23020000 	movwcs	r0, #8192	; 0x2000
     504:	0c1d061c 	ldceq	6, cr0, [sp], {28}
     508:	40040000 	andmi	r0, r4, r0
     50c:	000003ab 	andeq	r0, r0, fp, lsr #7
     510:	06202302 	strteq	r2, [r0], -r2, lsl #6
     514:	00000035 	andeq	r0, r0, r5, lsr r0
     518:	05574104 	ldrbeq	r4, [r7, #-260]	; 0x104
     51c:	23020000 	movwcs	r0, #8192	; 0x2000
     520:	01a00628 	lsreq	r0, r8, #12
     524:	42040000 	andmi	r0, r4, #0
     528:	0000056a 	andeq	r0, r0, sl, ror #10
     52c:	02882303 	addeq	r2, r8, #201326592	; 0xc000000
     530:	00007d06 	andeq	r7, r0, r6, lsl #26
     534:	fe430400 	cdp2	4, 4, cr0, cr3, cr0, {0}
     538:	03000003 	movweq	r0, #3
     53c:	0602c823 	streq	ip, [r2], -r3, lsr #16
     540:	0000014c 	andeq	r0, r0, ip, asr #2
     544:	007e4404 	rsbseq	r4, lr, r4, lsl #8
     548:	23030000 	movwcs	r0, #12288	; 0x3000
     54c:	0a0002ec 	beq	1104 <twi_byte_rw_nommu+0x1e4>
     550:	00055504 	andeq	r5, r5, r4, lsl #10
     554:	0c040b00 	stceq	11, cr0, [r4], {0}
     558:	0000005e 	andeq	r0, r0, lr, asr r0
     55c:	00000567 	andeq	r0, r0, r7, ror #10
     560:	0005670d 	andeq	r6, r5, sp, lsl #14
     564:	0e003700 	cdpeq	7, 0, cr3, cr0, cr0, {0}
     568:	5e0c0704 	cdppl	7, 0, cr0, cr12, cr4, {0}
     56c:	7a000000 	bvc	574 <mem_preload_tlb_nommu+0x90>
     570:	0d000005 	stceq	0, cr0, [r0, #-20]	; 0xffffffec
     574:	00000567 	andeq	r0, r0, r7, ror #10
     578:	d70f000f 	strle	r0, [pc, -pc]
     57c:	01000001 	tsteq	r0, r1
     580:	004c01fb 	strdeq	r0, [ip], #-27	; 0xffffffe5
     584:	94010000 	strls	r0, [r1]
     588:	10000005 	andne	r0, r0, r5
     58c:	000000f0 	strdeq	r0, [r0], -r0
     590:	00012401 	andeq	r2, r1, r1, lsl #8
     594:	00a10111 	adceq	r0, r1, r1, lsl r1
     598:	85010000 	strhi	r0, [r1]
     59c:	00005701 	andeq	r5, r0, r1, lsl #14
     5a0:	00000000 	andeq	r0, r0, r0
     5a4:	0001b800 	andeq	fp, r1, r0, lsl #16
     5a8:	00000000 	andeq	r0, r0, r0
     5ac:	00061900 	andeq	r1, r6, r0, lsl #18
     5b0:	01711200 	cmneq	r1, r0, lsl #4
     5b4:	87010000 	strhi	r0, [r1, -r0]
     5b8:	00000619 	andeq	r0, r0, r9, lsl r6
     5bc:	0000001f 	andeq	r0, r0, pc, lsl r0
     5c0:	00024813 	andeq	r4, r2, r3, lsl r8
     5c4:	5e880100 	rmfple	f0, f0, f0
     5c8:	05000000 	streq	r0, [r0]
     5cc:	00400003 	subeq	r0, r0, r3
     5d0:	1c211400 	cfstrsne	mvf1, [r1]
     5d4:	89010000 	stmdbhi	r1, {}
     5d8:	0000004c 	andeq	r0, r0, ip, asr #32
     5dc:	0000ab15 	andeq	sl, r0, r5, lsl fp
     5e0:	15ed0100 	strbne	r0, [sp, #256]!	; 0x100
     5e4:	0000035d 	andeq	r0, r0, sp, asr r3
     5e8:	5216ec01 	andspl	lr, r6, #256	; 0x100
     5ec:	01000002 	tsteq	r0, r2
     5f0:	000154ea 	andeq	r5, r1, sl, ror #9
     5f4:	057a1700 	ldrbeq	r1, [sl, #-1792]!	; 0x700
     5f8:	00f80000 	rscseq	r0, r8, r0
     5fc:	01540000 	cmpeq	r4, r0
     600:	df010000 	svcle	0x00010000
     604:	0000f818 	andeq	pc, r0, r8, lsl r8
     608:	00015400 	andeq	r5, r1, r0, lsl #8
     60c:	058b1900 	streq	r1, [fp, #2304]	; 0x900
     610:	01500000 	cmpeq	r0, r0
     614:	00000000 	andeq	r0, r0, r0
     618:	1f040a00 	svcne	0x00040a00
     61c:	02000006 	andeq	r0, r0, #6
     620:	01960801 	orrseq	r0, r6, r1, lsl #16
     624:	d1130000 	tstle	r3, r0
     628:	01000000 	tsteq	r0, r0
     62c:	00005710 	andeq	r5, r0, r0, lsl r7
     630:	84030500 	strhi	r0, [r3], #-1280	; 0x500
     634:	1300003e 	movwne	r0, #62	; 0x3e
     638:	00000326 	andeq	r0, r0, r6, lsr #6
     63c:	04881101 	streq	r1, [r8], #257	; 0x101
     640:	03050000 	movweq	r0, #20480	; 0x5000
     644:	00004004 	andeq	r4, r0, r4
     648:	0001c11a 	andeq	ip, r1, sl, lsl r1
     64c:	190e0100 	stmdbne	lr, {r8}
     650:	01000006 	tsteq	r0, r6
     654:	00731a01 	rsbseq	r1, r3, r1, lsl #20
     658:	0f010000 	svceq	0x00010000
     65c:	00000619 	andeq	r0, r0, r9, lsl r6
     660:	bf000101 	svclt	0x00000101
     664:	02000000 	andeq	r0, r0, #0
     668:	00015f00 	andeq	r5, r1, r0, lsl #30
     66c:	55010400 	strpl	r0, [r1, #-1024]	; 0x400
     670:	01000000 	tsteq	r0, r0
     674:	000003ab 	andeq	r0, r0, fp, lsr #7
     678:	0000028b 	andeq	r0, r0, fp, lsl #5
     67c:	000001b8 	undefined instruction 0x000001b8
     680:	000001dc 	ldrdeq	r0, [r0], -ip
     684:	000000d5 	ldrdeq	r0, [r0], -r5
     688:	8f060102 	svchi	0x00060102
     68c:	02000001 	andeq	r0, r0, #1
     690:	018d0801 	orreq	r0, sp, r1, lsl #16
     694:	02020000 	andeq	r0, r2, #0
     698:	00006105 	andeq	r6, r0, r5, lsl #2
     69c:	07020200 	streq	r0, [r2, -r0, lsl #4]
     6a0:	00000268 	andeq	r0, r0, r8, ror #4
     6a4:	69050403 	stmdbvs	r5, {r0, r1, sl}
     6a8:	0200746e 	andeq	r7, r0, #1845493760	; 0x6e000000
     6ac:	022e0704 	eoreq	r0, lr, #1048576	; 0x100000
     6b0:	08020000 	stmdaeq	r2, {}
     6b4:	00011c05 	andeq	r1, r1, r5, lsl #24
     6b8:	07080200 	streq	r0, [r8, -r0, lsl #4]
     6bc:	00000224 	andeq	r0, r0, r4, lsr #4
     6c0:	04050404 	streq	r0, [r5], #-1028	; 0x404
     6c4:	c4010607 	strgt	r0, [r1], #-1543	; 0x607
     6c8:	01000003 	tsteq	r0, r3
     6cc:	01b80123 	undefined instruction 0x01b80123
     6d0:	01dc0000 	bicseq	r0, ip, r0
     6d4:	5d010000 	stcpl	0, cr0, [r1]
     6d8:	000000b5 	strheq	r0, [r0], -r5
     6dc:	00039e07 	andeq	r9, r3, r7, lsl #28
     6e0:	5d230100 	stfpls	f0, [r3]
     6e4:	01000000 	tsteq	r0, r0
     6e8:	72730850 	rsbsvc	r0, r3, #5242880	; 0x500000
     6ec:	23010063 	movwcs	r0, #4195	; 0x1063
     6f0:	0000005d 	andeq	r0, r0, sp, asr r0
     6f4:	6e085101 	adfvse	f5, f0, f1
     6f8:	41230100 	teqmi	r3, r0, lsl #2
     6fc:	01000000 	tsteq	r0, r0
     700:	03bc0952 	undefined instruction 0x03bc0952
     704:	25010000 	strcs	r0, [r1]
     708:	000000b5 	strheq	r0, [r0], -r5
     70c:	0003a309 	andeq	sl, r3, r9, lsl #6
     710:	b5260100 	strlt	r0, [r6, #-256]!	; 0x100
     714:	00000000 	andeq	r0, r0, r0
     718:	00bb040a 	adcseq	r0, fp, sl, lsl #8
     71c:	01020000 	tsteq	r2, r0
     720:	00019608 	andeq	r9, r1, r8, lsl #12
     724:	006d0000 	rsbeq	r0, sp, r0
     728:	00020000 	andeq	r0, r2, r0
     72c:	000001e4 	andeq	r0, r0, r4, ror #3
     730:	011c0104 	tsteq	ip, r4, lsl #2
     734:	01e00000 	mvneq	r0, r0
     738:	06c40000 	strbeq	r0, [r4], r0
     73c:	2f2e0000 	svccs	0x002e0000
     740:	65707573 	ldrbvs	r7, [r0, #-1395]!	; 0x573
     744:	74732f72 	ldrbtvc	r2, [r3], #-3954	; 0xf72
     748:	2e6b6361 	cdpcs	3, 6, cr6, cr11, cr1, {3}
     74c:	682f0053 	stmdavs	pc!, {r0, r1, r4, r6}
     750:	2f656d6f 	svccs	0x00656d6f
     754:	656b696d 	strbvs	r6, [fp, #-2413]!	; 0x96d
     758:	726f772f 	rsbvc	r7, pc, #12320768	; 0xbc0000
     75c:	696c2f6b 	stmdbvs	ip!, {r0, r1, r3, r5, r6, r8, r9, sl, fp, sp}^
     760:	5f78756e 	svcpl	0x0078756e
     764:	2f343236 	svccs	0x00343236
     768:	68637261 	stmdavs	r3!, {r0, r5, r6, r9, ip, sp, lr}^
     76c:	6d72612f 	ldfvse	f6, [r2, #-188]!	; 0xffffff44
     770:	63616d2f 	cmnvs	r1, #3008	; 0xbc0
     774:	75732d68 	ldrbvc	r2, [r3, #-3432]!	; 0xd68
     778:	2f69356e 	svccs	0x0069356e
     77c:	732f6d70 	teqvc	pc, #7168	; 0x1c00
     780:	646e6174 	strbtvs	r6, [lr], #-372	; 0x174
     784:	47007962 	strmi	r7, [r0, -r2, ror #18]
     788:	4120554e 	teqmi	r0, lr, asr #10
     78c:	2e322053 	mrccs	0, 1, r2, cr2, cr3, {2}
     790:	312e3032 	teqcc	lr, r2, lsr r0
     794:	4c800100 	stfmis	f0, [r0], {0}
     798:	02000003 	andeq	r0, r0, #3
     79c:	0001f800 	andeq	pc, r1, r0, lsl #16
     7a0:	55010400 	strpl	r0, [r1, #-1024]	; 0x400
     7a4:	01000000 	tsteq	r0, r0
     7a8:	00000565 	andeq	r0, r0, r5, ror #10
     7ac:	0000028b 	andeq	r0, r0, fp, lsl #5
     7b0:	000006e0 	andeq	r0, r0, r0, ror #13
     7b4:	00000850 	andeq	r0, r0, r0, asr r8
     7b8:	0000026c 	andeq	r0, r0, ip, ror #4
     7bc:	8f060102 	svchi	0x00060102
     7c0:	02000001 	andeq	r0, r0, #1
     7c4:	018d0801 	orreq	r0, sp, r1, lsl #16
     7c8:	02020000 	andeq	r0, r2, #0
     7cc:	00006105 	andeq	r6, r0, r5, lsl #2
     7d0:	07020200 	streq	r0, [r2, -r0, lsl #4]
     7d4:	00000268 	andeq	r0, r0, r8, ror #4
     7d8:	0001f703 	andeq	pc, r1, r3, lsl #14
     7dc:	4c120200 	lfmmi	f0, 4, [r2], {0}	; (ldcmi 2, cr0, [r2], {0})
     7e0:	04000000 	streq	r0, [r0]
     7e4:	6e690504 	cdpvs	5, 6, cr0, cr9, cr4, {0}
     7e8:	08030074 	stmdaeq	r3, {r2, r4, r5, r6}
     7ec:	02000001 	andeq	r0, r0, #1
     7f0:	00005e13 	andeq	r5, r0, r3, lsl lr
     7f4:	07040200 	streq	r0, [r4, -r0, lsl #4]
     7f8:	0000022e 	andeq	r0, r0, lr, lsr #4
     7fc:	1c050802 	stcne	8, cr0, [r5], {2}
     800:	02000001 	andeq	r0, r0, #1
     804:	02240708 	eoreq	r0, r4, #2097152	; 0x200000
     808:	04050000 	streq	r0, [r5]
     80c:	00530607 	subseq	r0, r3, r7, lsl #12
     810:	53070000 	movwpl	r0, #28672	; 0x7000
     814:	8b000000 	blhi	81c <mem_enable_int+0x44>
     818:	08000000 	stmdaeq	r0, {}
     81c:	00000073 	andeq	r0, r0, r3, ror r0
     820:	e4090004 	str	r0, [r9], #-4
     824:	04000003 	streq	r0, [r0], #-3
     828:	00ee1903 	rsceq	r1, lr, r3, lsl #18
     82c:	0d0a0000 	stceq	0, cr0, [sl]
     830:	00000005 	andeq	r0, r0, r5
     834:	0004660a 	andeq	r6, r4, sl, lsl #12
     838:	750a0500 	strvc	r0, [sl, #-1280]	; 0x500
     83c:	06000004 	streq	r0, [r0], -r4
     840:	0004270a 	andeq	r2, r4, sl, lsl #14
     844:	910a1500 	tstls	sl, r0, lsl #10
     848:	16000004 	strne	r0, [r0], -r4
     84c:	0004a30a 	andeq	sl, r4, sl, lsl #6
     850:	390a1700 	stmdbcc	sl, {r8, r9, sl, ip}
     854:	18000004 	stmdane	r0, {r2}
     858:	0004520a 	andeq	r5, r4, sl, lsl #4
     85c:	430a1d00 	movwmi	r1, #44288	; 0xad00
     860:	1f000005 	svcne	0x00000005
     864:	0004b50a 	andeq	fp, r4, sl, lsl #10
     868:	c50a2600 	strgt	r2, [sl, #-1536]	; 0x600
     86c:	27000004 	strcs	r0, [r0, -r4]
     870:	0004d50a 	andeq	sp, r4, sl, lsl #10
     874:	e50a2800 	str	r2, [sl, #-2048]	; 0x800
     878:	c0000004 	andgt	r0, r0, r4
     87c:	04f50a00 	ldrbteq	r0, [r5], #2560	; 0xa00
     880:	00c10000 	sbceq	r0, r1, r0
     884:	05270b00 	streq	r0, [r7, #-2816]!	; 0xb00
     888:	03940000 	orrseq	r0, r4, #0
     88c:	0002062d 	andeq	r0, r2, sp, lsr #12
     890:	053c0c00 	ldreq	r0, [ip, #-3072]!	; 0xc00
     894:	2f030000 	svccs	0x00030000
     898:	00000076 	andeq	r0, r0, r6, ror r0
     89c:	0c002302 	stceq	3, cr2, [r0], {2}
     8a0:	00000554 	andeq	r0, r0, r4, asr r5
     8a4:	00763003 	rsbseq	r3, r6, r3
     8a8:	23020000 	movwcs	r0, #8192	; 0x2000
     8ac:	05b30c04 	ldreq	r0, [r3, #3076]!	; 0xc04
     8b0:	31030000 	tstcc	r3, r0
     8b4:	00000076 	andeq	r0, r0, r6, ror r0
     8b8:	0c082302 	stceq	3, cr2, [r8], {2}
     8bc:	0000051f 	andeq	r0, r0, pc, lsl r5
     8c0:	00763203 	rsbseq	r3, r6, r3, lsl #4
     8c4:	23020000 	movwcs	r0, #8192	; 0x2000
     8c8:	040d0c0c 	streq	r0, [sp], #-3084	; 0xc0c
     8cc:	34030000 	strcc	r0, [r3]
     8d0:	00000216 	andeq	r0, r0, r6, lsl r2
     8d4:	0c102302 	ldceq	3, cr2, [r0], {2}
     8d8:	000005bd 	undefined instruction 0x000005bd
     8dc:	00763503 	rsbseq	r3, r6, r3, lsl #10
     8e0:	23020000 	movwcs	r0, #8192	; 0x2000
     8e4:	03cf0c1c 	biceq	r0, pc, #7168	; 0x1c00
     8e8:	37030000 	strcc	r0, [r3, -r0]
     8ec:	0000021b 	andeq	r0, r0, fp, lsl r2
     8f0:	0c202302 	stceq	3, cr2, [r0], #-8
     8f4:	000005c7 	andeq	r0, r0, r7, asr #11
     8f8:	00763803 	rsbseq	r3, r6, r3, lsl #16
     8fc:	23020000 	movwcs	r0, #8192	; 0x2000
     900:	05050c2c 	streq	r0, [r5, #-3116]	; 0xc2c
     904:	3a030000 	bcc	c090c <__bss_end+0xbc684>
     908:	00000220 	andeq	r0, r0, r0, lsr #4
     90c:	0c302302 	ldceq	3, cr2, [r0], #-8
     910:	000005d1 	ldrdeq	r0, [r0], -r1
     914:	00763b03 	rsbseq	r3, r6, r3, lsl #22
     918:	23020000 	movwcs	r0, #8192	; 0x2000
     91c:	06260c3c 	undefined instruction 0x06260c3c
     920:	3d030000 	stccc	0, cr0, [r3]
     924:	00000225 	andeq	r0, r0, r5, lsr #4
     928:	0c402302 	mcrreq	3, 0, r2, r0, cr2
     92c:	000005db 	ldrdeq	r0, [r0], -fp
     930:	00763e03 	rsbseq	r3, r6, r3, lsl #28
     934:	23020000 	movwcs	r0, #8192	; 0x2000
     938:	055d0c4c 	ldrbeq	r0, [sp, #-3148]	; 0xc4c
     93c:	40030000 	andmi	r0, r3, r0
     940:	0000022a 	andeq	r0, r0, sl, lsr #4
     944:	0c502302 	mrrceq	3, 0, r2, r0, cr2
     948:	000005e5 	andeq	r0, r0, r5, ror #11
     94c:	00764103 	rsbseq	r4, r6, r3, lsl #2
     950:	23020000 	movwcs	r0, #8192	; 0x2000
     954:	044a0c5c 	strbeq	r0, [sl], #-3164	; 0xc5c
     958:	43030000 	movwmi	r0, #12288	; 0x3000
     95c:	0000022f 	andeq	r0, r0, pc, lsr #4
     960:	0c602302 	stcleq	3, cr2, [r0], #-8
     964:	000005ef 	andeq	r0, r0, pc, ror #11
     968:	00764403 	rsbseq	r4, r6, r3, lsl #8
     96c:	23020000 	movwcs	r0, #8192	; 0x2000
     970:	04150c6c 	ldreq	r0, [r5], #-3180	; 0xc6c
     974:	46030000 	strmi	r0, [r3], -r0
     978:	00000234 	andeq	r0, r0, r4, lsr r2
     97c:	0c702302 	ldcleq	3, cr2, [r0], #-8
     980:	000005f9 	strdeq	r0, [r0], -r9
     984:	00764703 	rsbseq	r4, r6, r3, lsl #14
     988:	23020000 	movwcs	r0, #8192	; 0x2000
     98c:	03f70c7c 	mvnseq	r0, #31744	; 0x7c00
     990:	49030000 	stmdbmi	r3, {}
     994:	00000239 	andeq	r0, r0, r9, lsr r2
     998:	01802303 	orreq	r2, r0, r3, lsl #6
     99c:	00530700 	subseq	r0, r3, r0, lsl #14
     9a0:	02160000 	andseq	r0, r6, #0
     9a4:	73080000 	movwvc	r0, #32768	; 0x8000
     9a8:	02000000 	andeq	r0, r0, #0
     9ac:	02060600 	andeq	r0, r6, #0
     9b0:	06060000 	streq	r0, [r6], -r0
     9b4:	06000002 	streq	r0, [r0], -r2
     9b8:	00000206 	andeq	r0, r0, r6, lsl #4
     9bc:	00020606 	andeq	r0, r2, r6, lsl #12
     9c0:	02060600 	andeq	r0, r6, #0
     9c4:	06060000 	streq	r0, [r6], -r0
     9c8:	06000002 	streq	r0, [r0], -r2
     9cc:	00000206 	andeq	r0, r0, r6, lsl #4
     9d0:	00007b06 	andeq	r7, r0, r6, lsl #22
     9d4:	84010d00 	strhi	r0, [r1], #-3328	; 0xd00
     9d8:	01000004 	tsteq	r0, r4
     9dc:	00410125 	subeq	r0, r1, r5, lsr #2
     9e0:	06e00000 	strbteq	r0, [r0], r0
     9e4:	077c0000 	ldrbeq	r0, [ip, -r0]!
     9e8:	00320000 	eorseq	r0, r2, r0
     9ec:	010e0000 	tsteq	lr, r0
     9f0:	000003d7 	ldrdeq	r0, [r0], -r7
     9f4:	41015101 	tstmi	r1, r1, lsl #2
     9f8:	7c000000 	stcvc	0, cr0, [r0], {0}
     9fc:	d8000007 	stmdale	r0, {r0, r1, r2}
     a00:	01000007 	tsteq	r0, r7
     a04:	a4010f5d 	strge	r0, [r1], #-3933	; 0xf5d
     a08:	01000005 	tsteq	r0, r5
     a0c:	0041016d 	subeq	r0, r1, sp, ror #2
     a10:	07d80000 	ldrbeq	r0, [r8, r0]
     a14:	08200000 	stmdaeq	r0!, {}
     a18:	00510000 	subseq	r0, r1, r0
     a1c:	02b50000 	adcseq	r0, r5, #0
     a20:	73100000 	tstvc	r0, #0
     a24:	01006372 	tsteq	r0, r2, ror r3
     a28:	00008b6d 	andeq	r8, r0, sp, ror #22
     a2c:	00007000 	andeq	r7, r0, r0
     a30:	05791100 	ldrbeq	r1, [r9, #-256]!	; 0x100
     a34:	6f010000 	svcvs	0x00010000
     a38:	00000053 	andeq	r0, r0, r3, asr r0
     a3c:	00000083 	andeq	r0, r0, r3, lsl #1
     a40:	00059d12 	andeq	r9, r5, r2, lsl sp
     a44:	53700100 	cmnpl	r0, #0
     a48:	00000000 	andeq	r0, r0, r0
     a4c:	03ff0113 	mvnseq	r0, #-1073741820	; 0xc0000004
     a50:	85010000 	strhi	r0, [r1]
     a54:	00004101 	andeq	r4, r0, r1, lsl #2
     a58:	00082000 	andeq	r2, r8, r0
     a5c:	00085000 	andeq	r5, r8, r0
     a60:	055d0100 	ldrbeq	r0, [sp, #-256]	; 0x100
     a64:	10000003 	andne	r0, r0, r3
     a68:	00637273 	rsbeq	r7, r3, r3, ror r2
     a6c:	008b8501 	addeq	r8, fp, r1, lsl #10
     a70:	00960000 	addseq	r0, r6, r0
     a74:	35120000 	ldrcc	r0, [r2]
     a78:	01000005 	tsteq	r0, r5
     a7c:	00004187 	andeq	r4, r0, r7, lsl #3
     a80:	05791100 	ldrbeq	r1, [r9, #-256]!	; 0x100
     a84:	88010000 	stmdahi	r1, {}
     a88:	00000053 	andeq	r0, r0, r3, asr r0
     a8c:	000000a9 	andeq	r0, r0, r9, lsr #1
     a90:	00059d12 	andeq	r9, r5, r2, lsl sp
     a94:	53890100 	orrpl	r0, r9, #0
     a98:	00000000 	andeq	r0, r0, r0
     a9c:	00041e14 	andeq	r1, r4, r4, lsl lr
     aa0:	06140100 	ldreq	r0, [r4], -r0, lsl #2
     aa4:	05000002 	streq	r0, [r0, #-2]
     aa8:	00423803 	subeq	r3, r2, r3, lsl #16
     aac:	05801400 	streq	r1, [r0, #1024]	; 0x400
     ab0:	14010000 	strne	r0, [r1]
     ab4:	00000206 	andeq	r0, r0, r6, lsl #4
     ab8:	42440305 	submi	r0, r4, #335544320	; 0x14000000
     abc:	93140000 	tstls	r4, #0
     ac0:	01000005 	tsteq	r0, r5
     ac4:	00020614 	andeq	r0, r2, r4, lsl r6
     ac8:	50030500 	andpl	r0, r3, r0, lsl #10
     acc:	14000042 	strne	r0, [r0], #-66	; 0x42
     ad0:	0000058b 	andeq	r0, r0, fp, lsl #11
     ad4:	03491501 	movteq	r1, #38145	; 0x9501
     ad8:	03050000 	movweq	r0, #20480	; 0x5000
     adc:	00004234 	andeq	r4, r0, r4, lsr r2
     ae0:	00ee0415 	rsceq	r0, lr, r5, lsl r4
     ae4:	06000000 	streq	r0, [r0], -r0
     ae8:	02000004 	andeq	r0, r0, #4
     aec:	00032a00 	andeq	r2, r3, r0, lsl #20
     af0:	55010400 	strpl	r0, [r1, #-1024]	; 0x400
     af4:	01000000 	tsteq	r0, r0
     af8:	00000777 	andeq	r0, r0, r7, ror r7
     afc:	0000028b 	andeq	r0, r0, fp, lsl #5
     b00:	00000850 	andeq	r0, r0, r0, asr r8
     b04:	00000890 	muleq	r0, r0, r8
     b08:	00000341 	andeq	r0, r0, r1, asr #6
     b0c:	8f060102 	svchi	0x00060102
     b10:	02000001 	andeq	r0, r0, #1
     b14:	018d0801 	orreq	r0, sp, r1, lsl #16
     b18:	02020000 	andeq	r0, r2, #0
     b1c:	00006105 	andeq	r6, r0, r5, lsl #2
     b20:	07020200 	streq	r0, [r2, -r0, lsl #4]
     b24:	00000268 	andeq	r0, r0, r8, ror #4
     b28:	69050403 	stmdbvs	r5, {r0, r1, sl}
     b2c:	0400746e 	streq	r7, [r0], #-1134	; 0x46e
     b30:	00000108 	andeq	r0, r0, r8, lsl #2
     b34:	00531303 	subseq	r1, r3, r3, lsl #6
     b38:	04020000 	streq	r0, [r2]
     b3c:	00022e07 	andeq	r2, r2, r7, lsl #28
     b40:	05080200 	streq	r0, [r8, #-512]	; 0x200
     b44:	0000011c 	andeq	r0, r0, ip, lsl r1
     b48:	24070802 	strcs	r0, [r7], #-2050	; 0x802
     b4c:	05000002 	streq	r0, [r0, #-2]
     b50:	48060704 	stmdami	r6, {r2, r8, r9, sl}
     b54:	07000000 	streq	r0, [r0, -r0]
     b58:	00000048 	andeq	r0, r0, r8, asr #32
     b5c:	00000080 	andeq	r0, r0, r0, lsl #1
     b60:	00006808 	andeq	r6, r0, r8, lsl #16
     b64:	09000300 	stmdbeq	r0, {r8, r9}
     b68:	0000068a 	andeq	r0, r0, sl, lsl #13
     b6c:	1a020130 	bne	81034 <__bss_end+0x7cdac>
     b70:	00000326 	andeq	r0, r0, r6, lsr #6
     b74:	0007650a 	andeq	r6, r7, sl, lsl #10
     b78:	6b1c0200 	blvs	701380 <__bss_end+0x6fd0f8>
     b7c:	02000000 	andeq	r0, r0, #0
     b80:	470a0023 	strmi	r0, [sl, -r3, lsr #32]
     b84:	02000007 	andeq	r0, r0, #7
     b88:	00006b1d 	andeq	r6, r0, sp, lsl fp
     b8c:	04230200 	strteq	r0, [r3], #-512	; 0x200
     b90:	0005b30a 	andeq	fp, r5, sl, lsl #6
     b94:	361e0200 	ldrcc	r0, [lr], -r0, lsl #4
     b98:	02000003 	andeq	r0, r0, #3
     b9c:	b00a0823 	andlt	r0, sl, r3, lsr #16
     ba0:	02000007 	andeq	r0, r0, #7
     ba4:	00006b20 	andeq	r6, r0, r0, lsr #22
     ba8:	10230200 	eorne	r0, r3, r0, lsl #4
     bac:	0006420a 	andeq	r4, r6, sl, lsl #4
     bb0:	6b210200 	blvs	8413b8 <__bss_end+0x83d130>
     bb4:	02000000 	andeq	r0, r0, #0
     bb8:	5c0a1423 	cfstrspl	mvf1, [sl], {35}	; 0x23
     bbc:	02000006 	andeq	r0, r0, #6
     bc0:	00006b22 	andeq	r6, r0, r2, lsr #22
     bc4:	18230200 	stmdane	r3!, {r9}
     bc8:	0005bd0a 	andeq	fp, r5, sl, lsl #26
     bcc:	6b230200 	blvs	8c13d4 <__bss_end+0x8bd14c>
     bd0:	02000000 	andeq	r0, r0, #0
     bd4:	540a1c23 	strpl	r1, [sl], #-3107	; 0xc23
     bd8:	02000006 	andeq	r0, r0, #6
     bdc:	00006b25 	andeq	r6, r0, r5, lsr #22
     be0:	20230200 	eorcs	r0, r3, r0, lsl #4
     be4:	0007260a 	andeq	r2, r7, sl, lsl #12
     be8:	6b260200 	blvs	9813f0 <__bss_end+0x97d168>
     bec:	02000000 	andeq	r0, r0, #0
     bf0:	570a2423 	strpl	r2, [sl, -r3, lsr #8]
     bf4:	02000007 	andeq	r0, r0, #7
     bf8:	00006b27 	andeq	r6, r0, r7, lsr #22
     bfc:	28230200 	stmdacs	r3!, {r9}
     c00:	0005c70a 	andeq	ip, r5, sl, lsl #14
     c04:	6b280200 	blvs	a0140c <__bss_end+0x9fd184>
     c08:	02000000 	andeq	r0, r0, #0
     c0c:	d70a2c23 	strle	r2, [sl, -r3, lsr #24]
     c10:	02000006 	andeq	r0, r0, #6
     c14:	00006b2a 	andeq	r6, r0, sl, lsr #22
     c18:	30230200 	eorcc	r0, r3, r0, lsl #4
     c1c:	00066f0a 	andeq	r6, r6, sl, lsl #30
     c20:	6b2b0200 	blvs	ac1428 <__bss_end+0xabd1a0>
     c24:	02000000 	andeq	r0, r0, #0
     c28:	9c0a3423 	cfstrsls	mvf3, [sl], {35}	; 0x23
     c2c:	02000006 	andeq	r0, r0, #6
     c30:	00006b2c 	andeq	r6, r0, ip, lsr #22
     c34:	38230200 	stmdacc	r3!, {r9}
     c38:	0005d10a 	andeq	sp, r5, sl, lsl #2
     c3c:	6b2d0200 	blvs	b41444 <__bss_end+0xb3d1bc>
     c40:	02000000 	andeq	r0, r0, #0
     c44:	380a3c23 	stmdacc	sl, {r0, r1, r5, sl, fp, ip, sp}
     c48:	02000007 	andeq	r0, r0, #7
     c4c:	00006b2f 	andeq	r6, r0, pc, lsr #22
     c50:	40230200 	eormi	r0, r3, r0, lsl #4
     c54:	00076c0a 	andeq	r6, r7, sl, lsl #24
     c58:	6b300200 	blvs	c01460 <__bss_end+0xbfd1d8>
     c5c:	02000000 	andeq	r0, r0, #0
     c60:	db0a4423 	blle	291cf4 <__bss_end+0x28da6c>
     c64:	02000005 	andeq	r0, r0, #5
     c68:	00033b31 	andeq	r3, r3, r1, lsr fp
     c6c:	48230200 	stmdami	r3!, {r9}
     c70:	0007b80a 	andeq	fp, r7, sl, lsl #16
     c74:	6b330200 	blvs	cc147c <__bss_end+0xcbd1f4>
     c78:	02000000 	andeq	r0, r0, #0
     c7c:	a70a5023 	strge	r5, [sl, -r3, lsr #32]
     c80:	02000006 	andeq	r0, r0, #6
     c84:	00006b34 	andeq	r6, r0, r4, lsr fp
     c88:	54230200 	strtpl	r0, [r3], #-512	; 0x200
     c8c:	0006b20a 	andeq	fp, r6, sl, lsl #4
     c90:	6b350200 	blvs	d41498 <__bss_end+0xd3d210>
     c94:	02000000 	andeq	r0, r0, #0
     c98:	e50a5823 	str	r5, [sl, #-2083]	; 0x823
     c9c:	02000005 	andeq	r0, r0, #5
     ca0:	00006b36 	andeq	r6, r0, r6, lsr fp
     ca4:	5c230200 	sfmpl	f0, 4, [r3]	; (stcpl 2, cr0, [r3])
     ca8:	0006670a 	andeq	r6, r6, sl, lsl #14
     cac:	6b380200 	blvs	e014b4 <__bss_end+0xdfd22c>
     cb0:	02000000 	andeq	r0, r0, #0
     cb4:	930a6023 	movwls	r6, #40995	; 0xa023
     cb8:	02000007 	andeq	r0, r0, #7
     cbc:	00006b39 	andeq	r6, r0, r9, lsr fp
     cc0:	64230200 	strtvs	r0, [r3], #-512	; 0x200
     cc4:	00079e0a 	andeq	r9, r7, sl, lsl #28
     cc8:	6b3a0200 	blvs	e814d0 <__bss_end+0xe7d248>
     ccc:	02000000 	andeq	r0, r0, #0
     cd0:	ef0a6823 	svc	0x000a6823
     cd4:	02000005 	andeq	r0, r0, #5
     cd8:	0003503b 	andeq	r5, r3, fp, lsr r0
     cdc:	6c230200 	sfmvs	f0, 4, [r3]	; (stcvs 2, cr0, [r3])
     ce0:	0007400a 	andeq	r4, r7, sl
     ce4:	6b3d0200 	blvs	f414ec <__bss_end+0xf3d264>
     ce8:	03000000 	movweq	r0, #0
     cec:	0a018023 	beq	60d80 <__bss_end+0x5caf8>
     cf0:	0000078b 	andeq	r0, r0, fp, lsl #15
     cf4:	006b3e02 	rsbeq	r3, fp, r2, lsl #28
     cf8:	23030000 	movwcs	r0, #12288	; 0x3000
     cfc:	190a0184 	stmdbne	sl, {r2, r7, r8}
     d00:	02000006 	andeq	r0, r0, #6
     d04:	00006b3f 	andeq	r6, r0, pc, lsr fp
     d08:	88230300 	stmdahi	r3!, {r8, r9}
     d0c:	07310a01 	ldreq	r0, [r1, -r1, lsl #20]!
     d10:	40020000 	andmi	r0, r2, r0
     d14:	0000006b 	andeq	r0, r0, fp, rrx
     d18:	018c2303 	orreq	r2, ip, r3, lsl #6
     d1c:	0006340a 	andeq	r3, r6, sl, lsl #8
     d20:	6b420200 	blvs	1081528 <__bss_end+0x107d2a0>
     d24:	03000000 	movweq	r0, #0
     d28:	0a019023 	beq	64dbc <__bss_end+0x60b34>
     d2c:	000006ec 	andeq	r0, r0, ip, ror #13
     d30:	006b4302 	rsbeq	r4, fp, r2, lsl #6
     d34:	23030000 	movwcs	r0, #12288	; 0x3000
     d38:	f90a0194 	undefined instruction 0xf90a0194
     d3c:	02000005 	andeq	r0, r0, #5
     d40:	00035544 	andeq	r5, r3, r4, asr #10
     d44:	98230300 	stmdals	r3!, {r8, r9}
     d48:	071d0a01 	ldreq	r0, [sp, -r1, lsl #20]
     d4c:	46020000 	strmi	r0, [r2], -r0
     d50:	0000006b 	andeq	r0, r0, fp, rrx
     d54:	01a02303 	lsleq	r2, r3, #6
     d58:	0006f40a 	andeq	pc, r6, sl, lsl #8
     d5c:	6b470200 	blvs	11c1564 <__bss_end+0x11bd2dc>
     d60:	03000000 	movweq	r0, #0
     d64:	0a01a423 	beq	69df8 <__bss_end+0x65b70>
     d68:	000006cf 	andeq	r0, r0, pc, asr #13
     d6c:	006b4802 	rsbeq	r4, fp, r2, lsl #16
     d70:	23030000 	movwcs	r0, #12288	; 0x3000
     d74:	c50a01a8 	strgt	r0, [sl, #-424]	; 0x1a8
     d78:	02000006 	andeq	r0, r0, #6
     d7c:	00036a49 	andeq	r6, r3, r9, asr #20
     d80:	ac230300 	stcge	3, cr0, [r3]
     d84:	07150a01 	ldreq	r0, [r5, -r1, lsl #20]
     d88:	4b020000 	blmi	80d90 <__bss_end+0x7cb08>
     d8c:	0000006b 	andeq	r0, r0, fp, rrx
     d90:	02802303 	addeq	r2, r0, #201326592	; 0xc000000
     d94:	00063b0a 	andeq	r3, r6, sl, lsl #22
     d98:	6b4c0200 	blvs	13015a0 <__bss_end+0x12fd318>
     d9c:	03000000 	movweq	r0, #0
     da0:	0a028423 	beq	a1e34 <__bss_end+0x9dbac>
     da4:	0000064d 	andeq	r0, r0, sp, asr #12
     da8:	006b4d02 	rsbeq	r4, fp, r2, lsl #26
     dac:	23030000 	movwcs	r0, #12288	; 0x3000
     db0:	2c0a0288 	sfmcs	f0, 4, [sl], {136}	; (stccs 2, cr0, [sl], {136})	; 0x88
     db4:	02000006 	andeq	r0, r0, #6
     db8:	00006b4e 	andeq	r6, r0, lr, asr #22
     dbc:	8c230300 	stchi	3, cr0, [r3]
     dc0:	06030a02 	streq	r0, [r3], -r2, lsl #20
     dc4:	50020000 	andpl	r0, r2, r0
     dc8:	0000006b 	andeq	r0, r0, fp, rrx
     dcc:	02902303 	addseq	r2, r0, #201326592	; 0xc000000
     dd0:	0006bd0a 	andeq	fp, r6, sl, lsl #26
     dd4:	6b510200 	blvs	14415dc <__bss_end+0x143d354>
     dd8:	03000000 	movweq	r0, #0
     ddc:	0a029423 	beq	a5e70 <__bss_end+0xa1be8>
     de0:	00000621 	andeq	r0, r0, r1, lsr #12
     de4:	006b5202 	rsbeq	r5, fp, r2, lsl #4
     de8:	23030000 	movwcs	r0, #12288	; 0x3000
     dec:	0d0a0298 	sfmeq	f0, 4, [sl, #-608]	; (stceq 2, cr0, [sl, #-608])	; 0xfffffda0
     df0:	02000006 	andeq	r0, r0, #6
     df4:	00006b53 	andeq	r6, r0, r3, asr fp
     df8:	9c230300 	stcls	3, cr0, [r3]
     dfc:	074e0a02 	strbeq	r0, [lr, -r2, lsl #20]
     e00:	55020000 	strpl	r0, [r2]
     e04:	0000036f 	andeq	r0, r0, pc, ror #6
     e08:	02a02303 	adceq	r2, r0, #201326592	; 0xc000000
     e0c:	00480700 	subeq	r0, r8, r0, lsl #14
     e10:	03360000 	teqeq	r6, #0
     e14:	68080000 	stmdavs	r8, {}
     e18:	01000000 	tsteq	r0, r0
     e1c:	03260600 	teqeq	r6, #0
     e20:	26060000 	strcs	r0, [r6], -r0
     e24:	07000003 	streq	r0, [r0, -r3]
     e28:	00000048 	andeq	r0, r0, r8, asr #32
     e2c:	00000350 	andeq	r0, r0, r0, asr r3
     e30:	00006808 	andeq	r6, r0, r8, lsl #16
     e34:	06000400 	streq	r0, [r0], -r0, lsl #8
     e38:	00000340 	andeq	r0, r0, r0, asr #6
     e3c:	00032606 	andeq	r2, r3, r6, lsl #12
     e40:	00480700 	subeq	r0, r8, r0, lsl #14
     e44:	036a0000 	cmneq	sl, #0
     e48:	68080000 	stmdavs	r8, {}
     e4c:	14000000 	strne	r0, [r0]
     e50:	035a0600 	cmpeq	sl, #0
     e54:	70060000 	andvc	r0, r6, r0
     e58:	04000000 	streq	r0, [r0]
     e5c:	0000067a 	andeq	r0, r0, sl, ror r6
     e60:	00805702 	addeq	r5, r0, r2, lsl #14
     e64:	010b0000 	tsteq	fp, r0
     e68:	000006df 	ldrdeq	r0, [r0], -pc
     e6c:	50012201 	andpl	r2, r1, r1, lsl #4
     e70:	68000008 	stmdavs	r0, {r3}
     e74:	01000008 	tsteq	r0, r8
     e78:	fc010b5d 	stc2	11, cr0, [r1], {93}	; 0x5d
     e7c:	01000006 	tsteq	r0, r6
     e80:	08680138 	stmdaeq	r8!, {r3, r4, r5, r8}^
     e84:	08900000 	ldmeq	r0, {}
     e88:	5d010000 	stcpl	0, cr0, [r1]
     e8c:	0007a90c 	andeq	sl, r7, ip, lsl #18
     e90:	b6160100 	ldrlt	r0, [r6], -r0, lsl #2
     e94:	05000003 	streq	r0, [r0, #-3]
     e98:	00425c03 	subeq	r5, r2, r3, lsl #24
     e9c:	74040d00 	strvc	r0, [r4], #-3328	; 0xd00
     ea0:	0e000003 	cdpeq	0, 0, cr0, cr0, cr3, {0}
     ea4:	00000762 	andeq	r0, r0, r2, ror #14
     ea8:	00481401 	subeq	r1, r8, r1, lsl #8
     eac:	b00e0000 	andlt	r0, lr, r0
     eb0:	01000007 	tsteq	r0, r7
     eb4:	00004814 	andeq	r4, r0, r4, lsl r8
     eb8:	06420e00 	strbeq	r0, [r2], -r0, lsl #28
     ebc:	14010000 	strne	r0, [r1]
     ec0:	00000048 	andeq	r0, r0, r8, asr #32
     ec4:	00065c0e 	andeq	r5, r6, lr, lsl #24
     ec8:	48140100 	ldmdami	r4, {r8}
     ecc:	0e000000 	cdpeq	0, 0, cr0, cr0, cr0, {0}
     ed0:	00000654 	andeq	r0, r0, r4, asr r6
     ed4:	00481401 	subeq	r1, r8, r1, lsl #8
     ed8:	260e0000 	strcs	r0, [lr], -r0
     edc:	01000007 	tsteq	r0, r7
     ee0:	00004814 	andeq	r4, r0, r4, lsl r8
     ee4:	07570e00 	ldrbeq	r0, [r7, -r0, lsl #28]
     ee8:	14010000 	strne	r0, [r1]
     eec:	00000048 	andeq	r0, r0, r8, asr #32
     ef0:	00207c00 	eoreq	r7, r0, r0, lsl #24
     ef4:	db000200 	blle	16fc <mem_power_exit+0x304>
     ef8:	04000003 	streq	r0, [r0], #-3
     efc:	00005501 	andeq	r5, r0, r1, lsl #10
     f00:	0f310100 	svceq	0x00310100
     f04:	028b0000 	addeq	r0, fp, #0
     f08:	08900000 	ldmeq	r0, {}
     f0c:	0b040000 	bleq	100f14 <__bss_end+0xfcc8c>
     f10:	03b70000 	undefined instruction 0x03b70000
     f14:	01020000 	tsteq	r2, r0
     f18:	00018f06 	andeq	r8, r1, r6, lsl #30
     f1c:	02f80300 	rscseq	r0, r8, #0
     f20:	0f020000 	svceq	0x00020000
     f24:	00000037 	andeq	r0, r0, r7, lsr r0
     f28:	8d080102 	stfhis	f0, [r8, #-8]
     f2c:	02000001 	andeq	r0, r0, #1
     f30:	00610502 	rsbeq	r0, r1, r2, lsl #10
     f34:	02020000 	andeq	r0, r2, #0
     f38:	00026807 	andeq	r6, r2, r7, lsl #16
     f3c:	01f70300 	mvnseq	r0, r0, lsl #6
     f40:	12020000 	andne	r0, r2, #0
     f44:	00000057 	andeq	r0, r0, r7, asr r0
     f48:	69050404 	stmdbvs	r5, {r2, sl}
     f4c:	0300746e 	movweq	r7, #1134	; 0x46e
     f50:	00000108 	andeq	r0, r0, r8, lsl #2
     f54:	00691302 	rsbeq	r1, r9, r2, lsl #6
     f58:	04020000 	streq	r0, [r2]
     f5c:	00022e07 	andeq	r2, r2, r7, lsl #28
     f60:	05080200 	streq	r0, [r8, #-512]	; 0x200
     f64:	0000011c 	andeq	r0, r0, ip, lsl r1
     f68:	24070802 	strcs	r0, [r7], #-2050	; 0x802
     f6c:	05000002 	streq	r0, [r0, #-2]
     f70:	00000097 	muleq	r0, r7, r0
     f74:	e0110304 	ands	r0, r1, r4, lsl #6
     f78:	06000000 	streq	r0, [r0], -r0
     f7c:	0000001e 	andeq	r0, r0, lr, lsl r0
     f80:	005e1203 	subseq	r1, lr, r3, lsl #4
     f84:	04040000 	streq	r0, [r4]
     f88:	0023021c 	eoreq	r0, r3, ip, lsl r2
     f8c:	0000c906 	andeq	ip, r0, r6, lsl #18
     f90:	5e130300 	cdppl	3, 1, cr0, cr3, cr0, {0}
     f94:	04000000 	streq	r0, [r0]
     f98:	23021804 	movwcs	r1, #10244	; 0x2804
     f9c:	012f0600 	teqeq	pc, r0, lsl #12
     fa0:	14030000 	strne	r0, [r3]
     fa4:	0000005e 	andeq	r0, r0, lr, asr r0
     fa8:	02140404 	andseq	r0, r4, #67108864	; 0x4000000
     fac:	14060023 	strne	r0, [r6], #-35	; 0x23
     fb0:	03000001 	movweq	r0, #1
     fb4:	00005e15 	andeq	r5, r0, r5, lsl lr
     fb8:	10040400 	andne	r0, r4, r0, lsl #8
     fbc:	06002302 	streq	r2, [r0], -r2, lsl #6
     fc0:	00000137 	andeq	r0, r0, r7, lsr r1
     fc4:	005e1603 	subseq	r1, lr, r3, lsl #12
     fc8:	10040000 	andne	r0, r4, r0
     fcc:	00230200 	eoreq	r0, r3, r0, lsl #4
     fd0:	02e60500 	rsceq	r0, r6, #0
     fd4:	03080000 	movweq	r0, #32768	; 0x8000
     fd8:	00013318 	andeq	r3, r1, r8, lsl r3
     fdc:	00080700 	andeq	r0, r8, r0, lsl #14
     fe0:	19030000 	stmdbne	r3, {}
     fe4:	0000002c 	andeq	r0, r0, ip, lsr #32
     fe8:	07002302 	streq	r2, [r0, -r2, lsl #6]
     fec:	00000396 	muleq	r0, r6, r3
     ff0:	002c1a03 	eoreq	r1, ip, r3, lsl #20
     ff4:	23020000 	movwcs	r0, #8192	; 0x2000
     ff8:	00000701 	andeq	r0, r0, r1, lsl #14
     ffc:	1b030000 	blne	c1004 <__bss_end+0xbcd7c>
    1000:	0000002c 	andeq	r0, r0, ip, lsr #32
    1004:	07022302 	streq	r2, [r2, -r2, lsl #6]
    1008:	00000010 	andeq	r0, r0, r0, lsl r0
    100c:	002c1c03 	eoreq	r1, ip, r3, lsl #24
    1010:	23020000 	movwcs	r0, #8192	; 0x2000
    1014:	6c500803 	mrrcvs	8, 0, r0, r0, cr3
    1018:	1d03006c 	stcne	0, cr0, [r3, #-432]	; 0xfffffe50
    101c:	0000005e 	andeq	r0, r0, lr, asr r0
    1020:	00042302 	andeq	r2, r4, r2, lsl #6
    1024:	05070409 	streq	r0, [r7, #-1033]	; 0x409
    1028:	00000f90 	muleq	r0, r0, pc
    102c:	31170404 	tstcc	r7, r4, lsl #8
    1030:	06000002 	streq	r0, [r0], -r2
    1034:	00000000 	andeq	r0, r0, r0
    1038:	005e1804 	subseq	r1, lr, r4, lsl #16
    103c:	02040000 	andeq	r0, r4, #0
    1040:	0023021e 	eoreq	r0, r3, lr, lsl r2
    1044:	00146606 	andseq	r6, r4, r6, lsl #12
    1048:	5e190400 	cfmulspl	mvf0, mvf9, mvf0
    104c:	04000000 	streq	r0, [r0]
    1050:	23021d01 	movwcs	r1, #11521	; 0x2d01
    1054:	11a10600 	undefined instruction 0x11a10600
    1058:	1a040000 	bne	101060 <__bss_end+0xfcdd8>
    105c:	0000005e 	andeq	r0, r0, lr, asr r0
    1060:	021c0104 	andseq	r0, ip, #1
    1064:	96060023 	strls	r0, [r6], -r3, lsr #32
    1068:	04000003 	streq	r0, [r0], #-3
    106c:	00005e1b 	andeq	r5, r0, fp, lsl lr
    1070:	1a020400 	bne	82078 <__bss_end+0x7ddf0>
    1074:	06002302 	streq	r2, [r0], -r2, lsl #6
    1078:	000005b3 	undefined instruction 0x000005b3
    107c:	005e1c04 	subseq	r1, lr, r4, lsl #24
    1080:	02040000 	andeq	r0, r4, #0
    1084:	00230218 	eoreq	r0, r3, r8, lsl r2
    1088:	00000806 	andeq	r0, r0, r6, lsl #16
    108c:	5e1d0400 	cfmulspl	mvf0, mvf13, mvf0
    1090:	04000000 	streq	r0, [r0]
    1094:	23021305 	movwcs	r1, #8965	; 0x2305
    1098:	14d30600 	ldrbne	r0, [r3], #1536	; 0x600
    109c:	1e040000 	cdpne	0, 0, cr0, cr4, cr0, {0}
    10a0:	0000005e 	andeq	r0, r0, lr, asr r0
    10a4:	02100304 	andseq	r0, r0, #268435456	; 0x10000000
    10a8:	d2060023 	andle	r0, r6, #35	; 0x23
    10ac:	0400000b 	streq	r0, [r0], #-11
    10b0:	00005e1f 	andeq	r5, r0, pc, lsl lr
    10b4:	0e020400 	cfcpyseq	mvf0, mvf2
    10b8:	06002302 	streq	r2, [r0], -r2, lsl #6
    10bc:	000005bd 	undefined instruction 0x000005bd
    10c0:	005e2004 	subseq	r2, lr, r4
    10c4:	02040000 	andeq	r0, r4, #0
    10c8:	0023020c 	eoreq	r0, r3, ip, lsl #4
    10cc:	00133606 	andseq	r3, r3, r6, lsl #12
    10d0:	5e210400 	cdppl	4, 2, cr0, cr1, cr0, {0}
    10d4:	04000000 	streq	r0, [r0]
    10d8:	23020705 	movwcs	r0, #9989	; 0x2705
    10dc:	05c70600 	strbeq	r0, [r7, #1536]	; 0x600
    10e0:	22040000 	andcs	r0, r4, #0
    10e4:	0000005e 	andeq	r0, r0, lr, asr r0
    10e8:	02060104 	andeq	r0, r6, #1
    10ec:	f1060023 	undefined instruction 0xf1060023
    10f0:	04000011 	streq	r0, [r0], #-17
    10f4:	00005e23 	andeq	r5, r0, r3, lsr #28
    10f8:	02040400 	andeq	r0, r4, #0
    10fc:	06002302 	streq	r2, [r0], -r2, lsl #6
    1100:	00000efd 	strdeq	r0, [r0], -sp
    1104:	005e2404 	subseq	r2, lr, r4, lsl #8
    1108:	01040000 	tsteq	r4, r0
    110c:	00230201 	eoreq	r0, r3, r1, lsl #4
    1110:	0012cf06 	andseq	ip, r2, r6, lsl #30
    1114:	5e250400 	cdppl	4, 2, cr0, cr5, cr0, {0}
    1118:	04000000 	streq	r0, [r0]
    111c:	23020001 	movwcs	r0, #8193	; 0x2001
    1120:	4f030000 	svcmi	0x00030000
    1124:	0400000d 	streq	r0, [r0], #-13
    1128:	00013627 	andeq	r3, r1, r7, lsr #12
    112c:	14130500 	ldrne	r0, [r3], #-1280	; 0x500
    1130:	04040000 	streq	r0, [r4]
    1134:	0002af2a 	andeq	sl, r2, sl, lsr #30
    1138:	05b30600 	ldreq	r0, [r3, #1536]!	; 0x600
    113c:	2b040000 	blcs	101144 <__bss_end+0xfcebc>
    1140:	0000005e 	andeq	r0, r0, lr, asr r0
    1144:	02101004 	andseq	r1, r0, #4
    1148:	23060023 	movwcs	r0, #24611	; 0x6023
    114c:	04000013 	streq	r0, [r0], #-19
    1150:	00005e2c 	andeq	r5, r0, ip, lsr #28
    1154:	09070400 	stmdbeq	r7, {sl}
    1158:	06002302 	streq	r2, [r0], -r2, lsl #6
    115c:	0000087c 	andeq	r0, r0, ip, ror r8
    1160:	005e2d04 	subseq	r2, lr, r4, lsl #26
    1164:	03040000 	movweq	r0, #16384	; 0x4000
    1168:	00230206 	eoreq	r0, r3, r6, lsl #4
    116c:	00153a06 	andseq	r3, r5, r6, lsl #20
    1170:	5e2e0400 	cdppl	4, 2, cr0, cr14, cr0, {0}
    1174:	04000000 	streq	r0, [r0]
    1178:	23020501 	movwcs	r0, #9473	; 0x2501
    117c:	099b0600 	ldmibeq	fp, {r9, sl}
    1180:	2f040000 	svccs	0x00040000
    1184:	0000005e 	andeq	r0, r0, lr, asr r0
    1188:	02040104 	andeq	r0, r4, #1
    118c:	14060023 	strne	r0, [r6], #-35	; 0x23
    1190:	0400000d 	streq	r0, [r0], #-13
    1194:	00005e30 	andeq	r5, r0, r0, lsr lr
    1198:	00040400 	andeq	r0, r4, r0, lsl #8
    119c:	00002302 	andeq	r2, r0, r2, lsl #6
    11a0:	000a3803 	andeq	r3, sl, r3, lsl #16
    11a4:	3c310400 	cfldrscc	mvf0, [r1]
    11a8:	05000002 	streq	r0, [r0, #-2]
    11ac:	00000f47 	andeq	r0, r0, r7, asr #30
    11b0:	60350404 	eorsvs	r0, r5, r4, lsl #8
    11b4:	06000003 	streq	r0, [r0], -r3
    11b8:	00001504 	andeq	r1, r0, r4, lsl #10
    11bc:	005e3604 	subseq	r3, lr, r4, lsl #12
    11c0:	05040000 	streq	r0, [r4]
    11c4:	0023021b 	eoreq	r0, r3, fp, lsl r2
    11c8:	0005b306 	andeq	fp, r5, r6, lsl #6
    11cc:	5e370400 	cfabsspl	mvf0, mvf7
    11d0:	04000000 	streq	r0, [r0]
    11d4:	23021803 	movwcs	r1, #10243	; 0x2803
    11d8:	00080600 	andeq	r0, r8, r0, lsl #12
    11dc:	38040000 	stmdacc	r4, {}
    11e0:	0000005e 	andeq	r0, r0, lr, asr r0
    11e4:	02110704 	andseq	r0, r1, #1048576	; 0x100000
    11e8:	bd060023 	stclt	0, cr0, [r6, #-140]	; 0xffffff74
    11ec:	04000005 	streq	r0, [r0], #-5
    11f0:	00005e39 	andeq	r5, r0, r9, lsr lr
    11f4:	10010400 	andne	r0, r1, r0, lsl #8
    11f8:	06002302 	streq	r2, [r0], -r2, lsl #6
    11fc:	00001336 	andeq	r1, r0, r6, lsr r3
    1200:	005e3a04 	subseq	r3, lr, r4, lsl #20
    1204:	05040000 	streq	r0, [r4]
    1208:	0023020b 	eoreq	r0, r3, fp, lsl #4
    120c:	0014fc06 	andseq	pc, r4, r6, lsl #24
    1210:	5e3b0400 	cfabsspl	mvf0, mvf11
    1214:	04000000 	streq	r0, [r0]
    1218:	23020605 	movwcs	r0, #9733	; 0x2605
    121c:	08e70600 	stmiaeq	r7!, {r9, sl}^
    1220:	3c040000 	stccc	0, cr0, [r4], {0}
    1224:	0000005e 	andeq	r0, r0, lr, asr r0
    1228:	02020404 	andeq	r0, r2, #67108864	; 0x4000000
    122c:	c7060023 	strgt	r0, [r6, -r3, lsr #32]
    1230:	04000005 	streq	r0, [r0], #-5
    1234:	00005e3d 	andeq	r5, r0, sp, lsr lr
    1238:	01010400 	tsteq	r1, r0, lsl #8
    123c:	06002302 	streq	r2, [r0], -r2, lsl #6
    1240:	000012cf 	andeq	r1, r0, pc, asr #5
    1244:	005e3e04 	subseq	r3, lr, r4, lsl #28
    1248:	01040000 	tsteq	r4, r0
    124c:	00230200 	eoreq	r0, r3, r0, lsl #4
    1250:	0b960300 	bleq	fe581e58 <__bss_end+0xfe57dbd0>
    1254:	3f040000 	svccc	0x00040000
    1258:	000002ba 	undefined instruction 0x000002ba
    125c:	00086105 	andeq	r6, r8, r5, lsl #2
    1260:	43040400 	movwmi	r0, #17408	; 0x4400
    1264:	000003de 	ldrdeq	r0, [r0], -lr
    1268:	000e3506 	andeq	r3, lr, r6, lsl #10
    126c:	5e440400 	cdppl	4, 4, cr0, cr4, cr0, {0}
    1270:	04000000 	streq	r0, [r0]
    1274:	23020f11 	movwcs	r0, #12049	; 0x2f11
    1278:	154e0600 	strbne	r0, [lr, #-1536]	; 0x600
    127c:	45040000 	strmi	r0, [r4]
    1280:	0000005e 	andeq	r0, r0, lr, asr r0
    1284:	020d0204 	andeq	r0, sp, #1073741824	; 0x40000000
    1288:	b3060023 	movwlt	r0, #24611	; 0x6023
    128c:	04000005 	streq	r0, [r0], #-5
    1290:	00005e46 	andeq	r5, r0, r6, asr #28
    1294:	0c010400 	cfstrseq	mvf0, [r1], {0}
    1298:	06002302 	streq	r2, [r0], -r2, lsl #6
    129c:	000007c9 	andeq	r0, r0, r9, asr #15
    12a0:	005e4704 	subseq	r4, lr, r4, lsl #14
    12a4:	09040000 	stmdbeq	r4, {}
    12a8:	00230203 	eoreq	r0, r3, r3, lsl #4
    12ac:	000bc906 	andeq	ip, fp, r6, lsl #18
    12b0:	5e480400 	cdppl	4, 4, cr0, cr8, cr0, {0}
    12b4:	04000000 	streq	r0, [r0]
    12b8:	23020102 	movwcs	r0, #8450	; 0x2102
    12bc:	14660600 	strbtne	r0, [r6], #-1536	; 0x600
    12c0:	49040000 	stmdbmi	r4, {}
    12c4:	0000005e 	andeq	r0, r0, lr, asr r0
    12c8:	02000104 	andeq	r0, r0, #1
    12cc:	03000023 	movweq	r0, #35	; 0x23
    12d0:	00001184 	andeq	r1, r0, r4, lsl #3
    12d4:	036b4b04 	cmneq	fp, #4096	; 0x1000
    12d8:	b2050000 	andlt	r0, r5, #0
    12dc:	04000011 	streq	r0, [r0], #-17
    12e0:	04b14f04 	ldrteq	r4, [r1], #3844	; 0xf04
    12e4:	00060000 	andeq	r0, r6, r0
    12e8:	04000000 	streq	r0, [r0]
    12ec:	00005e50 	andeq	r5, r0, r0, asr lr
    12f0:	19070400 	stmdbne	r7, {sl}
    12f4:	06002302 	streq	r2, [r0], -r2, lsl #6
    12f8:	000005b3 	undefined instruction 0x000005b3
    12fc:	005e5104 	subseq	r5, lr, r4, lsl #2
    1300:	01040000 	tsteq	r4, r0
    1304:	00230218 	eoreq	r0, r3, r8, lsl r2
    1308:	00133606 	andseq	r3, r3, r6, lsl #12
    130c:	5e520400 	cdppl	4, 5, cr0, cr2, cr0, {0}
    1310:	04000000 	streq	r0, [r0]
    1314:	23021305 	movwcs	r1, #8965	; 0x2305
    1318:	05bd0600 	ldreq	r0, [sp, #1536]!	; 0x600
    131c:	53040000 	movwpl	r0, #16384	; 0x4000
    1320:	0000005e 	andeq	r0, r0, lr, asr r0
    1324:	02120104 	andseq	r0, r2, #1
    1328:	c5060023 	strgt	r0, [r6, #-35]	; 0x23
    132c:	0400000e 	streq	r0, [r0], #-14
    1330:	00005e54 	andeq	r5, r0, r4, asr lr
    1334:	11010400 	tstne	r1, r0, lsl #8
    1338:	06002302 	streq	r2, [r0], -r2, lsl #6
    133c:	000010ae 	andeq	r1, r0, lr, lsr #1
    1340:	005e5504 	subseq	r5, lr, r4, lsl #10
    1344:	01040000 	tsteq	r4, r0
    1348:	00230210 	eoreq	r0, r3, r0, lsl r2
    134c:	0011f106 	andseq	pc, r1, r6, lsl #2
    1350:	5e560400 	cdppl	4, 5, cr0, cr6, cr0, {0}
    1354:	04000000 	streq	r0, [r0]
    1358:	23020b05 	movwcs	r0, #11013	; 0x2b05
    135c:	05c70600 	strbeq	r0, [r7, #1536]	; 0x600
    1360:	57040000 	strpl	r0, [r4, -r0]
    1364:	0000005e 	andeq	r0, r0, lr, asr r0
    1368:	02080304 	andeq	r0, r8, #268435456	; 0x10000000
    136c:	14060023 	strne	r0, [r6], #-35	; 0x23
    1370:	0400000d 	streq	r0, [r0], #-13
    1374:	00005e58 	andeq	r5, r0, r8, asr lr
    1378:	05030400 	streq	r0, [r3, #-1024]	; 0x400
    137c:	06002302 	streq	r2, [r0], -r2, lsl #6
    1380:	000005d1 	ldrdeq	r0, [r0], -r1
    1384:	005e5904 	subseq	r5, lr, r4, lsl #18
    1388:	04040000 	streq	r0, [r4]
    138c:	00230201 	eoreq	r0, r3, r1, lsl #4
    1390:	0012cf06 	andseq	ip, r2, r6, lsl #30
    1394:	5e5a0400 	cdppl	4, 5, cr0, cr10, cr0, {0}
    1398:	04000000 	streq	r0, [r0]
    139c:	23020001 	movwcs	r0, #8193	; 0x2001
    13a0:	dc030000 	stcle	0, cr0, [r3], {0}
    13a4:	0400000f 	streq	r0, [r0], #-15
    13a8:	0003e95b 	andeq	lr, r3, fp, asr r9
    13ac:	0a550500 	beq	15427b4 <__bss_end+0x153e52c>
    13b0:	04040000 	streq	r0, [r4]
    13b4:	0005b75f 	andeq	fp, r5, pc, asr r7
    13b8:	00000600 	andeq	r0, r0, r0, lsl #12
    13bc:	60040000 	andvs	r0, r4, r0
    13c0:	0000005e 	andeq	r0, r0, lr, asr r0
    13c4:	021e0204 	andseq	r0, lr, #1073741824	; 0x40000000
    13c8:	b3060023 	movwlt	r0, #24611	; 0x6023
    13cc:	04000005 	streq	r0, [r0], #-5
    13d0:	00005e61 	andeq	r5, r0, r1, ror #28
    13d4:	1c020400 	cfstrsne	mvf0, [r2], {0}
    13d8:	06002302 	streq	r2, [r0], -r2, lsl #6
    13dc:	00000396 	muleq	r0, r6, r3
    13e0:	005e6204 	subseq	r6, lr, r4, lsl #4
    13e4:	02040000 	andeq	r0, r4, #0
    13e8:	0023021a 	eoreq	r0, r3, sl, lsl r2
    13ec:	0005bd06 	andeq	fp, r5, r6, lsl #26
    13f0:	5e630400 	cdppl	4, 6, cr0, cr3, cr0, {0}
    13f4:	04000000 	streq	r0, [r0]
    13f8:	23021802 	movwcs	r1, #10242	; 0x2802
    13fc:	00080600 	andeq	r0, r8, r0, lsl #12
    1400:	64040000 	strvs	r0, [r4]
    1404:	0000005e 	andeq	r0, r0, lr, asr r0
    1408:	02130504 	andseq	r0, r3, #16777216	; 0x1000000
    140c:	c7060023 	strgt	r0, [r6, -r3, lsr #32]
    1410:	04000005 	streq	r0, [r0], #-5
    1414:	00005e65 	andeq	r5, r0, r5, ror #28
    1418:	12010400 	andne	r0, r1, #0
    141c:	06002302 	streq	r2, [r0], -r2, lsl #6
    1420:	00000d3c 	andeq	r0, r0, ip, lsr sp
    1424:	005e6604 	subseq	r6, lr, r4, lsl #12
    1428:	02040000 	andeq	r0, r4, #0
    142c:	00230210 	eoreq	r0, r3, r0, lsl r2
    1430:	00001006 	andeq	r1, r0, r6
    1434:	5e670400 	cdppl	4, 6, cr0, cr7, cr0, {0}
    1438:	04000000 	streq	r0, [r0]
    143c:	23020e02 	movwcs	r0, #11778	; 0x2e02
    1440:	05d10600 	ldrbeq	r0, [r1, #1536]	; 0x600
    1444:	68040000 	stmdavs	r4, {}
    1448:	0000005e 	andeq	r0, r0, lr, asr r0
    144c:	020d0104 	andeq	r0, sp, #1
    1450:	3a060023 	bcc	1814e4 <__bss_end+0x17d25c>
    1454:	04000015 	streq	r0, [r0], #-21
    1458:	00005e69 	andeq	r5, r0, r9, ror #28
    145c:	0c010400 	cfstrseq	mvf0, [r1], {0}
    1460:	06002302 	streq	r2, [r0], -r2, lsl #6
    1464:	00001336 	andeq	r1, r0, r6, lsr r3
    1468:	005e6a04 	subseq	r6, lr, r4, lsl #20
    146c:	05040000 	streq	r0, [r4]
    1470:	00230207 	eoreq	r0, r3, r7, lsl #4
    1474:	0011f106 	andseq	pc, r1, r6, lsl #2
    1478:	5e6b0400 	cdppl	4, 6, cr0, cr11, cr0, {0}
    147c:	04000000 	streq	r0, [r0]
    1480:	23020205 	movwcs	r0, #8709	; 0x2205
    1484:	0eb00600 	cdpeq	6, 11, cr0, cr0, cr0, {0}
    1488:	6c040000 	stcvs	0, cr0, [r4], {0}
    148c:	0000005e 	andeq	r0, r0, lr, asr r0
    1490:	02010104 	andeq	r0, r1, #1
    1494:	cf060023 	svcgt	0x00060023
    1498:	04000012 	streq	r0, [r0], #-18
    149c:	00005e6d 	andeq	r5, r0, sp, ror #28
    14a0:	00010400 	andeq	r0, r1, r0, lsl #8
    14a4:	00002302 	andeq	r2, r0, r2, lsl #6
    14a8:	00157903 	andseq	r7, r5, r3, lsl #18
    14ac:	bc6e0400 	cfstrdlt	mvd0, [lr]
    14b0:	05000004 	streq	r0, [r0, #-4]
    14b4:	00000a18 	andeq	r0, r0, r8, lsl sl
    14b8:	ce720404 	cdpgt	4, 7, cr0, cr2, cr4, {0}
    14bc:	06000006 	streq	r0, [r0], -r6
    14c0:	00000000 	andeq	r0, r0, r0
    14c4:	005e7304 	subseq	r7, lr, r4, lsl #6
    14c8:	02040000 	andeq	r0, r4, #0
    14cc:	0023021e 	eoreq	r0, r3, lr, lsl r2
    14d0:	0013e906 	andseq	lr, r3, r6, lsl #18
    14d4:	5e740400 	cdppl	4, 7, cr0, cr4, cr0, {0}
    14d8:	04000000 	streq	r0, [r0]
    14dc:	23021c02 	movwcs	r1, #11266	; 0x2c02
    14e0:	03960600 	orrseq	r0, r6, #0
    14e4:	75040000 	strvc	r0, [r4]
    14e8:	0000005e 	andeq	r0, r0, lr, asr r0
    14ec:	021a0204 	andseq	r0, sl, #1073741824	; 0x40000000
    14f0:	b3060023 	movwlt	r0, #24611	; 0x6023
    14f4:	04000005 	streq	r0, [r0], #-5
    14f8:	00005e76 	andeq	r5, r0, r6, ror lr
    14fc:	19010400 	stmdbne	r1, {sl}
    1500:	06002302 	streq	r2, [r0], -r2, lsl #6
    1504:	000013e2 	andeq	r1, r0, r2, ror #7
    1508:	005e7704 	subseq	r7, lr, r4, lsl #14
    150c:	01040000 	tsteq	r4, r0
    1510:	00230218 	eoreq	r0, r3, r8, lsl r2
    1514:	00000806 	andeq	r0, r0, r6, lsl #16
    1518:	5e780400 	cdppl	4, 7, cr0, cr8, cr0, {0}
    151c:	04000000 	streq	r0, [r0]
    1520:	23021305 	movwcs	r1, #8965	; 0x2305
    1524:	153a0600 	ldrne	r0, [sl, #-1536]!	; 0x600
    1528:	79040000 	stmdbvc	r4, {}
    152c:	0000005e 	andeq	r0, r0, lr, asr r0
    1530:	02100304 	andseq	r0, r0, #268435456	; 0x10000000
    1534:	10060023 	andne	r0, r6, r3, lsr #32
    1538:	04000000 	streq	r0, [r0]
    153c:	00005e7a 	andeq	r5, r0, sl, ror lr
    1540:	0e020400 	cfcpyseq	mvf0, mvf2
    1544:	06002302 	streq	r2, [r0], -r2, lsl #6
    1548:	0000099b 	muleq	r0, fp, r9
    154c:	005e7b04 	subseq	r7, lr, r4, lsl #22
    1550:	01040000 	tsteq	r4, r0
    1554:	0023020d 	eoreq	r0, r3, sp, lsl #4
    1558:	00090c06 	andeq	r0, r9, r6, lsl #24
    155c:	5e7c0400 	cdppl	4, 7, cr0, cr12, cr0, {0}
    1560:	04000000 	streq	r0, [r0]
    1564:	23020c01 	movwcs	r0, #11265	; 0x2c01
    1568:	13360600 	teqne	r6, #0
    156c:	7d040000 	stcvc	0, cr0, [r4]
    1570:	0000005e 	andeq	r0, r0, lr, asr r0
    1574:	02070504 	andeq	r0, r7, #16777216	; 0x1000000
    1578:	f1060023 	undefined instruction 0xf1060023
    157c:	04000011 	streq	r0, [r0], #-17
    1580:	00005e7e 	andeq	r5, r0, lr, ror lr
    1584:	03040400 	movweq	r0, #17408	; 0x4400
    1588:	06002302 	streq	r2, [r0], -r2, lsl #6
    158c:	000011a9 	andeq	r1, r0, r9, lsr #3
    1590:	005e7f04 	subseq	r7, lr, r4, lsl #30
    1594:	01040000 	tsteq	r4, r0
    1598:	00230202 	eoreq	r0, r3, r2, lsl #4
    159c:	000eb006 	andeq	fp, lr, r6
    15a0:	5e800400 	cdppl	4, 8, cr0, cr0, cr0, {0}
    15a4:	04000000 	streq	r0, [r0]
    15a8:	23020101 	movwcs	r0, #8449	; 0x2101
    15ac:	12cf0600 	sbcne	r0, pc, #0
    15b0:	81040000 	tsthi	r4, r0
    15b4:	0000005e 	andeq	r0, r0, lr, asr r0
    15b8:	02000104 	andeq	r0, r0, #1
    15bc:	03000023 	movweq	r0, #35	; 0x23
    15c0:	00000b7c 	andeq	r0, r0, ip, ror fp
    15c4:	05c28204 	strbeq	r8, [r2, #516]	; 0x204
    15c8:	1f050000 	svcne	0x00050000
    15cc:	04000015 	streq	r0, [r0], #-21
    15d0:	075d8604 	ldrbeq	r8, [sp, -r4, lsl #12]
    15d4:	b3060000 	movwlt	r0, #24576	; 0x6000
    15d8:	04000005 	streq	r0, [r0], #-5
    15dc:	00005e87 	andeq	r5, r0, r7, lsl #29
    15e0:	10100400 	andsne	r0, r0, r0, lsl #8
    15e4:	06002302 	streq	r2, [r0], -r2, lsl #6
    15e8:	00001323 	andeq	r1, r0, r3, lsr #6
    15ec:	005e8804 	subseq	r8, lr, r4, lsl #16
    15f0:	07040000 	streq	r0, [r4, -r0]
    15f4:	00230209 	eoreq	r0, r3, r9, lsl #4
    15f8:	000efd06 	andeq	pc, lr, r6, lsl #26
    15fc:	5e890400 	cdppl	4, 8, cr0, cr9, cr0, {0}
    1600:	04000000 	streq	r0, [r0]
    1604:	23020801 	movwcs	r0, #10241	; 0x2801
    1608:	14d30600 	ldrbne	r0, [r3], #1536	; 0x600
    160c:	8a040000 	bhi	101614 <__bss_end+0xfd38c>
    1610:	0000005e 	andeq	r0, r0, lr, asr r0
    1614:	02050304 	andeq	r0, r5, #268435456	; 0x10000000
    1618:	bd060023 	stclt	0, cr0, [r6, #-140]	; 0xffffff74
    161c:	04000005 	streq	r0, [r0], #-5
    1620:	00005e8b 	andeq	r5, r0, fp, lsl #29
    1624:	04010400 	streq	r0, [r1], #-1024	; 0x400
    1628:	06002302 	streq	r2, [r0], -r2, lsl #6
    162c:	00001393 	muleq	r0, r3, r3
    1630:	005e8c04 	subseq	r8, lr, r4, lsl #24
    1634:	01040000 	tsteq	r4, r0
    1638:	00230203 	eoreq	r0, r3, r3, lsl #4
    163c:	000d1406 	andeq	r1, sp, r6, lsl #8
    1640:	5e8d0400 	cdppl	4, 8, cr0, cr13, cr0, {0}
    1644:	04000000 	streq	r0, [r0]
    1648:	23020003 	movwcs	r0, #8195	; 0x2003
    164c:	73030000 	movwvc	r0, #12288	; 0x3000
    1650:	0400000f 	streq	r0, [r0], #-15
    1654:	0006d98e 	andeq	sp, r6, lr, lsl #19
    1658:	0adb0500 	beq	ff6c2a60 <__bss_end+0xff6be7d8>
    165c:	04040000 	streq	r0, [r4]
    1660:	00084191 	muleq	r8, r1, r1
    1664:	00000600 	andeq	r0, r0, r0, lsl #12
    1668:	92040000 	andls	r0, r4, #0
    166c:	0000005e 	andeq	r0, r0, lr, asr r0
    1670:	021e0204 	andseq	r0, lr, #1073741824	; 0x40000000
    1674:	b3060023 	movwlt	r0, #24611	; 0x6023
    1678:	04000005 	streq	r0, [r0], #-5
    167c:	00005e93 	muleq	r0, r3, lr
    1680:	1c020400 	cfstrsne	mvf0, [r2], {0}
    1684:	06002302 	streq	r2, [r0], -r2, lsl #6
    1688:	00000396 	muleq	r0, r6, r3
    168c:	005e9404 	subseq	r9, lr, r4, lsl #8
    1690:	02040000 	andeq	r0, r4, #0
    1694:	0023021a 	eoreq	r0, r3, sl, lsl r2
    1698:	000d1406 	andeq	r1, sp, r6, lsl #8
    169c:	5e950400 	cdppl	4, 9, cr0, cr5, cr0, {0}
    16a0:	04000000 	streq	r0, [r0]
    16a4:	23021802 	movwcs	r1, #10242	; 0x2802
    16a8:	00080600 	andeq	r0, r8, r0, lsl #12
    16ac:	96040000 	strls	r0, [r4], -r0
    16b0:	0000005e 	andeq	r0, r0, lr, asr r0
    16b4:	02130504 	andseq	r0, r3, #16777216	; 0x1000000
    16b8:	bd060023 	stclt	0, cr0, [r6, #-140]	; 0xffffff74
    16bc:	04000005 	streq	r0, [r0], #-5
    16c0:	00005e97 	muleq	r0, r7, lr
    16c4:	11020400 	tstne	r2, r0, lsl #8
    16c8:	06002302 	streq	r2, [r0], -r2, lsl #6
    16cc:	0000099b 	muleq	r0, fp, r9
    16d0:	005e9804 	subseq	r9, lr, r4, lsl #16
    16d4:	01040000 	tsteq	r4, r0
    16d8:	00230210 	eoreq	r0, r3, r0, lsl r2
    16dc:	0005c706 	andeq	ip, r5, r6, lsl #14
    16e0:	5e990400 	cdppl	4, 9, cr0, cr9, cr0, {0}
    16e4:	04000000 	streq	r0, [r0]
    16e8:	23020c04 	movwcs	r0, #11268	; 0x2c04
    16ec:	13360600 	teqne	r6, #0
    16f0:	9a040000 	bls	1016f8 <__bss_end+0xfd470>
    16f4:	0000005e 	andeq	r0, r0, lr, asr r0
    16f8:	02070504 	andeq	r0, r7, #16777216	; 0x1000000
    16fc:	f1060023 	undefined instruction 0xf1060023
    1700:	04000011 	streq	r0, [r0], #-17
    1704:	00005e9b 	muleq	r0, fp, lr
    1708:	02050400 	andeq	r0, r5, #0
    170c:	06002302 	streq	r2, [r0], -r2, lsl #6
    1710:	00000eb0 	undefined instruction 0x00000eb0
    1714:	005e9c04 	subseq	r9, lr, r4, lsl #24
    1718:	01040000 	tsteq	r4, r0
    171c:	00230201 	eoreq	r0, r3, r1, lsl #4
    1720:	0012cf06 	andseq	ip, r2, r6, lsl #30
    1724:	5e9d0400 	cdppl	4, 9, cr0, cr13, cr0, {0}
    1728:	04000000 	streq	r0, [r0]
    172c:	23020001 	movwcs	r0, #8193	; 0x2001
    1730:	80030000 	andhi	r0, r3, r0
    1734:	04000009 	streq	r0, [r0], #-9
    1738:	0007689e 	muleq	r7, lr, r8
    173c:	10b60500 	adcsne	r0, r6, r0, lsl #10
    1740:	04040000 	streq	r0, [r4]
    1744:	000914a2 	andeq	r1, r9, r2, lsr #9
    1748:	00000600 	andeq	r0, r0, r0, lsl #12
    174c:	a3040000 	movwge	r0, #16384	; 0x4000
    1750:	0000005e 	andeq	r0, r0, lr, asr r0
    1754:	02190704 	andseq	r0, r9, #1048576	; 0x100000
    1758:	b3060023 	movwlt	r0, #24611	; 0x6023
    175c:	04000005 	streq	r0, [r0], #-5
    1760:	00005ea4 	andeq	r5, r0, r4, lsr #29
    1764:	18010400 	stmdane	r1, {sl}
    1768:	06002302 	streq	r2, [r0], -r2, lsl #6
    176c:	00001336 	andeq	r1, r0, r6, lsr r3
    1770:	005ea504 	subseq	sl, lr, r4, lsl #10
    1774:	05040000 	streq	r0, [r4]
    1778:	00230213 	eoreq	r0, r3, r3, lsl r2
    177c:	0005bd06 	andeq	fp, r5, r6, lsl #26
    1780:	5ea60400 	cdppl	4, 10, cr0, cr6, cr0, {0}
    1784:	04000000 	streq	r0, [r0]
    1788:	23021201 	movwcs	r1, #8705	; 0x2201
    178c:	0ec50600 	cdpeq	6, 12, cr0, cr5, cr0, {0}
    1790:	a7040000 	strge	r0, [r4, -r0]
    1794:	0000005e 	andeq	r0, r0, lr, asr r0
    1798:	02110104 	andseq	r0, r1, #1
    179c:	ae060023 	cdpge	0, 0, cr0, cr6, cr3, {1}
    17a0:	04000010 	streq	r0, [r0], #-16
    17a4:	00005ea8 	andeq	r5, r0, r8, lsr #29
    17a8:	10010400 	andne	r0, r1, r0, lsl #8
    17ac:	06002302 	streq	r2, [r0], -r2, lsl #6
    17b0:	000011f1 	strdeq	r1, [r0], -r1
    17b4:	005ea904 	subseq	sl, lr, r4, lsl #18
    17b8:	05040000 	streq	r0, [r4]
    17bc:	0023020b 	eoreq	r0, r3, fp, lsl #4
    17c0:	0005c706 	andeq	ip, r5, r6, lsl #14
    17c4:	5eaa0400 	cdppl	4, 10, cr0, cr10, cr0, {0}
    17c8:	04000000 	streq	r0, [r0]
    17cc:	23020803 	movwcs	r0, #10243	; 0x2803
    17d0:	0d140600 	ldceq	6, cr0, [r4]
    17d4:	ab040000 	blge	1017dc <__bss_end+0xfd554>
    17d8:	0000005e 	andeq	r0, r0, lr, asr r0
    17dc:	02050304 	andeq	r0, r5, #268435456	; 0x10000000
    17e0:	d1060023 	tstle	r6, r3, lsr #32
    17e4:	04000005 	streq	r0, [r0], #-5
    17e8:	00005eac 	andeq	r5, r0, ip, lsr #29
    17ec:	01040400 	tsteq	r4, r0, lsl #8
    17f0:	06002302 	streq	r2, [r0], -r2, lsl #6
    17f4:	000012cf 	andeq	r1, r0, pc, asr #5
    17f8:	005ead04 	subseq	sl, lr, r4, lsl #26
    17fc:	01040000 	tsteq	r4, r0
    1800:	00230200 	eoreq	r0, r3, r0, lsl #4
    1804:	10750300 	rsbsne	r0, r5, r0, lsl #6
    1808:	ae040000 	cdpge	0, 0, cr0, cr4, cr0, {0}
    180c:	0000084c 	andeq	r0, r0, ip, asr #16
    1810:	00126805 	andseq	r6, r2, r5, lsl #16
    1814:	b2040400 	andlt	r0, r4, #0
    1818:	00000992 	muleq	r0, r2, r9
    181c:	000e3506 	andeq	r3, lr, r6, lsl #10
    1820:	5eb30400 	cdppl	4, 11, cr0, cr3, cr0, {0}
    1824:	04000000 	streq	r0, [r0]
    1828:	23020f11 	movwcs	r0, #12049	; 0x2f11
    182c:	154e0600 	strbne	r0, [lr, #-1536]	; 0x600
    1830:	b4040000 	strlt	r0, [r4]
    1834:	0000005e 	andeq	r0, r0, lr, asr r0
    1838:	020d0204 	andeq	r0, sp, #1073741824	; 0x40000000
    183c:	b3060023 	movwlt	r0, #24611	; 0x6023
    1840:	04000005 	streq	r0, [r0], #-5
    1844:	00005eb5 	undefined instruction 0x00005eb5
    1848:	0c010400 	cfstrseq	mvf0, [r1], {0}
    184c:	06002302 	streq	r2, [r0], -r2, lsl #6
    1850:	000007c9 	andeq	r0, r0, r9, asr #15
    1854:	005eb604 	subseq	fp, lr, r4, lsl #12
    1858:	09040000 	stmdbeq	r4, {}
    185c:	00230203 	eoreq	r0, r3, r3, lsl #4
    1860:	000bc906 	andeq	ip, fp, r6, lsl #18
    1864:	5eb70400 	cdppl	4, 11, cr0, cr7, cr0, {0}
    1868:	04000000 	streq	r0, [r0]
    186c:	23020102 	movwcs	r0, #8450	; 0x2102
    1870:	14660600 	strbtne	r0, [r6], #-1536	; 0x600
    1874:	b8040000 	stmdalt	r4, {}
    1878:	0000005e 	andeq	r0, r0, lr, asr r0
    187c:	02000104 	andeq	r0, r0, #1
    1880:	03000023 	movweq	r0, #35	; 0x23
    1884:	00000949 	andeq	r0, r0, r9, asr #18
    1888:	091fb904 	ldmdbeq	pc, {r2, r8, fp, ip, sp, pc}
    188c:	cc050000 	stcgt	0, cr0, [r5], {0}
    1890:	04000011 	streq	r0, [r0], #-17
    1894:	0a10bd04 	beq	430cac <__bss_end+0x42ca24>
    1898:	35060000 	strcc	r0, [r6]
    189c:	0400000e 	streq	r0, [r0], #-14
    18a0:	00005ebe 	undefined instruction 0x00005ebe
    18a4:	0f110400 	svceq	0x00110400
    18a8:	06002302 	streq	r2, [r0], -r2, lsl #6
    18ac:	0000154e 	andeq	r1, r0, lr, asr #10
    18b0:	005ebf04 	subseq	fp, lr, r4, lsl #30
    18b4:	02040000 	andeq	r0, r4, #0
    18b8:	0023020d 	eoreq	r0, r3, sp, lsl #4
    18bc:	0005b306 	andeq	fp, r5, r6, lsl #6
    18c0:	5ec00400 	cdppl	4, 12, cr0, cr0, cr0, {0}
    18c4:	04000000 	streq	r0, [r0]
    18c8:	23020c01 	movwcs	r0, #11265	; 0x2c01
    18cc:	07c90600 	strbeq	r0, [r9, r0, lsl #12]
    18d0:	c1040000 	tstgt	r4, r0
    18d4:	0000005e 	andeq	r0, r0, lr, asr r0
    18d8:	02030904 	andeq	r0, r3, #65536	; 0x10000
    18dc:	c9060023 	stmdbgt	r6, {r0, r1, r5}
    18e0:	0400000b 	streq	r0, [r0], #-11
    18e4:	00005ec2 	andeq	r5, r0, r2, asr #29
    18e8:	01020400 	tsteq	r2, r0, lsl #8
    18ec:	06002302 	streq	r2, [r0], -r2, lsl #6
    18f0:	00001466 	andeq	r1, r0, r6, ror #8
    18f4:	005ec304 	subseq	ip, lr, r4, lsl #6
    18f8:	01040000 	tsteq	r4, r0
    18fc:	00230200 	eoreq	r0, r3, r0, lsl #4
    1900:	139e0300 	orrsne	r0, lr, #0
    1904:	c4040000 	strgt	r0, [r4]
    1908:	0000099d 	muleq	r0, sp, r9
    190c:	00110f05 	andseq	r0, r1, r5, lsl #30
    1910:	c8040400 	stmdagt	r4, {sl}
    1914:	00000ad2 	ldrdeq	r0, [r0], -r2
    1918:	0012af06 	andseq	sl, r2, r6, lsl #30
    191c:	5ec90400 	cdppl	4, 12, cr0, cr9, cr0, {0}
    1920:	04000000 	streq	r0, [r0]
    1924:	23021f01 	movwcs	r1, #12033	; 0x2f01
    1928:	104c0600 	subne	r0, ip, r0, lsl #12
    192c:	ca040000 	bgt	101934 <__bss_end+0xfd6ac>
    1930:	0000005e 	andeq	r0, r0, lr, asr r0
    1934:	021e0104 	andseq	r0, lr, #1
    1938:	b3060023 	movwlt	r0, #24611	; 0x6023
    193c:	04000005 	streq	r0, [r0], #-5
    1940:	00005ecb 	andeq	r5, r0, fp, asr #29
    1944:	1c020400 	cfstrsne	mvf0, [r2], {0}
    1948:	06002302 	streq	r2, [r0], -r2, lsl #6
    194c:	00000c9a 	muleq	r0, sl, ip
    1950:	005ecc04 	subseq	ip, lr, r4, lsl #24
    1954:	01040000 	tsteq	r4, r0
    1958:	0023021b 	eoreq	r0, r3, fp, lsl r2
    195c:	0005bd06 	andeq	fp, r5, r6, lsl #26
    1960:	5ecd0400 	cdppl	4, 12, cr0, cr13, cr0, {0}
    1964:	04000000 	streq	r0, [r0]
    1968:	2302110a 	movwcs	r1, #8458	; 0x210a
    196c:	0eeb0600 	cdpeq	6, 14, cr0, cr11, cr0, {0}
    1970:	ce040000 	cdpgt	0, 0, cr0, cr4, cr0, {0}
    1974:	0000005e 	andeq	r0, r0, lr, asr r0
    1978:	02100104 	andseq	r0, r0, #1
    197c:	7a060023 	bvc	181a10 <__bss_end+0x17d788>
    1980:	04000009 	streq	r0, [r0], #-9
    1984:	00005ecf 	andeq	r5, r0, pc, asr #29
    1988:	0f010400 	svceq	0x00010400
    198c:	06002302 	streq	r2, [r0], -r2, lsl #6
    1990:	00000916 	andeq	r0, r0, r6, lsl r9
    1994:	005ed004 	subseq	sp, lr, r4
    1998:	01040000 	tsteq	r4, r0
    199c:	0023020e 	eoreq	r0, r3, lr, lsl #4
    19a0:	000aa206 	andeq	sl, sl, r6, lsl #4
    19a4:	5ed10400 	cdppl	4, 13, cr0, cr1, cr0, {0}
    19a8:	04000000 	streq	r0, [r0]
    19ac:	23020b03 	movwcs	r0, #11011	; 0x2b03
    19b0:	11410600 	cmpne	r1, r0, lsl #12
    19b4:	d2040000 	andle	r0, r4, #0
    19b8:	0000005e 	andeq	r0, r0, lr, asr r0
    19bc:	02000b04 	andeq	r0, r0, #4096	; 0x1000
    19c0:	03000023 	movweq	r0, #35	; 0x23
    19c4:	00000b2b 	andeq	r0, r0, fp, lsr #22
    19c8:	0a1bd504 	beq	6f6de0 <__bss_end+0x6f2b58>
    19cc:	ef050000 	svc	0x00050000
    19d0:	04000012 	streq	r0, [r0], #-18
    19d4:	0b72d904 	bleq	1cb7dec <__bss_end+0x1cb3b64>
    19d8:	0c060000 	stceq	0, cr0, [r6], {0}
    19dc:	04000015 	streq	r0, [r0], #-21
    19e0:	00005eda 	ldrdeq	r5, [r0], -sl
    19e4:	1e020400 	cfcpysne	mvf0, mvf2
    19e8:	06002302 	streq	r2, [r0], -r2, lsl #6
    19ec:	000005b3 	undefined instruction 0x000005b3
    19f0:	005edb04 	subseq	sp, lr, r4, lsl #22
    19f4:	02040000 	andeq	r0, r4, #0
    19f8:	0023021c 	eoreq	r0, r3, ip, lsl r2
    19fc:	000c4206 	andeq	r4, ip, r6, lsl #4
    1a00:	5edc0400 	cdppl	4, 13, cr0, cr12, cr0, {0}
    1a04:	04000000 	streq	r0, [r0]
    1a08:	23021a02 	movwcs	r1, #10754	; 0x2a02
    1a0c:	159d0600 	ldrne	r0, [sp, #1536]	; 0x600
    1a10:	dd040000 	stcle	0, cr0, [r4]
    1a14:	0000005e 	andeq	r0, r0, lr, asr r0
    1a18:	02180204 	andseq	r0, r8, #1073741824	; 0x40000000
    1a1c:	92060023 	andls	r0, r6, #35	; 0x23
    1a20:	04000015 	streq	r0, [r0], #-21
    1a24:	00005ede 	ldrdeq	r5, [r0], -lr
    1a28:	16020400 	strne	r0, [r2], -r0, lsl #8
    1a2c:	06002302 	streq	r2, [r0], -r2, lsl #6
    1a30:	000005bd 	undefined instruction 0x000005bd
    1a34:	005edf04 	subseq	sp, lr, r4, lsl #30
    1a38:	06040000 	streq	r0, [r4], -r0
    1a3c:	00230210 	eoreq	r0, r3, r0, lsl r2
    1a40:	00154206 	andseq	r4, r5, r6, lsl #4
    1a44:	5ee00400 	cdppl	4, 14, cr0, cr0, cr0, {0}
    1a48:	04000000 	streq	r0, [r0]
    1a4c:	23020e02 	movwcs	r0, #11778	; 0x2e02
    1a50:	05c70600 	strbeq	r0, [r7, #1536]	; 0x600
    1a54:	e1040000 	tst	r4, r0
    1a58:	0000005e 	andeq	r0, r0, lr, asr r0
    1a5c:	02000e04 	andeq	r0, r0, #64	; 0x40
    1a60:	03000023 	movweq	r0, #35	; 0x23
    1a64:	0000146e 	andeq	r1, r0, lr, ror #8
    1a68:	0adde204 	beq	ff77a280 <__bss_end+0xff775ff8>
    1a6c:	38050000 	stmdacc	r5, {}
    1a70:	04000012 	streq	r0, [r0], #-18
    1a74:	0bf0e504 	bleq	ffc3ae8c <__bss_end+0xffc36c04>
    1a78:	96060000 	strls	r0, [r6], -r0
    1a7c:	04000015 	streq	r0, [r0], #-21
    1a80:	00005ee6 	andeq	r5, r0, r6, ror #29
    1a84:	1b050400 	blne	142a8c <__bss_end+0x13e804>
    1a88:	06002302 	streq	r2, [r0], -r2, lsl #6
    1a8c:	000005b3 	undefined instruction 0x000005b3
    1a90:	005ee704 	subseq	lr, lr, r4, lsl #14
    1a94:	0b040000 	bleq	101a9c <__bss_end+0xfd814>
    1a98:	00230210 	eoreq	r0, r3, r0, lsl r2
    1a9c:	00090506 	andeq	r0, r9, r6, lsl #10
    1aa0:	5ee80400 	cdppl	4, 14, cr0, cr8, cr0, {0}
    1aa4:	04000000 	streq	r0, [r0]
    1aa8:	23020e02 	movwcs	r0, #11778	; 0x2e02
    1aac:	05bd0600 	ldreq	r0, [sp, #1536]!	; 0x600
    1ab0:	e9040000 	stmdb	r4, {}
    1ab4:	0000005e 	andeq	r0, r0, lr, asr r0
    1ab8:	02080604 	andeq	r0, r8, #4194304	; 0x400000
    1abc:	47060023 	strmi	r0, [r6, -r3, lsr #32]
    1ac0:	04000015 	streq	r0, [r0], #-21
    1ac4:	00005eea 	andeq	r5, r0, sl, ror #29
    1ac8:	06020400 	streq	r0, [r2], -r0, lsl #8
    1acc:	06002302 	streq	r2, [r0], -r2, lsl #6
    1ad0:	000005c7 	andeq	r0, r0, r7, asr #11
    1ad4:	005eeb04 	subseq	lr, lr, r4, lsl #22
    1ad8:	06040000 	streq	r0, [r4], -r0
    1adc:	00230200 	eoreq	r0, r3, r0, lsl #4
    1ae0:	0a6c0300 	beq	1b026e8 <__bss_end+0x1afe460>
    1ae4:	ec040000 	stc	0, cr0, [r4], {0}
    1ae8:	00000b7d 	andeq	r0, r0, sp, ror fp
    1aec:	000f0605 	andeq	r0, pc, r5, lsl #12
    1af0:	f0040400 	undefined instruction 0xf0040400
    1af4:	00000c2a 	andeq	r0, r0, sl, lsr #24
    1af8:	000ff806 	andeq	pc, pc, r6, lsl #16
    1afc:	5ef10400 	cdppl	4, 15, cr0, cr1, cr0, {0}
    1b00:	04000000 	streq	r0, [r0]
    1b04:	23021f01 	movwcs	r1, #12033	; 0x2f01
    1b08:	05b30600 	ldreq	r0, [r3, #1536]!	; 0x600
    1b0c:	f2040000 	vhadd.s8	d0, d4, d0
    1b10:	0000005e 	andeq	r0, r0, lr, asr r0
    1b14:	02001f04 	andeq	r1, r0, #16
    1b18:	03000023 	movweq	r0, #35	; 0x23
    1b1c:	000013c5 	andeq	r1, r0, r5, asr #7
    1b20:	0bfbf304 	bleq	ffefe738 <__bss_end+0xffefa4b0>
    1b24:	23050000 	movwcs	r0, #20480	; 0x5000
    1b28:	04000008 	streq	r0, [r0], #-8
    1b2c:	0e0ef704 	cdpeq	7, 0, cr15, cr14, cr4, {0}
    1b30:	73060000 	movwvc	r0, #24576	; 0x6000
    1b34:	0400000b 	streq	r0, [r0], #-11
    1b38:	00005ef8 	strdeq	r5, [r0], -r8
    1b3c:	1f010400 	svcne	0x00010400
    1b40:	06002302 	streq	r2, [r0], -r2, lsl #6
    1b44:	00001319 	andeq	r1, r0, r9, lsl r3
    1b48:	005ef904 	subseq	pc, lr, r4, lsl #18
    1b4c:	01040000 	tsteq	r4, r0
    1b50:	0023021e 	eoreq	r0, r3, lr, lsl r2
    1b54:	0010d106 	andseq	sp, r0, r6, lsl #2
    1b58:	5efa0400 	cdppl	4, 15, cr0, cr10, cr0, {0}
    1b5c:	04000000 	streq	r0, [r0]
    1b60:	23021d01 	movwcs	r1, #11521	; 0x2d01
    1b64:	05b30600 	ldreq	r0, [r3, #1536]!	; 0x600
    1b68:	fb040000 	blx	101b72 <__bss_end+0xfd8ea>
    1b6c:	0000005e 	andeq	r0, r0, lr, asr r0
    1b70:	021b0204 	andseq	r0, fp, #1073741824	; 0x40000000
    1b74:	47060023 	strmi	r0, [r6, -r3, lsr #32]
    1b78:	04000013 	streq	r0, [r0], #-19
    1b7c:	00005efc 	strdeq	r5, [r0], -ip
    1b80:	1a010400 	bne	42b88 <__bss_end+0x3e900>
    1b84:	06002302 	streq	r2, [r0], -r2, lsl #6
    1b88:	000012c7 	andeq	r1, r0, r7, asr #5
    1b8c:	005efd04 	subseq	pc, lr, r4, lsl #26
    1b90:	01040000 	tsteq	r4, r0
    1b94:	00230219 	eoreq	r0, r3, r9, lsl r2
    1b98:	000c2806 	andeq	r2, ip, r6, lsl #16
    1b9c:	5efe0400 	cdppl	4, 15, cr0, cr14, cr0, {0}
    1ba0:	04000000 	streq	r0, [r0]
    1ba4:	23021801 	movwcs	r1, #10241	; 0x2801
    1ba8:	0c4c0600 	mcrreq	6, 0, r0, ip, cr0
    1bac:	ff040000 	undefined instruction 0xff040000
    1bb0:	0000005e 	andeq	r0, r0, lr, asr r0
    1bb4:	02170104 	andseq	r0, r7, #1
    1bb8:	b00a0023 	andlt	r0, sl, r3, lsr #32
    1bbc:	04000015 	streq	r0, [r0], #-21
    1bc0:	005e0100 	subseq	r0, lr, r0, lsl #2
    1bc4:	01040000 	tsteq	r4, r0
    1bc8:	00230216 	eoreq	r0, r3, r6, lsl r2
    1bcc:	00106a0a 	andseq	r6, r0, sl, lsl #20
    1bd0:	01010400 	tsteq	r1, r0, lsl #8
    1bd4:	0000005e 	andeq	r0, r0, lr, asr r0
    1bd8:	02150104 	andseq	r0, r5, #1
    1bdc:	bd0a0023 	stclt	0, cr0, [sl, #-140]	; 0xffffff74
    1be0:	04000005 	streq	r0, [r0], #-5
    1be4:	005e0102 	subseq	r0, lr, r2, lsl #2
    1be8:	01040000 	tsteq	r4, r0
    1bec:	00230214 	eoreq	r0, r3, r4, lsl r2
    1bf0:	000ac50a 	andeq	ip, sl, sl, lsl #10
    1bf4:	01030400 	tsteq	r3, r0, lsl #8
    1bf8:	0000005e 	andeq	r0, r0, lr, asr r0
    1bfc:	02130104 	andseq	r0, r3, #1
    1c00:	3e0a0023 	cdpcc	0, 0, cr0, cr10, cr3, {1}
    1c04:	04000013 	streq	r0, [r0], #-19
    1c08:	005e0104 	subseq	r0, lr, r4, lsl #2
    1c0c:	01040000 	tsteq	r4, r0
    1c10:	00230212 	eoreq	r0, r3, r2, lsl r2
    1c14:	000ff80a 	andeq	pc, pc, sl, lsl #16
    1c18:	01050400 	tsteq	r5, r0, lsl #8
    1c1c:	0000005e 	andeq	r0, r0, lr, asr r0
    1c20:	02110104 	andseq	r0, r1, #1
    1c24:	c70a0023 	strgt	r0, [sl, -r3, lsr #32]
    1c28:	04000005 	streq	r0, [r0], #-5
    1c2c:	005e0106 	subseq	r0, lr, r6, lsl #2
    1c30:	02040000 	andeq	r0, r4, #0
    1c34:	0023020f 	eoreq	r0, r3, pc, lsl #4
    1c38:	0011380a 	andseq	r3, r1, sl, lsl #16
    1c3c:	01070400 	tsteq	r7, r0, lsl #8
    1c40:	0000005e 	andeq	r0, r0, lr, asr r0
    1c44:	020e0104 	andeq	r0, lr, #1
    1c48:	470a0023 	strmi	r0, [sl, -r3, lsr #32]
    1c4c:	04000008 	streq	r0, [r0], #-8
    1c50:	005e0108 	subseq	r0, lr, r8, lsl #2
    1c54:	01040000 	tsteq	r4, r0
    1c58:	0023020d 	eoreq	r0, r3, sp, lsl #4
    1c5c:	0005d10a 	andeq	sp, r5, sl, lsl #2
    1c60:	01090400 	tsteq	r9, r0, lsl #8
    1c64:	0000005e 	andeq	r0, r0, lr, asr r0
    1c68:	020c0104 	andeq	r0, ip, #1
    1c6c:	ef0a0023 	svc	0x000a0023
    1c70:	04000008 	streq	r0, [r0], #-8
    1c74:	005e010a 	subseq	r0, lr, sl, lsl #2
    1c78:	01040000 	tsteq	r4, r0
    1c7c:	0023020b 	eoreq	r0, r3, fp, lsl #4
    1c80:	000c080a 	andeq	r0, ip, sl, lsl #16
    1c84:	010b0400 	tsteq	fp, r0, lsl #8
    1c88:	0000005e 	andeq	r0, r0, lr, asr r0
    1c8c:	020a0104 	andeq	r0, sl, #1
    1c90:	2a0a0023 	bcs	281d24 <__bss_end+0x27da9c>
    1c94:	0400000d 	streq	r0, [r0], #-13
    1c98:	005e010c 	subseq	r0, lr, ip, lsl #2
    1c9c:	01040000 	tsteq	r4, r0
    1ca0:	00230209 	eoreq	r0, r3, r9, lsl #4
    1ca4:	0005db0a 	andeq	sp, r5, sl, lsl #22
    1ca8:	010d0400 	tsteq	sp, r0, lsl #8
    1cac:	0000005e 	andeq	r0, r0, lr, asr r0
    1cb0:	02060304 	andeq	r0, r6, #268435456	; 0x10000000
    1cb4:	b10a0023 	tstlt	sl, r3, lsr #32
    1cb8:	04000014 	streq	r0, [r0], #-20
    1cbc:	005e010e 	subseq	r0, lr, lr, lsl #2
    1cc0:	01040000 	tsteq	r4, r0
    1cc4:	00230205 	eoreq	r0, r3, r5, lsl #4
    1cc8:	0005e50a 	andeq	lr, r5, sl, lsl #10
    1ccc:	010f0400 	tsteq	pc, r0, lsl #8
    1cd0:	0000005e 	andeq	r0, r0, lr, asr r0
    1cd4:	02040104 	andeq	r0, r4, #1
    1cd8:	2f0a0023 	svccs	0x000a0023
    1cdc:	04000011 	streq	r0, [r0], #-17
    1ce0:	005e0110 	subseq	r0, lr, r0, lsl r1
    1ce4:	01040000 	tsteq	r4, r0
    1ce8:	00230203 	eoreq	r0, r3, r3, lsl #4
    1cec:	0005ef0a 	andeq	lr, r5, sl, lsl #30
    1cf0:	01110400 	tsteq	r1, r0, lsl #8
    1cf4:	0000005e 	andeq	r0, r0, lr, asr r0
    1cf8:	02000304 	andeq	r0, r0, #268435456	; 0x10000000
    1cfc:	0b000023 	bleq	1d90 <mem_power_init+0x3e8>
    1d00:	000007d2 	ldrdeq	r0, [r0], -r2
    1d04:	35011204 	strcc	r1, [r1, #-516]	; 0x204
    1d08:	0c00000c 	stceq	0, cr0, [r0], {12}
    1d0c:	00000bec 	andeq	r0, r0, ip, ror #23
    1d10:	01160404 	tsteq	r6, r4, lsl #8
    1d14:	00000f48 	andeq	r0, r0, r8, asr #30
    1d18:	000ea10a 	andeq	sl, lr, sl, lsl #2
    1d1c:	01170400 	tsteq	r7, r0, lsl #8
    1d20:	0000005e 	andeq	r0, r0, lr, asr r0
    1d24:	021f0104 	andseq	r0, pc, #1
    1d28:	b30a0023 	movwlt	r0, #40995	; 0xa023
    1d2c:	04000005 	streq	r0, [r0], #-5
    1d30:	005e0118 	subseq	r0, lr, r8, lsl r1
    1d34:	01040000 	tsteq	r4, r0
    1d38:	0023021e 	eoreq	r0, r3, lr, lsl r2
    1d3c:	000d460a 	andeq	r4, sp, sl, lsl #12
    1d40:	01190400 	tsteq	r9, r0, lsl #8
    1d44:	0000005e 	andeq	r0, r0, lr, asr r0
    1d48:	021d0104 	andseq	r0, sp, #1
    1d4c:	bd0a0023 	stclt	0, cr0, [sl, #-140]	; 0xffffff74
    1d50:	04000005 	streq	r0, [r0], #-5
    1d54:	005e011a 	subseq	r0, lr, sl, lsl r1
    1d58:	01040000 	tsteq	r4, r0
    1d5c:	0023021c 	eoreq	r0, r3, ip, lsl r2
    1d60:	000b650a 	andeq	r6, fp, sl, lsl #10
    1d64:	011b0400 	tsteq	fp, r0, lsl #8
    1d68:	0000005e 	andeq	r0, r0, lr, asr r0
    1d6c:	021b0104 	andseq	r0, fp, #1
    1d70:	c70a0023 	strgt	r0, [sl, -r3, lsr #32]
    1d74:	04000005 	streq	r0, [r0], #-5
    1d78:	005e011c 	subseq	r0, lr, ip, lsl r1
    1d7c:	03040000 	movweq	r0, #16384	; 0x4000
    1d80:	00230218 	eoreq	r0, r3, r8, lsl r2
    1d84:	0015a70a 	andseq	sl, r5, sl, lsl #14
    1d88:	011d0400 	tsteq	sp, r0, lsl #8
    1d8c:	0000005e 	andeq	r0, r0, lr, asr r0
    1d90:	02170104 	andseq	r0, r7, #1
    1d94:	d10a0023 	tstle	sl, r3, lsr #32
    1d98:	04000005 	streq	r0, [r0], #-5
    1d9c:	005e011e 	subseq	r0, lr, lr, lsl r1
    1da0:	02040000 	andeq	r0, r4, #0
    1da4:	00230215 	eoreq	r0, r3, r5, lsl r2
    1da8:	0013760a 	andseq	r7, r3, sl, lsl #12
    1dac:	011f0400 	tsteq	pc, r0, lsl #8
    1db0:	0000005e 	andeq	r0, r0, lr, asr r0
    1db4:	02140104 	andseq	r0, r4, #1
    1db8:	0d0a0023 	stceq	0, cr0, [sl, #-140]	; 0xffffff74
    1dbc:	04000012 	streq	r0, [r0], #-18
    1dc0:	005e0120 	subseq	r0, lr, r0, lsr #2
    1dc4:	01040000 	tsteq	r4, r0
    1dc8:	00230213 	eoreq	r0, r3, r3, lsl r2
    1dcc:	0005db0a 	andeq	sp, r5, sl, lsl #22
    1dd0:	01210400 	teqeq	r1, r0, lsl #8
    1dd4:	0000005e 	andeq	r0, r0, lr, asr r0
    1dd8:	02120104 	andseq	r0, r2, #1
    1ddc:	970a0023 	strls	r0, [sl, -r3, lsr #32]
    1de0:	04000014 	streq	r0, [r0], #-20
    1de4:	005e0122 	subseq	r0, lr, r2, lsr #2
    1de8:	01040000 	tsteq	r4, r0
    1dec:	00230211 	eoreq	r0, r3, r1, lsl r2
    1df0:	0005e50a 	andeq	lr, r5, sl, lsl #10
    1df4:	01230400 	teqeq	r3, r0, lsl #8
    1df8:	0000005e 	andeq	r0, r0, lr, asr r0
    1dfc:	020d0404 	andeq	r0, sp, #67108864	; 0x4000000
    1e00:	6a0a0023 	bvs	281e94 <__bss_end+0x27dc0c>
    1e04:	0400000e 	streq	r0, [r0], #-14
    1e08:	005e0124 	subseq	r0, lr, r4, lsr #2
    1e0c:	01040000 	tsteq	r4, r0
    1e10:	0023020c 	eoreq	r0, r3, ip, lsl #4
    1e14:	000d890a 	andeq	r8, sp, sl, lsl #18
    1e18:	01250400 	teqeq	r5, r0, lsl #8
    1e1c:	0000005e 	andeq	r0, r0, lr, asr r0
    1e20:	020b0104 	andeq	r0, fp, #1
    1e24:	ef0a0023 	svc	0x000a0023
    1e28:	04000005 	streq	r0, [r0], #-5
    1e2c:	005e0126 	subseq	r0, lr, r6, lsr #2
    1e30:	0b040000 	bleq	101e38 <__bss_end+0xfdbb0>
    1e34:	00230200 	eoreq	r0, r3, r0, lsl #4
    1e38:	0c570b00 	mrrceq	11, 0, r0, r7, cr0
    1e3c:	27040000 	strcs	r0, [r4, -r0]
    1e40:	000e1a01 	andeq	r1, lr, r1, lsl #20
    1e44:	15bb0c00 	ldrne	r0, [fp, #3072]!	; 0xc00
    1e48:	04040000 	streq	r0, [r4]
    1e4c:	1016012b 	andsne	r0, r6, fp, lsr #2
    1e50:	e80a0000 	stmda	sl, {}
    1e54:	04000011 	streq	r0, [r0], #-17
    1e58:	005e012c 	subseq	r0, lr, ip, lsr #2
    1e5c:	01040000 	tsteq	r4, r0
    1e60:	0023021f 	eoreq	r0, r3, pc, lsl r2
    1e64:	000e2b0a 	andeq	r2, lr, sl, lsl #22
    1e68:	012d0400 	teqeq	sp, r0, lsl #8
    1e6c:	0000005e 	andeq	r0, r0, lr, asr r0
    1e70:	021e0104 	andseq	r0, lr, #1
    1e74:	b30a0023 	movwlt	r0, #40995	; 0xa023
    1e78:	04000005 	streq	r0, [r0], #-5
    1e7c:	005e012e 	subseq	r0, lr, lr, lsr #2
    1e80:	01040000 	tsteq	r4, r0
    1e84:	0023021d 	eoreq	r0, r3, sp, lsl r2
    1e88:	0012a70a 	andseq	sl, r2, sl, lsl #14
    1e8c:	012f0400 	teqeq	pc, r0, lsl #8
    1e90:	0000005e 	andeq	r0, r0, lr, asr r0
    1e94:	021c0104 	andseq	r0, ip, #1
    1e98:	bd0a0023 	stclt	0, cr0, [sl, #-140]	; 0xffffff74
    1e9c:	04000005 	streq	r0, [r0], #-5
    1ea0:	005e0130 	subseq	r0, lr, r0, lsr r1
    1ea4:	01040000 	tsteq	r4, r0
    1ea8:	0023021b 	eoreq	r0, r3, fp, lsl r2
    1eac:	0009390a 	andeq	r3, r9, sl, lsl #18
    1eb0:	01310400 	teqeq	r1, r0, lsl #8
    1eb4:	0000005e 	andeq	r0, r0, lr, asr r0
    1eb8:	021a0104 	andseq	r0, sl, #1
    1ebc:	db0a0023 	blle	281f50 <__bss_end+0x27dcc8>
    1ec0:	04000010 	streq	r0, [r0], #-16
    1ec4:	005e0132 	subseq	r0, lr, r2, lsr r1
    1ec8:	01040000 	tsteq	r4, r0
    1ecc:	00230219 	eoreq	r0, r3, r9, lsl r2
    1ed0:	0005c70a 	andeq	ip, r5, sl, lsl #14
    1ed4:	01330400 	teqeq	r3, r0, lsl #8
    1ed8:	0000005e 	andeq	r0, r0, lr, asr r0
    1edc:	02160304 	andseq	r0, r6, #268435456	; 0x10000000
    1ee0:	1f0a0023 	svcne	0x000a0023
    1ee4:	0400000d 	streq	r0, [r0], #-13
    1ee8:	005e0134 	subseq	r0, lr, r4, lsr r1
    1eec:	01040000 	tsteq	r4, r0
    1ef0:	00230215 	eoreq	r0, r3, r5, lsl r2
    1ef4:	0005d10a 	andeq	sp, r5, sl, lsl #2
    1ef8:	01350400 	teqeq	r5, r0, lsl #8
    1efc:	0000005e 	andeq	r0, r0, lr, asr r0
    1f00:	02001504 	andeq	r1, r0, #16777216	; 0x1000000
    1f04:	0b000023 	bleq	1f98 <mem_power_init+0x5f0>
    1f08:	0000100b 	andeq	r1, r0, fp
    1f0c:	54013604 	strpl	r3, [r1], #-1540	; 0x604
    1f10:	0c00000f 	stceq	0, cr0, [r0], {15}
    1f14:	00001092 	muleq	r0, r2, r0
    1f18:	013a0404 	teqeq	sl, r4, lsl #8
    1f1c:	000010d2 	ldrdeq	r1, [r0], -r2
    1f20:	000bda0a 	andeq	sp, fp, sl, lsl #20
    1f24:	013b0400 	teqeq	fp, r0, lsl #8
    1f28:	0000005e 	andeq	r0, r0, lr, asr r0
    1f2c:	021f0104 	andseq	r0, pc, #1
    1f30:	580a0023 	stmdapl	sl, {r0, r1, r5}
    1f34:	04000015 	streq	r0, [r0], #-21
    1f38:	005e013c 	subseq	r0, lr, ip, lsr r1
    1f3c:	01040000 	tsteq	r4, r0
    1f40:	0023021e 	eoreq	r0, r3, lr, lsl r2
    1f44:	0010020a 	andseq	r0, r0, sl, lsl #4
    1f48:	013d0400 	teqeq	sp, r0, lsl #8
    1f4c:	0000005e 	andeq	r0, r0, lr, asr r0
    1f50:	021d0104 	andseq	r0, sp, #1
    1f54:	b30a0023 	movwlt	r0, #40995	; 0xa023
    1f58:	04000005 	streq	r0, [r0], #-5
    1f5c:	005e013e 	subseq	r0, lr, lr, lsr r1
    1f60:	0d040000 	stceq	0, cr0, [r4]
    1f64:	00230210 	eoreq	r0, r3, r0, lsl r2
    1f68:	0014f20a 	andseq	pc, r4, sl, lsl #4
    1f6c:	013f0400 	teqeq	pc, r0, lsl #8
    1f70:	0000005e 	andeq	r0, r0, lr, asr r0
    1f74:	020f0104 	andeq	r0, pc, #1
    1f78:	aa0a0023 	bge	28200c <__bss_end+0x27dd84>
    1f7c:	0400000f 	streq	r0, [r0], #-15
    1f80:	005e0140 	subseq	r0, lr, r0, asr #2
    1f84:	01040000 	tsteq	r4, r0
    1f88:	0023020e 	eoreq	r0, r3, lr, lsl #4
    1f8c:	000af40a 	andeq	pc, sl, sl, lsl #8
    1f90:	01410400 	cmpeq	r1, r0, lsl #8
    1f94:	0000005e 	andeq	r0, r0, lr, asr r0
    1f98:	020d0104 	andeq	r0, sp, #1
    1f9c:	8d0a0023 	stchi	0, cr0, [sl, #-140]	; 0xffffff74
    1fa0:	04000014 	streq	r0, [r0], #-20
    1fa4:	005e0142 	subseq	r0, lr, r2, asr #2
    1fa8:	01040000 	tsteq	r4, r0
    1fac:	0023020c 	eoreq	r0, r3, ip, lsl #4
    1fb0:	0005bd0a 	andeq	fp, r5, sl, lsl #26
    1fb4:	01430400 	cmpeq	r3, r0, lsl #8
    1fb8:	0000005e 	andeq	r0, r0, lr, asr r0
    1fbc:	02000c04 	andeq	r0, r0, #1024	; 0x400
    1fc0:	0b000023 	bleq	2054 <mem_power_init+0x6ac>
    1fc4:	00000ecd 	andeq	r0, r0, sp, asr #29
    1fc8:	22014404 	andcs	r4, r1, #67108864	; 0x4000000
    1fcc:	0c000010 	stceq	0, cr0, [r0], {16}
    1fd0:	00000e57 	andeq	r0, r0, r7, asr lr
    1fd4:	014a0404 	cmpeq	sl, r4, lsl #8
    1fd8:	0000116a 	andeq	r1, r0, sl, ror #2
    1fdc:	0015960a 	andseq	r9, r5, sl, lsl #12
    1fe0:	014b0400 	cmpeq	fp, r0, lsl #8
    1fe4:	0000005e 	andeq	r0, r0, lr, asr r0
    1fe8:	021c0404 	andseq	r0, ip, #67108864	; 0x4000000
    1fec:	b30a0023 	movwlt	r0, #40995	; 0xa023
    1ff0:	04000005 	streq	r0, [r0], #-5
    1ff4:	005e014c 	subseq	r0, lr, ip, asr #2
    1ff8:	0c040000 	stceq	0, cr0, [r4], {0}
    1ffc:	00230210 	eoreq	r0, r3, r0, lsl r2
    2000:	0009020a 	andeq	r0, r9, sl, lsl #4
    2004:	014d0400 	cmpeq	sp, r0, lsl #8
    2008:	0000005e 	andeq	r0, r0, lr, asr r0
    200c:	020e0204 	andeq	r0, lr, #1073741824	; 0x40000000
    2010:	bd0a0023 	stclt	0, cr0, [sl, #-140]	; 0xffffff74
    2014:	04000005 	streq	r0, [r0], #-5
    2018:	005e014e 	subseq	r0, lr, lr, asr #2
    201c:	06040000 	streq	r0, [r4], -r0
    2020:	00230208 	eoreq	r0, r3, r8, lsl #4
    2024:	0015470a 	andseq	r4, r5, sl, lsl #14
    2028:	014f0400 	cmpeq	pc, r0, lsl #8
    202c:	0000005e 	andeq	r0, r0, lr, asr r0
    2030:	02060204 	andeq	r0, r6, #1073741824	; 0x40000000
    2034:	c70a0023 	strgt	r0, [sl, -r3, lsr #32]
    2038:	04000005 	streq	r0, [r0], #-5
    203c:	005e0150 	subseq	r0, lr, r0, asr r1
    2040:	05040000 	streq	r0, [r4]
    2044:	00230201 	eoreq	r0, r3, r1, lsl #4
    2048:	0014070a 	andseq	r0, r4, sl, lsl #14
    204c:	01510400 	cmpeq	r1, r0, lsl #8
    2050:	0000005e 	andeq	r0, r0, lr, asr r0
    2054:	02000104 	andeq	r0, r0, #1
    2058:	0b000023 	bleq	20ec <mem_power_init+0x744>
    205c:	000010fa 	strdeq	r1, [r0], -sl
    2060:	de015204 	cdple	2, 0, cr5, cr1, cr4, {0}
    2064:	0c000010 	stceq	0, cr0, [r0], {16}
    2068:	00000967 	andeq	r0, r0, r7, ror #18
    206c:	01580404 	cmpeq	r8, r4, lsl #8
    2070:	000011cc 	andeq	r1, r0, ip, asr #3
    2074:	0005b30a 	andeq	fp, r5, sl, lsl #6
    2078:	01590400 	cmpeq	r9, r0, lsl #8
    207c:	0000005e 	andeq	r0, r0, lr, asr r0
    2080:	02101004 	andseq	r1, r0, #4
    2084:	960a0023 	strls	r0, [sl], -r3, lsr #32
    2088:	04000015 	streq	r0, [r0], #-21
    208c:	005e015a 	subseq	r0, lr, sl, asr r1
    2090:	02040000 	andeq	r0, r4, #0
    2094:	0023020e 	eoreq	r0, r3, lr, lsl #4
    2098:	0005bd0a 	andeq	fp, r5, sl, lsl #26
    209c:	015b0400 	cmpeq	fp, r0, lsl #8
    20a0:	0000005e 	andeq	r0, r0, lr, asr r0
    20a4:	02010d04 	andeq	r0, r1, #256	; 0x100
    20a8:	070a0023 	streq	r0, [sl, -r3, lsr #32]
    20ac:	04000014 	streq	r0, [r0], #-20
    20b0:	005e015c 	subseq	r0, lr, ip, asr r1
    20b4:	01040000 	tsteq	r4, r0
    20b8:	00230200 	eoreq	r0, r3, r0, lsl #4
    20bc:	0b040b00 	bleq	104cc4 <__bss_end+0x100a3c>
    20c0:	5e040000 	cdppl	0, 0, cr0, cr4, cr0, {0}
    20c4:	00117601 	andseq	r7, r1, r1, lsl #12
    20c8:	12d50c00 	sbcsne	r0, r5, #0
    20cc:	04040000 	streq	r0, [r4]
    20d0:	12640162 	rsbne	r0, r4, #-2147483624	; 0x80000018
    20d4:	960a0000 	strls	r0, [sl], -r0
    20d8:	04000015 	streq	r0, [r0], #-21
    20dc:	005e0163 	subseq	r0, lr, r3, ror #2
    20e0:	05040000 	streq	r0, [r4]
    20e4:	0023021b 	eoreq	r0, r3, fp, lsl r2
    20e8:	0005b30a 	andeq	fp, r5, sl, lsl #6
    20ec:	01640400 	cmneq	r4, r0, lsl #8
    20f0:	0000005e 	andeq	r0, r0, lr, asr r0
    20f4:	02100b04 	andseq	r0, r0, #4096	; 0x1000
    20f8:	020a0023 	andeq	r0, sl, #35	; 0x23
    20fc:	04000009 	streq	r0, [r0], #-9
    2100:	005e0165 	subseq	r0, lr, r5, ror #2
    2104:	02040000 	andeq	r0, r4, #0
    2108:	0023020e 	eoreq	r0, r3, lr, lsl #4
    210c:	0005bd0a 	andeq	fp, r5, sl, lsl #26
    2110:	01660400 	cmneq	r6, r0, lsl #8
    2114:	0000005e 	andeq	r0, r0, lr, asr r0
    2118:	02080604 	andeq	r0, r8, #4194304	; 0x400000
    211c:	470a0023 	strmi	r0, [sl, -r3, lsr #32]
    2120:	04000015 	streq	r0, [r0], #-21
    2124:	005e0167 	subseq	r0, lr, r7, ror #2
    2128:	02040000 	andeq	r0, r4, #0
    212c:	00230206 	eoreq	r0, r3, r6, lsl #4
    2130:	0005c70a 	andeq	ip, r5, sl, lsl #14
    2134:	01680400 	cmneq	r8, r0, lsl #8
    2138:	0000005e 	andeq	r0, r0, lr, asr r0
    213c:	02010504 	andeq	r0, r1, #16777216	; 0x1000000
    2140:	070a0023 	streq	r0, [sl, -r3, lsr #32]
    2144:	04000014 	streq	r0, [r0], #-20
    2148:	005e0169 	subseq	r0, lr, r9, ror #2
    214c:	01040000 	tsteq	r4, r0
    2150:	00230200 	eoreq	r0, r3, r0, lsl #4
    2154:	0cf00b00 	vldmiaeq	r0!, {d16-d15}
    2158:	6a040000 	bvs	102160 <__bss_end+0xfded8>
    215c:	0011d801 	andseq	sp, r1, r1, lsl #16
    2160:	0dce0c00 	stcleq	12, cr0, [lr]
    2164:	04040000 	streq	r0, [r4]
    2168:	12fc016e 	rscsne	r0, ip, #-2147483621	; 0x8000001b
    216c:	5f0a0000 	svcpl	0x000a0000
    2170:	04000010 	streq	r0, [r0], #-16
    2174:	005e016f 	subseq	r0, lr, pc, ror #2
    2178:	01040000 	tsteq	r4, r0
    217c:	0023021f 	eoreq	r0, r3, pc, lsl r2
    2180:	000ccf0a 	andeq	ip, ip, sl, lsl #30
    2184:	01700400 	cmneq	r0, r0, lsl #8
    2188:	0000005e 	andeq	r0, r0, lr, asr r0
    218c:	021e0104 	andseq	r0, lr, #1
    2190:	b30a0023 	movwlt	r0, #40995	; 0xa023
    2194:	04000005 	streq	r0, [r0], #-5
    2198:	005e0171 	subseq	r0, lr, r1, ror r1
    219c:	04040000 	streq	r0, [r4]
    21a0:	0023021a 	eoreq	r0, r3, sl, lsl r2
    21a4:	0014020a 	andseq	r0, r4, sl, lsl #4
    21a8:	01720400 	cmneq	r2, r0, lsl #8
    21ac:	0000005e 	andeq	r0, r0, lr, asr r0
    21b0:	02190104 	andseq	r0, r9, #1
    21b4:	bd0a0023 	stclt	0, cr0, [sl, #-140]	; 0xffffff74
    21b8:	04000005 	streq	r0, [r0], #-5
    21bc:	005e0173 	subseq	r0, lr, r3, ror r1
    21c0:	01040000 	tsteq	r4, r0
    21c4:	00230218 	eoreq	r0, r3, r8, lsl r2
    21c8:	000e1c0a 	andeq	r1, lr, sl, lsl #24
    21cc:	01740400 	cmneq	r4, r0, lsl #8
    21d0:	0000005e 	andeq	r0, r0, lr, asr r0
    21d4:	02170104 	andseq	r0, r7, #1
    21d8:	c70a0023 	strgt	r0, [sl, -r3, lsr #32]
    21dc:	04000005 	streq	r0, [r0], #-5
    21e0:	005e0175 	subseq	r0, lr, r5, ror r1
    21e4:	17040000 	strne	r0, [r4, -r0]
    21e8:	00230200 	eoreq	r0, r3, r0, lsl #4
    21ec:	0aac0b00 	beq	feb04df4 <__bss_end+0xfeb00b6c>
    21f0:	76040000 	strvc	r0, [r4], -r0
    21f4:	00127001 	andseq	r7, r2, r1
    21f8:	10e30c00 	rscne	r0, r3, r0, lsl #24
    21fc:	04040000 	streq	r0, [r4]
    2200:	1382017a 	orrne	r0, r2, #-2147483618	; 0x8000001e
    2204:	6e0a0000 	cdpvs	0, 0, cr0, cr10, cr0, {0}
    2208:	0400000b 	streq	r0, [r0], #-11
    220c:	005e017b 	subseq	r0, lr, fp, ror r1
    2210:	03040000 	movweq	r0, #16384	; 0x4000
    2214:	0023021d 	eoreq	r0, r3, sp, lsl r2
    2218:	0005b30a 	andeq	fp, r5, sl, lsl #6
    221c:	017c0400 	cmneq	ip, r0, lsl #8
    2220:	0000005e 	andeq	r0, r0, lr, asr r0
    2224:	02081504 	andeq	r1, r8, #16777216	; 0x1000000
    2228:	470a0023 	strmi	r0, [sl, -r3, lsr #32]
    222c:	04000015 	streq	r0, [r0], #-21
    2230:	005e017d 	subseq	r0, lr, sp, ror r1
    2234:	02040000 	andeq	r0, r4, #0
    2238:	00230206 	eoreq	r0, r3, r6, lsl #4
    223c:	0005bd0a 	andeq	fp, r5, sl, lsl #26
    2240:	017e0400 	cmneq	lr, r0, lsl #8
    2244:	0000005e 	andeq	r0, r0, lr, asr r0
    2248:	02020404 	andeq	r0, r2, #67108864	; 0x4000000
    224c:	600a0023 	andvs	r0, sl, r3, lsr #32
    2250:	04000014 	streq	r0, [r0], #-20
    2254:	005e017f 	subseq	r0, lr, pc, ror r1
    2258:	01040000 	tsteq	r4, r0
    225c:	00230201 	eoreq	r0, r3, r1, lsl #4
    2260:	0014070a 	andseq	r0, r4, sl, lsl #14
    2264:	01800400 	orreq	r0, r0, r0, lsl #8
    2268:	0000005e 	andeq	r0, r0, lr, asr r0
    226c:	02000104 	andeq	r0, r0, #1
    2270:	0b000023 	bleq	2304 <mctl_mode_exit+0x1c>
    2274:	00000ca4 	andeq	r0, r0, r4, lsr #25
    2278:	08018104 	stmdaeq	r1, {r2, r8, pc}
    227c:	0c000013 	stceq	0, cr0, [r0], {19}
    2280:	00000899 	muleq	r0, r9, r8
    2284:	01850404 	orreq	r0, r5, r4, lsl #8
    2288:	00001462 	andeq	r1, r0, r2, ror #8
    228c:	000ea10a 	andeq	sl, lr, sl, lsl #2
    2290:	01860400 	orreq	r0, r6, r0, lsl #8
    2294:	0000005e 	andeq	r0, r0, lr, asr r0
    2298:	021f0104 	andseq	r0, pc, #1
    229c:	a70a0023 	strge	r0, [sl, -r3, lsr #32]
    22a0:	04000015 	streq	r0, [r0], #-21
    22a4:	005e0187 	subseq	r0, lr, r7, lsl #3
    22a8:	01040000 	tsteq	r4, r0
    22ac:	0023021e 	eoreq	r0, r3, lr, lsl r2
    22b0:	0005b30a 	andeq	fp, r5, sl, lsl #6
    22b4:	01880400 	orreq	r0, r8, r0, lsl #8
    22b8:	0000005e 	andeq	r0, r0, lr, asr r0
    22bc:	021d0104 	andseq	r0, sp, #1
    22c0:	470a0023 	strmi	r0, [sl, -r3, lsr #32]
    22c4:	04000008 	streq	r0, [r0], #-8
    22c8:	005e0189 	subseq	r0, lr, r9, lsl #3
    22cc:	01040000 	tsteq	r4, r0
    22d0:	0023021c 	eoreq	r0, r3, ip, lsl r2
    22d4:	0005bd0a 	andeq	fp, r5, sl, lsl #26
    22d8:	018a0400 	orreq	r0, sl, r0, lsl #8
    22dc:	0000005e 	andeq	r0, r0, lr, asr r0
    22e0:	021b0104 	andseq	r0, fp, #1
    22e4:	460a0023 	strmi	r0, [sl], -r3, lsr #32
    22e8:	0400000d 	streq	r0, [r0], #-13
    22ec:	005e018b 	subseq	r0, lr, fp, lsl #3
    22f0:	01040000 	tsteq	r4, r0
    22f4:	0023021a 	eoreq	r0, r3, sl, lsl r2
    22f8:	0005c70a 	andeq	ip, r5, sl, lsl #14
    22fc:	018c0400 	orreq	r0, ip, r0, lsl #8
    2300:	0000005e 	andeq	r0, r0, lr, asr r0
    2304:	02071304 	andeq	r1, r7, #268435456	; 0x10000000
    2308:	970a0023 	strls	r0, [sl, -r3, lsr #32]
    230c:	04000014 	streq	r0, [r0], #-20
    2310:	005e018d 	subseq	r0, lr, sp, lsl #3
    2314:	01040000 	tsteq	r4, r0
    2318:	00230206 	eoreq	r0, r3, r6, lsl #4
    231c:	00120d0a 	andseq	r0, r2, sl, lsl #26
    2320:	018e0400 	orreq	r0, lr, r0, lsl #8
    2324:	0000005e 	andeq	r0, r0, lr, asr r0
    2328:	02050104 	andeq	r0, r5, #1
    232c:	d10a0023 	tstle	sl, r3, lsr #32
    2330:	04000005 	streq	r0, [r0], #-5
    2334:	005e018f 	subseq	r0, lr, pc, lsl #3
    2338:	04040000 	streq	r0, [r4]
    233c:	00230201 	eoreq	r0, r3, r1, lsl #4
    2340:	000e6a0a 	andeq	r6, lr, sl, lsl #20
    2344:	01900400 	orrseq	r0, r0, r0, lsl #8
    2348:	0000005e 	andeq	r0, r0, lr, asr r0
    234c:	02000104 	andeq	r0, r0, #1
    2350:	0b000023 	bleq	23e4 <DRAMC_enter_selfrefresh+0x18>
    2354:	000008cc 	andeq	r0, r0, ip, asr #17
    2358:	8e019104 	mvfhis	f1, f4
    235c:	0c000013 	stceq	0, cr0, [r0], {19}
    2360:	00000887 	andeq	r0, r0, r7, lsl #17
    2364:	01970404 	orrseq	r0, r7, r4, lsl #8
    2368:	000014e8 	andeq	r1, r0, r8, ror #9
    236c:	0015960a 	andseq	r9, r5, sl, lsl #12
    2370:	01980400 	orrseq	r0, r8, r0, lsl #8
    2374:	0000005e 	andeq	r0, r0, lr, asr r0
    2378:	021c0404 	andseq	r0, ip, #67108864	; 0x4000000
    237c:	b30a0023 	movwlt	r0, #40995	; 0xa023
    2380:	04000005 	streq	r0, [r0], #-5
    2384:	005e0199 	ldrbeq	r0, [lr], #-25	; 0xffffffe7
    2388:	14040000 	strne	r0, [r4]
    238c:	00230208 	eoreq	r0, r3, r8, lsl #4
    2390:	0015470a 	andseq	r4, r5, sl, lsl #14
    2394:	019a0400 	orrseq	r0, sl, r0, lsl #8
    2398:	0000005e 	andeq	r0, r0, lr, asr r0
    239c:	02060204 	andeq	r0, r6, #1073741824	; 0x40000000
    23a0:	bd0a0023 	stclt	0, cr0, [sl, #-140]	; 0xffffff74
    23a4:	04000005 	streq	r0, [r0], #-5
    23a8:	005e019b 	ldrbeq	r0, [lr], #-27	; 0xffffffe5
    23ac:	04040000 	streq	r0, [r4]
    23b0:	00230202 	eoreq	r0, r3, r2, lsl #4
    23b4:	0014600a 	andseq	r6, r4, sl
    23b8:	019c0400 	orrseq	r0, ip, r0, lsl #8
    23bc:	0000005e 	andeq	r0, r0, lr, asr r0
    23c0:	02010104 	andeq	r0, r1, #1
    23c4:	070a0023 	streq	r0, [sl, -r3, lsr #32]
    23c8:	04000014 	streq	r0, [r0], #-20
    23cc:	005e019d 	ldrbeq	r0, [lr], #-29	; 0xffffffe3
    23d0:	01040000 	tsteq	r4, r0
    23d4:	00230200 	eoreq	r0, r3, r0, lsl #4
    23d8:	134e0b00 	movtne	r0, #60160	; 0xeb00
    23dc:	9f040000 	svcls	0x00040000
    23e0:	00146e01 	andseq	r6, r4, r1, lsl #28
    23e4:	14c10c00 	strbne	r0, [r1], #3072	; 0xc00
    23e8:	04040000 	streq	r0, [r4]
    23ec:	156e01a5 	strbne	r0, [lr, #-421]!	; 0x1a5
    23f0:	b30a0000 	movwlt	r0, #40960	; 0xa000
    23f4:	04000005 	streq	r0, [r0], #-5
    23f8:	005e01a6 	subseq	r0, lr, r6, lsr #3
    23fc:	18040000 	stmdane	r4, {}
    2400:	00230208 	eoreq	r0, r3, r8, lsl #4
    2404:	0015470a 	andseq	r4, r5, sl, lsl #14
    2408:	01a70400 	undefined instruction 0x01a70400
    240c:	0000005e 	andeq	r0, r0, lr, asr r0
    2410:	02060204 	andeq	r0, r6, #1073741824	; 0x40000000
    2414:	bd0a0023 	stclt	0, cr0, [sl, #-140]	; 0xffffff74
    2418:	04000005 	streq	r0, [r0], #-5
    241c:	005e01a8 	subseq	r0, lr, r8, lsr #3
    2420:	03040000 	movweq	r0, #16384	; 0x4000
    2424:	00230203 	eoreq	r0, r3, r3, lsl #4
    2428:	0008000a 	andeq	r0, r8, sl
    242c:	01a90400 	undefined instruction 0x01a90400
    2430:	0000005e 	andeq	r0, r0, lr, asr r0
    2434:	02020104 	andeq	r0, r2, #1
    2438:	5d0a0023 	stcpl	0, cr0, [sl, #-140]	; 0xffffff74
    243c:	04000014 	streq	r0, [r0], #-20
    2440:	005e01aa 	subseq	r0, lr, sl, lsr #3
    2444:	01040000 	tsteq	r4, r0
    2448:	00230201 	eoreq	r0, r3, r1, lsl #4
    244c:	0014070a 	andseq	r0, r4, sl, lsl #14
    2450:	01ab0400 	undefined instruction 0x01ab0400
    2454:	0000005e 	andeq	r0, r0, lr, asr r0
    2458:	02000104 	andeq	r0, r0, #1
    245c:	0b000023 	bleq	24f0 <dram_power_save_process+0xac>
    2460:	000009b2 	undefined instruction 0x000009b2
    2464:	f401ad04 	undefined instruction 0xf401ad04
    2468:	0c000014 	stceq	0, cr0, [r0], {20}
    246c:	00000f61 	andeq	r0, r0, r1, ror #30
    2470:	01b30404 	undefined instruction 0x01b30404
    2474:	0000162a 	andeq	r1, r0, sl, lsr #12
    2478:	0015960a 	andseq	r9, r5, sl, lsl #12
    247c:	01b40400 	undefined instruction 0x01b40400
    2480:	0000005e 	andeq	r0, r0, lr, asr r0
    2484:	021c0404 	andseq	r0, ip, #67108864	; 0x4000000
    2488:	b30a0023 	movwlt	r0, #40995	; 0xa023
    248c:	04000005 	streq	r0, [r0], #-5
    2490:	005e01b5 	ldrheq	r0, [lr], #-21	; 0xffffffeb
    2494:	07040000 	streq	r0, [r4, -r0]
    2498:	00230215 	eoreq	r0, r3, r5, lsl r2
    249c:	000a0c0a 	andeq	r0, sl, sl, lsl #24
    24a0:	01b60400 	undefined instruction 0x01b60400
    24a4:	0000005e 	andeq	r0, r0, lr, asr r0
    24a8:	02140104 	andseq	r0, r4, #1
    24ac:	bd0a0023 	stclt	0, cr0, [sl, #-140]	; 0xffffff74
    24b0:	04000005 	streq	r0, [r0], #-5
    24b4:	005e01b7 	ldrheq	r0, [lr], #-23	; 0xffffffe9
    24b8:	03040000 	movweq	r0, #16384	; 0x4000
    24bc:	00230211 	eoreq	r0, r3, r1, lsl r2
    24c0:	0012840a 	andseq	r8, r2, sl, lsl #8
    24c4:	01b80400 	undefined instruction 0x01b80400
    24c8:	0000005e 	andeq	r0, r0, lr, asr r0
    24cc:	02100104 	andseq	r0, r0, #1
    24d0:	c70a0023 	strgt	r0, [sl, -r3, lsr #32]
    24d4:	04000005 	streq	r0, [r0], #-5
    24d8:	005e01b9 	ldrheq	r0, [lr], #-25	; 0xffffffe7
    24dc:	08040000 	stmdaeq	r4, {}
    24e0:	00230208 	eoreq	r0, r3, r8, lsl #4
    24e4:	00129b0a 	andseq	r9, r2, sl, lsl #22
    24e8:	01ba0400 	undefined instruction 0x01ba0400
    24ec:	0000005e 	andeq	r0, r0, lr, asr r0
    24f0:	02060204 	andeq	r0, r6, #1073741824	; 0x40000000
    24f4:	d10a0023 	tstle	sl, r3, lsr #32
    24f8:	04000005 	streq	r0, [r0], #-5
    24fc:	005e01bb 	ldrheq	r0, [lr], #-27	; 0xffffffe5
    2500:	05040000 	streq	r0, [r4]
    2504:	00230201 	eoreq	r0, r3, r1, lsl #4
    2508:	000d6a0a 	andeq	r6, sp, sl, lsl #20
    250c:	01bc0400 	undefined instruction 0x01bc0400
    2510:	0000005e 	andeq	r0, r0, lr, asr r0
    2514:	02000104 	andeq	r0, r0, #1
    2518:	0b000023 	bleq	25ac <DRAMC_retraining+0xac>
    251c:	000011f9 	strdeq	r1, [r0], -r9
    2520:	7a01be04 	bvc	71d38 <__bss_end+0x6dab0>
    2524:	0c000015 	stceq	0, cr0, [r0], {21}
    2528:	00000ce1 	andeq	r0, r0, r1, ror #25
    252c:	01c40404 	biceq	r0, r4, r4, lsl #8
    2530:	000016b0 	undefined instruction 0x000016b0
    2534:	0015960a 	andseq	r9, r5, sl, lsl #12
    2538:	01c50400 	biceq	r0, r5, r0, lsl #8
    253c:	0000005e 	andeq	r0, r0, lr, asr r0
    2540:	021b0504 	andseq	r0, fp, #16777216	; 0x1000000
    2544:	b30a0023 	movwlt	r0, #40995	; 0xa023
    2548:	04000005 	streq	r0, [r0], #-5
    254c:	005e01c6 	subseq	r0, lr, r6, asr #3
    2550:	13040000 	movwne	r0, #16384	; 0x4000
    2554:	00230208 	eoreq	r0, r3, r8, lsl #4
    2558:	0015470a 	andseq	r4, r5, sl, lsl #14
    255c:	01c70400 	biceq	r0, r7, r0, lsl #8
    2560:	0000005e 	andeq	r0, r0, lr, asr r0
    2564:	02050304 	andeq	r0, r5, #268435456	; 0x10000000
    2568:	bd0a0023 	stclt	0, cr0, [sl, #-140]	; 0xffffff74
    256c:	04000005 	streq	r0, [r0], #-5
    2570:	005e01c8 	subseq	r0, lr, r8, asr #3
    2574:	03040000 	movweq	r0, #16384	; 0x4000
    2578:	00230202 	eoreq	r0, r3, r2, lsl #4
    257c:	0014600a 	andseq	r6, r4, sl
    2580:	01c90400 	biceq	r0, r9, r0, lsl #8
    2584:	0000005e 	andeq	r0, r0, lr, asr r0
    2588:	02010104 	andeq	r0, r1, #1
    258c:	070a0023 	streq	r0, [sl, -r3, lsr #32]
    2590:	04000014 	streq	r0, [r0], #-20
    2594:	005e01ca 	subseq	r0, lr, sl, asr #3
    2598:	01040000 	tsteq	r4, r0
    259c:	00230200 	eoreq	r0, r3, r0, lsl #4
    25a0:	0c310b00 	ldceq	11, cr0, [r1]
    25a4:	cb040000 	blgt	1025ac <__bss_end+0xfe324>
    25a8:	00163601 	andseq	r3, r6, r1, lsl #12
    25ac:	14dc0c00 	ldrbne	r0, [ip], #3072	; 0xc00
    25b0:	04040000 	streq	r0, [r4]
    25b4:	172401cf 	strne	r0, [r4, -pc, asr #3]!
    25b8:	600a0000 	andvs	r0, sl, r0
    25bc:	04000014 	streq	r0, [r0], #-20
    25c0:	005e01d0 	ldrsbeq	r0, [lr], #-16
    25c4:	01040000 	tsteq	r4, r0
    25c8:	0023021f 	eoreq	r0, r3, pc, lsl r2
    25cc:	0005b30a 	andeq	fp, r5, sl, lsl #6
    25d0:	01d10400 	bicseq	r0, r1, r0, lsl #8
    25d4:	0000005e 	andeq	r0, r0, lr, asr r0
    25d8:	02100f04 	andseq	r0, r0, #16
    25dc:	960a0023 	strls	r0, [sl], -r3, lsr #32
    25e0:	04000015 	streq	r0, [r0], #-21
    25e4:	005e01d2 	ldrsbeq	r0, [lr], #-18	; 0xffffffee
    25e8:	03040000 	movweq	r0, #16384	; 0x4000
    25ec:	0023020d 	eoreq	r0, r3, sp, lsl #4
    25f0:	0005bd0a 	andeq	fp, r5, sl, lsl #26
    25f4:	01d30400 	bicseq	r0, r3, r0, lsl #8
    25f8:	0000005e 	andeq	r0, r0, lr, asr r0
    25fc:	02010c04 	andeq	r0, r1, #1024	; 0x400
    2600:	070a0023 	streq	r0, [sl, -r3, lsr #32]
    2604:	04000014 	streq	r0, [r0], #-20
    2608:	005e01d4 	ldrsbeq	r0, [lr], #-20	; 0xffffffec
    260c:	01040000 	tsteq	r4, r0
    2610:	00230200 	eoreq	r0, r3, r0, lsl #4
    2614:	116c0b00 	cmnne	ip, r0, lsl #22
    2618:	d5040000 	strle	r0, [r4]
    261c:	0016bc01 	andseq	fp, r6, r1, lsl #24
    2620:	0fbb0c00 	svceq	0x00bb0c00
    2624:	04040000 	streq	r0, [r4]
    2628:	176201d8 	undefined instruction 0x176201d8
    262c:	b30a0000 	movwlt	r0, #40960	; 0xa000
    2630:	04000005 	streq	r0, [r0], #-5
    2634:	005e01d9 	ldrsbeq	r0, [lr], #-25	; 0xffffffe7
    2638:	1f040000 	svcne	0x00040000
    263c:	00230201 	eoreq	r0, r3, r1, lsl #4
    2640:	0014070a 	andseq	r0, r4, sl, lsl #14
    2644:	01da0400 	bicseq	r0, sl, r0, lsl #8
    2648:	0000005e 	andeq	r0, r0, lr, asr r0
    264c:	02000104 	andeq	r0, r0, #1
    2650:	0b000023 	bleq	26e4 <mctl_disable_dll+0x40>
    2654:	000008b2 	undefined instruction 0x000008b2
    2658:	3001db04 	andcc	sp, r1, r4, lsl #22
    265c:	0c000017 	stceq	0, cr0, [r0], {23}
    2660:	00000bb2 	undefined instruction 0x00000bb2
    2664:	01de0404 	bicseq	r0, lr, r4, lsl #8
    2668:	000017a0 	andeq	r1, r0, r0, lsr #15
    266c:	0005b30a 	andeq	fp, r5, sl, lsl #6
    2670:	01df0400 	bicseq	r0, pc, r0, lsl #8
    2674:	0000005e 	andeq	r0, r0, lr, asr r0
    2678:	02011f04 	andeq	r1, r1, #16
    267c:	070a0023 	streq	r0, [sl, -r3, lsr #32]
    2680:	04000014 	streq	r0, [r0], #-20
    2684:	005e01e0 	subseq	r0, lr, r0, ror #3
    2688:	01040000 	tsteq	r4, r0
    268c:	00230200 	eoreq	r0, r3, r0, lsl #4
    2690:	14350b00 	ldrtne	r0, [r5], #-2816	; 0xb00
    2694:	e1040000 	tst	r4, r0
    2698:	00176e01 	andseq	r6, r7, r1, lsl #28
    269c:	09210c00 	stmdbeq	r1!, {sl, fp}
    26a0:	04040000 	streq	r0, [r4]
    26a4:	17de01e5 	ldrbne	r0, [lr, r5, ror #3]
    26a8:	600a0000 	andvs	r0, sl, r0
    26ac:	04000014 	streq	r0, [r0], #-20
    26b0:	005e01e6 	subseq	r0, lr, r6, ror #3
    26b4:	01040000 	tsteq	r4, r0
    26b8:	0023021f 	eoreq	r0, r3, pc, lsl r2
    26bc:	0001370a 	andeq	r3, r1, sl, lsl #14
    26c0:	01e70400 	mvneq	r0, r0, lsl #8
    26c4:	0000005e 	andeq	r0, r0, lr, asr r0
    26c8:	02001f04 	andeq	r1, r0, #16
    26cc:	0b000023 	bleq	2760 <DRAMC_scan_readpipe+0x24>
    26d0:	0000114a 	andeq	r1, r0, sl, asr #2
    26d4:	ac01e804 	stcge	8, cr14, [r1], {4}
    26d8:	0c000017 	stceq	0, cr0, [r0], {23}
    26dc:	000009eb 	andeq	r0, r0, fp, ror #19
    26e0:	01ec0404 	mvneq	r0, r4, lsl #8
    26e4:	00001852 	andeq	r1, r0, r2, asr r8
    26e8:	0015960a 	andseq	r9, r5, sl, lsl #12
    26ec:	01ed0400 	mvneq	r0, r0, lsl #8
    26f0:	0000005e 	andeq	r0, r0, lr, asr r0
    26f4:	021c0404 	andseq	r0, ip, #67108864	; 0x4000000
    26f8:	b30a0023 	movwlt	r0, #40995	; 0xa023
    26fc:	04000005 	streq	r0, [r0], #-5
    2700:	005e01ee 	subseq	r0, lr, lr, ror #3
    2704:	14040000 	strne	r0, [r4]
    2708:	00230208 	eoreq	r0, r3, r8, lsl #4
    270c:	0015470a 	andseq	r4, r5, sl, lsl #14
    2710:	01ef0400 	mvneq	r0, r0, lsl #8
    2714:	0000005e 	andeq	r0, r0, lr, asr r0
    2718:	02060204 	andeq	r0, r6, #1073741824	; 0x40000000
    271c:	bd0a0023 	stclt	0, cr0, [sl, #-140]	; 0xffffff74
    2720:	04000005 	streq	r0, [r0], #-5
    2724:	005e01f0 	ldrsheq	r0, [lr], #-16
    2728:	05040000 	streq	r0, [r4]
    272c:	00230201 	eoreq	r0, r3, r1, lsl #4
    2730:	0014070a 	andseq	r0, r4, sl, lsl #14
    2734:	01f10400 	mvnseq	r0, r0, lsl #8
    2738:	0000005e 	andeq	r0, r0, lr, asr r0
    273c:	02000104 	andeq	r0, r0, #1
    2740:	0b000023 	bleq	27d4 <DRAMC_get_dram_size+0x8>
    2744:	00000809 	andeq	r0, r0, r9, lsl #16
    2748:	ea01f204 	b	7ef60 <__bss_end+0x7acd8>
    274c:	0c000017 	stceq	0, cr0, [r0], {23}
    2750:	00000d92 	muleq	r0, r2, sp
    2754:	01f60404 	mvnseq	r0, r4, lsl #8
    2758:	000018d8 	ldrdeq	r1, [r0], -r8
    275c:	0015960a 	andseq	r9, r5, sl, lsl #12
    2760:	01f70400 	mvnseq	r0, r0, lsl #8
    2764:	0000005e 	andeq	r0, r0, lr, asr r0
    2768:	021c0404 	andseq	r0, ip, #67108864	; 0x4000000
    276c:	b30a0023 	movwlt	r0, #40995	; 0xa023
    2770:	04000005 	streq	r0, [r0], #-5
    2774:	005e01f8 	ldrsheq	r0, [lr], #-24	; 0xffffffe8
    2778:	14040000 	strne	r0, [r4]
    277c:	00230208 	eoreq	r0, r3, r8, lsl #4
    2780:	0015470a 	andseq	r4, r5, sl, lsl #14
    2784:	01f90400 	mvnseq	r0, r0, lsl #8
    2788:	0000005e 	andeq	r0, r0, lr, asr r0
    278c:	02050304 	andeq	r0, r5, #268435456	; 0x10000000
    2790:	bd0a0023 	stclt	0, cr0, [sl, #-140]	; 0xffffff74
    2794:	04000005 	streq	r0, [r0], #-5
    2798:	005e01fa 	ldrsheq	r0, [lr], #-26	; 0xffffffe6
    279c:	03040000 	movweq	r0, #16384	; 0x4000
    27a0:	00230202 	eoreq	r0, r3, r2, lsl #4
    27a4:	0014600a 	andseq	r6, r4, sl
    27a8:	01fb0400 	mvnseq	r0, r0, lsl #8
    27ac:	0000005e 	andeq	r0, r0, lr, asr r0
    27b0:	02010104 	andeq	r0, r1, #1
    27b4:	070a0023 	streq	r0, [sl, -r3, lsr #32]
    27b8:	04000014 	streq	r0, [r0], #-20
    27bc:	005e01fc 	ldrsheq	r0, [lr], #-28	; 0xffffffe4
    27c0:	01040000 	tsteq	r4, r0
    27c4:	00230200 	eoreq	r0, r3, r0, lsl #4
    27c8:	0c750b00 	ldcleq	11, cr0, [r5]
    27cc:	fd040000 	stc2	0, cr0, [r4]
    27d0:	00185e01 	andseq	r5, r8, r1, lsl #28
    27d4:	0b4d0c00 	bleq	13457dc <__bss_end+0x1341554>
    27d8:	04040000 	streq	r0, [r4]
    27dc:	19700201 	ldmdbne	r0!, {r0, r9}^
    27e0:	960a0000 	strls	r0, [sl], -r0
    27e4:	04000015 	streq	r0, [r0], #-21
    27e8:	005e0202 	subseq	r0, lr, r2, lsl #4
    27ec:	04040000 	streq	r0, [r4]
    27f0:	0023021c 	eoreq	r0, r3, ip, lsl r2
    27f4:	0005b30a 	andeq	fp, r5, sl, lsl #6
    27f8:	02030400 	andeq	r0, r3, #0
    27fc:	0000005e 	andeq	r0, r0, lr, asr r0
    2800:	02100c04 	andseq	r0, r0, #1024	; 0x400
    2804:	050a0023 	streq	r0, [sl, #-35]	; 0x23
    2808:	04000009 	streq	r0, [r0], #-9
    280c:	005e0204 	subseq	r0, lr, r4, lsl #4
    2810:	02040000 	andeq	r0, r4, #0
    2814:	0023020e 	eoreq	r0, r3, lr, lsl #4
    2818:	0005bd0a 	andeq	fp, r5, sl, lsl #26
    281c:	02050400 	andeq	r0, r5, #0
    2820:	0000005e 	andeq	r0, r0, lr, asr r0
    2824:	02080604 	andeq	r0, r8, #4194304	; 0x400000
    2828:	470a0023 	strmi	r0, [sl, -r3, lsr #32]
    282c:	04000015 	streq	r0, [r0], #-21
    2830:	005e0206 	subseq	r0, lr, r6, lsl #4
    2834:	02040000 	andeq	r0, r4, #0
    2838:	00230206 	eoreq	r0, r3, r6, lsl #4
    283c:	0005c70a 	andeq	ip, r5, sl, lsl #14
    2840:	02070400 	andeq	r0, r7, #0
    2844:	0000005e 	andeq	r0, r0, lr, asr r0
    2848:	02010504 	andeq	r0, r1, #16777216	; 0x1000000
    284c:	0b0a0023 	bleq	2828e0 <__bss_end+0x27e658>
    2850:	04000014 	streq	r0, [r0], #-20
    2854:	005e0208 	subseq	r0, lr, r8, lsl #4
    2858:	01040000 	tsteq	r4, r0
    285c:	00230200 	eoreq	r0, r3, r0, lsl #4
    2860:	09d10b00 	ldmibeq	r1, {r8, r9, fp}^
    2864:	0a040000 	beq	10286c <__bss_end+0xfe5e4>
    2868:	0018e402 	andseq	lr, r8, r2, lsl #8
    286c:	12210c00 	eorne	r0, r1, #0
    2870:	04040000 	streq	r0, [r4]
    2874:	19c0020e 	stmibne	r0, {r1, r2, r3, r9}^
    2878:	370a0000 	strcc	r0, [sl, -r0]
    287c:	04000001 	streq	r0, [r0], #-1
    2880:	005e020f 	subseq	r0, lr, pc, lsl #4
    2884:	1e040000 	cdpne	0, 0, cr0, cr4, cr0, {0}
    2888:	00230202 	eoreq	r0, r3, r2, lsl #4
    288c:	0014600a 	andseq	r6, r4, sl
    2890:	02100400 	andseq	r0, r0, #0
    2894:	0000005e 	andeq	r0, r0, lr, asr r0
    2898:	02010104 	andeq	r0, r1, #1
    289c:	0b0a0023 	bleq	282930 <__bss_end+0x27e6a8>
    28a0:	04000014 	streq	r0, [r0], #-20
    28a4:	005e0211 	subseq	r0, lr, r1, lsl r2
    28a8:	01040000 	tsteq	r4, r0
    28ac:	00230200 	eoreq	r0, r3, r0, lsl #4
    28b0:	0e720b00 	vaddeq.f64	d16, d2, d0
    28b4:	13040000 	movwne	r0, #16384	; 0x4000
    28b8:	00197c02 	andseq	r7, r9, r2, lsl #24
    28bc:	15690d00 	strbne	r0, [r9, #-3328]!	; 0xd00
    28c0:	01640000 	cmneq	r4, r0
    28c4:	31021604 	tstcc	r2, r4, lsl #12
    28c8:	0e00001e 	mcreq	0, 0, r0, cr0, cr14, {0}
    28cc:	00000d0c 	andeq	r0, r0, ip, lsl #26
    28d0:	31021704 	tstcc	r2, r4, lsl #14
    28d4:	0200001e 	andeq	r0, r0, #30
    28d8:	e30e0023 	movw	r0, #57379	; 0xe023
    28dc:	0400000b 	streq	r0, [r0], #-11
    28e0:	1e360218 	mrcne	2, 1, r0, cr6, cr8, {0}
    28e4:	23020000 	movwcs	r0, #8192	; 0x2000
    28e8:	15610e04 	strbne	r0, [r1, #-3588]!	; 0xe04
    28ec:	19040000 	stmdbne	r4, {}
    28f0:	001e3b02 	andseq	r3, lr, r2, lsl #22
    28f4:	08230200 	stmdaeq	r3!, {r9}
    28f8:	0013bc0e 	andseq	fp, r3, lr, lsl #24
    28fc:	021a0400 	andseq	r0, sl, #0
    2900:	00001e40 	andeq	r1, r0, r0, asr #28
    2904:	0e0c2302 	cdpeq	3, 0, cr2, cr12, cr2, {0}
    2908:	000014a1 	andeq	r1, r0, r1, lsr #9
    290c:	45021b04 	strmi	r1, [r2, #-2820]	; 0xb04
    2910:	0200001e 	andeq	r0, r0, #30
    2914:	b30e1023 	movwlt	r1, #57379	; 0xe023
    2918:	04000005 	streq	r0, [r0], #-5
    291c:	1e4a021c 	mcrne	2, 2, r0, cr10, cr12, {0}
    2920:	23020000 	movwcs	r0, #8192	; 0x2000
    2924:	09410e14 	stmdbeq	r1, {r2, r4, r9, sl, fp}^
    2928:	1d040000 	stcne	0, cr0, [r4]
    292c:	001e4f02 	andseq	r4, lr, r2, lsl #30
    2930:	18230200 	stmdane	r3!, {r9}
    2934:	0005bd0e 	andeq	fp, r5, lr, lsl #26
    2938:	021e0400 	andseq	r0, lr, #0
    293c:	00001e4a 	andeq	r1, r0, sl, asr #28
    2940:	0e1c2302 	cdpeq	3, 1, cr2, cr12, cr2, {0}
    2944:	00001164 	andeq	r1, r0, r4, ror #2
    2948:	54021f04 	strpl	r1, [r2], #-3844	; 0xf04
    294c:	0200001e 	andeq	r0, r0, #30
    2950:	c00e2023 	andgt	r2, lr, r3, lsr #32
    2954:	04000007 	streq	r0, [r0], #-7
    2958:	1e590220 	cdpne	2, 5, cr0, cr9, cr0, {1}
    295c:	23020000 	movwcs	r0, #8192	; 0x2000
    2960:	14b90e24 	ldrtne	r0, [r9], #3620	; 0xe24
    2964:	21040000 	tstcs	r4, r0
    2968:	001e5e02 	andseq	r5, lr, r2, lsl #28
    296c:	28230200 	stmdacs	r3!, {r9}
    2970:	0005c70e 	andeq	ip, r5, lr, lsl #14
    2974:	02220400 	eoreq	r0, r2, #0
    2978:	00001e4a 	andeq	r1, r0, sl, asr #28
    297c:	0e2c2302 	cdpeq	3, 2, cr2, cr12, cr2, {0}
    2980:	000013f2 	strdeq	r1, [r0], -r2
    2984:	63022304 	movwvs	r2, #8964	; 0x2304
    2988:	0200001e 	andeq	r0, r0, #30
    298c:	d10e3023 	tstle	lr, r3, lsr #32
    2990:	04000005 	streq	r0, [r0], #-5
    2994:	1e4a0224 	cdpne	2, 4, cr0, cr10, cr4, {1}
    2998:	23020000 	movwcs	r0, #8192	; 0x2000
    299c:	11250e34 	teqne	r5, r4, lsr lr
    29a0:	25040000 	strcs	r0, [r4]
    29a4:	001e6802 	andseq	r6, lr, r2, lsl #16
    29a8:	38230200 	stmdacc	r3!, {r9}
    29ac:	0007f00e 	andeq	pc, r7, lr
    29b0:	02260400 	eoreq	r0, r6, #0
    29b4:	00001e6d 	andeq	r1, r0, sp, ror #28
    29b8:	0e3c2302 	cdpeq	3, 3, cr2, cr12, cr2, {0}
    29bc:	000005db 	ldrdeq	r0, [r0], -fp
    29c0:	82022704 	andhi	r2, r2, #1048576	; 0x100000
    29c4:	0200001e 	andeq	r0, r0, #30
    29c8:	300e4023 	andcc	r4, lr, r3, lsr #32
    29cc:	0400000a 	streq	r0, [r0], #-10
    29d0:	1e870228 	cdpne	2, 8, cr0, cr7, cr8, {1}
    29d4:	23020000 	movwcs	r0, #8192	; 0x2000
    29d8:	0f210e50 	svceq	0x00210e50
    29dc:	29040000 	stmdbcs	r4, {}
    29e0:	001e8c02 	andseq	r8, lr, r2, lsl #24
    29e4:	54230200 	strtpl	r0, [r3], #-512	; 0x200
    29e8:	000d7e0e 	andeq	r7, sp, lr, lsl #28
    29ec:	022a0400 	eoreq	r0, sl, #0
    29f0:	00001e91 	muleq	r0, r1, lr
    29f4:	0e582302 	cdpeq	3, 5, cr2, cr8, cr2, {0}
    29f8:	000014a9 	andeq	r1, r0, r9, lsr #9
    29fc:	96022b04 	strls	r2, [r2], -r4, lsl #22
    2a00:	0200001e 	andeq	r0, r0, #30
    2a04:	bd0e5c23 	stclt	12, cr5, [lr, #-140]	; 0xffffff74
    2a08:	0400000c 	streq	r0, [r0], #-12
    2a0c:	1e9b022c 	cdpne	2, 9, cr0, cr11, cr12, {1}
    2a10:	23020000 	movwcs	r0, #8192	; 0x2000
    2a14:	0cc60e60 	stcleq	14, cr0, [r6], {96}	; 0x60
    2a18:	2d040000 	stccs	0, cr0, [r4]
    2a1c:	001ea002 	andseq	sl, lr, r2
    2a20:	64230200 	strtvs	r0, [r3], #-512	; 0x200
    2a24:	000a030e 	andeq	r0, sl, lr, lsl #6
    2a28:	022e0400 	eoreq	r0, lr, #0
    2a2c:	00001ea5 	andeq	r1, r0, r5, lsr #29
    2a30:	0e682302 	cdpeq	3, 6, cr2, cr8, cr2, {0}
    2a34:	00001516 	andeq	r1, r0, r6, lsl r5
    2a38:	aa022f04 	bge	8e650 <__bss_end+0x8a3c8>
    2a3c:	0200001e 	andeq	r0, r0, #30
    2a40:	e50e6c23 	str	r6, [lr, #-3107]	; 0xc23
    2a44:	04000005 	streq	r0, [r0], #-5
    2a48:	1eaf0230 	mcrne	2, 5, r0, cr15, cr0, {1}
    2a4c:	23020000 	movwcs	r0, #8192	; 0x2000
    2a50:	13fa0e70 	mvnsne	r0, #1792	; 0x700
    2a54:	31040000 	tstcc	r4, r0
    2a58:	001eb402 	andseq	fp, lr, r2, lsl #8
    2a5c:	80230300 	eorhi	r0, r3, r0, lsl #6
    2a60:	0afe0e01 	beq	fff8626c <__bss_end+0xfff81fe4>
    2a64:	32040000 	andcc	r0, r4, #0
    2a68:	001eb402 	andseq	fp, lr, r2, lsl #8
    2a6c:	84230300 	strthi	r0, [r3], #-768	; 0x300
    2a70:	08f80e01 	ldmeq	r8!, {r0, r9, sl, fp}^
    2a74:	33040000 	movwcc	r0, #16384	; 0x4000
    2a78:	001eb402 	andseq	fp, lr, r2, lsl #8
    2a7c:	88230300 	stmdahi	r3!, {r8, r9}
    2a80:	12170e01 	andsne	r0, r7, #16
    2a84:	34040000 	strcc	r0, [r4]
    2a88:	001eb402 	andseq	fp, lr, r2, lsl #8
    2a8c:	8c230300 	stchi	3, cr0, [r3]
    2a90:	0b430e01 	bleq	10c629c <__bss_end+0x10c2014>
    2a94:	35040000 	strcc	r0, [r4]
    2a98:	001eb402 	andseq	fp, lr, r2, lsl #8
    2a9c:	90230300 	eorls	r0, r3, r0, lsl #6
    2aa0:	05ef0e01 	strbeq	r0, [pc, #3585]!	; 38a9 <__save_processor_state+0x489>
    2aa4:	36040000 	strcc	r0, [r4], -r0
    2aa8:	001e4a02 	andseq	r4, lr, r2, lsl #20
    2aac:	94230300 	strtls	r0, [r3], #-768	; 0x300
    2ab0:	13130e01 	tstne	r3, #16
    2ab4:	37040000 	strcc	r0, [r4, -r0]
    2ab8:	001eb402 	andseq	fp, lr, r2, lsl #8
    2abc:	98230300 	stmdals	r3!, {r8, r9}
    2ac0:	09a50e01 	stmibeq	r5!, {r0, r9, sl, fp}
    2ac4:	38040000 	stmdacc	r4, {}
    2ac8:	001eb402 	andseq	fp, lr, r2, lsl #8
    2acc:	9c230300 	stcls	3, cr0, [r3]
    2ad0:	0e4f0e01 	cdpeq	14, 4, cr0, cr15, cr1, {0}
    2ad4:	39040000 	stmdbcc	r4, {}
    2ad8:	001eb402 	andseq	fp, lr, r2, lsl #8
    2adc:	a0230300 	eorge	r0, r3, r0, lsl #6
    2ae0:	084e0e01 	stmdaeq	lr, {r0, r9, sl, fp}^
    2ae4:	3a040000 	bcc	102aec <__bss_end+0xfe864>
    2ae8:	001eb402 	andseq	fp, lr, r2, lsl #8
    2aec:	a4230300 	strtge	r0, [r3], #-768	; 0x300
    2af0:	10290e01 	eorne	r0, r9, r1, lsl #28
    2af4:	3b040000 	blcc	102afc <__bss_end+0xfe874>
    2af8:	001eb402 	andseq	fp, lr, r2, lsl #8
    2afc:	a8230300 	stmdage	r3!, {r8, r9}
    2b00:	05f90e01 	ldrbeq	r0, [r9, #3585]!	; 0xe01
    2b04:	3c040000 	stccc	0, cr0, [r4], {0}
    2b08:	001e4a02 	andseq	r4, lr, r2, lsl #20
    2b0c:	ac230300 	stcge	3, cr0, [r3]
    2b10:	0d770e01 	ldcleq	14, cr0, [r7, #-4]!
    2b14:	3d040000 	stccc	0, cr0, [r4]
    2b18:	001eb402 	andseq	fp, lr, r2, lsl #8
    2b1c:	b0230300 	eorlt	r0, r3, r0, lsl #6
    2b20:	06c50e01 	strbeq	r0, [r5], r1, lsl #28
    2b24:	3e040000 	cdpcc	0, 0, cr0, cr4, cr0, {0}
    2b28:	001e4a02 	andseq	r4, lr, r2, lsl #20
    2b2c:	b4230300 	strtlt	r0, [r3], #-768	; 0x300
    2b30:	0cda0e01 	ldcleq	14, cr0, [sl], {1}
    2b34:	3f040000 	svccc	0x00040000
    2b38:	001eb902 	andseq	fp, lr, r2, lsl #18
    2b3c:	b8230300 	stmdalt	r3!, {r8, r9}
    2b40:	12910e01 	addsne	r0, r1, #16
    2b44:	40040000 	andmi	r0, r4, r0
    2b48:	001e4a02 	andseq	r4, lr, r2, lsl #20
    2b4c:	bc230300 	stclt	3, cr0, [r3]
    2b50:	0fd30e01 	svceq	0x00d30e01
    2b54:	41040000 	tstmi	r4, r0
    2b58:	001eb902 	andseq	fp, lr, r2, lsl #18
    2b5c:	c0230300 	eorgt	r0, r3, r0, lsl #6
    2b60:	132c0e01 	teqne	ip, #16
    2b64:	42040000 	andmi	r0, r4, #0
    2b68:	001ebe02 	andseq	fp, lr, r2, lsl #28
    2b6c:	c4230300 	strtgt	r0, [r3], #-768	; 0x300
    2b70:	0dad0e01 	stceq	14, cr0, [sp, #4]!
    2b74:	43040000 	movwmi	r0, #16384	; 0x4000
    2b78:	001e4a02 	andseq	r4, lr, r2, lsl #20
    2b7c:	c8230300 	stmdagt	r3!, {r8, r9}
    2b80:	09ab0e01 	stmibeq	fp!, {r0, r9, sl, fp}
    2b84:	44040000 	strmi	r0, [r4]
    2b88:	001ec302 	andseq	ip, lr, r2, lsl #6
    2b8c:	cc230300 	stcgt	3, cr0, [r3]
    2b90:	0fb40e01 	svceq	0x00b40e01
    2b94:	45040000 	strmi	r0, [r4]
    2b98:	001ec802 	andseq	ip, lr, r2, lsl #16
    2b9c:	d0230300 	eorle	r0, r3, r0, lsl #6
    2ba0:	0db80e01 	ldceq	14, cr0, [r8, #4]!
    2ba4:	46040000 	strmi	r0, [r4], -r0
    2ba8:	001e4a02 	andseq	r4, lr, r2, lsl #20
    2bac:	d4230300 	strtle	r0, [r3], #-768	; 0x300
    2bb0:	0dc30e01 	stcleq	14, cr0, [r3, #4]
    2bb4:	47040000 	strmi	r0, [r4, -r0]
    2bb8:	001edd02 	andseq	sp, lr, r2, lsl #26
    2bbc:	d8230300 	stmdale	r3!, {r8, r9}
    2bc0:	10560e01 	subsne	r0, r6, r1, lsl #28
    2bc4:	48040000 	stmdami	r4, {}
    2bc8:	001ee202 	andseq	lr, lr, r2, lsl #4
    2bcc:	80230300 	eorhi	r0, r3, r0, lsl #6
    2bd0:	10430e02 	subne	r0, r3, r2, lsl #28
    2bd4:	49040000 	stmdbmi	r4, {}
    2bd8:	001ee702 	andseq	lr, lr, r2, lsl #14
    2bdc:	84230300 	strthi	r0, [r3], #-768	; 0x300
    2be0:	0eba0e02 	cdpeq	14, 11, cr0, cr10, cr2, {0}
    2be4:	4a040000 	bmi	102bec <__bss_end+0xfe964>
    2be8:	001e4a02 	andseq	r4, lr, r2, lsl #20
    2bec:	88230300 	stmdahi	r3!, {r8, r9}
    2bf0:	0d330e02 	ldceq	14, cr0, [r3, #-8]!
    2bf4:	4b040000 	blmi	102bfc <__bss_end+0xfe974>
    2bf8:	001ee702 	andseq	lr, lr, r2, lsl #14
    2bfc:	8c230300 	stchi	3, cr0, [r3]
    2c00:	0de50e02 	stcleq	14, cr0, [r5, #8]!
    2c04:	4c040000 	stcmi	0, cr0, [r4], {0}
    2c08:	001e4a02 	andseq	r4, lr, r2, lsl #20
    2c0c:	90230300 	eorls	r0, r3, r0, lsl #6
    2c10:	0df00e02 	ldcleq	14, cr0, [r0, #8]!
    2c14:	4d040000 	stcmi	0, cr0, [r4]
    2c18:	001e4a02 	andseq	r4, lr, r2, lsl #20
    2c1c:	94230300 	strtls	r0, [r3], #-768	; 0x300
    2c20:	08560e02 	ldmdaeq	r6, {r1, r9, sl, fp}^
    2c24:	4e040000 	cdpmi	0, 0, cr0, cr4, cr0, {0}
    2c28:	001eec02 	andseq	lr, lr, r2, lsl #24
    2c2c:	98230300 	stmdals	r3!, {r8, r9}
    2c30:	0dfb0e02 	ldcleq	14, cr0, [fp, #8]!
    2c34:	4f040000 	svcmi	0x00040000
    2c38:	001ef102 	andseq	pc, lr, r2, lsl #2
    2c3c:	9c230300 	stcls	3, cr0, [r3]
    2c40:	09c60e02 	stmibeq	r6, {r1, r9, sl, fp}^
    2c44:	50040000 	andpl	r0, r4, r0
    2c48:	001ef602 	andseq	pc, lr, r2, lsl #12
    2c4c:	ac230300 	stcge	3, cr0, [r3]
    2c50:	0e060e02 	cdpeq	14, 0, cr0, cr6, cr2, {0}
    2c54:	51040000 	tstpl	r4, r0
    2c58:	001e4a02 	andseq	r4, lr, r2, lsl #20
    2c5c:	b0230300 	eorlt	r0, r3, r0, lsl #6
    2c60:	0c920e02 	ldceq	14, cr0, [r2], {2}
    2c64:	52040000 	andpl	r0, r4, #0
    2c68:	001efb02 	andseq	pc, lr, r2, lsl #22
    2c6c:	b4230300 	strtlt	r0, [r3], #-768	; 0x300
    2c70:	0e110e02 	cdpeq	14, 1, cr0, cr1, cr2, {0}
    2c74:	53040000 	movwpl	r0, #16384	; 0x4000
    2c78:	001e4a02 	andseq	r4, lr, r2, lsl #20
    2c7c:	b8230300 	stmdalt	r3!, {r8, r9}
    2c80:	07fa0e02 	ldrbeq	r0, [sl, r2, lsl #28]!
    2c84:	54040000 	strpl	r0, [r4]
    2c88:	001f0002 	andseq	r0, pc, r2
    2c8c:	bc230300 	stclt	3, cr0, [r3]
    2c90:	130b0e02 	movwne	r0, #48642	; 0xbe02
    2c94:	55040000 	strpl	r0, [r4]
    2c98:	001f0502 	andseq	r0, pc, r2, lsl #10
    2c9c:	c0230300 	eorgt	r0, r3, r0, lsl #6
    2ca0:	14560e02 	ldrbne	r0, [r6], #-3586	; 0xe02
    2ca4:	56040000 	strpl	r0, [r4], -r0
    2ca8:	001f0a02 	andseq	r0, pc, r2, lsl #20
    2cac:	c4230300 	strtgt	r0, [r3], #-768	; 0x300
    2cb0:	0e8b0e02 	cdpeq	14, 8, cr0, cr11, cr2, {0}
    2cb4:	57040000 	strpl	r0, [r4, -r0]
    2cb8:	001e4a02 	andseq	r4, lr, r2, lsl #20
    2cbc:	c8230300 	stmdagt	r3!, {r8, r9}
    2cc0:	0ef50e02 	cdpeq	14, 15, cr0, cr5, cr2, {0}
    2cc4:	58040000 	stmdapl	r4, {}
    2cc8:	001f0f02 	andseq	r0, pc, r2, lsl #30
    2ccc:	cc230300 	stcgt	3, cr0, [r3]
    2cd0:	0ea80e02 	cdpeq	14, 10, cr0, cr8, cr2, {0}
    2cd4:	59040000 	stmdbpl	r4, {}
    2cd8:	001f1402 	andseq	r1, pc, r2, lsl #8
    2cdc:	d0230300 	eorle	r0, r3, r0, lsl #6
    2ce0:	144e0e02 	strbne	r0, [lr], #-3586	; 0xe02
    2ce4:	5a040000 	bpl	102cec <__bss_end+0xfea64>
    2ce8:	001f1902 	andseq	r1, pc, r2, lsl #18
    2cec:	d4230300 	strtle	r0, [r3], #-768	; 0x300
    2cf0:	0e960e02 	cdpeq	14, 9, cr0, cr6, cr2, {0}
    2cf4:	5b040000 	blpl	102cfc <__bss_end+0xfea74>
    2cf8:	001e4a02 	andseq	r4, lr, r2, lsl #20
    2cfc:	d8230300 	stmdale	r3!, {r8, r9}
    2d00:	083f0e02 	ldmdaeq	pc!, {r1, r9, sl, fp}
    2d04:	5c040000 	stcpl	0, cr0, [r4], {0}
    2d08:	001f1e02 	andseq	r1, pc, r2, lsl #28
    2d0c:	dc230300 	stcle	3, cr0, [r3]
    2d10:	142e0e02 	strtne	r0, [lr], #-3586	; 0xe02
    2d14:	5d040000 	stcpl	0, cr0, [r4]
    2d18:	001f2302 	andseq	r2, pc, r2, lsl #6
    2d1c:	e0230300 	eor	r0, r3, r0, lsl #6
    2d20:	310f0002 	tstcc	pc, r2
    2d24:	0f000002 	svceq	0x00000002
    2d28:	000002af 	andeq	r0, r0, pc, lsr #5
    2d2c:	0003600f 	andeq	r6, r3, pc
    2d30:	03de0f00 	bicseq	r0, lr, #0
    2d34:	b10f0000 	mrslt	r0, CPSR
    2d38:	0f000004 	svceq	0x00000004
    2d3c:	0000005e 	andeq	r0, r0, lr, asr r0
    2d40:	0005b70f 	andeq	fp, r5, pc, lsl #14
    2d44:	06ce0f00 	strbeq	r0, [lr], r0, lsl #30
    2d48:	5d0f0000 	stcpl	0, cr0, [pc]
    2d4c:	0f000007 	svceq	0x00000007
    2d50:	00000841 	andeq	r0, r0, r1, asr #16
    2d54:	0009140f 	andeq	r1, r9, pc, lsl #8
    2d58:	09920f00 	ldmibeq	r2, {r8, r9, sl, fp}
    2d5c:	100f0000 	andne	r0, pc, r0
    2d60:	1000000a 	andne	r0, r0, sl
    2d64:	0000005e 	andeq	r0, r0, lr, asr r0
    2d68:	00001e82 	andeq	r1, r0, r2, lsl #29
    2d6c:	00013311 	andeq	r3, r1, r1, lsl r3
    2d70:	0f000300 	svceq	0x00000300
    2d74:	00001e72 	andeq	r1, r0, r2, ror lr
    2d78:	000ad20f 	andeq	sp, sl, pc, lsl #4
    2d7c:	0b720f00 	bleq	1c86984 <__bss_end+0x1c826fc>
    2d80:	f00f0000 	undefined instruction 0xf00f0000
    2d84:	0f00000b 	svceq	0x0000000b
    2d88:	00000c2a 	andeq	r0, r0, sl, lsr #24
    2d8c:	000e0e0f 	andeq	r0, lr, pc, lsl #28
    2d90:	0f480f00 	svceq	0x00480f00
    2d94:	160f0000 	strne	r0, [pc], -r0
    2d98:	0f000010 	svceq	0x00000010
    2d9c:	000010d2 	ldrdeq	r1, [r0], -r2
    2da0:	001e720f 	andseq	r7, lr, pc, lsl #4
    2da4:	116a0f00 	cmnne	sl, r0, lsl #30
    2da8:	cc0f0000 	stcgt	0, cr0, [pc], {0}
    2dac:	0f000011 	svceq	0x00000011
    2db0:	00001264 	andeq	r1, r0, r4, ror #4
    2db4:	0012fc0f 	andseq	pc, r2, pc, lsl #24
    2db8:	13820f00 	orrne	r0, r2, #0
    2dbc:	5e100000 	cdppl	0, 1, cr0, cr0, cr0, {0}
    2dc0:	dd000000 	stcle	0, cr0, [r0]
    2dc4:	1100001e 	tstne	r0, lr, lsl r0
    2dc8:	00000133 	andeq	r0, r0, r3, lsr r1
    2dcc:	cd0f0009 	stcgt	0, cr0, [pc, #-36]	; 0xffffffdc
    2dd0:	0f00001e 	svceq	0x0000001e
    2dd4:	00001462 	andeq	r1, r0, r2, ror #8
    2dd8:	0014e80f 	andseq	lr, r4, pc, lsl #16
    2ddc:	156e0f00 	strbne	r0, [lr, #-3840]!	; 0xf00
    2de0:	720f0000 	andvc	r0, pc, #0
    2de4:	0f00001e 	svceq	0x0000001e
    2de8:	0000162a 	andeq	r1, r0, sl, lsr #12
    2dec:	0016b00f 	andseq	fp, r6, pc
    2df0:	17240f00 	strne	r0, [r4, -r0, lsl #30]!
    2df4:	620f0000 	andvs	r0, pc, #0
    2df8:	0f000017 	svceq	0x00000017
    2dfc:	000017a0 	andeq	r1, r0, r0, lsr #15
    2e00:	0017de0f 	andseq	sp, r7, pc, lsl #28
    2e04:	18520f00 	ldmdane	r2, {r8, r9, sl, fp}^
    2e08:	d80f0000 	stmdale	pc, {}
    2e0c:	0f000018 	svceq	0x00000018
    2e10:	00001970 	andeq	r1, r0, r0, ror r9
    2e14:	0019c00f 	andseq	ip, r9, pc
    2e18:	0b190b00 	bleq	645a20 <__bss_end+0x641798>
    2e1c:	5f040000 	svcpl	0x00040000
    2e20:	0019cc02 	andseq	ip, r9, r2, lsl #24
    2e24:	62011200 	andvs	r1, r1, #0
    2e28:	01000013 	tsteq	r0, r3, lsl r0
    2e2c:	004c012c 	subeq	r0, ip, ip, lsr #2
    2e30:	08900000 	ldmeq	r0, {}
    2e34:	08ac0000 	stmiaeq	ip!, {}
    2e38:	5d010000 	stcpl	0, cr0, [r1]
    2e3c:	13800112 	orrne	r0, r0, #-2147483644	; 0x80000004
    2e40:	3e010000 	cdpcc	0, 0, cr0, cr1, cr0, {0}
    2e44:	00004c01 	andeq	r4, r0, r1, lsl #24
    2e48:	0008ac00 	andeq	sl, r8, r0, lsl #24
    2e4c:	00090800 	andeq	r0, r9, r0, lsl #16
    2e50:	125d0100 	subsne	r0, sp, #0
    2e54:	00103101 	andseq	r3, r0, r1, lsl #2
    2e58:	01570100 	cmpeq	r7, r0, lsl #2
    2e5c:	0000004c 	andeq	r0, r0, ip, asr #32
    2e60:	00000908 	andeq	r0, r0, r8, lsl #18
    2e64:	00000964 	andeq	r0, r0, r4, ror #18
    2e68:	01135d01 	tsteq	r3, r1, lsl #26
    2e6c:	00000e40 	andeq	r0, r0, r0, asr #28
    2e70:	4c017001 	stcmi	0, cr7, [r1], {1}
    2e74:	64000000 	strvs	r0, [r0]
    2e78:	c8000009 	stmdagt	r0, {r0, r3}
    2e7c:	01000009 	tsteq	r0, r9
    2e80:	001fa45d 	andseq	sl, pc, sp, asr r4
    2e84:	002d1400 	eoreq	r1, sp, r0, lsl #8
    2e88:	70010000 	andvc	r0, r1, r0
    2e8c:	00001fa4 	andeq	r1, r0, r4, lsr #31
    2e90:	000000bc 	strheq	r0, [r0], -ip
    2e94:	7e041500 	cfsh32vc	mvfx1, mvfx4, #0
    2e98:	13000000 	movwne	r0, #0
    2e9c:	000acc01 	andeq	ip, sl, r1, lsl #24
    2ea0:	018a0100 	orreq	r0, sl, r0, lsl #2
    2ea4:	0000004c 	andeq	r0, r0, ip, asr #32
    2ea8:	000009c8 	andeq	r0, r0, r8, asr #19
    2eac:	00000a24 	andeq	r0, r0, r4, lsr #20
    2eb0:	1fd55d01 	svcne	0x00d55d01
    2eb4:	2d140000 	ldccs	0, cr0, [r4]
    2eb8:	01000000 	tsteq	r0, r0
    2ebc:	001fa48a 	andseq	sl, pc, sl, lsl #9
    2ec0:	0000da00 	andeq	sp, r0, r0, lsl #20
    2ec4:	01130000 	tsteq	r3, r0
    2ec8:	00000a8b 	andeq	r0, r0, fp, lsl #21
    2ecc:	4c01a601 	stcmi	6, cr10, [r1], {1}
    2ed0:	24000000 	strcs	r0, [r0]
    2ed4:	8400000a 	strhi	r0, [r0], #-10
    2ed8:	0100000a 	tsteq	r0, sl
    2edc:	0020005d 	eoreq	r0, r0, sp, asr r0
    2ee0:	0c1d1400 	cfldrseq	mvf1, [sp], {0}
    2ee4:	a6010000 	strge	r0, [r1], -r0
    2ee8:	00002000 	andeq	r2, r0, r0
    2eec:	000000f8 	strdeq	r0, [r0], -r8
    2ef0:	e0041500 	and	r1, r4, r0, lsl #10
    2ef4:	13000000 	movwne	r0, #0
    2ef8:	000c1101 	andeq	r1, ip, r1, lsl #2
    2efc:	01c00100 	biceq	r0, r0, r0, lsl #2
    2f00:	0000004c 	andeq	r0, r0, ip, asr #32
    2f04:	00000a84 	andeq	r0, r0, r4, lsl #21
    2f08:	00000ad4 	ldrdeq	r0, [r0], -r4
    2f0c:	20315d01 	eorscs	r5, r1, r1, lsl #26
    2f10:	1d140000 	ldcne	0, cr0, [r4]
    2f14:	0100000c 	tsteq	r0, ip
    2f18:	002000c0 	eoreq	r0, r0, r0, asr #1
    2f1c:	00011600 	andeq	r1, r1, r0, lsl #12
    2f20:	01160000 	tsteq	r6, r0
    2f24:	00001255 	andeq	r1, r0, r5, asr r2
    2f28:	d401da01 	strle	sp, [r1], #-2561	; 0xa01
    2f2c:	0400000a 	streq	r0, [r0], #-10
    2f30:	0100000b 	tsteq	r0, fp
    2f34:	0020565d 	eoreq	r5, r0, sp, asr r6
    2f38:	0f2b1700 	svceq	0x002b1700
    2f3c:	da010000 	ble	42f44 <__bss_end+0x3ecbc>
    2f40:	00000057 	andeq	r0, r0, r7, asr r0
    2f44:	18005001 	stmdane	r0, {r0, ip, lr}
    2f48:	0000136f 	andeq	r1, r0, pc, ror #6
    2f4c:	20671601 	rsbcs	r1, r7, r1, lsl #12
    2f50:	03050000 	movweq	r0, #20480	; 0x5000
    2f54:	00004260 	andeq	r4, r0, r0, ror #4
    2f58:	1f280415 	svcne	0x00280415
    2f5c:	b8190000 	ldmdalt	r9, {}
    2f60:	01000012 	tsteq	r0, r2, lsl r0
    2f64:	00005e17 	andeq	r5, r0, r7, lsl lr
    2f68:	03050100 	movweq	r0, #20736	; 0x5100
    2f6c:	00004284 	andeq	r4, r0, r4, lsl #5
    2f70:	0021b800 	eoreq	fp, r1, r0, lsl #16
    2f74:	53000200 	movwpl	r0, #512	; 0x200
    2f78:	04000005 	streq	r0, [r0], #-5
    2f7c:	00005501 	andeq	r5, r0, r1, lsl #10
    2f80:	161f0100 	ldrne	r0, [pc], -r0, lsl #2
    2f84:	028b0000 	addeq	r0, fp, #0
    2f88:	0b040000 	bleq	102f90 <__bss_end+0xfed08>
    2f8c:	12900000 	addsne	r0, r0, #0
    2f90:	04d80000 	ldrbeq	r0, [r8]
    2f94:	01020000 	tsteq	r2, r0
    2f98:	00018f06 	andeq	r8, r1, r6, lsl #30
    2f9c:	02f80300 	rscseq	r0, r8, #0
    2fa0:	0f020000 	svceq	0x00020000
    2fa4:	00000037 	andeq	r0, r0, r7, lsr r0
    2fa8:	8d080102 	stfhis	f0, [r8, #-8]
    2fac:	02000001 	andeq	r0, r0, #1
    2fb0:	00610502 	rsbeq	r0, r1, r2, lsl #10
    2fb4:	02020000 	andeq	r0, r2, #0
    2fb8:	00026807 	andeq	r6, r2, r7, lsl #16
    2fbc:	01f70300 	mvnseq	r0, r0, lsl #6
    2fc0:	12020000 	andne	r0, r2, #0
    2fc4:	00000057 	andeq	r0, r0, r7, asr r0
    2fc8:	69050404 	stmdbvs	r5, {r2, sl}
    2fcc:	0300746e 	movweq	r7, #1134	; 0x46e
    2fd0:	00000108 	andeq	r0, r0, r8, lsl #2
    2fd4:	00691302 	rsbeq	r1, r9, r2, lsl #6
    2fd8:	04020000 	streq	r0, [r2]
    2fdc:	00022e07 	andeq	r2, r2, r7, lsl #28
    2fe0:	05080200 	streq	r0, [r8, #-512]	; 0x200
    2fe4:	0000011c 	andeq	r0, r0, ip, lsl r1
    2fe8:	24070802 	strcs	r0, [r7], #-2050	; 0x802
    2fec:	05000002 	streq	r0, [r0, #-2]
    2ff0:	90060704 	andls	r0, r6, r4, lsl #14
    2ff4:	0400000f 	streq	r0, [r0], #-15
    2ff8:	017c1703 	cmneq	ip, r3, lsl #14
    2ffc:	00070000 	andeq	r0, r7, r0
    3000:	03000000 	movweq	r0, #0
    3004:	00005e18 	andeq	r5, r0, r8, lsl lr
    3008:	1e020400 	cfcpysne	mvf0, mvf2
    300c:	07002302 	streq	r2, [r0, -r2, lsl #6]
    3010:	00001466 	andeq	r1, r0, r6, ror #8
    3014:	005e1903 	subseq	r1, lr, r3, lsl #18
    3018:	01040000 	tsteq	r4, r0
    301c:	0023021d 	eoreq	r0, r3, sp, lsl r2
    3020:	0011a107 	andseq	sl, r1, r7, lsl #2
    3024:	5e1a0300 	cdppl	3, 1, cr0, cr10, cr0, {0}
    3028:	04000000 	streq	r0, [r0]
    302c:	23021c01 	movwcs	r1, #11265	; 0x2c01
    3030:	03960700 	orrseq	r0, r6, #0
    3034:	1b030000 	blne	c303c <__bss_end+0xbedb4>
    3038:	0000005e 	andeq	r0, r0, lr, asr r0
    303c:	021a0204 	andseq	r0, sl, #1073741824	; 0x40000000
    3040:	b3070023 	movwlt	r0, #28707	; 0x7023
    3044:	03000005 	movweq	r0, #5
    3048:	00005e1c 	andeq	r5, r0, ip, lsl lr
    304c:	18020400 	stmdane	r2, {sl}
    3050:	07002302 	streq	r2, [r0, -r2, lsl #6]
    3054:	00000008 	andeq	r0, r0, r8
    3058:	005e1d03 	subseq	r1, lr, r3, lsl #26
    305c:	05040000 	streq	r0, [r4]
    3060:	00230213 	eoreq	r0, r3, r3, lsl r2
    3064:	0014d307 	andseq	sp, r4, r7, lsl #6
    3068:	5e1e0300 	cdppl	3, 1, cr0, cr14, cr0, {0}
    306c:	04000000 	streq	r0, [r0]
    3070:	23021003 	movwcs	r1, #8195	; 0x2003
    3074:	0bd20700 	bleq	ff484c7c <__bss_end+0xff4809f4>
    3078:	1f030000 	svcne	0x00030000
    307c:	0000005e 	andeq	r0, r0, lr, asr r0
    3080:	020e0204 	andeq	r0, lr, #1073741824	; 0x40000000
    3084:	bd070023 	stclt	0, cr0, [r7, #-140]	; 0xffffff74
    3088:	03000005 	movweq	r0, #5
    308c:	00005e20 	andeq	r5, r0, r0, lsr #28
    3090:	0c020400 	cfstrseq	mvf0, [r2], {0}
    3094:	07002302 	streq	r2, [r0, -r2, lsl #6]
    3098:	00001336 	andeq	r1, r0, r6, lsr r3
    309c:	005e2103 	subseq	r2, lr, r3, lsl #2
    30a0:	05040000 	streq	r0, [r4]
    30a4:	00230207 	eoreq	r0, r3, r7, lsl #4
    30a8:	0005c707 	andeq	ip, r5, r7, lsl #14
    30ac:	5e220300 	cdppl	3, 2, cr0, cr2, cr0, {0}
    30b0:	04000000 	streq	r0, [r0]
    30b4:	23020601 	movwcs	r0, #9729	; 0x2601
    30b8:	11f10700 	mvnsne	r0, r0, lsl #14
    30bc:	23030000 	movwcs	r0, #12288	; 0x3000
    30c0:	0000005e 	andeq	r0, r0, lr, asr r0
    30c4:	02020404 	andeq	r0, r2, #67108864	; 0x4000000
    30c8:	fd070023 	stc2	0, cr0, [r7, #-140]	; 0xffffff74
    30cc:	0300000e 	movweq	r0, #14
    30d0:	00005e24 	andeq	r5, r0, r4, lsr #28
    30d4:	01010400 	tsteq	r1, r0, lsl #8
    30d8:	07002302 	streq	r2, [r0, -r2, lsl #6]
    30dc:	000012cf 	andeq	r1, r0, pc, asr #5
    30e0:	005e2503 	subseq	r2, lr, r3, lsl #10
    30e4:	01040000 	tsteq	r4, r0
    30e8:	00230200 	eoreq	r0, r3, r0, lsl #4
    30ec:	0d4f0300 	stcleq	3, cr0, [pc]
    30f0:	27030000 	strcs	r0, [r3, -r0]
    30f4:	00000081 	andeq	r0, r0, r1, lsl #1
    30f8:	00141306 	andseq	r1, r4, r6, lsl #6
    30fc:	2a030400 	bcs	c4104 <__bss_end+0xbfe7c>
    3100:	000001fa 	strdeq	r0, [r0], -sl
    3104:	0005b307 	andeq	fp, r5, r7, lsl #6
    3108:	5e2b0300 	cdppl	3, 2, cr0, cr11, cr0, {0}
    310c:	04000000 	streq	r0, [r0]
    3110:	23021010 	movwcs	r1, #8208	; 0x2010
    3114:	13230700 	teqne	r3, #0
    3118:	2c030000 	stccs	0, cr0, [r3], {0}
    311c:	0000005e 	andeq	r0, r0, lr, asr r0
    3120:	02090704 	andeq	r0, r9, #1048576	; 0x100000
    3124:	7c070023 	stcvc	0, cr0, [r7], {35}	; 0x23
    3128:	03000008 	movweq	r0, #8
    312c:	00005e2d 	andeq	r5, r0, sp, lsr #28
    3130:	06030400 	streq	r0, [r3], -r0, lsl #8
    3134:	07002302 	streq	r2, [r0, -r2, lsl #6]
    3138:	0000153a 	andeq	r1, r0, sl, lsr r5
    313c:	005e2e03 	subseq	r2, lr, r3, lsl #28
    3140:	01040000 	tsteq	r4, r0
    3144:	00230205 	eoreq	r0, r3, r5, lsl #4
    3148:	00099b07 	andeq	r9, r9, r7, lsl #22
    314c:	5e2f0300 	cdppl	3, 2, cr0, cr15, cr0, {0}
    3150:	04000000 	streq	r0, [r0]
    3154:	23020401 	movwcs	r0, #9217	; 0x2401
    3158:	0d140700 	ldceq	7, cr0, [r4]
    315c:	30030000 	andcc	r0, r3, r0
    3160:	0000005e 	andeq	r0, r0, lr, asr r0
    3164:	02000404 	andeq	r0, r0, #67108864	; 0x4000000
    3168:	03000023 	movweq	r0, #35	; 0x23
    316c:	00000a38 	andeq	r0, r0, r8, lsr sl
    3170:	01873103 	orreq	r3, r7, r3, lsl #2
    3174:	47060000 	strmi	r0, [r6, -r0]
    3178:	0400000f 	streq	r0, [r0], #-15
    317c:	02ab3503 	adceq	r3, fp, #12582912	; 0xc00000
    3180:	04070000 	streq	r0, [r7]
    3184:	03000015 	movweq	r0, #21
    3188:	00005e36 	andeq	r5, r0, r6, lsr lr
    318c:	1b050400 	blne	144194 <__bss_end+0x13ff0c>
    3190:	07002302 	streq	r2, [r0, -r2, lsl #6]
    3194:	000005b3 	undefined instruction 0x000005b3
    3198:	005e3703 	subseq	r3, lr, r3, lsl #14
    319c:	03040000 	movweq	r0, #16384	; 0x4000
    31a0:	00230218 	eoreq	r0, r3, r8, lsl r2
    31a4:	00000807 	andeq	r0, r0, r7, lsl #16
    31a8:	5e380300 	cdppl	3, 3, cr0, cr8, cr0, {0}
    31ac:	04000000 	streq	r0, [r0]
    31b0:	23021107 	movwcs	r1, #8455	; 0x2107
    31b4:	05bd0700 	ldreq	r0, [sp, #1792]!	; 0x700
    31b8:	39030000 	stmdbcc	r3, {}
    31bc:	0000005e 	andeq	r0, r0, lr, asr r0
    31c0:	02100104 	andseq	r0, r0, #1
    31c4:	36070023 	strcc	r0, [r7], -r3, lsr #32
    31c8:	03000013 	movweq	r0, #19
    31cc:	00005e3a 	andeq	r5, r0, sl, lsr lr
    31d0:	0b050400 	bleq	1441d8 <__bss_end+0x13ff50>
    31d4:	07002302 	streq	r2, [r0, -r2, lsl #6]
    31d8:	000014fc 	strdeq	r1, [r0], -ip
    31dc:	005e3b03 	subseq	r3, lr, r3, lsl #22
    31e0:	05040000 	streq	r0, [r4]
    31e4:	00230206 	eoreq	r0, r3, r6, lsl #4
    31e8:	0008e707 	andeq	lr, r8, r7, lsl #14
    31ec:	5e3c0300 	cdppl	3, 3, cr0, cr12, cr0, {0}
    31f0:	04000000 	streq	r0, [r0]
    31f4:	23020204 	movwcs	r0, #8708	; 0x2204
    31f8:	05c70700 	strbeq	r0, [r7, #1792]	; 0x700
    31fc:	3d030000 	stccc	0, cr0, [r3]
    3200:	0000005e 	andeq	r0, r0, lr, asr r0
    3204:	02010104 	andeq	r0, r1, #1
    3208:	cf070023 	svcgt	0x00070023
    320c:	03000012 	movweq	r0, #18
    3210:	00005e3e 	andeq	r5, r0, lr, lsr lr
    3214:	00010400 	andeq	r0, r1, r0, lsl #8
    3218:	00002302 	andeq	r2, r0, r2, lsl #6
    321c:	000b9603 	andeq	r9, fp, r3, lsl #12
    3220:	053f0300 	ldreq	r0, [pc, #-768]!	; 2f28 <save_sun5i_mem_status+0x14>
    3224:	06000002 	streq	r0, [r0], -r2
    3228:	00000861 	andeq	r0, r0, r1, ror #16
    322c:	29430304 	stmdbcs	r3, {r2, r8, r9}^
    3230:	07000003 	streq	r0, [r0, -r3]
    3234:	00000e35 	andeq	r0, r0, r5, lsr lr
    3238:	005e4403 	subseq	r4, lr, r3, lsl #8
    323c:	11040000 	tstne	r4, r0
    3240:	0023020f 	eoreq	r0, r3, pc, lsl #4
    3244:	00154e07 	andseq	r4, r5, r7, lsl #28
    3248:	5e450300 	cdppl	3, 4, cr0, cr5, cr0, {0}
    324c:	04000000 	streq	r0, [r0]
    3250:	23020d02 	movwcs	r0, #11522	; 0x2d02
    3254:	05b30700 	ldreq	r0, [r3, #1792]!	; 0x700
    3258:	46030000 	strmi	r0, [r3], -r0
    325c:	0000005e 	andeq	r0, r0, lr, asr r0
    3260:	020c0104 	andeq	r0, ip, #1
    3264:	c9070023 	stmdbgt	r7, {r0, r1, r5}
    3268:	03000007 	movweq	r0, #7
    326c:	00005e47 	andeq	r5, r0, r7, asr #28
    3270:	03090400 	movweq	r0, #37888	; 0x9400
    3274:	07002302 	streq	r2, [r0, -r2, lsl #6]
    3278:	00000bc9 	andeq	r0, r0, r9, asr #23
    327c:	005e4803 	subseq	r4, lr, r3, lsl #16
    3280:	02040000 	andeq	r0, r4, #0
    3284:	00230201 	eoreq	r0, r3, r1, lsl #4
    3288:	00146607 	andseq	r6, r4, r7, lsl #12
    328c:	5e490300 	cdppl	3, 4, cr0, cr9, cr0, {0}
    3290:	04000000 	streq	r0, [r0]
    3294:	23020001 	movwcs	r0, #8193	; 0x2001
    3298:	84030000 	strhi	r0, [r3]
    329c:	03000011 	movweq	r0, #17
    32a0:	0002b64b 	andeq	fp, r2, fp, asr #12
    32a4:	11b20600 	undefined instruction 0x11b20600
    32a8:	03040000 	movweq	r0, #16384	; 0x4000
    32ac:	0003fc4f 	andeq	pc, r3, pc, asr #24
    32b0:	00000700 	andeq	r0, r0, r0, lsl #14
    32b4:	50030000 	andpl	r0, r3, r0
    32b8:	0000005e 	andeq	r0, r0, lr, asr r0
    32bc:	02190704 	andseq	r0, r9, #1048576	; 0x100000
    32c0:	b3070023 	movwlt	r0, #28707	; 0x7023
    32c4:	03000005 	movweq	r0, #5
    32c8:	00005e51 	andeq	r5, r0, r1, asr lr
    32cc:	18010400 	stmdane	r1, {sl}
    32d0:	07002302 	streq	r2, [r0, -r2, lsl #6]
    32d4:	00001336 	andeq	r1, r0, r6, lsr r3
    32d8:	005e5203 	subseq	r5, lr, r3, lsl #4
    32dc:	05040000 	streq	r0, [r4]
    32e0:	00230213 	eoreq	r0, r3, r3, lsl r2
    32e4:	0005bd07 	andeq	fp, r5, r7, lsl #26
    32e8:	5e530300 	cdppl	3, 5, cr0, cr3, cr0, {0}
    32ec:	04000000 	streq	r0, [r0]
    32f0:	23021201 	movwcs	r1, #8705	; 0x2201
    32f4:	0ec50700 	cdpeq	7, 12, cr0, cr5, cr0, {0}
    32f8:	54030000 	strpl	r0, [r3]
    32fc:	0000005e 	andeq	r0, r0, lr, asr r0
    3300:	02110104 	andseq	r0, r1, #1
    3304:	ae070023 	cdpge	0, 0, cr0, cr7, cr3, {1}
    3308:	03000010 	movweq	r0, #16
    330c:	00005e55 	andeq	r5, r0, r5, asr lr
    3310:	10010400 	andne	r0, r1, r0, lsl #8
    3314:	07002302 	streq	r2, [r0, -r2, lsl #6]
    3318:	000011f1 	strdeq	r1, [r0], -r1
    331c:	005e5603 	subseq	r5, lr, r3, lsl #12
    3320:	05040000 	streq	r0, [r4]
    3324:	0023020b 	eoreq	r0, r3, fp, lsl #4
    3328:	0005c707 	andeq	ip, r5, r7, lsl #14
    332c:	5e570300 	cdppl	3, 5, cr0, cr7, cr0, {0}
    3330:	04000000 	streq	r0, [r0]
    3334:	23020803 	movwcs	r0, #10243	; 0x2803
    3338:	0d140700 	ldceq	7, cr0, [r4]
    333c:	58030000 	stmdapl	r3, {}
    3340:	0000005e 	andeq	r0, r0, lr, asr r0
    3344:	02050304 	andeq	r0, r5, #268435456	; 0x10000000
    3348:	d1070023 	tstle	r7, r3, lsr #32
    334c:	03000005 	movweq	r0, #5
    3350:	00005e59 	andeq	r5, r0, r9, asr lr
    3354:	01040400 	tsteq	r4, r0, lsl #8
    3358:	07002302 	streq	r2, [r0, -r2, lsl #6]
    335c:	000012cf 	andeq	r1, r0, pc, asr #5
    3360:	005e5a03 	subseq	r5, lr, r3, lsl #20
    3364:	01040000 	tsteq	r4, r0
    3368:	00230200 	eoreq	r0, r3, r0, lsl #4
    336c:	0fdc0300 	svceq	0x00dc0300
    3370:	5b030000 	blpl	c3378 <__bss_end+0xbf0f0>
    3374:	00000334 	andeq	r0, r0, r4, lsr r3
    3378:	000a5506 	andeq	r5, sl, r6, lsl #10
    337c:	5f030400 	svcpl	0x00030400
    3380:	00000502 	andeq	r0, r0, r2, lsl #10
    3384:	00000007 	andeq	r0, r0, r7
    3388:	5e600300 	cdppl	3, 6, cr0, cr0, cr0, {0}
    338c:	04000000 	streq	r0, [r0]
    3390:	23021e02 	movwcs	r1, #11778	; 0x2e02
    3394:	05b30700 	ldreq	r0, [r3, #1792]!	; 0x700
    3398:	61030000 	tstvs	r3, r0
    339c:	0000005e 	andeq	r0, r0, lr, asr r0
    33a0:	021c0204 	andseq	r0, ip, #1073741824	; 0x40000000
    33a4:	96070023 	strls	r0, [r7], -r3, lsr #32
    33a8:	03000003 	movweq	r0, #3
    33ac:	00005e62 	andeq	r5, r0, r2, ror #28
    33b0:	1a020400 	bne	843b8 <__bss_end+0x80130>
    33b4:	07002302 	streq	r2, [r0, -r2, lsl #6]
    33b8:	000005bd 	undefined instruction 0x000005bd
    33bc:	005e6303 	subseq	r6, lr, r3, lsl #6
    33c0:	02040000 	andeq	r0, r4, #0
    33c4:	00230218 	eoreq	r0, r3, r8, lsl r2
    33c8:	00000807 	andeq	r0, r0, r7, lsl #16
    33cc:	5e640300 	cdppl	3, 6, cr0, cr4, cr0, {0}
    33d0:	04000000 	streq	r0, [r0]
    33d4:	23021305 	movwcs	r1, #8965	; 0x2305
    33d8:	05c70700 	strbeq	r0, [r7, #1792]	; 0x700
    33dc:	65030000 	strvs	r0, [r3]
    33e0:	0000005e 	andeq	r0, r0, lr, asr r0
    33e4:	02120104 	andseq	r0, r2, #1
    33e8:	3c070023 	stccc	0, cr0, [r7], {35}	; 0x23
    33ec:	0300000d 	movweq	r0, #13
    33f0:	00005e66 	andeq	r5, r0, r6, ror #28
    33f4:	10020400 	andne	r0, r2, r0, lsl #8
    33f8:	07002302 	streq	r2, [r0, -r2, lsl #6]
    33fc:	00000010 	andeq	r0, r0, r0, lsl r0
    3400:	005e6703 	subseq	r6, lr, r3, lsl #14
    3404:	02040000 	andeq	r0, r4, #0
    3408:	0023020e 	eoreq	r0, r3, lr, lsl #4
    340c:	0005d107 	andeq	sp, r5, r7, lsl #2
    3410:	5e680300 	cdppl	3, 6, cr0, cr8, cr0, {0}
    3414:	04000000 	streq	r0, [r0]
    3418:	23020d01 	movwcs	r0, #11521	; 0x2d01
    341c:	153a0700 	ldrne	r0, [sl, #-1792]!	; 0x700
    3420:	69030000 	stmdbvs	r3, {}
    3424:	0000005e 	andeq	r0, r0, lr, asr r0
    3428:	020c0104 	andeq	r0, ip, #1
    342c:	36070023 	strcc	r0, [r7], -r3, lsr #32
    3430:	03000013 	movweq	r0, #19
    3434:	00005e6a 	andeq	r5, r0, sl, ror #28
    3438:	07050400 	streq	r0, [r5, -r0, lsl #8]
    343c:	07002302 	streq	r2, [r0, -r2, lsl #6]
    3440:	000011f1 	strdeq	r1, [r0], -r1
    3444:	005e6b03 	subseq	r6, lr, r3, lsl #22
    3448:	05040000 	streq	r0, [r4]
    344c:	00230202 	eoreq	r0, r3, r2, lsl #4
    3450:	000eb007 	andeq	fp, lr, r7
    3454:	5e6c0300 	cdppl	3, 6, cr0, cr12, cr0, {0}
    3458:	04000000 	streq	r0, [r0]
    345c:	23020101 	movwcs	r0, #8449	; 0x2101
    3460:	12cf0700 	sbcne	r0, pc, #0
    3464:	6d030000 	stcvs	0, cr0, [r3]
    3468:	0000005e 	andeq	r0, r0, lr, asr r0
    346c:	02000104 	andeq	r0, r0, #1
    3470:	03000023 	movweq	r0, #35	; 0x23
    3474:	00001579 	andeq	r1, r0, r9, ror r5
    3478:	04076e03 	streq	r6, [r7], #-3587	; 0xe03
    347c:	18060000 	stmdane	r6, {}
    3480:	0400000a 	streq	r0, [r0], #-10
    3484:	06197203 	ldreq	r7, [r9], -r3, lsl #4
    3488:	00070000 	andeq	r0, r7, r0
    348c:	03000000 	movweq	r0, #0
    3490:	00005e73 	andeq	r5, r0, r3, ror lr
    3494:	1e020400 	cfcpysne	mvf0, mvf2
    3498:	07002302 	streq	r2, [r0, -r2, lsl #6]
    349c:	000013e9 	andeq	r1, r0, r9, ror #7
    34a0:	005e7403 	subseq	r7, lr, r3, lsl #8
    34a4:	02040000 	andeq	r0, r4, #0
    34a8:	0023021c 	eoreq	r0, r3, ip, lsl r2
    34ac:	00039607 	andeq	r9, r3, r7, lsl #12
    34b0:	5e750300 	cdppl	3, 7, cr0, cr5, cr0, {0}
    34b4:	04000000 	streq	r0, [r0]
    34b8:	23021a02 	movwcs	r1, #10754	; 0x2a02
    34bc:	05b30700 	ldreq	r0, [r3, #1792]!	; 0x700
    34c0:	76030000 	strvc	r0, [r3], -r0
    34c4:	0000005e 	andeq	r0, r0, lr, asr r0
    34c8:	02190104 	andseq	r0, r9, #1
    34cc:	e2070023 	and	r0, r7, #35	; 0x23
    34d0:	03000013 	movweq	r0, #19
    34d4:	00005e77 	andeq	r5, r0, r7, ror lr
    34d8:	18010400 	stmdane	r1, {sl}
    34dc:	07002302 	streq	r2, [r0, -r2, lsl #6]
    34e0:	00000008 	andeq	r0, r0, r8
    34e4:	005e7803 	subseq	r7, lr, r3, lsl #16
    34e8:	05040000 	streq	r0, [r4]
    34ec:	00230213 	eoreq	r0, r3, r3, lsl r2
    34f0:	00153a07 	andseq	r3, r5, r7, lsl #20
    34f4:	5e790300 	cdppl	3, 7, cr0, cr9, cr0, {0}
    34f8:	04000000 	streq	r0, [r0]
    34fc:	23021003 	movwcs	r1, #8195	; 0x2003
    3500:	00100700 	andseq	r0, r0, r0, lsl #14
    3504:	7a030000 	bvc	c350c <__bss_end+0xbf284>
    3508:	0000005e 	andeq	r0, r0, lr, asr r0
    350c:	020e0204 	andeq	r0, lr, #1073741824	; 0x40000000
    3510:	9b070023 	blls	1c35a4 <__bss_end+0x1bf31c>
    3514:	03000009 	movweq	r0, #9
    3518:	00005e7b 	andeq	r5, r0, fp, ror lr
    351c:	0d010400 	cfstrseq	mvf0, [r1]
    3520:	07002302 	streq	r2, [r0, -r2, lsl #6]
    3524:	0000090c 	andeq	r0, r0, ip, lsl #18
    3528:	005e7c03 	subseq	r7, lr, r3, lsl #24
    352c:	01040000 	tsteq	r4, r0
    3530:	0023020c 	eoreq	r0, r3, ip, lsl #4
    3534:	00133607 	andseq	r3, r3, r7, lsl #12
    3538:	5e7d0300 	cdppl	3, 7, cr0, cr13, cr0, {0}
    353c:	04000000 	streq	r0, [r0]
    3540:	23020705 	movwcs	r0, #9989	; 0x2705
    3544:	11f10700 	mvnsne	r0, r0, lsl #14
    3548:	7e030000 	cdpvc	0, 0, cr0, cr3, cr0, {0}
    354c:	0000005e 	andeq	r0, r0, lr, asr r0
    3550:	02030404 	andeq	r0, r3, #67108864	; 0x4000000
    3554:	a9070023 	stmdbge	r7, {r0, r1, r5}
    3558:	03000011 	movweq	r0, #17
    355c:	00005e7f 	andeq	r5, r0, pc, ror lr
    3560:	02010400 	andeq	r0, r1, #0
    3564:	07002302 	streq	r2, [r0, -r2, lsl #6]
    3568:	00000eb0 	undefined instruction 0x00000eb0
    356c:	005e8003 	subseq	r8, lr, r3
    3570:	01040000 	tsteq	r4, r0
    3574:	00230201 	eoreq	r0, r3, r1, lsl #4
    3578:	0012cf07 	andseq	ip, r2, r7, lsl #30
    357c:	5e810300 	cdppl	3, 8, cr0, cr1, cr0, {0}
    3580:	04000000 	streq	r0, [r0]
    3584:	23020001 	movwcs	r0, #8193	; 0x2001
    3588:	7c030000 	stcvc	0, cr0, [r3], {0}
    358c:	0300000b 	movweq	r0, #11
    3590:	00050d82 	andeq	r0, r5, r2, lsl #27
    3594:	151f0600 	ldrne	r0, [pc, #-1536]	; 2f9c <init_perfcounters+0x1c>
    3598:	03040000 	movweq	r0, #16384	; 0x4000
    359c:	0006a886 	andeq	sl, r6, r6, lsl #17
    35a0:	05b30700 	ldreq	r0, [r3, #1792]!	; 0x700
    35a4:	87030000 	strhi	r0, [r3, -r0]
    35a8:	0000005e 	andeq	r0, r0, lr, asr r0
    35ac:	02101004 	andseq	r1, r0, #4
    35b0:	23070023 	movwcs	r0, #28707	; 0x7023
    35b4:	03000013 	movweq	r0, #19
    35b8:	00005e88 	andeq	r5, r0, r8, lsl #29
    35bc:	09070400 	stmdbeq	r7, {sl}
    35c0:	07002302 	streq	r2, [r0, -r2, lsl #6]
    35c4:	00000efd 	strdeq	r0, [r0], -sp
    35c8:	005e8903 	subseq	r8, lr, r3, lsl #18
    35cc:	01040000 	tsteq	r4, r0
    35d0:	00230208 	eoreq	r0, r3, r8, lsl #4
    35d4:	0014d307 	andseq	sp, r4, r7, lsl #6
    35d8:	5e8a0300 	cdppl	3, 8, cr0, cr10, cr0, {0}
    35dc:	04000000 	streq	r0, [r0]
    35e0:	23020503 	movwcs	r0, #9475	; 0x2503
    35e4:	05bd0700 	ldreq	r0, [sp, #1792]!	; 0x700
    35e8:	8b030000 	blhi	c35f0 <__bss_end+0xbf368>
    35ec:	0000005e 	andeq	r0, r0, lr, asr r0
    35f0:	02040104 	andeq	r0, r4, #1
    35f4:	93070023 	movwls	r0, #28707	; 0x7023
    35f8:	03000013 	movweq	r0, #19
    35fc:	00005e8c 	andeq	r5, r0, ip, lsl #29
    3600:	03010400 	movweq	r0, #5120	; 0x1400
    3604:	07002302 	streq	r2, [r0, -r2, lsl #6]
    3608:	00000d14 	andeq	r0, r0, r4, lsl sp
    360c:	005e8d03 	subseq	r8, lr, r3, lsl #26
    3610:	03040000 	movweq	r0, #16384	; 0x4000
    3614:	00230200 	eoreq	r0, r3, r0, lsl #4
    3618:	0f730300 	svceq	0x00730300
    361c:	8e030000 	cdphi	0, 0, cr0, cr3, cr0, {0}
    3620:	00000624 	andeq	r0, r0, r4, lsr #12
    3624:	000adb06 	andeq	sp, sl, r6, lsl #22
    3628:	91030400 	tstls	r3, r0, lsl #8
    362c:	0000078c 	andeq	r0, r0, ip, lsl #15
    3630:	00000007 	andeq	r0, r0, r7
    3634:	5e920300 	cdppl	3, 9, cr0, cr2, cr0, {0}
    3638:	04000000 	streq	r0, [r0]
    363c:	23021e02 	movwcs	r1, #11778	; 0x2e02
    3640:	05b30700 	ldreq	r0, [r3, #1792]!	; 0x700
    3644:	93030000 	movwls	r0, #12288	; 0x3000
    3648:	0000005e 	andeq	r0, r0, lr, asr r0
    364c:	021c0204 	andseq	r0, ip, #1073741824	; 0x40000000
    3650:	96070023 	strls	r0, [r7], -r3, lsr #32
    3654:	03000003 	movweq	r0, #3
    3658:	00005e94 	muleq	r0, r4, lr
    365c:	1a020400 	bne	84664 <__bss_end+0x803dc>
    3660:	07002302 	streq	r2, [r0, -r2, lsl #6]
    3664:	00000d14 	andeq	r0, r0, r4, lsl sp
    3668:	005e9503 	subseq	r9, lr, r3, lsl #10
    366c:	02040000 	andeq	r0, r4, #0
    3670:	00230218 	eoreq	r0, r3, r8, lsl r2
    3674:	00000807 	andeq	r0, r0, r7, lsl #16
    3678:	5e960300 	cdppl	3, 9, cr0, cr6, cr0, {0}
    367c:	04000000 	streq	r0, [r0]
    3680:	23021305 	movwcs	r1, #8965	; 0x2305
    3684:	05bd0700 	ldreq	r0, [sp, #1792]!	; 0x700
    3688:	97030000 	strls	r0, [r3, -r0]
    368c:	0000005e 	andeq	r0, r0, lr, asr r0
    3690:	02110204 	andseq	r0, r1, #1073741824	; 0x40000000
    3694:	9b070023 	blls	1c3728 <__bss_end+0x1bf4a0>
    3698:	03000009 	movweq	r0, #9
    369c:	00005e98 	muleq	r0, r8, lr
    36a0:	10010400 	andne	r0, r1, r0, lsl #8
    36a4:	07002302 	streq	r2, [r0, -r2, lsl #6]
    36a8:	000005c7 	andeq	r0, r0, r7, asr #11
    36ac:	005e9903 	subseq	r9, lr, r3, lsl #18
    36b0:	04040000 	streq	r0, [r4]
    36b4:	0023020c 	eoreq	r0, r3, ip, lsl #4
    36b8:	00133607 	andseq	r3, r3, r7, lsl #12
    36bc:	5e9a0300 	cdppl	3, 9, cr0, cr10, cr0, {0}
    36c0:	04000000 	streq	r0, [r0]
    36c4:	23020705 	movwcs	r0, #9989	; 0x2705
    36c8:	11f10700 	mvnsne	r0, r0, lsl #14
    36cc:	9b030000 	blls	c36d4 <__bss_end+0xbf44c>
    36d0:	0000005e 	andeq	r0, r0, lr, asr r0
    36d4:	02020504 	andeq	r0, r2, #16777216	; 0x1000000
    36d8:	b0070023 	andlt	r0, r7, r3, lsr #32
    36dc:	0300000e 	movweq	r0, #14
    36e0:	00005e9c 	muleq	r0, ip, lr
    36e4:	01010400 	tsteq	r1, r0, lsl #8
    36e8:	07002302 	streq	r2, [r0, -r2, lsl #6]
    36ec:	000012cf 	andeq	r1, r0, pc, asr #5
    36f0:	005e9d03 	subseq	r9, lr, r3, lsl #26
    36f4:	01040000 	tsteq	r4, r0
    36f8:	00230200 	eoreq	r0, r3, r0, lsl #4
    36fc:	09800300 	stmibeq	r0, {r8, r9}
    3700:	9e030000 	cdpls	0, 0, cr0, cr3, cr0, {0}
    3704:	000006b3 	undefined instruction 0x000006b3
    3708:	0010b606 	andseq	fp, r0, r6, lsl #12
    370c:	a2030400 	andge	r0, r3, #0
    3710:	0000085f 	andeq	r0, r0, pc, asr r8
    3714:	00000007 	andeq	r0, r0, r7
    3718:	5ea30300 	cdppl	3, 10, cr0, cr3, cr0, {0}
    371c:	04000000 	streq	r0, [r0]
    3720:	23021907 	movwcs	r1, #10503	; 0x2907
    3724:	05b30700 	ldreq	r0, [r3, #1792]!	; 0x700
    3728:	a4030000 	strge	r0, [r3]
    372c:	0000005e 	andeq	r0, r0, lr, asr r0
    3730:	02180104 	andseq	r0, r8, #1
    3734:	36070023 	strcc	r0, [r7], -r3, lsr #32
    3738:	03000013 	movweq	r0, #19
    373c:	00005ea5 	andeq	r5, r0, r5, lsr #29
    3740:	13050400 	movwne	r0, #21504	; 0x5400
    3744:	07002302 	streq	r2, [r0, -r2, lsl #6]
    3748:	000005bd 	undefined instruction 0x000005bd
    374c:	005ea603 	subseq	sl, lr, r3, lsl #12
    3750:	01040000 	tsteq	r4, r0
    3754:	00230212 	eoreq	r0, r3, r2, lsl r2
    3758:	000ec507 	andeq	ip, lr, r7, lsl #10
    375c:	5ea70300 	cdppl	3, 10, cr0, cr7, cr0, {0}
    3760:	04000000 	streq	r0, [r0]
    3764:	23021101 	movwcs	r1, #8449	; 0x2101
    3768:	10ae0700 	adcne	r0, lr, r0, lsl #14
    376c:	a8030000 	stmdage	r3, {}
    3770:	0000005e 	andeq	r0, r0, lr, asr r0
    3774:	02100104 	andseq	r0, r0, #1
    3778:	f1070023 	undefined instruction 0xf1070023
    377c:	03000011 	movweq	r0, #17
    3780:	00005ea9 	andeq	r5, r0, r9, lsr #29
    3784:	0b050400 	bleq	14478c <__bss_end+0x140504>
    3788:	07002302 	streq	r2, [r0, -r2, lsl #6]
    378c:	000005c7 	andeq	r0, r0, r7, asr #11
    3790:	005eaa03 	subseq	sl, lr, r3, lsl #20
    3794:	03040000 	movweq	r0, #16384	; 0x4000
    3798:	00230208 	eoreq	r0, r3, r8, lsl #4
    379c:	000d1407 	andeq	r1, sp, r7, lsl #8
    37a0:	5eab0300 	cdppl	3, 10, cr0, cr11, cr0, {0}
    37a4:	04000000 	streq	r0, [r0]
    37a8:	23020503 	movwcs	r0, #9475	; 0x2503
    37ac:	05d10700 	ldrbeq	r0, [r1, #1792]	; 0x700
    37b0:	ac030000 	stcge	0, cr0, [r3], {0}
    37b4:	0000005e 	andeq	r0, r0, lr, asr r0
    37b8:	02010404 	andeq	r0, r1, #67108864	; 0x4000000
    37bc:	cf070023 	svcgt	0x00070023
    37c0:	03000012 	movweq	r0, #18
    37c4:	00005ead 	andeq	r5, r0, sp, lsr #29
    37c8:	00010400 	andeq	r0, r1, r0, lsl #8
    37cc:	00002302 	andeq	r2, r0, r2, lsl #6
    37d0:	00107503 	andseq	r7, r0, r3, lsl #10
    37d4:	97ae0300 	strls	r0, [lr, r0, lsl #6]!
    37d8:	06000007 	streq	r0, [r0], -r7
    37dc:	00001268 	andeq	r1, r0, r8, ror #4
    37e0:	ddb20304 	ldcle	3, cr0, [r2, #16]!
    37e4:	07000008 	streq	r0, [r0, -r8]
    37e8:	00000e35 	andeq	r0, r0, r5, lsr lr
    37ec:	005eb303 	subseq	fp, lr, r3, lsl #6
    37f0:	11040000 	tstne	r4, r0
    37f4:	0023020f 	eoreq	r0, r3, pc, lsl #4
    37f8:	00154e07 	andseq	r4, r5, r7, lsl #28
    37fc:	5eb40300 	cdppl	3, 11, cr0, cr4, cr0, {0}
    3800:	04000000 	streq	r0, [r0]
    3804:	23020d02 	movwcs	r0, #11522	; 0x2d02
    3808:	05b30700 	ldreq	r0, [r3, #1792]!	; 0x700
    380c:	b5030000 	strlt	r0, [r3]
    3810:	0000005e 	andeq	r0, r0, lr, asr r0
    3814:	020c0104 	andeq	r0, ip, #1
    3818:	c9070023 	stmdbgt	r7, {r0, r1, r5}
    381c:	03000007 	movweq	r0, #7
    3820:	00005eb6 	undefined instruction 0x00005eb6
    3824:	03090400 	movweq	r0, #37888	; 0x9400
    3828:	07002302 	streq	r2, [r0, -r2, lsl #6]
    382c:	00000bc9 	andeq	r0, r0, r9, asr #23
    3830:	005eb703 	subseq	fp, lr, r3, lsl #14
    3834:	02040000 	andeq	r0, r4, #0
    3838:	00230201 	eoreq	r0, r3, r1, lsl #4
    383c:	00146607 	andseq	r6, r4, r7, lsl #12
    3840:	5eb80300 	cdppl	3, 11, cr0, cr8, cr0, {0}
    3844:	04000000 	streq	r0, [r0]
    3848:	23020001 	movwcs	r0, #8193	; 0x2001
    384c:	49030000 	stmdbmi	r3, {}
    3850:	03000009 	movweq	r0, #9
    3854:	00086ab9 	undefined instruction 0x00086ab9
    3858:	11cc0600 	bicne	r0, ip, r0, lsl #12
    385c:	03040000 	movweq	r0, #16384	; 0x4000
    3860:	00095bbd 	undefined instruction 0x00095bbd
    3864:	0e350700 	cdpeq	7, 3, cr0, cr5, cr0, {0}
    3868:	be030000 	cdplt	0, 0, cr0, cr3, cr0, {0}
    386c:	0000005e 	andeq	r0, r0, lr, asr r0
    3870:	020f1104 	andeq	r1, pc, #1
    3874:	4e070023 	cdpmi	0, 0, cr0, cr7, cr3, {1}
    3878:	03000015 	movweq	r0, #21
    387c:	00005ebf 	undefined instruction 0x00005ebf
    3880:	0d020400 	cfstrseq	mvf0, [r2]
    3884:	07002302 	streq	r2, [r0, -r2, lsl #6]
    3888:	000005b3 	undefined instruction 0x000005b3
    388c:	005ec003 	subseq	ip, lr, r3
    3890:	01040000 	tsteq	r4, r0
    3894:	0023020c 	eoreq	r0, r3, ip, lsl #4
    3898:	0007c907 	andeq	ip, r7, r7, lsl #18
    389c:	5ec10300 	cdppl	3, 12, cr0, cr1, cr0, {0}
    38a0:	04000000 	streq	r0, [r0]
    38a4:	23020309 	movwcs	r0, #8969	; 0x2309
    38a8:	0bc90700 	bleq	ff2454b0 <__bss_end+0xff241228>
    38ac:	c2030000 	andgt	r0, r3, #0
    38b0:	0000005e 	andeq	r0, r0, lr, asr r0
    38b4:	02010204 	andeq	r0, r1, #1073741824	; 0x40000000
    38b8:	66070023 	strvs	r0, [r7], -r3, lsr #32
    38bc:	03000014 	movweq	r0, #20
    38c0:	00005ec3 	andeq	r5, r0, r3, asr #29
    38c4:	00010400 	andeq	r0, r1, r0, lsl #8
    38c8:	00002302 	andeq	r2, r0, r2, lsl #6
    38cc:	00139e03 	andseq	r9, r3, r3, lsl #28
    38d0:	e8c40300 	stmia	r4, {r8, r9}^
    38d4:	06000008 	streq	r0, [r0], -r8
    38d8:	0000110f 	andeq	r1, r0, pc, lsl #2
    38dc:	1dc80304 	stclne	3, cr0, [r8, #16]
    38e0:	0700000a 	streq	r0, [r0, -sl]
    38e4:	000012af 	andeq	r1, r0, pc, lsr #5
    38e8:	005ec903 	subseq	ip, lr, r3, lsl #18
    38ec:	01040000 	tsteq	r4, r0
    38f0:	0023021f 	eoreq	r0, r3, pc, lsl r2
    38f4:	00104c07 	andseq	r4, r0, r7, lsl #24
    38f8:	5eca0300 	cdppl	3, 12, cr0, cr10, cr0, {0}
    38fc:	04000000 	streq	r0, [r0]
    3900:	23021e01 	movwcs	r1, #11777	; 0x2e01
    3904:	05b30700 	ldreq	r0, [r3, #1792]!	; 0x700
    3908:	cb030000 	blgt	c3910 <__bss_end+0xbf688>
    390c:	0000005e 	andeq	r0, r0, lr, asr r0
    3910:	021c0204 	andseq	r0, ip, #1073741824	; 0x40000000
    3914:	9a070023 	bls	1c39a8 <__bss_end+0x1bf720>
    3918:	0300000c 	movweq	r0, #12
    391c:	00005ecc 	andeq	r5, r0, ip, asr #29
    3920:	1b010400 	blne	44928 <__bss_end+0x406a0>
    3924:	07002302 	streq	r2, [r0, -r2, lsl #6]
    3928:	000005bd 	undefined instruction 0x000005bd
    392c:	005ecd03 	subseq	ip, lr, r3, lsl #26
    3930:	0a040000 	beq	103938 <__bss_end+0xff6b0>
    3934:	00230211 	eoreq	r0, r3, r1, lsl r2
    3938:	000eeb07 	andeq	lr, lr, r7, lsl #22
    393c:	5ece0300 	cdppl	3, 12, cr0, cr14, cr0, {0}
    3940:	04000000 	streq	r0, [r0]
    3944:	23021001 	movwcs	r1, #8193	; 0x2001
    3948:	097a0700 	ldmdbeq	sl!, {r8, r9, sl}^
    394c:	cf030000 	svcgt	0x00030000
    3950:	0000005e 	andeq	r0, r0, lr, asr r0
    3954:	020f0104 	andeq	r0, pc, #1
    3958:	16070023 	strne	r0, [r7], -r3, lsr #32
    395c:	03000009 	movweq	r0, #9
    3960:	00005ed0 	ldrdeq	r5, [r0], -r0
    3964:	0e010400 	cfcpyseq	mvf0, mvf1
    3968:	07002302 	streq	r2, [r0, -r2, lsl #6]
    396c:	00000aa2 	andeq	r0, r0, r2, lsr #21
    3970:	005ed103 	subseq	sp, lr, r3, lsl #2
    3974:	03040000 	movweq	r0, #16384	; 0x4000
    3978:	0023020b 	eoreq	r0, r3, fp, lsl #4
    397c:	00114107 	andseq	r4, r1, r7, lsl #2
    3980:	5ed20300 	cdppl	3, 13, cr0, cr2, cr0, {0}
    3984:	04000000 	streq	r0, [r0]
    3988:	2302000b 	movwcs	r0, #8203	; 0x200b
    398c:	2b030000 	blcs	c3994 <__bss_end+0xbf70c>
    3990:	0300000b 	movweq	r0, #11
    3994:	000966d5 	ldrdeq	r6, [r9], -r5
    3998:	12ef0600 	rscne	r0, pc, #0
    399c:	03040000 	movweq	r0, #16384	; 0x4000
    39a0:	000abdd9 	ldrdeq	fp, [sl], -r9
    39a4:	150c0700 	strne	r0, [ip, #-1792]	; 0x700
    39a8:	da030000 	ble	c39b0 <__bss_end+0xbf728>
    39ac:	0000005e 	andeq	r0, r0, lr, asr r0
    39b0:	021e0204 	andseq	r0, lr, #1073741824	; 0x40000000
    39b4:	b3070023 	movwlt	r0, #28707	; 0x7023
    39b8:	03000005 	movweq	r0, #5
    39bc:	00005edb 	ldrdeq	r5, [r0], -fp
    39c0:	1c020400 	cfstrsne	mvf0, [r2], {0}
    39c4:	07002302 	streq	r2, [r0, -r2, lsl #6]
    39c8:	00000c42 	andeq	r0, r0, r2, asr #24
    39cc:	005edc03 	subseq	sp, lr, r3, lsl #24
    39d0:	02040000 	andeq	r0, r4, #0
    39d4:	0023021a 	eoreq	r0, r3, sl, lsl r2
    39d8:	00159d07 	andseq	r9, r5, r7, lsl #26
    39dc:	5edd0300 	cdppl	3, 13, cr0, cr13, cr0, {0}
    39e0:	04000000 	streq	r0, [r0]
    39e4:	23021802 	movwcs	r1, #10242	; 0x2802
    39e8:	15920700 	ldrne	r0, [r2, #1792]	; 0x700
    39ec:	de030000 	cdple	0, 0, cr0, cr3, cr0, {0}
    39f0:	0000005e 	andeq	r0, r0, lr, asr r0
    39f4:	02160204 	andseq	r0, r6, #1073741824	; 0x40000000
    39f8:	bd070023 	stclt	0, cr0, [r7, #-140]	; 0xffffff74
    39fc:	03000005 	movweq	r0, #5
    3a00:	00005edf 	ldrdeq	r5, [r0], -pc
    3a04:	10060400 	andne	r0, r6, r0, lsl #8
    3a08:	07002302 	streq	r2, [r0, -r2, lsl #6]
    3a0c:	00001542 	andeq	r1, r0, r2, asr #10
    3a10:	005ee003 	subseq	lr, lr, r3
    3a14:	02040000 	andeq	r0, r4, #0
    3a18:	0023020e 	eoreq	r0, r3, lr, lsl #4
    3a1c:	0005c707 	andeq	ip, r5, r7, lsl #14
    3a20:	5ee10300 	cdppl	3, 14, cr0, cr1, cr0, {0}
    3a24:	04000000 	streq	r0, [r0]
    3a28:	2302000e 	movwcs	r0, #8206	; 0x200e
    3a2c:	6e030000 	cdpvs	0, 0, cr0, cr3, cr0, {0}
    3a30:	03000014 	movweq	r0, #20
    3a34:	000a28e2 	andeq	r2, sl, r2, ror #17
    3a38:	12380600 	eorsne	r0, r8, #0
    3a3c:	03040000 	movweq	r0, #16384	; 0x4000
    3a40:	000b3be5 	andeq	r3, fp, r5, ror #23
    3a44:	15960700 	ldrne	r0, [r6, #1792]	; 0x700
    3a48:	e6030000 	str	r0, [r3], -r0
    3a4c:	0000005e 	andeq	r0, r0, lr, asr r0
    3a50:	021b0504 	andseq	r0, fp, #16777216	; 0x1000000
    3a54:	b3070023 	movwlt	r0, #28707	; 0x7023
    3a58:	03000005 	movweq	r0, #5
    3a5c:	00005ee7 	andeq	r5, r0, r7, ror #29
    3a60:	100b0400 	andne	r0, fp, r0, lsl #8
    3a64:	07002302 	streq	r2, [r0, -r2, lsl #6]
    3a68:	00000905 	andeq	r0, r0, r5, lsl #18
    3a6c:	005ee803 	subseq	lr, lr, r3, lsl #16
    3a70:	02040000 	andeq	r0, r4, #0
    3a74:	0023020e 	eoreq	r0, r3, lr, lsl #4
    3a78:	0005bd07 	andeq	fp, r5, r7, lsl #26
    3a7c:	5ee90300 	cdppl	3, 14, cr0, cr9, cr0, {0}
    3a80:	04000000 	streq	r0, [r0]
    3a84:	23020806 	movwcs	r0, #10246	; 0x2806
    3a88:	15470700 	strbne	r0, [r7, #-1792]	; 0x700
    3a8c:	ea030000 	b	c3a94 <__bss_end+0xbf80c>
    3a90:	0000005e 	andeq	r0, r0, lr, asr r0
    3a94:	02060204 	andeq	r0, r6, #1073741824	; 0x40000000
    3a98:	c7070023 	strgt	r0, [r7, -r3, lsr #32]
    3a9c:	03000005 	movweq	r0, #5
    3aa0:	00005eeb 	andeq	r5, r0, fp, ror #29
    3aa4:	00060400 	andeq	r0, r6, r0, lsl #8
    3aa8:	00002302 	andeq	r2, r0, r2, lsl #6
    3aac:	000a6c03 	andeq	r6, sl, r3, lsl #24
    3ab0:	c8ec0300 	stmiagt	ip!, {r8, r9}^
    3ab4:	0600000a 	streq	r0, [r0], -sl
    3ab8:	00000f06 	andeq	r0, r0, r6, lsl #30
    3abc:	75f00304 	ldrbvc	r0, [r0, #772]!	; 0x304
    3ac0:	0700000b 	streq	r0, [r0, -fp]
    3ac4:	00000ff8 	strdeq	r0, [r0], -r8
    3ac8:	005ef103 	subseq	pc, lr, r3, lsl #2
    3acc:	01040000 	tsteq	r4, r0
    3ad0:	0023021f 	eoreq	r0, r3, pc, lsl r2
    3ad4:	0005b307 	andeq	fp, r5, r7, lsl #6
    3ad8:	5ef20300 	cdppl	3, 15, cr0, cr2, cr0, {0}
    3adc:	04000000 	streq	r0, [r0]
    3ae0:	2302001f 	movwcs	r0, #8223	; 0x201f
    3ae4:	c5030000 	strgt	r0, [r3]
    3ae8:	03000013 	movweq	r0, #19
    3aec:	000b46f3 	strdeq	r4, [fp], -r3
    3af0:	08230600 	stmdaeq	r3!, {r9, sl}
    3af4:	03040000 	movweq	r0, #16384	; 0x4000
    3af8:	000d59f7 	strdeq	r5, [sp], -r7
    3afc:	0b730700 	bleq	1cc5704 <__bss_end+0x1cc147c>
    3b00:	f8030000 	undefined instruction 0xf8030000
    3b04:	0000005e 	andeq	r0, r0, lr, asr r0
    3b08:	021f0104 	andseq	r0, pc, #1
    3b0c:	19070023 	stmdbne	r7, {r0, r1, r5}
    3b10:	03000013 	movweq	r0, #19
    3b14:	00005ef9 	strdeq	r5, [r0], -r9
    3b18:	1e010400 	cfcpysne	mvf0, mvf1
    3b1c:	07002302 	streq	r2, [r0, -r2, lsl #6]
    3b20:	000010d1 	ldrdeq	r1, [r0], -r1
    3b24:	005efa03 	subseq	pc, lr, r3, lsl #20
    3b28:	01040000 	tsteq	r4, r0
    3b2c:	0023021d 	eoreq	r0, r3, sp, lsl r2
    3b30:	0005b307 	andeq	fp, r5, r7, lsl #6
    3b34:	5efb0300 	cdppl	3, 15, cr0, cr11, cr0, {0}
    3b38:	04000000 	streq	r0, [r0]
    3b3c:	23021b02 	movwcs	r1, #11010	; 0x2b02
    3b40:	13470700 	movtne	r0, #30464	; 0x7700
    3b44:	fc030000 	stc2	0, cr0, [r3], {0}
    3b48:	0000005e 	andeq	r0, r0, lr, asr r0
    3b4c:	021a0104 	andseq	r0, sl, #1
    3b50:	c7070023 	strgt	r0, [r7, -r3, lsr #32]
    3b54:	03000012 	movweq	r0, #18
    3b58:	00005efd 	strdeq	r5, [r0], -sp
    3b5c:	19010400 	stmdbne	r1, {sl}
    3b60:	07002302 	streq	r2, [r0, -r2, lsl #6]
    3b64:	00000c28 	andeq	r0, r0, r8, lsr #24
    3b68:	005efe03 	subseq	pc, lr, r3, lsl #28
    3b6c:	01040000 	tsteq	r4, r0
    3b70:	00230218 	eoreq	r0, r3, r8, lsl r2
    3b74:	000c4c07 	andeq	r4, ip, r7, lsl #24
    3b78:	5eff0300 	cdppl	3, 15, cr0, cr15, cr0, {0}
    3b7c:	04000000 	streq	r0, [r0]
    3b80:	23021701 	movwcs	r1, #9985	; 0x2701
    3b84:	15b00800 	ldrne	r0, [r0, #2048]!	; 0x800
    3b88:	00030000 	andeq	r0, r3, r0
    3b8c:	00005e01 	andeq	r5, r0, r1, lsl #28
    3b90:	16010400 	strne	r0, [r1], -r0, lsl #8
    3b94:	08002302 	stmdaeq	r0, {r1, r8, r9, sp}
    3b98:	0000106a 	andeq	r1, r0, sl, rrx
    3b9c:	5e010103 	adfpls	f0, f1, f3
    3ba0:	04000000 	streq	r0, [r0]
    3ba4:	23021501 	movwcs	r1, #9473	; 0x2501
    3ba8:	05bd0800 	ldreq	r0, [sp, #2048]!	; 0x800
    3bac:	02030000 	andeq	r0, r3, #0
    3bb0:	00005e01 	andeq	r5, r0, r1, lsl #28
    3bb4:	14010400 	strne	r0, [r1], #-1024	; 0x400
    3bb8:	08002302 	stmdaeq	r0, {r1, r8, r9, sp}
    3bbc:	00000ac5 	andeq	r0, r0, r5, asr #21
    3bc0:	5e010303 	cdppl	3, 0, cr0, cr1, cr3, {0}
    3bc4:	04000000 	streq	r0, [r0]
    3bc8:	23021301 	movwcs	r1, #8961	; 0x2301
    3bcc:	133e0800 	teqne	lr, #0
    3bd0:	04030000 	streq	r0, [r3]
    3bd4:	00005e01 	andeq	r5, r0, r1, lsl #28
    3bd8:	12010400 	andne	r0, r1, #0
    3bdc:	08002302 	stmdaeq	r0, {r1, r8, r9, sp}
    3be0:	00000ff8 	strdeq	r0, [r0], -r8
    3be4:	5e010503 	cfsh32pl	mvfx0, mvfx1, #3
    3be8:	04000000 	streq	r0, [r0]
    3bec:	23021101 	movwcs	r1, #8449	; 0x2101
    3bf0:	05c70800 	strbeq	r0, [r7, #2048]	; 0x800
    3bf4:	06030000 	streq	r0, [r3], -r0
    3bf8:	00005e01 	andeq	r5, r0, r1, lsl #28
    3bfc:	0f020400 	svceq	0x00020400
    3c00:	08002302 	stmdaeq	r0, {r1, r8, r9, sp}
    3c04:	00001138 	andeq	r1, r0, r8, lsr r1
    3c08:	5e010703 	cdppl	7, 0, cr0, cr1, cr3, {0}
    3c0c:	04000000 	streq	r0, [r0]
    3c10:	23020e01 	movwcs	r0, #11777	; 0x2e01
    3c14:	08470800 	stmdaeq	r7, {fp}^
    3c18:	08030000 	stmdaeq	r3, {}
    3c1c:	00005e01 	andeq	r5, r0, r1, lsl #28
    3c20:	0d010400 	cfstrseq	mvf0, [r1]
    3c24:	08002302 	stmdaeq	r0, {r1, r8, r9, sp}
    3c28:	000005d1 	ldrdeq	r0, [r0], -r1
    3c2c:	5e010903 	cdppl	9, 0, cr0, cr1, cr3, {0}
    3c30:	04000000 	streq	r0, [r0]
    3c34:	23020c01 	movwcs	r0, #11265	; 0x2c01
    3c38:	08ef0800 	stmiaeq	pc!, {fp}^
    3c3c:	0a030000 	beq	c3c44 <__bss_end+0xbf9bc>
    3c40:	00005e01 	andeq	r5, r0, r1, lsl #28
    3c44:	0b010400 	bleq	44c4c <__bss_end+0x409c4>
    3c48:	08002302 	stmdaeq	r0, {r1, r8, r9, sp}
    3c4c:	00000c08 	andeq	r0, r0, r8, lsl #24
    3c50:	5e010b03 	vmlapl.f64	d0, d1, d3
    3c54:	04000000 	streq	r0, [r0]
    3c58:	23020a01 	movwcs	r0, #10753	; 0x2a01
    3c5c:	0d2a0800 	stceq	8, cr0, [sl]
    3c60:	0c030000 	stceq	0, cr0, [r3], {0}
    3c64:	00005e01 	andeq	r5, r0, r1, lsl #28
    3c68:	09010400 	stmdbeq	r1, {sl}
    3c6c:	08002302 	stmdaeq	r0, {r1, r8, r9, sp}
    3c70:	000005db 	ldrdeq	r0, [r0], -fp
    3c74:	5e010d03 	cdppl	13, 0, cr0, cr1, cr3, {0}
    3c78:	04000000 	streq	r0, [r0]
    3c7c:	23020603 	movwcs	r0, #9731	; 0x2603
    3c80:	14b10800 	ldrtne	r0, [r1], #2048	; 0x800
    3c84:	0e030000 	cdpeq	0, 0, cr0, cr3, cr0, {0}
    3c88:	00005e01 	andeq	r5, r0, r1, lsl #28
    3c8c:	05010400 	streq	r0, [r1, #-1024]	; 0x400
    3c90:	08002302 	stmdaeq	r0, {r1, r8, r9, sp}
    3c94:	000005e5 	andeq	r0, r0, r5, ror #11
    3c98:	5e010f03 	cdppl	15, 0, cr0, cr1, cr3, {0}
    3c9c:	04000000 	streq	r0, [r0]
    3ca0:	23020401 	movwcs	r0, #9217	; 0x2401
    3ca4:	112f0800 	teqne	pc, r0, lsl #16
    3ca8:	10030000 	andne	r0, r3, r0
    3cac:	00005e01 	andeq	r5, r0, r1, lsl #28
    3cb0:	03010400 	movweq	r0, #5120	; 0x1400
    3cb4:	08002302 	stmdaeq	r0, {r1, r8, r9, sp}
    3cb8:	000005ef 	andeq	r0, r0, pc, ror #11
    3cbc:	5e011103 	adfpls	f1, f1, f3
    3cc0:	04000000 	streq	r0, [r0]
    3cc4:	23020003 	movwcs	r0, #8195	; 0x2003
    3cc8:	d2090000 	andle	r0, r9, #0
    3ccc:	03000007 	movweq	r0, #7
    3cd0:	0b800112 	bleq	fe004120 <__bss_end+0xfdfffe98>
    3cd4:	ec0a0000 	stc	0, cr0, [sl], {0}
    3cd8:	0400000b 	streq	r0, [r0], #-11
    3cdc:	93011603 	movwls	r1, #5635	; 0x1603
    3ce0:	0800000e 	stmdaeq	r0, {r1, r2, r3}
    3ce4:	00000ea1 	andeq	r0, r0, r1, lsr #29
    3ce8:	5e011703 	cdppl	7, 0, cr1, cr1, cr3, {0}
    3cec:	04000000 	streq	r0, [r0]
    3cf0:	23021f01 	movwcs	r1, #12033	; 0x2f01
    3cf4:	05b30800 	ldreq	r0, [r3, #2048]!	; 0x800
    3cf8:	18030000 	stmdane	r3, {}
    3cfc:	00005e01 	andeq	r5, r0, r1, lsl #28
    3d00:	1e010400 	cfcpysne	mvf0, mvf1
    3d04:	08002302 	stmdaeq	r0, {r1, r8, r9, sp}
    3d08:	00000d46 	andeq	r0, r0, r6, asr #26
    3d0c:	5e011903 	cdppl	9, 0, cr1, cr1, cr3, {0}
    3d10:	04000000 	streq	r0, [r0]
    3d14:	23021d01 	movwcs	r1, #11521	; 0x2d01
    3d18:	05bd0800 	ldreq	r0, [sp, #2048]!	; 0x800
    3d1c:	1a030000 	bne	c3d24 <__bss_end+0xbfa9c>
    3d20:	00005e01 	andeq	r5, r0, r1, lsl #28
    3d24:	1c010400 	cfstrsne	mvf0, [r1], {0}
    3d28:	08002302 	stmdaeq	r0, {r1, r8, r9, sp}
    3d2c:	00000b65 	andeq	r0, r0, r5, ror #22
    3d30:	5e011b03 	vmlapl.f64	d1, d1, d3
    3d34:	04000000 	streq	r0, [r0]
    3d38:	23021b01 	movwcs	r1, #11009	; 0x2b01
    3d3c:	05c70800 	strbeq	r0, [r7, #2048]	; 0x800
    3d40:	1c030000 	stcne	0, cr0, [r3], {0}
    3d44:	00005e01 	andeq	r5, r0, r1, lsl #28
    3d48:	18030400 	stmdane	r3, {sl}
    3d4c:	08002302 	stmdaeq	r0, {r1, r8, r9, sp}
    3d50:	000015a7 	andeq	r1, r0, r7, lsr #11
    3d54:	5e011d03 	cdppl	13, 0, cr1, cr1, cr3, {0}
    3d58:	04000000 	streq	r0, [r0]
    3d5c:	23021701 	movwcs	r1, #9985	; 0x2701
    3d60:	05d10800 	ldrbeq	r0, [r1, #2048]	; 0x800
    3d64:	1e030000 	cdpne	0, 0, cr0, cr3, cr0, {0}
    3d68:	00005e01 	andeq	r5, r0, r1, lsl #28
    3d6c:	15020400 	strne	r0, [r2, #-1024]	; 0x400
    3d70:	08002302 	stmdaeq	r0, {r1, r8, r9, sp}
    3d74:	00001376 	andeq	r1, r0, r6, ror r3
    3d78:	5e011f03 	cdppl	15, 0, cr1, cr1, cr3, {0}
    3d7c:	04000000 	streq	r0, [r0]
    3d80:	23021401 	movwcs	r1, #9217	; 0x2401
    3d84:	120d0800 	andne	r0, sp, #0
    3d88:	20030000 	andcs	r0, r3, r0
    3d8c:	00005e01 	andeq	r5, r0, r1, lsl #28
    3d90:	13010400 	movwne	r0, #5120	; 0x1400
    3d94:	08002302 	stmdaeq	r0, {r1, r8, r9, sp}
    3d98:	000005db 	ldrdeq	r0, [r0], -fp
    3d9c:	5e012103 	adfpls	f2, f1, f3
    3da0:	04000000 	streq	r0, [r0]
    3da4:	23021201 	movwcs	r1, #8705	; 0x2201
    3da8:	14970800 	ldrne	r0, [r7], #2048	; 0x800
    3dac:	22030000 	andcs	r0, r3, #0
    3db0:	00005e01 	andeq	r5, r0, r1, lsl #28
    3db4:	11010400 	tstne	r1, r0, lsl #8
    3db8:	08002302 	stmdaeq	r0, {r1, r8, r9, sp}
    3dbc:	000005e5 	andeq	r0, r0, r5, ror #11
    3dc0:	5e012303 	cdppl	3, 0, cr2, cr1, cr3, {0}
    3dc4:	04000000 	streq	r0, [r0]
    3dc8:	23020d04 	movwcs	r0, #11524	; 0x2d04
    3dcc:	0e6a0800 	cdpeq	8, 6, cr0, cr10, cr0, {0}
    3dd0:	24030000 	strcs	r0, [r3]
    3dd4:	00005e01 	andeq	r5, r0, r1, lsl #28
    3dd8:	0c010400 	cfstrseq	mvf0, [r1], {0}
    3ddc:	08002302 	stmdaeq	r0, {r1, r8, r9, sp}
    3de0:	00000d89 	andeq	r0, r0, r9, lsl #27
    3de4:	5e012503 	cfsh32pl	mvfx2, mvfx1, #3
    3de8:	04000000 	streq	r0, [r0]
    3dec:	23020b01 	movwcs	r0, #11009	; 0x2b01
    3df0:	05ef0800 	strbeq	r0, [pc, #2048]!	; 45f8 <__bss_end+0x370>
    3df4:	26030000 	strcs	r0, [r3], -r0
    3df8:	00005e01 	andeq	r5, r0, r1, lsl #28
    3dfc:	000b0400 	andeq	r0, fp, r0, lsl #8
    3e00:	00002302 	andeq	r2, r0, r2, lsl #6
    3e04:	000c5709 	andeq	r5, ip, r9, lsl #14
    3e08:	01270300 	teqeq	r7, r0, lsl #6
    3e0c:	00000d65 	andeq	r0, r0, r5, ror #26
    3e10:	0015bb0a 	andseq	fp, r5, sl, lsl #22
    3e14:	2b030400 	blcs	c4e1c <__bss_end+0xc0b94>
    3e18:	000f6101 	andeq	r6, pc, r1, lsl #2
    3e1c:	11e80800 	mvnne	r0, r0, lsl #16
    3e20:	2c030000 	stccs	0, cr0, [r3], {0}
    3e24:	00005e01 	andeq	r5, r0, r1, lsl #28
    3e28:	1f010400 	svcne	0x00010400
    3e2c:	08002302 	stmdaeq	r0, {r1, r8, r9, sp}
    3e30:	00000e2b 	andeq	r0, r0, fp, lsr #28
    3e34:	5e012d03 	cdppl	13, 0, cr2, cr1, cr3, {0}
    3e38:	04000000 	streq	r0, [r0]
    3e3c:	23021e01 	movwcs	r1, #11777	; 0x2e01
    3e40:	05b30800 	ldreq	r0, [r3, #2048]!	; 0x800
    3e44:	2e030000 	cdpcs	0, 0, cr0, cr3, cr0, {0}
    3e48:	00005e01 	andeq	r5, r0, r1, lsl #28
    3e4c:	1d010400 	cfstrsne	mvf0, [r1]
    3e50:	08002302 	stmdaeq	r0, {r1, r8, r9, sp}
    3e54:	000012a7 	andeq	r1, r0, r7, lsr #5
    3e58:	5e012f03 	cdppl	15, 0, cr2, cr1, cr3, {0}
    3e5c:	04000000 	streq	r0, [r0]
    3e60:	23021c01 	movwcs	r1, #11265	; 0x2c01
    3e64:	05bd0800 	ldreq	r0, [sp, #2048]!	; 0x800
    3e68:	30030000 	andcc	r0, r3, r0
    3e6c:	00005e01 	andeq	r5, r0, r1, lsl #28
    3e70:	1b010400 	blne	44e78 <__bss_end+0x40bf0>
    3e74:	08002302 	stmdaeq	r0, {r1, r8, r9, sp}
    3e78:	00000939 	andeq	r0, r0, r9, lsr r9
    3e7c:	5e013103 	adfpls	f3, f1, f3
    3e80:	04000000 	streq	r0, [r0]
    3e84:	23021a01 	movwcs	r1, #10753	; 0x2a01
    3e88:	10db0800 	sbcsne	r0, fp, r0, lsl #16
    3e8c:	32030000 	andcc	r0, r3, #0
    3e90:	00005e01 	andeq	r5, r0, r1, lsl #28
    3e94:	19010400 	stmdbne	r1, {sl}
    3e98:	08002302 	stmdaeq	r0, {r1, r8, r9, sp}
    3e9c:	000005c7 	andeq	r0, r0, r7, asr #11
    3ea0:	5e013303 	cdppl	3, 0, cr3, cr1, cr3, {0}
    3ea4:	04000000 	streq	r0, [r0]
    3ea8:	23021603 	movwcs	r1, #9731	; 0x2603
    3eac:	0d1f0800 	ldceq	8, cr0, [pc]
    3eb0:	34030000 	strcc	r0, [r3]
    3eb4:	00005e01 	andeq	r5, r0, r1, lsl #28
    3eb8:	15010400 	strne	r0, [r1, #-1024]	; 0x400
    3ebc:	08002302 	stmdaeq	r0, {r1, r8, r9, sp}
    3ec0:	000005d1 	ldrdeq	r0, [r0], -r1
    3ec4:	5e013503 	cfsh32pl	mvfx3, mvfx1, #3
    3ec8:	04000000 	streq	r0, [r0]
    3ecc:	23020015 	movwcs	r0, #8213	; 0x2015
    3ed0:	0b090000 	bleq	243ed8 <__bss_end+0x23fc50>
    3ed4:	03000010 	movweq	r0, #16
    3ed8:	0e9f0136 	mrceq	1, 4, r0, cr15, cr6, {1}
    3edc:	920a0000 	andls	r0, sl, #0
    3ee0:	04000010 	streq	r0, [r0], #-16
    3ee4:	1d013a03 	vstrne	s6, [r1, #-12]
    3ee8:	08000010 	stmdaeq	r0, {r4}
    3eec:	00000bda 	ldrdeq	r0, [r0], -sl
    3ef0:	5e013b03 	vmlapl.f64	d3, d1, d3
    3ef4:	04000000 	streq	r0, [r0]
    3ef8:	23021f01 	movwcs	r1, #12033	; 0x2f01
    3efc:	15580800 	ldrbne	r0, [r8, #-2048]	; 0x800
    3f00:	3c030000 	stccc	0, cr0, [r3], {0}
    3f04:	00005e01 	andeq	r5, r0, r1, lsl #28
    3f08:	1e010400 	cfcpysne	mvf0, mvf1
    3f0c:	08002302 	stmdaeq	r0, {r1, r8, r9, sp}
    3f10:	00001002 	andeq	r1, r0, r2
    3f14:	5e013d03 	cdppl	13, 0, cr3, cr1, cr3, {0}
    3f18:	04000000 	streq	r0, [r0]
    3f1c:	23021d01 	movwcs	r1, #11521	; 0x2d01
    3f20:	05b30800 	ldreq	r0, [r3, #2048]!	; 0x800
    3f24:	3e030000 	cdpcc	0, 0, cr0, cr3, cr0, {0}
    3f28:	00005e01 	andeq	r5, r0, r1, lsl #28
    3f2c:	100d0400 	andne	r0, sp, r0, lsl #8
    3f30:	08002302 	stmdaeq	r0, {r1, r8, r9, sp}
    3f34:	000014f2 	strdeq	r1, [r0], -r2
    3f38:	5e013f03 	cdppl	15, 0, cr3, cr1, cr3, {0}
    3f3c:	04000000 	streq	r0, [r0]
    3f40:	23020f01 	movwcs	r0, #12033	; 0x2f01
    3f44:	0faa0800 	svceq	0x00aa0800
    3f48:	40030000 	andmi	r0, r3, r0
    3f4c:	00005e01 	andeq	r5, r0, r1, lsl #28
    3f50:	0e010400 	cfcpyseq	mvf0, mvf1
    3f54:	08002302 	stmdaeq	r0, {r1, r8, r9, sp}
    3f58:	00000af4 	strdeq	r0, [r0], -r4
    3f5c:	5e014103 	adfpls	f4, f1, f3
    3f60:	04000000 	streq	r0, [r0]
    3f64:	23020d01 	movwcs	r0, #11521	; 0x2d01
    3f68:	148d0800 	strne	r0, [sp], #2048	; 0x800
    3f6c:	42030000 	andmi	r0, r3, #0
    3f70:	00005e01 	andeq	r5, r0, r1, lsl #28
    3f74:	0c010400 	cfstrseq	mvf0, [r1], {0}
    3f78:	08002302 	stmdaeq	r0, {r1, r8, r9, sp}
    3f7c:	000005bd 	undefined instruction 0x000005bd
    3f80:	5e014303 	cdppl	3, 0, cr4, cr1, cr3, {0}
    3f84:	04000000 	streq	r0, [r0]
    3f88:	2302000c 	movwcs	r0, #8204	; 0x200c
    3f8c:	cd090000 	stcgt	0, cr0, [r9]
    3f90:	0300000e 	movweq	r0, #14
    3f94:	0f6d0144 	svceq	0x006d0144
    3f98:	570a0000 	strpl	r0, [sl, -r0]
    3f9c:	0400000e 	streq	r0, [r0], #-14
    3fa0:	b5014a03 	strlt	r4, [r1, #-2563]	; 0xa03
    3fa4:	08000010 	stmdaeq	r0, {r4}
    3fa8:	00001596 	muleq	r0, r6, r5
    3fac:	5e014b03 	vmlapl.f64	d4, d1, d3
    3fb0:	04000000 	streq	r0, [r0]
    3fb4:	23021c04 	movwcs	r1, #11268	; 0x2c04
    3fb8:	05b30800 	ldreq	r0, [r3, #2048]!	; 0x800
    3fbc:	4c030000 	stcmi	0, cr0, [r3], {0}
    3fc0:	00005e01 	andeq	r5, r0, r1, lsl #28
    3fc4:	100c0400 	andne	r0, ip, r0, lsl #8
    3fc8:	08002302 	stmdaeq	r0, {r1, r8, r9, sp}
    3fcc:	00000902 	andeq	r0, r0, r2, lsl #18
    3fd0:	5e014d03 	cdppl	13, 0, cr4, cr1, cr3, {0}
    3fd4:	04000000 	streq	r0, [r0]
    3fd8:	23020e02 	movwcs	r0, #11778	; 0x2e02
    3fdc:	05bd0800 	ldreq	r0, [sp, #2048]!	; 0x800
    3fe0:	4e030000 	cdpmi	0, 0, cr0, cr3, cr0, {0}
    3fe4:	00005e01 	andeq	r5, r0, r1, lsl #28
    3fe8:	08060400 	stmdaeq	r6, {sl}
    3fec:	08002302 	stmdaeq	r0, {r1, r8, r9, sp}
    3ff0:	00001547 	andeq	r1, r0, r7, asr #10
    3ff4:	5e014f03 	cdppl	15, 0, cr4, cr1, cr3, {0}
    3ff8:	04000000 	streq	r0, [r0]
    3ffc:	23020602 	movwcs	r0, #9730	; 0x2602
    4000:	05c70800 	strbeq	r0, [r7, #2048]	; 0x800
    4004:	50030000 	andpl	r0, r3, r0
    4008:	00005e01 	andeq	r5, r0, r1, lsl #28
    400c:	01050400 	tsteq	r5, r0, lsl #8
    4010:	08002302 	stmdaeq	r0, {r1, r8, r9, sp}
    4014:	00001407 	andeq	r1, r0, r7, lsl #8
    4018:	5e015103 	adfpls	f5, f1, f3
    401c:	04000000 	streq	r0, [r0]
    4020:	23020001 	movwcs	r0, #8193	; 0x2001
    4024:	fa090000 	blx	24402c <__bss_end+0x23fda4>
    4028:	03000010 	movweq	r0, #16
    402c:	10290152 	eorne	r0, r9, r2, asr r1
    4030:	670a0000 	strvs	r0, [sl, -r0]
    4034:	04000009 	streq	r0, [r0], #-9
    4038:	17015803 	strne	r5, [r1, -r3, lsl #16]
    403c:	08000011 	stmdaeq	r0, {r0, r4}
    4040:	000005b3 	undefined instruction 0x000005b3
    4044:	5e015903 	cdppl	9, 0, cr5, cr1, cr3, {0}
    4048:	04000000 	streq	r0, [r0]
    404c:	23021010 	movwcs	r1, #8208	; 0x2010
    4050:	15960800 	ldrne	r0, [r6, #2048]	; 0x800
    4054:	5a030000 	bpl	c405c <__bss_end+0xbfdd4>
    4058:	00005e01 	andeq	r5, r0, r1, lsl #28
    405c:	0e020400 	cfcpyseq	mvf0, mvf2
    4060:	08002302 	stmdaeq	r0, {r1, r8, r9, sp}
    4064:	000005bd 	undefined instruction 0x000005bd
    4068:	5e015b03 	vmlapl.f64	d5, d1, d3
    406c:	04000000 	streq	r0, [r0]
    4070:	2302010d 	movwcs	r0, #8461	; 0x210d
    4074:	14070800 	strne	r0, [r7], #-2048	; 0x800
    4078:	5c030000 	stcpl	0, cr0, [r3], {0}
    407c:	00005e01 	andeq	r5, r0, r1, lsl #28
    4080:	00010400 	andeq	r0, r1, r0, lsl #8
    4084:	00002302 	andeq	r2, r0, r2, lsl #6
    4088:	000b0409 	andeq	r0, fp, r9, lsl #8
    408c:	015e0300 	cmpeq	lr, r0, lsl #6
    4090:	000010c1 	andeq	r1, r0, r1, asr #1
    4094:	0012d50a 	andseq	sp, r2, sl, lsl #10
    4098:	62030400 	andvs	r0, r3, #0
    409c:	0011af01 	andseq	sl, r1, r1, lsl #30
    40a0:	15960800 	ldrne	r0, [r6, #2048]	; 0x800
    40a4:	63030000 	movwvs	r0, #12288	; 0x3000
    40a8:	00005e01 	andeq	r5, r0, r1, lsl #28
    40ac:	1b050400 	blne	1450b4 <__bss_end+0x140e2c>
    40b0:	08002302 	stmdaeq	r0, {r1, r8, r9, sp}
    40b4:	000005b3 	undefined instruction 0x000005b3
    40b8:	5e016403 	cdppl	4, 0, cr6, cr1, cr3, {0}
    40bc:	04000000 	streq	r0, [r0]
    40c0:	2302100b 	movwcs	r1, #8203	; 0x200b
    40c4:	09020800 	stmdbeq	r2, {fp}
    40c8:	65030000 	strvs	r0, [r3]
    40cc:	00005e01 	andeq	r5, r0, r1, lsl #28
    40d0:	0e020400 	cfcpyseq	mvf0, mvf2
    40d4:	08002302 	stmdaeq	r0, {r1, r8, r9, sp}
    40d8:	000005bd 	undefined instruction 0x000005bd
    40dc:	5e016603 	cfmadd32pl	mvax0, mvfx6, mvfx1, mvfx3
    40e0:	04000000 	streq	r0, [r0]
    40e4:	23020806 	movwcs	r0, #10246	; 0x2806
    40e8:	15470800 	strbne	r0, [r7, #-2048]	; 0x800
    40ec:	67030000 	strvs	r0, [r3, -r0]
    40f0:	00005e01 	andeq	r5, r0, r1, lsl #28
    40f4:	06020400 	streq	r0, [r2], -r0, lsl #8
    40f8:	08002302 	stmdaeq	r0, {r1, r8, r9, sp}
    40fc:	000005c7 	andeq	r0, r0, r7, asr #11
    4100:	5e016803 	cdppl	8, 0, cr6, cr1, cr3, {0}
    4104:	04000000 	streq	r0, [r0]
    4108:	23020105 	movwcs	r0, #8453	; 0x2105
    410c:	14070800 	strne	r0, [r7], #-2048	; 0x800
    4110:	69030000 	stmdbvs	r3, {}
    4114:	00005e01 	andeq	r5, r0, r1, lsl #28
    4118:	00010400 	andeq	r0, r1, r0, lsl #8
    411c:	00002302 	andeq	r2, r0, r2, lsl #6
    4120:	000cf009 	andeq	pc, ip, r9
    4124:	016a0300 	cmneq	sl, r0, lsl #6
    4128:	00001123 	andeq	r1, r0, r3, lsr #2
    412c:	000dce0a 	andeq	ip, sp, sl, lsl #28
    4130:	6e030400 	cfcpysvs	mvf0, mvf3
    4134:	00124701 	andseq	r4, r2, r1, lsl #14
    4138:	105f0800 	subsne	r0, pc, r0, lsl #16
    413c:	6f030000 	svcvs	0x00030000
    4140:	00005e01 	andeq	r5, r0, r1, lsl #28
    4144:	1f010400 	svcne	0x00010400
    4148:	08002302 	stmdaeq	r0, {r1, r8, r9, sp}
    414c:	00000ccf 	andeq	r0, r0, pc, asr #25
    4150:	5e017003 	cdppl	0, 0, cr7, cr1, cr3, {0}
    4154:	04000000 	streq	r0, [r0]
    4158:	23021e01 	movwcs	r1, #11777	; 0x2e01
    415c:	05b30800 	ldreq	r0, [r3, #2048]!	; 0x800
    4160:	71030000 	tstvc	r3, r0
    4164:	00005e01 	andeq	r5, r0, r1, lsl #28
    4168:	1a040400 	bne	105170 <__bss_end+0x100ee8>
    416c:	08002302 	stmdaeq	r0, {r1, r8, r9, sp}
    4170:	00001402 	andeq	r1, r0, r2, lsl #8
    4174:	5e017203 	cdppl	2, 0, cr7, cr1, cr3, {0}
    4178:	04000000 	streq	r0, [r0]
    417c:	23021901 	movwcs	r1, #10497	; 0x2901
    4180:	05bd0800 	ldreq	r0, [sp, #2048]!	; 0x800
    4184:	73030000 	movwvc	r0, #12288	; 0x3000
    4188:	00005e01 	andeq	r5, r0, r1, lsl #28
    418c:	18010400 	stmdane	r1, {sl}
    4190:	08002302 	stmdaeq	r0, {r1, r8, r9, sp}
    4194:	00000e1c 	andeq	r0, r0, ip, lsl lr
    4198:	5e017403 	cdppl	4, 0, cr7, cr1, cr3, {0}
    419c:	04000000 	streq	r0, [r0]
    41a0:	23021701 	movwcs	r1, #9985	; 0x2701
    41a4:	05c70800 	strbeq	r0, [r7, #2048]	; 0x800
    41a8:	75030000 	strvc	r0, [r3]
    41ac:	00005e01 	andeq	r5, r0, r1, lsl #28
    41b0:	00170400 	andseq	r0, r7, r0, lsl #8
    41b4:	00002302 	andeq	r2, r0, r2, lsl #6
    41b8:	000aac09 	andeq	sl, sl, r9, lsl #24
    41bc:	01760300 	cmneq	r6, r0, lsl #6
    41c0:	000011bb 	undefined instruction 0x000011bb
    41c4:	0010e30a 	andseq	lr, r0, sl, lsl #6
    41c8:	7a030400 	bvc	c51d0 <__bss_end+0xc0f48>
    41cc:	0012cd01 	andseq	ip, r2, r1, lsl #26
    41d0:	0b6e0800 	bleq	1b861d8 <__bss_end+0x1b81f50>
    41d4:	7b030000 	blvc	c41dc <__bss_end+0xbff54>
    41d8:	00005e01 	andeq	r5, r0, r1, lsl #28
    41dc:	1d030400 	cfstrsne	mvf0, [r3]
    41e0:	08002302 	stmdaeq	r0, {r1, r8, r9, sp}
    41e4:	000005b3 	undefined instruction 0x000005b3
    41e8:	5e017c03 	cdppl	12, 0, cr7, cr1, cr3, {0}
    41ec:	04000000 	streq	r0, [r0]
    41f0:	23020815 	movwcs	r0, #10261	; 0x2815
    41f4:	15470800 	strbne	r0, [r7, #-2048]	; 0x800
    41f8:	7d030000 	stcvc	0, cr0, [r3]
    41fc:	00005e01 	andeq	r5, r0, r1, lsl #28
    4200:	06020400 	streq	r0, [r2], -r0, lsl #8
    4204:	08002302 	stmdaeq	r0, {r1, r8, r9, sp}
    4208:	000005bd 	undefined instruction 0x000005bd
    420c:	5e017e03 	cdppl	14, 0, cr7, cr1, cr3, {0}
    4210:	04000000 	streq	r0, [r0]
    4214:	23020204 	movwcs	r0, #8708	; 0x2204
    4218:	14600800 	strbtne	r0, [r0], #-2048	; 0x800
    421c:	7f030000 	svcvc	0x00030000
    4220:	00005e01 	andeq	r5, r0, r1, lsl #28
    4224:	01010400 	tsteq	r1, r0, lsl #8
    4228:	08002302 	stmdaeq	r0, {r1, r8, r9, sp}
    422c:	00001407 	andeq	r1, r0, r7, lsl #8
    4230:	5e018003 	cdppl	0, 0, cr8, cr1, cr3, {0}
    4234:	04000000 	streq	r0, [r0]
    4238:	23020001 	movwcs	r0, #8193	; 0x2001
    423c:	a4090000 	strge	r0, [r9]
    4240:	0300000c 	movweq	r0, #12
    4244:	12530181 	subsne	r0, r3, #1073741856	; 0x40000020
    4248:	990a0000 	stmdbls	sl, {}
    424c:	04000008 	streq	r0, [r0], #-8
    4250:	ad018503 	cfstr32ge	mvfx8, [r1, #-12]
    4254:	08000013 	stmdaeq	r0, {r0, r1, r4}
    4258:	00000ea1 	andeq	r0, r0, r1, lsr #29
    425c:	5e018603 	cfmadd32pl	mvax0, mvfx8, mvfx1, mvfx3
    4260:	04000000 	streq	r0, [r0]
    4264:	23021f01 	movwcs	r1, #12033	; 0x2f01
    4268:	15a70800 	strne	r0, [r7, #2048]!	; 0x800
    426c:	87030000 	strhi	r0, [r3, -r0]
    4270:	00005e01 	andeq	r5, r0, r1, lsl #28
    4274:	1e010400 	cfcpysne	mvf0, mvf1
    4278:	08002302 	stmdaeq	r0, {r1, r8, r9, sp}
    427c:	000005b3 	undefined instruction 0x000005b3
    4280:	5e018803 	cdppl	8, 0, cr8, cr1, cr3, {0}
    4284:	04000000 	streq	r0, [r0]
    4288:	23021d01 	movwcs	r1, #11521	; 0x2d01
    428c:	08470800 	stmdaeq	r7, {fp}^
    4290:	89030000 	stmdbhi	r3, {}
    4294:	00005e01 	andeq	r5, r0, r1, lsl #28
    4298:	1c010400 	cfstrsne	mvf0, [r1], {0}
    429c:	08002302 	stmdaeq	r0, {r1, r8, r9, sp}
    42a0:	000005bd 	undefined instruction 0x000005bd
    42a4:	5e018a03 	vmlapl.f32	s16, s2, s6
    42a8:	04000000 	streq	r0, [r0]
    42ac:	23021b01 	movwcs	r1, #11009	; 0x2b01
    42b0:	0d460800 	stcleq	8, cr0, [r6]
    42b4:	8b030000 	blhi	c42bc <__bss_end+0xc0034>
    42b8:	00005e01 	andeq	r5, r0, r1, lsl #28
    42bc:	1a010400 	bne	452c4 <__bss_end+0x4103c>
    42c0:	08002302 	stmdaeq	r0, {r1, r8, r9, sp}
    42c4:	000005c7 	andeq	r0, r0, r7, asr #11
    42c8:	5e018c03 	cdppl	12, 0, cr8, cr1, cr3, {0}
    42cc:	04000000 	streq	r0, [r0]
    42d0:	23020713 	movwcs	r0, #10003	; 0x2713
    42d4:	14970800 	ldrne	r0, [r7], #2048	; 0x800
    42d8:	8d030000 	stchi	0, cr0, [r3]
    42dc:	00005e01 	andeq	r5, r0, r1, lsl #28
    42e0:	06010400 	streq	r0, [r1], -r0, lsl #8
    42e4:	08002302 	stmdaeq	r0, {r1, r8, r9, sp}
    42e8:	0000120d 	andeq	r1, r0, sp, lsl #4
    42ec:	5e018e03 	cdppl	14, 0, cr8, cr1, cr3, {0}
    42f0:	04000000 	streq	r0, [r0]
    42f4:	23020501 	movwcs	r0, #9473	; 0x2501
    42f8:	05d10800 	ldrbeq	r0, [r1, #2048]	; 0x800
    42fc:	8f030000 	svchi	0x00030000
    4300:	00005e01 	andeq	r5, r0, r1, lsl #28
    4304:	01040400 	tsteq	r4, r0, lsl #8
    4308:	08002302 	stmdaeq	r0, {r1, r8, r9, sp}
    430c:	00000e6a 	andeq	r0, r0, sl, ror #28
    4310:	5e019003 	cdppl	0, 0, cr9, cr1, cr3, {0}
    4314:	04000000 	streq	r0, [r0]
    4318:	23020001 	movwcs	r0, #8193	; 0x2001
    431c:	cc090000 	stcgt	0, cr0, [r9], {0}
    4320:	03000008 	movweq	r0, #8
    4324:	12d90191 	sbcsne	r0, r9, #1073741860	; 0x40000024
    4328:	870a0000 	strhi	r0, [sl, -r0]
    432c:	04000008 	streq	r0, [r0], #-8
    4330:	33019703 	movwcc	r9, #5891	; 0x1703
    4334:	08000014 	stmdaeq	r0, {r2, r4}
    4338:	00001596 	muleq	r0, r6, r5
    433c:	5e019803 	cdppl	8, 0, cr9, cr1, cr3, {0}
    4340:	04000000 	streq	r0, [r0]
    4344:	23021c04 	movwcs	r1, #11268	; 0x2c04
    4348:	05b30800 	ldreq	r0, [r3, #2048]!	; 0x800
    434c:	99030000 	stmdbls	r3, {}
    4350:	00005e01 	andeq	r5, r0, r1, lsl #28
    4354:	08140400 	ldmdaeq	r4, {sl}
    4358:	08002302 	stmdaeq	r0, {r1, r8, r9, sp}
    435c:	00001547 	andeq	r1, r0, r7, asr #10
    4360:	5e019a03 	vmlapl.f32	s18, s2, s6
    4364:	04000000 	streq	r0, [r0]
    4368:	23020602 	movwcs	r0, #9730	; 0x2602
    436c:	05bd0800 	ldreq	r0, [sp, #2048]!	; 0x800
    4370:	9b030000 	blls	c4378 <__bss_end+0xc00f0>
    4374:	00005e01 	andeq	r5, r0, r1, lsl #28
    4378:	02040400 	andeq	r0, r4, #0
    437c:	08002302 	stmdaeq	r0, {r1, r8, r9, sp}
    4380:	00001460 	andeq	r1, r0, r0, ror #8
    4384:	5e019c03 	cdppl	12, 0, cr9, cr1, cr3, {0}
    4388:	04000000 	streq	r0, [r0]
    438c:	23020101 	movwcs	r0, #8449	; 0x2101
    4390:	14070800 	strne	r0, [r7], #-2048	; 0x800
    4394:	9d030000 	stcls	0, cr0, [r3]
    4398:	00005e01 	andeq	r5, r0, r1, lsl #28
    439c:	00010400 	andeq	r0, r1, r0, lsl #8
    43a0:	00002302 	andeq	r2, r0, r2, lsl #6
    43a4:	00134e09 	andseq	r4, r3, r9, lsl #28
    43a8:	019f0300 	orrseq	r0, pc, r0, lsl #6
    43ac:	000013b9 	undefined instruction 0x000013b9
    43b0:	0014c10a 	andseq	ip, r4, sl, lsl #2
    43b4:	a5030400 	strge	r0, [r3, #-1024]	; 0x400
    43b8:	0014b901 	andseq	fp, r4, r1, lsl #18
    43bc:	05b30800 	ldreq	r0, [r3, #2048]!	; 0x800
    43c0:	a6030000 	strge	r0, [r3], -r0
    43c4:	00005e01 	andeq	r5, r0, r1, lsl #28
    43c8:	08180400 	ldmdaeq	r8, {sl}
    43cc:	08002302 	stmdaeq	r0, {r1, r8, r9, sp}
    43d0:	00001547 	andeq	r1, r0, r7, asr #10
    43d4:	5e01a703 	cdppl	7, 0, cr10, cr1, cr3, {0}
    43d8:	04000000 	streq	r0, [r0]
    43dc:	23020602 	movwcs	r0, #9730	; 0x2602
    43e0:	05bd0800 	ldreq	r0, [sp, #2048]!	; 0x800
    43e4:	a8030000 	stmdage	r3, {}
    43e8:	00005e01 	andeq	r5, r0, r1, lsl #28
    43ec:	03030400 	movweq	r0, #13312	; 0x3400
    43f0:	08002302 	stmdaeq	r0, {r1, r8, r9, sp}
    43f4:	00000800 	andeq	r0, r0, r0, lsl #16
    43f8:	5e01a903 	cdppl	9, 0, cr10, cr1, cr3, {0}
    43fc:	04000000 	streq	r0, [r0]
    4400:	23020201 	movwcs	r0, #8705	; 0x2201
    4404:	145d0800 	ldrbne	r0, [sp], #-2048	; 0x800
    4408:	aa030000 	bge	c4410 <__bss_end+0xc0188>
    440c:	00005e01 	andeq	r5, r0, r1, lsl #28
    4410:	01010400 	tsteq	r1, r0, lsl #8
    4414:	08002302 	stmdaeq	r0, {r1, r8, r9, sp}
    4418:	00001407 	andeq	r1, r0, r7, lsl #8
    441c:	5e01ab03 	vmlapl.f64	d10, d1, d3
    4420:	04000000 	streq	r0, [r0]
    4424:	23020001 	movwcs	r0, #8193	; 0x2001
    4428:	b2090000 	andlt	r0, r9, #0
    442c:	03000009 	movweq	r0, #9
    4430:	143f01ad 	ldrtne	r0, [pc], #429	; 4438 <__bss_end+0x1b0>
    4434:	610a0000 	tstvs	sl, r0
    4438:	0400000f 	streq	r0, [r0], #-15
    443c:	7501b303 	strvc	fp, [r1, #-771]	; 0x303
    4440:	08000015 	stmdaeq	r0, {r0, r2, r4}
    4444:	00001596 	muleq	r0, r6, r5
    4448:	5e01b403 	cdppl	4, 0, cr11, cr1, cr3, {0}
    444c:	04000000 	streq	r0, [r0]
    4450:	23021c04 	movwcs	r1, #11268	; 0x2c04
    4454:	05b30800 	ldreq	r0, [r3, #2048]!	; 0x800
    4458:	b5030000 	strlt	r0, [r3]
    445c:	00005e01 	andeq	r5, r0, r1, lsl #28
    4460:	15070400 	strne	r0, [r7, #-1024]	; 0x400
    4464:	08002302 	stmdaeq	r0, {r1, r8, r9, sp}
    4468:	00000a0c 	andeq	r0, r0, ip, lsl #20
    446c:	5e01b603 	cfmadd32pl	mvax0, mvfx11, mvfx1, mvfx3
    4470:	04000000 	streq	r0, [r0]
    4474:	23021401 	movwcs	r1, #9217	; 0x2401
    4478:	05bd0800 	ldreq	r0, [sp, #2048]!	; 0x800
    447c:	b7030000 	strlt	r0, [r3, -r0]
    4480:	00005e01 	andeq	r5, r0, r1, lsl #28
    4484:	11030400 	tstne	r3, r0, lsl #8
    4488:	08002302 	stmdaeq	r0, {r1, r8, r9, sp}
    448c:	00001284 	andeq	r1, r0, r4, lsl #5
    4490:	5e01b803 	cdppl	8, 0, cr11, cr1, cr3, {0}
    4494:	04000000 	streq	r0, [r0]
    4498:	23021001 	movwcs	r1, #8193	; 0x2001
    449c:	05c70800 	strbeq	r0, [r7, #2048]	; 0x800
    44a0:	b9030000 	stmdblt	r3, {}
    44a4:	00005e01 	andeq	r5, r0, r1, lsl #28
    44a8:	08080400 	stmdaeq	r8, {sl}
    44ac:	08002302 	stmdaeq	r0, {r1, r8, r9, sp}
    44b0:	0000129b 	muleq	r0, fp, r2
    44b4:	5e01ba03 	vmlapl.f32	s22, s2, s6
    44b8:	04000000 	streq	r0, [r0]
    44bc:	23020602 	movwcs	r0, #9730	; 0x2602
    44c0:	05d10800 	ldrbeq	r0, [r1, #2048]	; 0x800
    44c4:	bb030000 	bllt	c44cc <__bss_end+0xc0244>
    44c8:	00005e01 	andeq	r5, r0, r1, lsl #28
    44cc:	01050400 	tsteq	r5, r0, lsl #8
    44d0:	08002302 	stmdaeq	r0, {r1, r8, r9, sp}
    44d4:	00000d6a 	andeq	r0, r0, sl, ror #26
    44d8:	5e01bc03 	cdppl	12, 0, cr11, cr1, cr3, {0}
    44dc:	04000000 	streq	r0, [r0]
    44e0:	23020001 	movwcs	r0, #8193	; 0x2001
    44e4:	f9090000 	undefined instruction 0xf9090000
    44e8:	03000011 	movweq	r0, #17
    44ec:	14c501be 	strbne	r0, [r5], #446	; 0x1be
    44f0:	e10a0000 	tst	sl, r0
    44f4:	0400000c 	streq	r0, [r0], #-12
    44f8:	fb01c403 	blx	7550e <__bss_end+0x71286>
    44fc:	08000015 	stmdaeq	r0, {r0, r2, r4}
    4500:	00001596 	muleq	r0, r6, r5
    4504:	5e01c503 	cfsh32pl	mvfx12, mvfx1, #3
    4508:	04000000 	streq	r0, [r0]
    450c:	23021b05 	movwcs	r1, #11013	; 0x2b05
    4510:	05b30800 	ldreq	r0, [r3, #2048]!	; 0x800
    4514:	c6030000 	strgt	r0, [r3], -r0
    4518:	00005e01 	andeq	r5, r0, r1, lsl #28
    451c:	08130400 	ldmdaeq	r3, {sl}
    4520:	08002302 	stmdaeq	r0, {r1, r8, r9, sp}
    4524:	00001547 	andeq	r1, r0, r7, asr #10
    4528:	5e01c703 	cdppl	7, 0, cr12, cr1, cr3, {0}
    452c:	04000000 	streq	r0, [r0]
    4530:	23020503 	movwcs	r0, #9475	; 0x2503
    4534:	05bd0800 	ldreq	r0, [sp, #2048]!	; 0x800
    4538:	c8030000 	stmdagt	r3, {}
    453c:	00005e01 	andeq	r5, r0, r1, lsl #28
    4540:	02030400 	andeq	r0, r3, #0
    4544:	08002302 	stmdaeq	r0, {r1, r8, r9, sp}
    4548:	00001460 	andeq	r1, r0, r0, ror #8
    454c:	5e01c903 	cdppl	9, 0, cr12, cr1, cr3, {0}
    4550:	04000000 	streq	r0, [r0]
    4554:	23020101 	movwcs	r0, #8449	; 0x2101
    4558:	14070800 	strne	r0, [r7], #-2048	; 0x800
    455c:	ca030000 	bgt	c4564 <__bss_end+0xc02dc>
    4560:	00005e01 	andeq	r5, r0, r1, lsl #28
    4564:	00010400 	andeq	r0, r1, r0, lsl #8
    4568:	00002302 	andeq	r2, r0, r2, lsl #6
    456c:	000c3109 	andeq	r3, ip, r9, lsl #2
    4570:	01cb0300 	biceq	r0, fp, r0, lsl #6
    4574:	00001581 	andeq	r1, r0, r1, lsl #11
    4578:	0014dc0a 	andseq	sp, r4, sl, lsl #24
    457c:	cf030400 	svcgt	0x00030400
    4580:	00166f01 	andseq	r6, r6, r1, lsl #30
    4584:	14600800 	strbtne	r0, [r0], #-2048	; 0x800
    4588:	d0030000 	andle	r0, r3, r0
    458c:	00005e01 	andeq	r5, r0, r1, lsl #28
    4590:	1f010400 	svcne	0x00010400
    4594:	08002302 	stmdaeq	r0, {r1, r8, r9, sp}
    4598:	000005b3 	undefined instruction 0x000005b3
    459c:	5e01d103 	mvfpls	f5, f3
    45a0:	04000000 	streq	r0, [r0]
    45a4:	2302100f 	movwcs	r1, #8207	; 0x200f
    45a8:	15960800 	ldrne	r0, [r6, #2048]	; 0x800
    45ac:	d2030000 	andle	r0, r3, #0
    45b0:	00005e01 	andeq	r5, r0, r1, lsl #28
    45b4:	0d030400 	cfstrseq	mvf0, [r3]
    45b8:	08002302 	stmdaeq	r0, {r1, r8, r9, sp}
    45bc:	000005bd 	undefined instruction 0x000005bd
    45c0:	5e01d303 	cdppl	3, 0, cr13, cr1, cr3, {0}
    45c4:	04000000 	streq	r0, [r0]
    45c8:	2302010c 	movwcs	r0, #8460	; 0x210c
    45cc:	14070800 	strne	r0, [r7], #-2048	; 0x800
    45d0:	d4030000 	strle	r0, [r3]
    45d4:	00005e01 	andeq	r5, r0, r1, lsl #28
    45d8:	00010400 	andeq	r0, r1, r0, lsl #8
    45dc:	00002302 	andeq	r2, r0, r2, lsl #6
    45e0:	00116c09 	andseq	r6, r1, r9, lsl #24
    45e4:	01d50300 	bicseq	r0, r5, r0, lsl #6
    45e8:	00001607 	andeq	r1, r0, r7, lsl #12
    45ec:	000fbb0a 	andeq	fp, pc, sl, lsl #22
    45f0:	d8030400 	stmdale	r3, {sl}
    45f4:	0016ad01 	andseq	sl, r6, r1, lsl #26
    45f8:	05b30800 	ldreq	r0, [r3, #2048]!	; 0x800
    45fc:	d9030000 	stmdble	r3, {}
    4600:	00005e01 	andeq	r5, r0, r1, lsl #28
    4604:	011f0400 	tsteq	pc, r0, lsl #8
    4608:	08002302 	stmdaeq	r0, {r1, r8, r9, sp}
    460c:	00001407 	andeq	r1, r0, r7, lsl #8
    4610:	5e01da03 	vmlapl.f32	s26, s2, s6
    4614:	04000000 	streq	r0, [r0]
    4618:	23020001 	movwcs	r0, #8193	; 0x2001
    461c:	b2090000 	andlt	r0, r9, #0
    4620:	03000008 	movweq	r0, #8
    4624:	167b01db 	undefined instruction 0x167b01db
    4628:	b20a0000 	andlt	r0, sl, #0
    462c:	0400000b 	streq	r0, [r0], #-11
    4630:	eb01de03 	bl	7be44 <__bss_end+0x77bbc>
    4634:	08000016 	stmdaeq	r0, {r1, r2, r4}
    4638:	000005b3 	undefined instruction 0x000005b3
    463c:	5e01df03 	cdppl	15, 0, cr13, cr1, cr3, {0}
    4640:	04000000 	streq	r0, [r0]
    4644:	2302011f 	movwcs	r0, #8479	; 0x211f
    4648:	14070800 	strne	r0, [r7], #-2048	; 0x800
    464c:	e0030000 	and	r0, r3, r0
    4650:	00005e01 	andeq	r5, r0, r1, lsl #28
    4654:	00010400 	andeq	r0, r1, r0, lsl #8
    4658:	00002302 	andeq	r2, r0, r2, lsl #6
    465c:	00143509 	andseq	r3, r4, r9, lsl #10
    4660:	01e10300 	mvneq	r0, r0, lsl #6
    4664:	000016b9 	undefined instruction 0x000016b9
    4668:	0009210a 	andeq	r2, r9, sl, lsl #2
    466c:	e5030400 	str	r0, [r3, #-1024]	; 0x400
    4670:	00172901 	andseq	r2, r7, r1, lsl #18
    4674:	14600800 	strbtne	r0, [r0], #-2048	; 0x800
    4678:	e6030000 	str	r0, [r3], -r0
    467c:	00005e01 	andeq	r5, r0, r1, lsl #28
    4680:	1f010400 	svcne	0x00010400
    4684:	08002302 	stmdaeq	r0, {r1, r8, r9, sp}
    4688:	00000137 	andeq	r0, r0, r7, lsr r1
    468c:	5e01e703 	cdppl	7, 0, cr14, cr1, cr3, {0}
    4690:	04000000 	streq	r0, [r0]
    4694:	2302001f 	movwcs	r0, #8223	; 0x201f
    4698:	4a090000 	bmi	2446a0 <__bss_end+0x240418>
    469c:	03000011 	movweq	r0, #17
    46a0:	16f701e8 	ldrbtne	r0, [r7], r8, ror #3
    46a4:	eb0a0000 	bl	2846ac <__bss_end+0x280424>
    46a8:	04000009 	streq	r0, [r0], #-9
    46ac:	9d01ec03 	stcls	12, cr14, [r1, #-12]
    46b0:	08000017 	stmdaeq	r0, {r0, r1, r2, r4}
    46b4:	00001596 	muleq	r0, r6, r5
    46b8:	5e01ed03 	cdppl	13, 0, cr14, cr1, cr3, {0}
    46bc:	04000000 	streq	r0, [r0]
    46c0:	23021c04 	movwcs	r1, #11268	; 0x2c04
    46c4:	05b30800 	ldreq	r0, [r3, #2048]!	; 0x800
    46c8:	ee030000 	cdp	0, 0, cr0, cr3, cr0, {0}
    46cc:	00005e01 	andeq	r5, r0, r1, lsl #28
    46d0:	08140400 	ldmdaeq	r4, {sl}
    46d4:	08002302 	stmdaeq	r0, {r1, r8, r9, sp}
    46d8:	00001547 	andeq	r1, r0, r7, asr #10
    46dc:	5e01ef03 	cdppl	15, 0, cr14, cr1, cr3, {0}
    46e0:	04000000 	streq	r0, [r0]
    46e4:	23020602 	movwcs	r0, #9730	; 0x2602
    46e8:	05bd0800 	ldreq	r0, [sp, #2048]!	; 0x800
    46ec:	f0030000 	undefined instruction 0xf0030000
    46f0:	00005e01 	andeq	r5, r0, r1, lsl #28
    46f4:	01050400 	tsteq	r5, r0, lsl #8
    46f8:	08002302 	stmdaeq	r0, {r1, r8, r9, sp}
    46fc:	00001407 	andeq	r1, r0, r7, lsl #8
    4700:	5e01f103 	mvfpls	f7, f3
    4704:	04000000 	streq	r0, [r0]
    4708:	23020001 	movwcs	r0, #8193	; 0x2001
    470c:	09090000 	stmdbeq	r9, {}
    4710:	03000008 	movweq	r0, #8
    4714:	173501f2 	undefined instruction 0x173501f2
    4718:	920a0000 	andls	r0, sl, #0
    471c:	0400000d 	streq	r0, [r0], #-13
    4720:	2301f603 	movwcs	pc, #5635	; 0x1603
    4724:	08000018 	stmdaeq	r0, {r3, r4}
    4728:	00001596 	muleq	r0, r6, r5
    472c:	5e01f703 	cdppl	7, 0, cr15, cr1, cr3, {0}
    4730:	04000000 	streq	r0, [r0]
    4734:	23021c04 	movwcs	r1, #11268	; 0x2c04
    4738:	05b30800 	ldreq	r0, [r3, #2048]!	; 0x800
    473c:	f8030000 	undefined instruction 0xf8030000
    4740:	00005e01 	andeq	r5, r0, r1, lsl #28
    4744:	08140400 	ldmdaeq	r4, {sl}
    4748:	08002302 	stmdaeq	r0, {r1, r8, r9, sp}
    474c:	00001547 	andeq	r1, r0, r7, asr #10
    4750:	5e01f903 	cdppl	9, 0, cr15, cr1, cr3, {0}
    4754:	04000000 	streq	r0, [r0]
    4758:	23020503 	movwcs	r0, #9475	; 0x2503
    475c:	05bd0800 	ldreq	r0, [sp, #2048]!	; 0x800
    4760:	fa030000 	blx	c4768 <__bss_end+0xc04e0>
    4764:	00005e01 	andeq	r5, r0, r1, lsl #28
    4768:	02030400 	andeq	r0, r3, #0
    476c:	08002302 	stmdaeq	r0, {r1, r8, r9, sp}
    4770:	00001460 	andeq	r1, r0, r0, ror #8
    4774:	5e01fb03 	vmlapl.f64	d15, d1, d3
    4778:	04000000 	streq	r0, [r0]
    477c:	23020101 	movwcs	r0, #8449	; 0x2101
    4780:	14070800 	strne	r0, [r7], #-2048	; 0x800
    4784:	fc030000 	stc2	0, cr0, [r3], {0}
    4788:	00005e01 	andeq	r5, r0, r1, lsl #28
    478c:	00010400 	andeq	r0, r1, r0, lsl #8
    4790:	00002302 	andeq	r2, r0, r2, lsl #6
    4794:	000c7509 	andeq	r7, ip, r9, lsl #10
    4798:	01fd0300 	mvnseq	r0, r0, lsl #6
    479c:	000017a9 	andeq	r1, r0, r9, lsr #15
    47a0:	000b4d0a 	andeq	r4, fp, sl, lsl #26
    47a4:	01030400 	tsteq	r3, r0, lsl #8
    47a8:	0018bb02 	andseq	fp, r8, r2, lsl #22
    47ac:	15960800 	ldrne	r0, [r6, #2048]	; 0x800
    47b0:	02030000 	andeq	r0, r3, #0
    47b4:	00005e02 	andeq	r5, r0, r2, lsl #28
    47b8:	1c040400 	cfstrsne	mvf0, [r4], {0}
    47bc:	08002302 	stmdaeq	r0, {r1, r8, r9, sp}
    47c0:	000005b3 	undefined instruction 0x000005b3
    47c4:	5e020303 	cdppl	3, 0, cr0, cr2, cr3, {0}
    47c8:	04000000 	streq	r0, [r0]
    47cc:	2302100c 	movwcs	r1, #8204	; 0x200c
    47d0:	09050800 	stmdbeq	r5, {fp}
    47d4:	04030000 	streq	r0, [r3]
    47d8:	00005e02 	andeq	r5, r0, r2, lsl #28
    47dc:	0e020400 	cfcpyseq	mvf0, mvf2
    47e0:	08002302 	stmdaeq	r0, {r1, r8, r9, sp}
    47e4:	000005bd 	undefined instruction 0x000005bd
    47e8:	5e020503 	cfsh32pl	mvfx0, mvfx2, #3
    47ec:	04000000 	streq	r0, [r0]
    47f0:	23020806 	movwcs	r0, #10246	; 0x2806
    47f4:	15470800 	strbne	r0, [r7, #-2048]	; 0x800
    47f8:	06030000 	streq	r0, [r3], -r0
    47fc:	00005e02 	andeq	r5, r0, r2, lsl #28
    4800:	06020400 	streq	r0, [r2], -r0, lsl #8
    4804:	08002302 	stmdaeq	r0, {r1, r8, r9, sp}
    4808:	000005c7 	andeq	r0, r0, r7, asr #11
    480c:	5e020703 	cdppl	7, 0, cr0, cr2, cr3, {0}
    4810:	04000000 	streq	r0, [r0]
    4814:	23020105 	movwcs	r0, #8453	; 0x2105
    4818:	140b0800 	strne	r0, [fp], #-2048	; 0x800
    481c:	08030000 	stmdaeq	r3, {}
    4820:	00005e02 	andeq	r5, r0, r2, lsl #28
    4824:	00010400 	andeq	r0, r1, r0, lsl #8
    4828:	00002302 	andeq	r2, r0, r2, lsl #6
    482c:	0009d109 	andeq	sp, r9, r9, lsl #2
    4830:	020a0300 	andeq	r0, sl, #0
    4834:	0000182f 	andeq	r1, r0, pc, lsr #16
    4838:	0012210a 	andseq	r2, r2, sl, lsl #2
    483c:	0e030400 	cfcpyseq	mvf0, mvf3
    4840:	00190b02 	andseq	r0, r9, r2, lsl #22
    4844:	01370800 	teqeq	r7, r0, lsl #16
    4848:	0f030000 	svceq	0x00030000
    484c:	00005e02 	andeq	r5, r0, r2, lsl #28
    4850:	021e0400 	andseq	r0, lr, #0
    4854:	08002302 	stmdaeq	r0, {r1, r8, r9, sp}
    4858:	00001460 	andeq	r1, r0, r0, ror #8
    485c:	5e021003 	cdppl	0, 0, cr1, cr2, cr3, {0}
    4860:	04000000 	streq	r0, [r0]
    4864:	23020101 	movwcs	r0, #8449	; 0x2101
    4868:	140b0800 	strne	r0, [fp], #-2048	; 0x800
    486c:	11030000 	tstne	r3, r0
    4870:	00005e02 	andeq	r5, r0, r2, lsl #28
    4874:	00010400 	andeq	r0, r1, r0, lsl #8
    4878:	00002302 	andeq	r2, r0, r2, lsl #6
    487c:	000e7209 	andeq	r7, lr, r9, lsl #4
    4880:	02130300 	andseq	r0, r3, #0
    4884:	000018c7 	andeq	r1, r0, r7, asr #17
    4888:	0015690b 	andseq	r6, r5, fp, lsl #18
    488c:	03016400 	movweq	r6, #5120	; 0x1400
    4890:	1d7c0216 	lfmne	f0, 2, [ip, #-88]!	; (ldclne 2, cr0, [ip, #-88]!)	; 0xffffffa8
    4894:	0c0c0000 	stceq	0, cr0, [ip], {0}
    4898:	0300000d 	movweq	r0, #13
    489c:	1d7c0217 	lfmne	f0, 2, [ip, #-92]!	; (ldclne 2, cr0, [ip, #-92]!)	; 0xffffffa4
    48a0:	23020000 	movwcs	r0, #8192	; 0x2000
    48a4:	0be30c00 	bleq	ff8c78ac <__bss_end+0xff8c3624>
    48a8:	18030000 	stmdane	r3, {}
    48ac:	001d8102 	andseq	r8, sp, r2, lsl #2
    48b0:	04230200 	strteq	r0, [r3], #-512	; 0x200
    48b4:	0015610c 	andseq	r6, r5, ip, lsl #2
    48b8:	02190300 	andseq	r0, r9, #0
    48bc:	00001d86 	andeq	r1, r0, r6, lsl #27
    48c0:	0c082302 	stceq	3, cr2, [r8], {2}
    48c4:	000013bc 	undefined instruction 0x000013bc
    48c8:	8b021a03 	blhi	8b0dc <__bss_end+0x86e54>
    48cc:	0200001d 	andeq	r0, r0, #29
    48d0:	a10c0c23 	tstge	ip, r3, lsr #24
    48d4:	03000014 	movweq	r0, #20
    48d8:	1d90021b 	lfmne	f0, 4, [r0, #108]	; (ldcne 2, cr0, [r0, #108])	; 0x6c
    48dc:	23020000 	movwcs	r0, #8192	; 0x2000
    48e0:	05b30c10 	ldreq	r0, [r3, #3088]!	; 0xc10
    48e4:	1c030000 	stcne	0, cr0, [r3], {0}
    48e8:	001d9502 	andseq	r9, sp, r2, lsl #10
    48ec:	14230200 	strtne	r0, [r3], #-512	; 0x200
    48f0:	0009410c 	andeq	r4, r9, ip, lsl #2
    48f4:	021d0300 	andseq	r0, sp, #0
    48f8:	00001d9a 	muleq	r0, sl, sp
    48fc:	0c182302 	ldceq	3, cr2, [r8], {2}
    4900:	000005bd 	undefined instruction 0x000005bd
    4904:	95021e03 	strls	r1, [r2, #-3587]	; 0xe03
    4908:	0200001d 	andeq	r0, r0, #29
    490c:	640c1c23 	strvs	r1, [ip], #-3107	; 0xc23
    4910:	03000011 	movweq	r0, #17
    4914:	1d9f021f 	lfmne	f0, 4, [pc, #124]	; (ldcne 2, cr0, [pc, #124])	; 0x7c
    4918:	23020000 	movwcs	r0, #8192	; 0x2000
    491c:	07c00c20 	strbeq	r0, [r0, r0, lsr #24]
    4920:	20030000 	andcs	r0, r3, r0
    4924:	001da402 	andseq	sl, sp, r2, lsl #8
    4928:	24230200 	strtcs	r0, [r3], #-512	; 0x200
    492c:	0014b90c 	andseq	fp, r4, ip, lsl #18
    4930:	02210300 	eoreq	r0, r1, #0
    4934:	00001da9 	andeq	r1, r0, r9, lsr #27
    4938:	0c282302 	stceq	3, cr2, [r8], #-8
    493c:	000005c7 	andeq	r0, r0, r7, asr #11
    4940:	95022203 	strls	r2, [r2, #-515]	; 0x203
    4944:	0200001d 	andeq	r0, r0, #29
    4948:	f20c2c23 	undefined instruction 0xf20c2c23
    494c:	03000013 	movweq	r0, #19
    4950:	1dae0223 	sfmne	f0, 4, [lr, #140]!	; (stcne 2, cr0, [lr, #140]!)	; 0x8c
    4954:	23020000 	movwcs	r0, #8192	; 0x2000
    4958:	05d10c30 	ldrbeq	r0, [r1, #3120]	; 0xc30
    495c:	24030000 	strcs	r0, [r3]
    4960:	001d9502 	andseq	r9, sp, r2, lsl #10
    4964:	34230200 	strtcc	r0, [r3], #-512	; 0x200
    4968:	0011250c 	andseq	r2, r1, ip, lsl #10
    496c:	02250300 	eoreq	r0, r5, #0
    4970:	00001db3 	undefined instruction 0x00001db3
    4974:	0c382302 	ldceq	3, cr2, [r8], #-8
    4978:	000007f0 	strdeq	r0, [r0], -r0
    497c:	b8022603 	stmdalt	r2, {r0, r1, r9, sl, sp}
    4980:	0200001d 	andeq	r0, r0, #29
    4984:	db0c3c23 	blle	313a18 <__bss_end+0x30f790>
    4988:	03000005 	movweq	r0, #5
    498c:	1dcd0227 	sfmne	f0, 2, [sp, #156]	; (stclne 2, cr0, [sp, #156])	; 0x9c
    4990:	23020000 	movwcs	r0, #8192	; 0x2000
    4994:	0a300c40 	beq	c07a9c <__bss_end+0xc03814>
    4998:	28030000 	stmdacs	r3, {}
    499c:	001dd202 	andseq	sp, sp, r2, lsl #4
    49a0:	50230200 	eorpl	r0, r3, r0, lsl #4
    49a4:	000f210c 	andeq	r2, pc, ip, lsl #2
    49a8:	02290300 	eoreq	r0, r9, #0
    49ac:	00001dd7 	ldrdeq	r1, [r0], -r7
    49b0:	0c542302 	mrrceq	3, 0, r2, r4, cr2
    49b4:	00000d7e 	andeq	r0, r0, lr, ror sp
    49b8:	dc022a03 	stcle	10, cr2, [r2], {3}
    49bc:	0200001d 	andeq	r0, r0, #29
    49c0:	a90c5823 	stmdbge	ip, {r0, r1, r5, fp, ip, lr}
    49c4:	03000014 	movweq	r0, #20
    49c8:	1de1022b 	sfmne	f0, 2, [r1, #172]!	; (stclne 2, cr0, [r1, #172]!)	; 0xac
    49cc:	23020000 	movwcs	r0, #8192	; 0x2000
    49d0:	0cbd0c5c 	ldceq	12, cr0, [sp], #368	; 0x170
    49d4:	2c030000 	stccs	0, cr0, [r3], {0}
    49d8:	001de602 	andseq	lr, sp, r2, lsl #12
    49dc:	60230200 	eorvs	r0, r3, r0, lsl #4
    49e0:	000cc60c 	andeq	ip, ip, ip, lsl #12
    49e4:	022d0300 	eoreq	r0, sp, #0
    49e8:	00001deb 	andeq	r1, r0, fp, ror #27
    49ec:	0c642302 	stcleq	3, cr2, [r4], #-8
    49f0:	00000a03 	andeq	r0, r0, r3, lsl #20
    49f4:	f0022e03 	undefined instruction 0xf0022e03
    49f8:	0200001d 	andeq	r0, r0, #29
    49fc:	160c6823 	strne	r6, [ip], -r3, lsr #16
    4a00:	03000015 	movweq	r0, #21
    4a04:	1df5022f 	lfmne	f0, 2, [r5, #188]!	; (ldclne 2, cr0, [r5, #188]!)	; 0xbc
    4a08:	23020000 	movwcs	r0, #8192	; 0x2000
    4a0c:	05e50c6c 	strbeq	r0, [r5, #3180]!	; 0xc6c
    4a10:	30030000 	andcc	r0, r3, r0
    4a14:	001dfa02 	andseq	pc, sp, r2, lsl #20
    4a18:	70230200 	eorvc	r0, r3, r0, lsl #4
    4a1c:	0013fa0c 	andseq	pc, r3, ip, lsl #20
    4a20:	02310300 	eorseq	r0, r1, #0
    4a24:	00001dff 	strdeq	r1, [r0], -pc
    4a28:	01802303 	orreq	r2, r0, r3, lsl #6
    4a2c:	000afe0c 	andeq	pc, sl, ip, lsl #28
    4a30:	02320300 	eorseq	r0, r2, #0
    4a34:	00001dff 	strdeq	r1, [r0], -pc
    4a38:	01842303 	orreq	r2, r4, r3, lsl #6
    4a3c:	0008f80c 	andeq	pc, r8, ip, lsl #16
    4a40:	02330300 	eorseq	r0, r3, #0
    4a44:	00001dff 	strdeq	r1, [r0], -pc
    4a48:	01882303 	orreq	r2, r8, r3, lsl #6
    4a4c:	0012170c 	andseq	r1, r2, ip, lsl #14
    4a50:	02340300 	eorseq	r0, r4, #0
    4a54:	00001dff 	strdeq	r1, [r0], -pc
    4a58:	018c2303 	orreq	r2, ip, r3, lsl #6
    4a5c:	000b430c 	andeq	r4, fp, ip, lsl #6
    4a60:	02350300 	eorseq	r0, r5, #0
    4a64:	00001dff 	strdeq	r1, [r0], -pc
    4a68:	01902303 	orrseq	r2, r0, r3, lsl #6
    4a6c:	0005ef0c 	andeq	lr, r5, ip, lsl #30
    4a70:	02360300 	eorseq	r0, r6, #0
    4a74:	00001d95 	muleq	r0, r5, sp
    4a78:	01942303 	orrseq	r2, r4, r3, lsl #6
    4a7c:	0013130c 	andseq	r1, r3, ip, lsl #6
    4a80:	02370300 	eorseq	r0, r7, #0
    4a84:	00001dff 	strdeq	r1, [r0], -pc
    4a88:	01982303 	orrseq	r2, r8, r3, lsl #6
    4a8c:	0009a50c 	andeq	sl, r9, ip, lsl #10
    4a90:	02380300 	eorseq	r0, r8, #0
    4a94:	00001dff 	strdeq	r1, [r0], -pc
    4a98:	019c2303 	orrseq	r2, ip, r3, lsl #6
    4a9c:	000e4f0c 	andeq	r4, lr, ip, lsl #30
    4aa0:	02390300 	eorseq	r0, r9, #0
    4aa4:	00001dff 	strdeq	r1, [r0], -pc
    4aa8:	01a02303 	lsleq	r2, r3, #6
    4aac:	00084e0c 	andeq	r4, r8, ip, lsl #28
    4ab0:	023a0300 	eorseq	r0, sl, #0
    4ab4:	00001dff 	strdeq	r1, [r0], -pc
    4ab8:	01a42303 	undefined instruction 0x01a42303
    4abc:	0010290c 	andseq	r2, r0, ip, lsl #18
    4ac0:	023b0300 	eorseq	r0, fp, #0
    4ac4:	00001dff 	strdeq	r1, [r0], -pc
    4ac8:	01a82303 	undefined instruction 0x01a82303
    4acc:	0005f90c 	andeq	pc, r5, ip, lsl #18
    4ad0:	023c0300 	eorseq	r0, ip, #0
    4ad4:	00001d95 	muleq	r0, r5, sp
    4ad8:	01ac2303 	undefined instruction 0x01ac2303
    4adc:	000d770c 	andeq	r7, sp, ip, lsl #14
    4ae0:	023d0300 	eorseq	r0, sp, #0
    4ae4:	00001dff 	strdeq	r1, [r0], -pc
    4ae8:	01b02303 	lslseq	r2, r3, #6
    4aec:	0006c50c 	andeq	ip, r6, ip, lsl #10
    4af0:	023e0300 	eorseq	r0, lr, #0
    4af4:	00001d95 	muleq	r0, r5, sp
    4af8:	01b42303 	undefined instruction 0x01b42303
    4afc:	000cda0c 	andeq	sp, ip, ip, lsl #20
    4b00:	023f0300 	eorseq	r0, pc, #0
    4b04:	00001e04 	andeq	r1, r0, r4, lsl #28
    4b08:	01b82303 	undefined instruction 0x01b82303
    4b0c:	0012910c 	andseq	r9, r2, ip, lsl #2
    4b10:	02400300 	subeq	r0, r0, #0
    4b14:	00001d95 	muleq	r0, r5, sp
    4b18:	01bc2303 	undefined instruction 0x01bc2303
    4b1c:	000fd30c 	andeq	sp, pc, ip, lsl #6
    4b20:	02410300 	subeq	r0, r1, #0
    4b24:	00001e04 	andeq	r1, r0, r4, lsl #28
    4b28:	01c02303 	biceq	r2, r0, r3, lsl #6
    4b2c:	00132c0c 	andseq	r2, r3, ip, lsl #24
    4b30:	02420300 	subeq	r0, r2, #0
    4b34:	00001e09 	andeq	r1, r0, r9, lsl #28
    4b38:	01c42303 	biceq	r2, r4, r3, lsl #6
    4b3c:	000dad0c 	andeq	sl, sp, ip, lsl #26
    4b40:	02430300 	subeq	r0, r3, #0
    4b44:	00001d95 	muleq	r0, r5, sp
    4b48:	01c82303 	biceq	r2, r8, r3, lsl #6
    4b4c:	0009ab0c 	andeq	sl, r9, ip, lsl #22
    4b50:	02440300 	subeq	r0, r4, #0
    4b54:	00001e0e 	andeq	r1, r0, lr, lsl #28
    4b58:	01cc2303 	biceq	r2, ip, r3, lsl #6
    4b5c:	000fb40c 	andeq	fp, pc, ip, lsl #8
    4b60:	02450300 	subeq	r0, r5, #0
    4b64:	00001e13 	andeq	r1, r0, r3, lsl lr
    4b68:	01d02303 	bicseq	r2, r0, r3, lsl #6
    4b6c:	000db80c 	andeq	fp, sp, ip, lsl #16
    4b70:	02460300 	subeq	r0, r6, #0
    4b74:	00001d95 	muleq	r0, r5, sp
    4b78:	01d42303 	bicseq	r2, r4, r3, lsl #6
    4b7c:	000dc30c 	andeq	ip, sp, ip, lsl #6
    4b80:	02470300 	subeq	r0, r7, #0
    4b84:	00001e28 	andeq	r1, r0, r8, lsr #28
    4b88:	01d82303 	bicseq	r2, r8, r3, lsl #6
    4b8c:	0010560c 	andseq	r5, r0, ip, lsl #12
    4b90:	02480300 	subeq	r0, r8, #0
    4b94:	00001e2d 	andeq	r1, r0, sp, lsr #28
    4b98:	02802303 	addeq	r2, r0, #201326592	; 0xc000000
    4b9c:	0010430c 	andseq	r4, r0, ip, lsl #6
    4ba0:	02490300 	subeq	r0, r9, #0
    4ba4:	00001e32 	andeq	r1, r0, r2, lsr lr
    4ba8:	02842303 	addeq	r2, r4, #201326592	; 0xc000000
    4bac:	000eba0c 	andeq	fp, lr, ip, lsl #20
    4bb0:	024a0300 	subeq	r0, sl, #0
    4bb4:	00001d95 	muleq	r0, r5, sp
    4bb8:	02882303 	addeq	r2, r8, #201326592	; 0xc000000
    4bbc:	000d330c 	andeq	r3, sp, ip, lsl #6
    4bc0:	024b0300 	subeq	r0, fp, #0
    4bc4:	00001e32 	andeq	r1, r0, r2, lsr lr
    4bc8:	028c2303 	addeq	r2, ip, #201326592	; 0xc000000
    4bcc:	000de50c 	andeq	lr, sp, ip, lsl #10
    4bd0:	024c0300 	subeq	r0, ip, #0
    4bd4:	00001d95 	muleq	r0, r5, sp
    4bd8:	02902303 	addseq	r2, r0, #201326592	; 0xc000000
    4bdc:	000df00c 	andeq	pc, sp, ip
    4be0:	024d0300 	subeq	r0, sp, #0
    4be4:	00001d95 	muleq	r0, r5, sp
    4be8:	02942303 	addseq	r2, r4, #201326592	; 0xc000000
    4bec:	0008560c 	andeq	r5, r8, ip, lsl #12
    4bf0:	024e0300 	subeq	r0, lr, #0
    4bf4:	00001e37 	andeq	r1, r0, r7, lsr lr
    4bf8:	02982303 	addseq	r2, r8, #201326592	; 0xc000000
    4bfc:	000dfb0c 	andeq	pc, sp, ip, lsl #22
    4c00:	024f0300 	subeq	r0, pc, #0
    4c04:	00001e3c 	andeq	r1, r0, ip, lsr lr
    4c08:	029c2303 	addseq	r2, ip, #201326592	; 0xc000000
    4c0c:	0009c60c 	andeq	ip, r9, ip, lsl #12
    4c10:	02500300 	subseq	r0, r0, #0
    4c14:	00001e41 	andeq	r1, r0, r1, asr #28
    4c18:	02ac2303 	adceq	r2, ip, #201326592	; 0xc000000
    4c1c:	000e060c 	andeq	r0, lr, ip, lsl #12
    4c20:	02510300 	subseq	r0, r1, #0
    4c24:	00001d95 	muleq	r0, r5, sp
    4c28:	02b02303 	adcseq	r2, r0, #201326592	; 0xc000000
    4c2c:	000c920c 	andeq	r9, ip, ip, lsl #4
    4c30:	02520300 	subseq	r0, r2, #0
    4c34:	00001e46 	andeq	r1, r0, r6, asr #28
    4c38:	02b42303 	adcseq	r2, r4, #201326592	; 0xc000000
    4c3c:	000e110c 	andeq	r1, lr, ip, lsl #2
    4c40:	02530300 	subseq	r0, r3, #0
    4c44:	00001d95 	muleq	r0, r5, sp
    4c48:	02b82303 	adcseq	r2, r8, #201326592	; 0xc000000
    4c4c:	0007fa0c 	andeq	pc, r7, ip, lsl #20
    4c50:	02540300 	subseq	r0, r4, #0
    4c54:	00001e4b 	andeq	r1, r0, fp, asr #28
    4c58:	02bc2303 	adcseq	r2, ip, #201326592	; 0xc000000
    4c5c:	00130b0c 	andseq	r0, r3, ip, lsl #22
    4c60:	02550300 	subseq	r0, r5, #0
    4c64:	00001e50 	andeq	r1, r0, r0, asr lr
    4c68:	02c02303 	sbceq	r2, r0, #201326592	; 0xc000000
    4c6c:	0014560c 	andseq	r5, r4, ip, lsl #12
    4c70:	02560300 	subseq	r0, r6, #0
    4c74:	00001e55 	andeq	r1, r0, r5, asr lr
    4c78:	02c42303 	sbceq	r2, r4, #201326592	; 0xc000000
    4c7c:	000e8b0c 	andeq	r8, lr, ip, lsl #22
    4c80:	02570300 	subseq	r0, r7, #0
    4c84:	00001d95 	muleq	r0, r5, sp
    4c88:	02c82303 	sbceq	r2, r8, #201326592	; 0xc000000
    4c8c:	000ef50c 	andeq	pc, lr, ip, lsl #10
    4c90:	02580300 	subseq	r0, r8, #0
    4c94:	00001e5a 	andeq	r1, r0, sl, asr lr
    4c98:	02cc2303 	sbceq	r2, ip, #201326592	; 0xc000000
    4c9c:	000ea80c 	andeq	sl, lr, ip, lsl #16
    4ca0:	02590300 	subseq	r0, r9, #0
    4ca4:	00001e5f 	andeq	r1, r0, pc, asr lr
    4ca8:	02d02303 	sbcseq	r2, r0, #201326592	; 0xc000000
    4cac:	00144e0c 	andseq	r4, r4, ip, lsl #28
    4cb0:	025a0300 	subseq	r0, sl, #0
    4cb4:	00001e64 	andeq	r1, r0, r4, ror #28
    4cb8:	02d42303 	sbcseq	r2, r4, #201326592	; 0xc000000
    4cbc:	000e960c 	andeq	r9, lr, ip, lsl #12
    4cc0:	025b0300 	subseq	r0, fp, #0
    4cc4:	00001d95 	muleq	r0, r5, sp
    4cc8:	02d82303 	sbcseq	r2, r8, #201326592	; 0xc000000
    4ccc:	00083f0c 	andeq	r3, r8, ip, lsl #30
    4cd0:	025c0300 	subseq	r0, ip, #0
    4cd4:	00001e69 	andeq	r1, r0, r9, ror #28
    4cd8:	02dc2303 	sbcseq	r2, ip, #201326592	; 0xc000000
    4cdc:	00142e0c 	andseq	r2, r4, ip, lsl #28
    4ce0:	025d0300 	subseq	r0, sp, #0
    4ce4:	00001e6e 	andeq	r1, r0, lr, ror #28
    4ce8:	02e02303 	rsceq	r2, r0, #201326592	; 0xc000000
    4cec:	017c0d00 	cmneq	ip, r0, lsl #26
    4cf0:	fa0d0000 	blx	344cf8 <__bss_end+0x340a70>
    4cf4:	0d000001 	stceq	0, cr0, [r0, #-4]
    4cf8:	000002ab 	andeq	r0, r0, fp, lsr #5
    4cfc:	0003290d 	andeq	r2, r3, sp, lsl #18
    4d00:	03fc0d00 	mvnseq	r0, #0
    4d04:	5e0d0000 	cdppl	0, 0, cr0, cr13, cr0, {0}
    4d08:	0d000000 	stceq	0, cr0, [r0]
    4d0c:	00000502 	andeq	r0, r0, r2, lsl #10
    4d10:	0006190d 	andeq	r1, r6, sp, lsl #18
    4d14:	06a80d00 	strteq	r0, [r8], r0, lsl #26
    4d18:	8c0d0000 	stchi	0, cr0, [sp], {0}
    4d1c:	0d000007 	stceq	0, cr0, [r0, #-28]	; 0xffffffe4
    4d20:	0000085f 	andeq	r0, r0, pc, asr r8
    4d24:	0008dd0d 	andeq	sp, r8, sp, lsl #26
    4d28:	095b0d00 	ldmdbeq	fp, {r8, sl, fp}^
    4d2c:	5e0e0000 	cdppl	0, 0, cr0, cr14, cr0, {0}
    4d30:	cd000000 	stcgt	0, cr0, [r0]
    4d34:	0f00001d 	svceq	0x0000001d
    4d38:	0000007e 	andeq	r0, r0, lr, ror r0
    4d3c:	bd0d0003 	stclt	0, cr0, [sp, #-12]
    4d40:	0d00001d 	stceq	0, cr0, [r0, #-116]	; 0xffffff8c
    4d44:	00000a1d 	andeq	r0, r0, sp, lsl sl
    4d48:	000abd0d 	andeq	fp, sl, sp, lsl #26
    4d4c:	0b3b0d00 	bleq	ec8154 <__bss_end+0xec3ecc>
    4d50:	750d0000 	strvc	r0, [sp]
    4d54:	0d00000b 	stceq	0, cr0, [r0, #-44]	; 0xffffffd4
    4d58:	00000d59 	andeq	r0, r0, r9, asr sp
    4d5c:	000e930d 	andeq	r9, lr, sp, lsl #6
    4d60:	0f610d00 	svceq	0x00610d00
    4d64:	1d0d0000 	stcne	0, cr0, [sp]
    4d68:	0d000010 	stceq	0, cr0, [r0, #-64]	; 0xffffffc0
    4d6c:	00001dbd 	undefined instruction 0x00001dbd
    4d70:	0010b50d 	andseq	fp, r0, sp, lsl #10
    4d74:	11170d00 	tstne	r7, r0, lsl #26
    4d78:	af0d0000 	svcge	0x000d0000
    4d7c:	0d000011 	stceq	0, cr0, [r0, #-68]	; 0xffffffbc
    4d80:	00001247 	andeq	r1, r0, r7, asr #4
    4d84:	0012cd0d 	andseq	ip, r2, sp, lsl #26
    4d88:	005e0e00 	subseq	r0, lr, r0, lsl #28
    4d8c:	1e280000 	cdpne	0, 2, cr0, cr8, cr0, {0}
    4d90:	7e0f0000 	cdpvc	0, 0, cr0, cr15, cr0, {0}
    4d94:	09000000 	stmdbeq	r0, {}
    4d98:	1e180d00 	cdpne	13, 1, cr0, cr8, cr0, {0}
    4d9c:	ad0d0000 	stcge	0, cr0, [sp]
    4da0:	0d000013 	stceq	0, cr0, [r0, #-76]	; 0xffffffb4
    4da4:	00001433 	andeq	r1, r0, r3, lsr r4
    4da8:	0014b90d 	andseq	fp, r4, sp, lsl #18
    4dac:	1dbd0d00 	ldcne	13, cr0, [sp]
    4db0:	750d0000 	strvc	r0, [sp]
    4db4:	0d000015 	stceq	0, cr0, [r0, #-84]	; 0xffffffac
    4db8:	000015fb 	strdeq	r1, [r0], -fp
    4dbc:	00166f0d 	andseq	r6, r6, sp, lsl #30
    4dc0:	16ad0d00 	strtne	r0, [sp], r0, lsl #26
    4dc4:	eb0d0000 	bl	344dcc <__bss_end+0x340b44>
    4dc8:	0d000016 	stceq	0, cr0, [r0, #-88]	; 0xffffffa8
    4dcc:	00001729 	andeq	r1, r0, r9, lsr #14
    4dd0:	00179d0d 	andseq	r9, r7, sp, lsl #26
    4dd4:	18230d00 	stmdane	r3!, {r8, sl, fp}
    4dd8:	bb0d0000 	bllt	344de0 <__bss_end+0x340b58>
    4ddc:	0d000018 	stceq	0, cr0, [r0, #-96]	; 0xffffffa0
    4de0:	0000190b 	andeq	r1, r0, fp, lsl #18
    4de4:	000b1909 	andeq	r1, fp, r9, lsl #18
    4de8:	025f0300 	subseq	r0, pc, #0
    4dec:	00001917 	andeq	r1, r0, r7, lsl r9
    4df0:	00167c06 	andseq	r7, r6, r6, lsl #24
    4df4:	1a042400 	bne	10ddfc <__bss_end+0x109b74>
    4df8:	00001f0a 	andeq	r1, r0, sl, lsl #30
    4dfc:	0016c310 	andseq	ip, r6, r0, lsl r3
    4e00:	0a1b0400 	beq	6c5e08 <__bss_end+0x6c1b80>
    4e04:	0200001f 	andeq	r0, r0, #31
    4e08:	ad100023 	ldcge	0, cr0, [r0, #-140]	; 0xffffff74
    4e0c:	04000016 	streq	r0, [r0], #-22
    4e10:	001f0a1c 	andseq	r0, pc, ip, lsl sl
    4e14:	04230200 	strteq	r0, [r3], #-512	; 0x200
    4e18:	00163d10 	andseq	r3, r6, r0, lsl sp
    4e1c:	0a1d0400 	beq	745e24 <__bss_end+0x741b9c>
    4e20:	0200001f 	andeq	r0, r0, #31
    4e24:	dd100823 	ldcle	8, cr0, [r0, #-140]	; 0xffffff74
    4e28:	04000015 	streq	r0, [r0], #-21
    4e2c:	001f0a1e 	andseq	r0, pc, lr, lsl sl
    4e30:	0c230200 	sfmeq	f0, 4, [r3]	; (stceq 2, cr0, [r3])
    4e34:	0016b810 	andseq	fp, r6, r0, lsl r8
    4e38:	0a1f0400 	beq	7c5e40 <__bss_end+0x7c1bb8>
    4e3c:	0200001f 	andeq	r0, r0, #31
    4e40:	a4101023 	ldrge	r1, [r0], #-35	; 0x23
    4e44:	04000016 	streq	r0, [r0], #-22
    4e48:	001f0a20 	andseq	r0, pc, r0, lsr #20
    4e4c:	14230200 	strtne	r0, [r3], #-512	; 0x200
    4e50:	00163310 	andseq	r3, r6, r0, lsl r3
    4e54:	0a210400 	beq	845e5c <__bss_end+0x841bd4>
    4e58:	0200001f 	andeq	r0, r0, #31
    4e5c:	2e101823 	cdpcs	8, 1, cr1, cr0, cr3, {1}
    4e60:	04000017 	streq	r0, [r0], #-23
    4e64:	001f0a22 	andseq	r0, pc, r2, lsr #20
    4e68:	1c230200 	sfmne	f0, 4, [r3]	; (stcne 2, cr0, [r3])
    4e6c:	0016f010 	andseq	pc, r6, r0, lsl r0
    4e70:	0a230400 	beq	8c5e78 <__bss_end+0x8c1bf0>
    4e74:	0200001f 	andeq	r0, r0, #31
    4e78:	0d002023 	stceq	0, cr2, [r0, #-140]	; 0xffffff74
    4e7c:	00000069 	andeq	r0, r0, r9, rrx
    4e80:	00164603 	andseq	r4, r6, r3, lsl #12
    4e84:	7f250400 	svcvc	0x00250400
    4e88:	1100001e 	tstne	r0, lr, lsl r0
    4e8c:	00001653 	andeq	r1, r0, r3, asr r6
    4e90:	33290404 	teqcc	r9, #67108864	; 0x4000000
    4e94:	1200001f 	andne	r0, r0, #31
    4e98:	000016e6 	andeq	r1, r0, r6, ror #13
    4e9c:	15e51200 	strbne	r1, [r5, #512]!	; 0x200
    4ea0:	00010000 	andeq	r0, r1, r0
    4ea4:	0015ef13 	andseq	lr, r5, r3, lsl pc
    4ea8:	01300100 	teqeq	r0, r0, lsl #2
    4eac:	0000004c 	andeq	r0, r0, ip, asr #32
    4eb0:	17431301 	strbne	r1, [r3, -r1, lsl #6]
    4eb4:	4c010000 	stcmi	0, cr0, [r1], {0}
    4eb8:	00004c01 	andeq	r4, r0, r1, lsl #24
    4ebc:	01140100 	tsteq	r4, r0, lsl #2
    4ec0:	00001612 	andeq	r1, r0, r2, lsl r6
    4ec4:	4c016901 	stcmi	9, cr6, [r1], {1}
    4ec8:	04000000 	streq	r0, [r0]
    4ecc:	5400000b 	strpl	r0, [r0], #-11
    4ed0:	0100000b 	tsteq	r0, fp
    4ed4:	001f785d 	andseq	r7, pc, sp, asr r8
    4ed8:	15d71500 	ldrbne	r1, [r7, #1280]	; 0x500
    4edc:	69010000 	stmdbvs	r1, {}
    4ee0:	00000057 	andeq	r0, r0, r7, asr r0
    4ee4:	00000134 	andeq	r0, r0, r4, lsr r1
    4ee8:	170b1600 	strne	r1, [fp, -r0, lsl #12]
    4eec:	a2010000 	andge	r0, r1, #0
    4ef0:	00005701 	andeq	r5, r0, r1, lsl #14
    4ef4:	000b5400 	andeq	r5, fp, r0, lsl #8
    4ef8:	000bec00 	andeq	lr, fp, r0, lsl #24
    4efc:	af5d0100 	svcge	0x005d0100
    4f00:	1700001f 	smladne	r0, pc, r0, r0
    4f04:	00001673 	andeq	r1, r0, r3, ror r6
    4f08:	0069a401 	rsbeq	sl, r9, r1, lsl #8
    4f0c:	01470000 	cmpeq	r7, r0
    4f10:	26180000 	ldrcs	r0, [r8], -r0
    4f14:	01000017 	tsteq	r0, r7, lsl r0
    4f18:	000069a5 	andeq	r6, r0, r5, lsr #19
    4f1c:	00520100 	subseq	r0, r2, r0, lsl #2
    4f20:	16960119 	undefined instruction 0x16960119
    4f24:	ce010000 	cdpgt	0, 0, cr0, cr1, cr0, {0}
    4f28:	000bec01 	andeq	lr, fp, r1, lsl #24
    4f2c:	000c4800 	andeq	r4, ip, r0, lsl #16
    4f30:	1a5d0100 	bne	1745338 <__bss_end+0x17410b0>
    4f34:	0016cd01 	andseq	ip, r6, r1, lsl #26
    4f38:	01f20100 	mvnseq	r0, r0, lsl #2
    4f3c:	0000004c 	andeq	r0, r0, ip, asr #32
    4f40:	00000c48 	andeq	r0, r0, r8, asr #24
    4f44:	00000f20 	andeq	r0, r0, r0, lsr #30
    4f48:	0000015a 	andeq	r0, r0, sl, asr r1
    4f4c:	00002070 	andeq	r2, r0, r0, ror r0
    4f50:	00706f1b 	rsbseq	r6, r0, fp, lsl pc
    4f54:	1f1af201 	svcne	0x001af201
    4f58:	01790000 	cmneq	r9, r0
    4f5c:	c7150000 	ldrgt	r0, [r5, -r0]
    4f60:	01000016 	tsteq	r0, r6, lsl r0
    4f64:	00002cf2 	strdeq	r2, [r0], -r2
    4f68:	0001a200 	andeq	sl, r1, r0, lsl #4
    4f6c:	160c1500 	strne	r1, [ip], -r0, lsl #10
    4f70:	f2010000 	vhadd.s8	d0, d1, d0
    4f74:	0000002c 	andeq	r0, r0, ip, lsr #32
    4f78:	000001c0 	andeq	r0, r0, r0, asr #3
    4f7c:	00188f15 	andseq	r8, r8, r5, lsl pc
    4f80:	70f20100 	rscsvc	r0, r2, r0, lsl #2
    4f84:	de000020 	cdple	0, 0, cr0, cr0, cr0, {1}
    4f88:	1c000001 	stcne	0, cr0, [r0], {1}
    4f8c:	00001661 	andeq	r1, r0, r1, ror #12
    4f90:	0037f401 	eorseq	pc, r7, r1, lsl #8
    4f94:	26170000 	ldrcs	r0, [r7], -r0
    4f98:	01000017 	tsteq	r0, r7, lsl r0
    4f9c:	000069f5 	strdeq	r6, [r0], -r5
    4fa0:	00020700 	andeq	r0, r2, r0, lsl #14
    4fa4:	65721d00 	ldrbvs	r1, [r2, #-3328]!	; 0xd00
    4fa8:	f6010074 	undefined instruction 0xf6010074
    4fac:	00000057 	andeq	r0, r0, r7, asr r0
    4fb0:	0000027d 	andeq	r0, r0, sp, ror r2
    4fb4:	0016031e 	andseq	r0, r6, lr, lsl r3
    4fb8:	01740100 	cmneq	r4, r0, lsl #2
    4fbc:	00000e5c 	andeq	r0, r0, ip, asr lr
    4fc0:	001f331f 	andseq	r3, pc, pc, lsl r3
    4fc4:	000e5c00 	andeq	r5, lr, r0, lsl #24
    4fc8:	000eac00 	andeq	sl, lr, r0, lsl #24
    4fcc:	01780100 	cmneq	r8, r0, lsl #2
    4fd0:	001f331f 	andseq	r3, pc, pc, lsl r3
    4fd4:	000eac00 	andeq	sl, lr, r0, lsl #24
    4fd8:	000ef800 	andeq	pc, lr, r0, lsl #16
    4fdc:	017b0100 	cmneq	fp, r0, lsl #2
    4fe0:	2c042000 	stccs	0, cr2, [r4], {0}
    4fe4:	21000000 	tstcs	r0, r0
    4fe8:	0016f901 	andseq	pc, r6, r1, lsl #18
    4fec:	01940100 	orrseq	r0, r4, r0, lsl #2
    4ff0:	00004c01 	andeq	r4, r0, r1, lsl #24
    4ff4:	000f2000 	andeq	r2, pc, r0
    4ff8:	00124000 	andseq	r4, r2, r0
    4ffc:	00029b00 	andeq	r9, r2, r0, lsl #22
    5000:	00212c00 	eoreq	r2, r1, r0, lsl #24
    5004:	706f2200 	rsbvc	r2, pc, r0, lsl #4
    5008:	01940100 	orrseq	r0, r4, r0, lsl #2
    500c:	00001f1a 	andeq	r1, r0, sl, lsl pc
    5010:	000002ba 	undefined instruction 0x000002ba
    5014:	0016c723 	andseq	ip, r6, r3, lsr #14
    5018:	01940100 	orrseq	r0, r4, r0, lsl #2
    501c:	0000002c 	andeq	r0, r0, ip, lsr #32
    5020:	000002e3 	andeq	r0, r0, r3, ror #5
    5024:	00160c23 	andseq	r0, r6, r3, lsr #24
    5028:	01940100 	orrseq	r0, r4, r0, lsl #2
    502c:	0000002c 	andeq	r0, r0, ip, lsr #32
    5030:	00000301 	andeq	r0, r0, r1, lsl #6
    5034:	00188f23 	andseq	r8, r8, r3, lsr #30
    5038:	01940100 	orrseq	r0, r4, r0, lsl #2
    503c:	00002070 	andeq	r2, r0, r0, ror r0
    5040:	0000031f 	andeq	r0, r0, pc, lsl r3
    5044:	00166124 	andseq	r6, r6, r4, lsr #2
    5048:	01960100 	orrseq	r0, r6, r0, lsl #2
    504c:	00000037 	andeq	r0, r0, r7, lsr r0
    5050:	00172625 	andseq	r2, r7, r5, lsr #12
    5054:	01970100 	orrseq	r0, r7, r0, lsl #2
    5058:	00000069 	andeq	r0, r0, r9, rrx
    505c:	00000348 	andeq	r0, r0, r8, asr #6
    5060:	74657226 	strbtvc	r7, [r5], #-550	; 0x226
    5064:	01980100 	orrseq	r0, r8, r0, lsl #2
    5068:	00000057 	andeq	r0, r0, r7, asr r0
    506c:	000003be 	undefined instruction 0x000003be
    5070:	0016031e 	andseq	r0, r6, lr, lsl r3
    5074:	02170100 	andseq	r0, r7, #0
    5078:	00001170 	andeq	r1, r0, r0, ror r1
    507c:	001f401f 	andseq	r4, pc, pc, lsl r0
    5080:	00117000 	andseq	r7, r1, r0
    5084:	0011c800 	andseq	ip, r1, r0, lsl #16
    5088:	021b0100 	andseq	r0, fp, #0
    508c:	001f401f 	andseq	r4, pc, pc, lsl r0
    5090:	0011c800 	andseq	ip, r1, r0, lsl #16
    5094:	00121c00 	andseq	r1, r2, r0, lsl #24
    5098:	021e0100 	andseq	r0, lr, #0
    509c:	19012700 	stmdbne	r1, {r8, r9, sl, sp}
    50a0:	01000017 	tsteq	r0, r7, lsl r0
    50a4:	004c0185 	subeq	r0, ip, r5, lsl #3
    50a8:	12400000 	subne	r0, r0, #0
    50ac:	12900000 	addsne	r0, r0, #0
    50b0:	03dc0000 	bicseq	r0, ip, #0
    50b4:	550e0000 	strpl	r0, [lr]
    50b8:	55000021 	strpl	r0, [r0, #-33]	; 0x21
    50bc:	0f000021 	svceq	0x00000021
    50c0:	0000007e 	andeq	r0, r0, lr, ror r0
    50c4:	04200002 	strteq	r0, [r0], #-2
    50c8:	00001f0f 	andeq	r1, r0, pc, lsl #30
    50cc:	0016d918 	andseq	sp, r6, r8, lsl r9
    50d0:	6c160100 	ldfvss	f0, [r6], {0}
    50d4:	05000021 	streq	r0, [r0, #-33]	; 0x21
    50d8:	003e3803 	eorseq	r3, lr, r3, lsl #16
    50dc:	21452800 	cmpcs	r5, r0, lsl #16
    50e0:	89180000 	ldmdbhi	r8, {}
    50e4:	01000016 	tsteq	r0, r6, lsl r0
    50e8:	00005e1c 	andeq	r5, r0, ip, lsl lr
    50ec:	68030500 	stmdavs	r3, {r8, sl}
    50f0:	18000042 	stmdane	r0, {r1, r6}
    50f4:	00001736 	andeq	r1, r0, r6, lsr r7
    50f8:	005e1d01 	subseq	r1, lr, r1, lsl #26
    50fc:	03050000 	movweq	r0, #20480	; 0x5000
    5100:	0000426c 	andeq	r4, r0, ip, ror #4
    5104:	00166b18 	andseq	r6, r6, r8, lsl fp
    5108:	551e0100 	ldrpl	r0, [lr, #-256]	; 0x100
    510c:	05000021 	streq	r0, [r0, #-33]	; 0x21
    5110:	00426403 	subeq	r6, r2, r3, lsl #8
    5114:	136f1800 	cmnne	pc, #0
    5118:	1f010000 	svcne	0x00010000
    511c:	000021b5 	undefined instruction 0x000021b5
    5120:	42700305 	rsbsmi	r0, r0, #335544320	; 0x14000000
    5124:	04200000 	strteq	r0, [r0]
    5128:	00001e73 	andeq	r1, r0, r3, ror lr
    512c:	00007300 	andeq	r7, r0, r0, lsl #6
    5130:	b2000200 	andlt	r0, r0, #0
    5134:	04000007 	streq	r0, [r0], #-7
    5138:	00069701 	andeq	r9, r6, r1, lsl #14
    513c:	00129000 	andseq	r9, r2, r0
    5140:	0012b800 	andseq	fp, r2, r0, lsl #16
    5144:	732f2e00 	teqvc	pc, #0
    5148:	72657075 	rsbvc	r7, r5, #117	; 0x75
    514c:	7075732f 	rsbsvc	r7, r5, pc, lsr #6
    5150:	645f7265 	ldrbvs	r7, [pc], #613	; 5158 <__bss_end+0xed0>
    5154:	79616c65 	stmdbvc	r1!, {r0, r2, r5, r6, sl, fp, sp, lr}^
    5158:	2f00532e 	svccs	0x0000532e
    515c:	656d6f68 	strbvs	r6, [sp, #-3944]!	; 0xf68
    5160:	6b696d2f 	blvs	1a60624 <__bss_end+0x1a5c39c>
    5164:	6f772f65 	svcvs	0x00772f65
    5168:	6c2f6b72 	stcvs	11, cr6, [pc], #-456	; 0xfffffe38
    516c:	78756e69 	ldmdavc	r5!, {r0, r3, r5, r6, r9, sl, fp, sp, lr}^
    5170:	3432365f 	ldrtcc	r3, [r2], #-1631	; 0x65f
    5174:	6372612f 	cmnvs	r2, #-1073741813	; 0xc000000b
    5178:	72612f68 	rsbvc	r2, r1, #416	; 0x1a0
    517c:	616d2f6d 	cmnvs	sp, sp, ror #30
    5180:	732d6863 	teqvc	sp, #6488064	; 0x630000
    5184:	69356e75 	ldmdbvs	r5!, {r0, r2, r4, r5, r6, r9, sl, fp, sp, lr}
    5188:	2f6d702f 	svccs	0x006d702f
    518c:	6e617473 	mcrvs	4, 3, r7, cr1, cr3, {3}
    5190:	00796264 	rsbseq	r6, r9, r4, ror #4
    5194:	20554e47 	subscs	r4, r5, r7, asr #28
    5198:	32205341 	eorcc	r5, r0, #67108865	; 0x4000001
    519c:	2e30322e 	cdpcs	2, 3, cr3, cr0, cr14, {1}
    51a0:	80010031 	andhi	r0, r1, r1, lsr r0
    51a4:	000004c9 	andeq	r0, r0, r9, asr #9
    51a8:	07c60002 	strbeq	r0, [r6, r2]
    51ac:	01040000 	tsteq	r4, r0
    51b0:	00000055 	andeq	r0, r0, r5, asr r0
    51b4:	00185d01 	andseq	r5, r8, r1, lsl #26
    51b8:	00028b00 	andeq	r8, r2, r0, lsl #22
    51bc:	0012b800 	andseq	fp, r2, r0, lsl #16
    51c0:	0021a800 	eoreq	sl, r1, r0, lsl #16
    51c4:	0006e500 	andeq	lr, r6, r0, lsl #10
    51c8:	06010200 	streq	r0, [r1], -r0, lsl #4
    51cc:	0000018f 	andeq	r0, r0, pc, lsl #3
    51d0:	0002f803 	andeq	pc, r2, r3, lsl #16
    51d4:	370f0300 	strcc	r0, [pc, -r0, lsl #6]
    51d8:	02000000 	andeq	r0, r0, #0
    51dc:	018d0801 	orreq	r0, sp, r1, lsl #16
    51e0:	02020000 	andeq	r0, r2, #0
    51e4:	00006105 	andeq	r6, r0, r5, lsl #2
    51e8:	07020200 	streq	r0, [r2, -r0, lsl #4]
    51ec:	00000268 	andeq	r0, r0, r8, ror #4
    51f0:	0001f703 	andeq	pc, r1, r3, lsl #14
    51f4:	57120300 	ldrpl	r0, [r2, -r0, lsl #6]
    51f8:	04000000 	streq	r0, [r0]
    51fc:	6e690504 	cdpvs	5, 6, cr0, cr9, cr4, {0}
    5200:	08030074 	stmdaeq	r3, {r2, r4, r5, r6}
    5204:	03000001 	movweq	r0, #1
    5208:	00006913 	andeq	r6, r0, r3, lsl r9
    520c:	07040200 	streq	r0, [r4, -r0, lsl #4]
    5210:	0000022e 	andeq	r0, r0, lr, lsr #4
    5214:	1c050802 	stcne	8, cr0, [r5], {2}
    5218:	02000001 	andeq	r0, r0, #1
    521c:	02240708 	eoreq	r0, r4, #2097152	; 0x200000
    5220:	04050000 	streq	r0, [r5]
    5224:	18730607 	ldmdane	r3!, {r0, r1, r2, r9, sl}^
    5228:	04040000 	streq	r0, [r4]
    522c:	0000b817 	andeq	fp, r0, r7, lsl r8
    5230:	181e0700 	ldmdane	lr, {r8, r9, sl}
    5234:	07000000 	streq	r0, [r0, -r0]
    5238:	0000182e 	andeq	r1, r0, lr, lsr #16
    523c:	183e0701 	ldmdane	lr!, {r0, r8, r9, sl}
    5240:	07020000 	streq	r0, [r2, -r0]
    5244:	000018a4 	andeq	r1, r0, r4, lsr #17
    5248:	18b30703 	ldmne	r3!, {r0, r1, r8, r9, sl}
    524c:	07040000 	streq	r0, [r4, -r0]
    5250:	000017f7 	strdeq	r1, [r0], -r7
    5254:	18cb0705 	stmiane	fp, {r0, r2, r8, r9, sl}^
    5258:	00060000 	andeq	r0, r6, r0
    525c:	0017cf08 	andseq	ip, r7, r8, lsl #30
    5260:	4b041c00 	blmi	10c268 <__bss_end+0x107fe0>
    5264:	00000126 	andeq	r0, r0, r6, lsr #2
    5268:	00646909 	rsbeq	r6, r4, r9, lsl #18
    526c:	00814c04 	addeq	r4, r1, r4, lsl #24
    5270:	23020000 	movwcs	r0, #8192	; 0x2000
    5274:	18e60a00 	stmiane	r6!, {r9, fp}^
    5278:	4d040000 	stcmi	0, cr0, [r4]
    527c:	00000057 	andeq	r0, r0, r7, asr r0
    5280:	0a042302 	beq	10de90 <__bss_end+0x109c08>
    5284:	00001770 	andeq	r1, r0, r0, ror r7
    5288:	00574e04 	subseq	r4, r7, r4, lsl #28
    528c:	23020000 	movwcs	r0, #8192	; 0x2000
    5290:	17830a08 	strne	r0, [r3, r8, lsl #20]
    5294:	4f040000 	svcmi	0x00040000
    5298:	00000057 	andeq	r0, r0, r7, asr r0
    529c:	0a0c2302 	beq	30deac <__bss_end+0x309c24>
    52a0:	00001795 	muleq	r0, r5, r7
    52a4:	00575004 	subseq	r5, r7, r4
    52a8:	23020000 	movwcs	r0, #8192	; 0x2000
    52ac:	17ac0a10 	undefined instruction 0x17ac0a10
    52b0:	51040000 	tstpl	r4, r0
    52b4:	00000057 	andeq	r0, r0, r7, asr r0
    52b8:	0a142302 	beq	50dec8 <__bss_end+0x509c40>
    52bc:	0000178b 	andeq	r1, r0, fp, lsl #15
    52c0:	00575204 	subseq	r5, r7, r4, lsl #4
    52c4:	23020000 	movwcs	r0, #8192	; 0x2000
    52c8:	53060018 	movwpl	r0, #24600	; 0x6018
    52cc:	04000016 	streq	r0, [r0], #-22
    52d0:	013f2905 	teqeq	pc, r5, lsl #18
    52d4:	e6070000 	str	r0, [r7], -r0
    52d8:	00000016 	andeq	r0, r0, r6, lsl r0
    52dc:	0015e507 	andseq	lr, r5, r7, lsl #10
    52e0:	0b000100 	bleq	56e8 <__bss_end+0x1460>
    52e4:	00001766 	andeq	r1, r0, r6, ror #14
    52e8:	6e012b01 	vmlavs.f64	d2, d1, d1
    52ec:	03000001 	movweq	r0, #1
    52f0:	0000016e 	andeq	r0, r0, lr, ror #2
    52f4:	0064690c 	rsbeq	r6, r4, ip, lsl #18
    52f8:	00572b01 	subseq	r2, r7, r1, lsl #22
    52fc:	720d0000 	andvc	r0, sp, #0
    5300:	2d010069 	stccs	0, cr0, [r1, #-420]	; 0xfffffe5c
    5304:	0000016e 	andeq	r0, r0, lr, ror #2
    5308:	0100690d 	tsteq	r0, sp, lsl #18
    530c:	0000572e 	andeq	r5, r0, lr, lsr #14
    5310:	040e0000 	streq	r0, [lr]
    5314:	000000b8 	strheq	r0, [r0], -r8
    5318:	0018da0b 	andseq	sp, r8, fp, lsl #20
    531c:	01140100 	tsteq	r4, r0, lsl #2
    5320:	00000057 	andeq	r0, r0, r7, asr r0
    5324:	00019c03 	andeq	r9, r1, r3, lsl #24
    5328:	17ca0f00 	strbne	r0, [sl, r0, lsl #30]
    532c:	14010000 	strne	r0, [r1]
    5330:	0000016e 	andeq	r0, r0, lr, ror #2
    5334:	00180e0f 	andseq	r0, r8, pc, lsl #28
    5338:	4c140100 	ldfmis	f0, [r4], {0}
    533c:	00000000 	andeq	r0, r0, r0
    5340:	0018f50b 	andseq	pc, r8, fp, lsl #10
    5344:	01480200 	cmpeq	r8, r0, lsl #4
    5348:	0000005e 	andeq	r0, r0, lr, asr r0
    534c:	0001e503 	andeq	lr, r1, r3, lsl #10
    5350:	18c20f00 	stmiane	r2, {r8, r9, sl, fp}^
    5354:	48020000 	stmdami	r2, {}
    5358:	0000005e 	andeq	r0, r0, lr, asr r0
    535c:	00175d0f 	andseq	r5, r7, pc, lsl #26
    5360:	5e480200 	cdppl	2, 4, cr0, cr8, cr0, {0}
    5364:	10000000 	andne	r0, r0, r0
    5368:	00001777 	andeq	r1, r0, r7, ror r7
    536c:	005e4a02 	subseq	r4, lr, r2, lsl #20
    5370:	ed100000 	ldc	0, cr0, [r0]
    5374:	02000018 	andeq	r0, r0, #24
    5378:	00005e4b 	andeq	r5, r0, fp, asr #28
    537c:	17b01000 	ldrne	r1, [r0, r0]!
    5380:	4c020000 	stcmi	0, cr0, [r2], {0}
    5384:	0000004c 	andeq	r0, r0, ip, asr #32
    5388:	e3011100 	movw	r1, #4352	; 0x1100
    538c:	01000017 	tsteq	r0, r7, lsl r0
    5390:	4c0102b4 	sfmmi	f0, 4, [r1], {180}	; (stcmi 2, cr0, [r1], {180})	; 0xb4
    5394:	b8000000 	stmdalt	r0, {}
    5398:	58000012 	stmdapl	r0, {r1, r4}
    539c:	fb000013 	blx	53f2 <__bss_end+0x116a>
    53a0:	14000003 	strne	r0, [r0], #-3
    53a4:	12000002 	andne	r0, r0, #2
    53a8:	00001816 	andeq	r1, r0, r6, lsl r8
    53ac:	2c02b601 	stccs	6, cr11, [r2], {1}
    53b0:	1a000000 	bne	53b8 <__bss_end+0x1130>
    53b4:	00000004 	andeq	r0, r0, r4
    53b8:	17b60111 	undefined instruction 0x17b60111
    53bc:	76010000 	strvc	r0, [r1], -r0
    53c0:	004c0102 	subeq	r0, ip, r2, lsl #2
    53c4:	13580000 	cmpne	r8, #0
    53c8:	13f80000 	mvnsne	r0, #0
    53cc:	045c0000 	ldrbeq	r0, [ip]
    53d0:	02430000 	subeq	r0, r3, #0
    53d4:	16120000 	ldrne	r0, [r2], -r0
    53d8:	01000018 	tsteq	r0, r8, lsl r0
    53dc:	002c0278 	eoreq	r0, ip, r8, ror r2
    53e0:	047b0000 	ldrbteq	r0, [fp]
    53e4:	11000000 	tstne	r0, r0
    53e8:	00179d01 	andseq	r9, r7, r1, lsl #26
    53ec:	01f90100 	mvnseq	r0, r0, lsl #2
    53f0:	00004c01 	andeq	r4, r0, r1, lsl #24
    53f4:	0013f800 	andseq	pc, r3, r0, lsl #16
    53f8:	00170c00 	andseq	r0, r7, r0, lsl #24
    53fc:	0004bd00 	andeq	fp, r4, r0, lsl #26
    5400:	00028200 	andeq	r8, r2, r0, lsl #4
    5404:	17d81300 	ldrbne	r1, [r8, r0, lsl #6]
    5408:	f9010000 	undefined instruction 0xf9010000
    540c:	00005e01 	andeq	r5, r0, r1, lsl #28
    5410:	0004dc00 	andeq	sp, r4, r0, lsl #24
    5414:	18161200 	ldmdane	r6, {r9, ip}
    5418:	fb010000 	blx	45422 <__bss_end+0x4119a>
    541c:	00002c01 	andeq	r2, r0, r1, lsl #24
    5420:	00051b00 	andeq	r1, r5, r0, lsl #22
    5424:	01140000 	tsteq	r4, r0
    5428:	00001806 	andeq	r1, r0, r6, lsl #16
    542c:	4c018d01 	stcmi	13, cr8, [r1], {1}
    5430:	0c000000 	stceq	0, cr0, [r0], {0}
    5434:	b4000017 	strlt	r0, [r0], #-23
    5438:	f3000017 	vqadd.u8	d0, d0, d7
    543c:	fb000005 	blx	545a <__bss_end+0x11d2>
    5440:	15000002 	strne	r0, [r0, #-2]
    5444:	00001ea5 	andeq	r1, r0, r5, lsr #29
    5448:	00818d01 	addeq	r8, r1, r1, lsl #26
    544c:	06120000 	ldreq	r0, [r2], -r0
    5450:	ca160000 	bgt	585458 <__bss_end+0x5811d0>
    5454:	01000017 	tsteq	r0, r7, lsl r0
    5458:	00016e8f 	andeq	r6, r1, pc, lsl #29
    545c:	17540100 	ldrbne	r0, [r4, -r0, lsl #2]
    5460:	006c6176 	rsbeq	r6, ip, r6, ror r1
    5464:	002c9001 	eoreq	r9, ip, r1
    5468:	063b0000 	ldrteq	r0, [fp], -r0
    546c:	7e100000 	cdpvc	0, 1, cr0, cr0, cr0, {0}
    5470:	01000017 	tsteq	r0, r7, lsl r0
    5474:	00002c90 	muleq	r0, r0, ip
    5478:	013f1800 	teqeq	pc, r0, lsl #16
    547c:	17200000 	strne	r0, [r0, -r0]!
    5480:	00000000 	andeq	r0, r0, r0
    5484:	92010000 	andls	r0, r1, #0
    5488:	00015019 	andeq	r5, r1, r9, lsl r0
    548c:	00181a00 	andseq	r1, r8, r0, lsl #20
    5490:	5a1b0000 	bpl	6c5498 <__bss_end+0x6c1210>
    5494:	1b000001 	blne	54a0 <__bss_end+0x1218>
    5498:	00000164 	andeq	r0, r0, r4, ror #2
    549c:	14000000 	strne	r0, [r0]
    54a0:	00189401 	andseq	r9, r8, r1, lsl #8
    54a4:	01470100 	cmpeq	r7, r0, lsl #2
    54a8:	0000004c 	andeq	r0, r0, ip, asr #32
    54ac:	000017b4 	undefined instruction 0x000017b4
    54b0:	000019a8 	andeq	r1, r0, r8, lsr #19
    54b4:	00000665 	andeq	r0, r0, r5, ror #12
    54b8:	00000449 	andeq	r0, r0, r9, asr #8
    54bc:	001ea515 	andseq	sl, lr, r5, lsl r5
    54c0:	81470100 	cmphi	r7, r0, lsl #2
    54c4:	84000000 	strhi	r0, [r0]
    54c8:	15000006 	strne	r0, [r0, #-6]
    54cc:	0000180e 	andeq	r1, r0, lr, lsl #16
    54d0:	004c4701 	subeq	r4, ip, r1, lsl #14
    54d4:	06ce0000 	strbeq	r0, [lr], r0
    54d8:	ca160000 	bgt	5854e0 <__bss_end+0x581258>
    54dc:	01000017 	tsteq	r0, r7, lsl r0
    54e0:	00016e49 	andeq	r6, r1, r9, asr #28
    54e4:	17540100 	ldrbne	r0, [r4, -r0, lsl #2]
    54e8:	006c6176 	rsbeq	r6, ip, r6, ror r1
    54ec:	002c4a01 	eoreq	r4, ip, r1, lsl #20
    54f0:	07180000 	ldreq	r0, [r8, -r0]
    54f4:	7e1c0000 	cdpvc	0, 1, cr0, cr12, cr0, {0}
    54f8:	01000017 	tsteq	r0, r7, lsl r0
    54fc:	00002c4a 	andeq	r2, r0, sl, asr #24
    5500:	00076d00 	andeq	r6, r7, r0, lsl #26
    5504:	18161c00 	ldmdane	r6, {sl, fp, ip}
    5508:	4a010000 	bmi	45510 <__bss_end+0x41288>
    550c:	0000002c 	andeq	r0, r0, ip, lsr #32
    5510:	00000780 	andeq	r0, r0, r0, lsl #15
    5514:	74657217 	strbtvc	r7, [r5], #-535	; 0x217
    5518:	4c4b0100 	stfmie	f0, [fp], {0}
    551c:	b8000000 	stmdalt	r0, {}
    5520:	1d000007 	stcne	0, cr0, [r0, #-28]	; 0xffffffe4
    5524:	0000013f 	andeq	r0, r0, pc, lsr r1
    5528:	000017c4 	andeq	r1, r0, r4, asr #15
    552c:	00000030 	andeq	r0, r0, r0, lsr r0
    5530:	03a84d01 	undefined instruction 0x03a84d01
    5534:	50190000 	andspl	r0, r9, r0
    5538:	1a000001 	bne	5544 <__bss_end+0x12bc>
    553c:	00000048 	andeq	r0, r0, r8, asr #32
    5540:	00015a1b 	andeq	r5, r1, fp, lsl sl
    5544:	01641b00 	cmneq	r4, r0, lsl #22
    5548:	00000000 	andeq	r0, r0, r0
    554c:	0001741e 	andeq	r7, r1, lr, lsl r4
    5550:	0017ec00 	andseq	lr, r7, r0, lsl #24
    5554:	00180800 	andseq	r0, r8, r0, lsl #16
    5558:	c6520100 	ldrbgt	r0, [r2], -r0, lsl #2
    555c:	19000003 	stmdbne	r0, {r0, r1}
    5560:	00000190 	muleq	r0, r0, r1
    5564:	00018519 	andeq	r8, r1, r9, lsl r5
    5568:	9c1d0000 	ldcls	0, cr0, [sp], {0}
    556c:	0c000001 	stceq	0, cr0, [r0], {1}
    5570:	60000018 	andvs	r0, r0, r8, lsl r0
    5574:	01000000 	tsteq	r0, r0
    5578:	00040957 	andeq	r0, r4, r7, asr r9
    557c:	01b81900 	undefined instruction 0x01b81900
    5580:	ad1f0000 	ldcge	0, cr0, [pc]
    5584:	d6000001 	strle	r0, [r0], -r1
    5588:	1a000007 	bne	55ac <__bss_end+0x1324>
    558c:	00000080 	andeq	r0, r0, r0, lsl #1
    5590:	0001c320 	andeq	ip, r1, r0, lsr #6
    5594:	0007ff00 	andeq	pc, r7, r0, lsl #30
    5598:	01ce2000 	biceq	r2, lr, r0
    559c:	08280000 	stmdaeq	r8!, {}
    55a0:	d9200000 	stmdble	r0!, {}
    55a4:	72000001 	andvc	r0, r0, #1
    55a8:	00000008 	andeq	r0, r0, r8
    55ac:	019c1800 	orrseq	r1, ip, r0, lsl #16
    55b0:	18780000 	ldmdane	r8!, {}^
    55b4:	00a00000 	adceq	r0, r0, r0
    55b8:	5d010000 	stcpl	0, cr0, [r1]
    55bc:	0001b819 	andeq	fp, r1, r9, lsl r8
    55c0:	01ad1f00 	undefined instruction 0x01ad1f00
    55c4:	089b0000 	ldmeq	fp, {}
    55c8:	c01a0000 	andsgt	r0, sl, r0
    55cc:	20000000 	andcs	r0, r0, r0
    55d0:	000001c3 	andeq	r0, r0, r3, asr #3
    55d4:	000008b9 	undefined instruction 0x000008b9
    55d8:	0001ce20 	andeq	ip, r1, r0, lsr #28
    55dc:	0008cc00 	andeq	ip, r8, r0, lsl #24
    55e0:	01d92000 	bicseq	r2, r9, r0
    55e4:	090b0000 	stmdbeq	fp, {}
    55e8:	00000000 	andeq	r0, r0, r0
    55ec:	4e011400 	cfcpysmi	mvf1, mvf1
    55f0:	01000018 	tsteq	r0, r8, lsl r0
    55f4:	004c01af 	subeq	r0, ip, pc, lsr #3
    55f8:	19a80000 	stmibne	r8!, {}
    55fc:	21a80000 	undefined instruction 0x21a80000
    5600:	091e0000 	ldmdbeq	lr, {}
    5604:	04850000 	streq	r0, [r5]
    5608:	d8150000 	ldmdale	r5, {}
    560c:	01000017 	tsteq	r0, r7, lsl r0
    5610:	00005eaf 	andeq	r5, r0, pc, lsr #29
    5614:	00093d00 	andeq	r3, r9, r0, lsl #26
    5618:	18161c00 	ldmdane	r6, {sl, fp, ip}
    561c:	b1010000 	tstlt	r1, r0
    5620:	0000002c 	andeq	r0, r0, ip, lsr #32
    5624:	00000971 	andeq	r0, r0, r1, ror r9
    5628:	00572100 	subseq	r2, r7, r0, lsl #2
    562c:	04950000 	ldreq	r0, [r5]
    5630:	7e220000 	cdpvc	0, 2, cr0, cr2, cr0, {0}
    5634:	0f000000 	svceq	0x00000000
    5638:	18841600 	stmne	r4, {r9, sl, ip}
    563c:	1c010000 	stcne	0, cr0, [r1], {0}
    5640:	000004a6 	andeq	r0, r0, r6, lsr #9
    5644:	3e440305 	cdpcc	3, 4, cr0, cr4, cr5, {0}
    5648:	85230000 	strhi	r0, [r3]!
    564c:	21000004 	tstcs	r0, r4
    5650:	000000b8 	strheq	r0, [r0], -r8
    5654:	000004bb 	undefined instruction 0x000004bb
    5658:	00007e22 	andeq	r7, r0, r2, lsr #28
    565c:	16000500 	strne	r0, [r0], -r0, lsl #10
    5660:	000017c4 	andeq	r1, r0, r4, asr #15
    5664:	04ab2201 	strteq	r2, [fp], #513	; 0x201
    5668:	03050000 	movweq	r0, #20480	; 0x5000
    566c:	00003e88 	andeq	r3, r0, r8, lsl #29
    5670:	00068f00 	andeq	r8, r6, r0, lsl #30
    5674:	98000200 	stmdals	r0, {r9}
    5678:	04000009 	streq	r0, [r0], #-9
    567c:	00005501 	andeq	r5, r0, r1, lsl #10
    5680:	1b1c0100 	blne	705a88 <__bss_end+0x701800>
    5684:	028b0000 	addeq	r0, fp, #0
    5688:	21a80000 	undefined instruction 0x21a80000
    568c:	26540000 	ldrbcs	r0, [r4], -r0
    5690:	092e0000 	stmdbeq	lr!, {}
    5694:	04020000 	streq	r0, [r2]
    5698:	00012105 	andeq	r2, r1, r5, lsl #2
    569c:	07040300 	streq	r0, [r4, -r0, lsl #6]
    56a0:	29070402 	stmdbcs	r7, {r1, sl}
    56a4:	02000002 	andeq	r0, r0, #2
    56a8:	02680702 	rsbeq	r0, r8, #524288	; 0x80000
    56ac:	04020000 	streq	r0, [r2]
    56b0:	00022e07 	andeq	r2, r2, r7, lsl #28
    56b4:	08010200 	stmdaeq	r1, {r9}
    56b8:	00000196 	muleq	r0, r6, r1
    56bc:	8f060102 	svchi	0x00060102
    56c0:	04000001 	streq	r0, [r0], #-1
    56c4:	000002f8 	strdeq	r0, [r0], -r8
    56c8:	005d0f02 	subseq	r0, sp, r2, lsl #30
    56cc:	01020000 	tsteq	r2, r0
    56d0:	00018d08 	andeq	r8, r1, r8, lsl #26
    56d4:	05020200 	streq	r0, [r2, #-512]	; 0x200
    56d8:	00000061 	andeq	r0, r0, r1, rrx
    56dc:	0001f704 	andeq	pc, r1, r4, lsl #14
    56e0:	76120200 	ldrvc	r0, [r2], -r0, lsl #4
    56e4:	05000000 	streq	r0, [r0]
    56e8:	6e690504 	cdpvs	5, 6, cr0, cr9, cr4, {0}
    56ec:	08040074 	stmdaeq	r4, {r2, r4, r5, r6}
    56f0:	02000001 	andeq	r0, r0, #1
    56f4:	00003d13 	andeq	r3, r0, r3, lsl sp
    56f8:	05080200 	streq	r0, [r8, #-512]	; 0x200
    56fc:	0000011c 	andeq	r0, r0, ip, lsl r1
    5700:	24070802 	strcs	r0, [r7], #-2050	; 0x802
    5704:	06000002 	streq	r0, [r0], -r2
    5708:	00001653 	andeq	r1, r0, r3, asr r6
    570c:	af290304 	svcge	0x00290304
    5710:	07000000 	streq	r0, [r0, -r0]
    5714:	000016e6 	andeq	r1, r0, r6, ror #13
    5718:	15e50700 	strbne	r0, [r5, #1792]!	; 0x700
    571c:	00010000 	andeq	r0, r1, r0
    5720:	1a3a0108 	bne	e85b48 <__bss_end+0xe818c0>
    5724:	a5010000 	strge	r0, [r1]
    5728:	00de0101 	sbcseq	r0, lr, r1, lsl #2
    572c:	8a090000 	bhi	245734 <__bss_end+0x2414ac>
    5730:	0100001b 	tsteq	r0, fp, lsl r0
    5734:	00007da5 	andeq	r7, r0, r5, lsr #27
    5738:	6e6f0a00 	vmulvs.f32	s1, s30, s0
    573c:	7da50100 	stfvcs	f0, [r5]
    5740:	0b000000 	bleq	5748 <__bss_end+0x14c0>
    5744:	00001816 	andeq	r1, r0, r6, lsl r8
    5748:	007da701 	rsbseq	sl, sp, r1, lsl #14
    574c:	0c000000 	stceq	0, cr0, [r0], {0}
    5750:	001a1501 	andseq	r1, sl, r1, lsl #10
    5754:	01c10100 	biceq	r0, r1, r0, lsl #2
    5758:	0000007d 	andeq	r0, r0, sp, ror r0
    575c:	00010701 	andeq	r0, r1, r1, lsl #14
    5760:	1b8a0900 	blne	fe287b68 <__bss_end+0xfe2838e0>
    5764:	c1010000 	tstgt	r1, r0
    5768:	0000007d 	andeq	r0, r0, sp, ror r0
    576c:	0018160b 	andseq	r1, r8, fp, lsl #12
    5770:	7dc30100 	stfvce	f0, [r3]
    5774:	00000000 	andeq	r0, r0, r0
    5778:	1a63010d 	bne	18c5bb4 <__bss_end+0x18c192c>
    577c:	91010000 	tstls	r1, r0
    5780:	380e0101 	stmdacc	lr, {r0, r8}
    5784:	0100001b 	tsteq	r0, fp, lsl r0
    5788:	6b01016a 	blvs	45d38 <__bss_end+0x41ab0>
    578c:	01000000 	tsteq	r0, r0
    5790:	00000160 	andeq	r0, r0, r0, ror #2
    5794:	00218b0f 	eoreq	r8, r1, pc, lsl #22
    5798:	016d0100 	cmneq	sp, r0, lsl #2
    579c:	0000007d 	andeq	r0, r0, sp, ror r0
    57a0:	0019650f 	andseq	r6, r9, pc, lsl #10
    57a4:	016e0100 	cmneq	lr, r0, lsl #2
    57a8:	00000052 	andeq	r0, r0, r2, asr r0
    57ac:	001af10f 	andseq	pc, sl, pc, lsl #2
    57b0:	016f0100 	cmneq	pc, r0, lsl #2
    57b4:	00000052 	andeq	r0, r0, r2, asr r0
    57b8:	001ae40f 	andseq	lr, sl, pc, lsl #8
    57bc:	01700100 	cmneq	r0, r0, lsl #2
    57c0:	00000052 	andeq	r0, r0, r2, asr r0
    57c4:	0018160f 	andseq	r1, r8, pc, lsl #12
    57c8:	01710100 	cmneq	r1, r0, lsl #2
    57cc:	00000052 	andeq	r0, r0, r2, asr r0
    57d0:	00af1000 	adceq	r1, pc, r0
    57d4:	21a80000 	undefined instruction 0x21a80000
    57d8:	21d00000 	bicscs	r0, r0, r0
    57dc:	5d010000 	stcpl	0, cr0, [r1]
    57e0:	00000189 	andeq	r0, r0, r9, lsl #3
    57e4:	0000bd11 	andeq	fp, r0, r1, lsl sp
    57e8:	11500100 	cmpne	r0, r0, lsl #2
    57ec:	000000c8 	andeq	r0, r0, r8, asr #1
    57f0:	d2125101 	andsle	r5, r2, #1073741824	; 0x40000000
    57f4:	01000000 	tsteq	r0, r0
    57f8:	de100052 	mrcle	0, 0, r0, cr0, cr2, {2}
    57fc:	d0000000 	andle	r0, r0, r0
    5800:	f0000021 	undefined instruction 0xf0000021
    5804:	01000021 	tsteq	r0, r1, lsr #32
    5808:	0001ad5d 	andeq	sl, r1, sp, asr sp
    580c:	00f01300 	rscseq	r1, r0, r0, lsl #6
    5810:	0bb90000 	bleq	fee45818 <__bss_end+0xfee41590>
    5814:	fb120000 	blx	48581e <__bss_end+0x481596>
    5818:	01000000 	tsteq	r0, r0
    581c:	01140053 	tsteq	r4, r3, asr r0
    5820:	0000190b 	andeq	r1, r0, fp, lsl #18
    5824:	f001de01 	undefined instruction 0xf001de01
    5828:	38000021 	stmdacc	r0, {r0, r5}
    582c:	d7000022 	strle	r0, [r0, -r2, lsr #32]
    5830:	1000000b 	andne	r0, r0, fp
    5834:	15000002 	strne	r0, [r0, #-2]
    5838:	00001b8a 	andeq	r1, r0, sl, lsl #23
    583c:	007dde01 	rsbseq	sp, sp, r1, lsl #28
    5840:	50010000 	andpl	r0, r1, r0
    5844:	00193716 	andseq	r3, r9, r6, lsl r7
    5848:	7dde0100 	ldfvce	f0, [lr]
    584c:	f6000000 	undefined instruction 0xf6000000
    5850:	1600000b 	strne	r0, [r0], -fp
    5854:	00001b5b 	andeq	r1, r0, fp, asr fp
    5858:	007dde01 	rsbseq	sp, sp, r1, lsl #28
    585c:	0c090000 	stceq	0, cr0, [r9], {0}
    5860:	2f160000 	svccs	0x00160000
    5864:	01000019 	tsteq	r0, r9, lsl r0
    5868:	00007dde 	ldrdeq	r7, [r0], -lr
    586c:	000c1c00 	andeq	r1, ip, r0, lsl #24
    5870:	18161700 	ldmdane	r6, {r8, r9, sl, ip}
    5874:	e0010000 	and	r0, r1, r0
    5878:	0000007d 	andeq	r0, r0, sp, ror r0
    587c:	00000c2f 	andeq	r0, r0, pc, lsr #24
    5880:	f6011800 	undefined instruction 0xf6011800
    5884:	01000019 	tsteq	r0, r9, lsl r0
    5888:	380101c2 	stmdacc	r1, {r1, r6, r7, r8}
    588c:	60000022 	andvs	r0, r0, r2, lsr #32
    5890:	01000022 	tsteq	r0, r2, lsr #32
    5894:	0002705d 	andeq	r7, r2, sp, asr r0
    5898:	1b8a1900 	blne	fe28bca0 <__bss_end+0xfe287a18>
    589c:	c2010000 	andgt	r0, r1, #0
    58a0:	00007d01 	andeq	r7, r0, r1, lsl #26
    58a4:	1a500100 	bne	1405cac <__bss_end+0x1401a24>
    58a8:	01006e6f 	tsteq	r0, pc, ror #28
    58ac:	007d01c2 	rsbseq	r0, sp, r2, asr #3
    58b0:	51010000 	tstpl	r1, r0
    58b4:	0000af1b 	andeq	sl, r0, fp, lsl pc
    58b8:	00223800 	eoreq	r3, r2, r0, lsl #16
    58bc:	00226000 	eoreq	r6, r2, r0
    58c0:	01c40100 	biceq	r0, r4, r0, lsl #2
    58c4:	00017a1c 	andeq	r7, r1, ip, lsl sl
    58c8:	01731c00 	cmneq	r3, r0, lsl #24
    58cc:	381d0000 	ldmdacc	sp, {}
    58d0:	60000022 	andvs	r0, r0, r2, lsr #32
    58d4:	12000022 	andne	r0, r0, #34	; 0x22
    58d8:	000000d2 	ldrdeq	r0, [r0], -r2
    58dc:	00005201 	andeq	r5, r0, r1, lsl #4
    58e0:	94011e00 	strls	r1, [r1], #-3584	; 0xe00
    58e4:	0100001a 	tsteq	r0, sl, lsl r0
    58e8:	7d0101c8 	stfvcs	f0, [r1, #-800]	; 0xfffffce0
    58ec:	60000000 	andvs	r0, r0, r0
    58f0:	80000022 	andhi	r0, r0, r2, lsr #32
    58f4:	01000022 	tsteq	r0, r2, lsr #32
    58f8:	0002c45d 	andeq	ip, r2, sp, asr r4
    58fc:	1b8a1f00 	blne	fe28d504 <__bss_end+0xfe28927c>
    5900:	c8010000 	stmdagt	r1, {}
    5904:	00007d01 	andeq	r7, r0, r1, lsl #26
    5908:	000c4d00 	andeq	r4, ip, r0, lsl #26
    590c:	00de1b00 	sbcseq	r1, lr, r0, lsl #22
    5910:	22600000 	rsbcs	r0, r0, #0
    5914:	22780000 	rsbscs	r0, r8, #0
    5918:	ca010000 	bgt	45920 <__bss_end+0x41698>
    591c:	019c1c01 	orrseq	r1, ip, r1, lsl #24
    5920:	601d0000 	andsvs	r0, sp, r0
    5924:	78000022 	stmdavc	r0, {r1, r5}
    5928:	12000022 	andne	r0, r0, #34	; 0x22
    592c:	000000fb 	strdeq	r0, [r0], -fp
    5930:	00005301 	andeq	r5, r0, r1, lsl #6
    5934:	da011800 	ble	4b93c <__bss_end+0x476b4>
    5938:	01000019 	tsteq	r0, r9, lsl r0
    593c:	800101ce 	andhi	r0, r1, lr, asr #3
    5940:	84000022 	strhi	r0, [r0], #-34	; 0x22
    5944:	01000022 	tsteq	r0, r2, lsr #32
    5948:	00031d5d 	andeq	r1, r3, sp, asr sp
    594c:	1be81f00 	blne	ffa0d554 <__bss_end+0xffa092cc>
    5950:	ce010000 	cdpgt	0, 0, cr0, cr1, cr0, {0}
    5954:	00007d01 	andeq	r7, r0, r1, lsl #26
    5958:	000c6b00 	andeq	r6, ip, r0, lsl #22
    595c:	1bba1f00 	blne	fee8d564 <__bss_end+0xfee892dc>
    5960:	ce010000 	cdpgt	0, 0, cr0, cr1, cr0, {0}
    5964:	00007d01 	andeq	r7, r0, r1, lsl #26
    5968:	000c7e00 	andeq	r7, ip, r0, lsl #28
    596c:	1b601f00 	blne	180d574 <__bss_end+0x18092ec>
    5970:	ce010000 	cdpgt	0, 0, cr0, cr1, cr0, {0}
    5974:	00007d01 	andeq	r7, r0, r1, lsl #26
    5978:	000c9100 	andeq	r9, ip, r0, lsl #2
    597c:	192f1f00 	stmdbne	pc!, {r8, r9, sl, fp, ip}
    5980:	ce010000 	cdpgt	0, 0, cr0, cr1, cr0, {0}
    5984:	00007d01 	andeq	r7, r0, r1, lsl #26
    5988:	000ca400 	andeq	sl, ip, r0, lsl #8
    598c:	01200000 	teqeq	r0, r0
    5990:	00001b4c 	andeq	r1, r0, ip, asr #22
    5994:	7d01fb01 	vstrvc	d15, [r1, #-4]
    5998:	84000000 	strhi	r0, [r0]
    599c:	b4000022 	strlt	r0, [r0], #-34	; 0x22
    59a0:	b7000022 	strlt	r0, [r0, -r2, lsr #32]
    59a4:	5300000c 	movwpl	r0, #12
    59a8:	21000003 	tstcs	r0, r3
    59ac:	fd010069 	stc2	0, cr0, [r1, #-420]	; 0xfffffe5c
    59b0:	0000007d 	andeq	r0, r0, sp, ror r0
    59b4:	00181617 	andseq	r1, r8, r7, lsl r6
    59b8:	7dfe0100 	ldfvce	f0, [lr]
    59bc:	d6000000 	strle	r0, [r0], -r0
    59c0:	0000000c 	andeq	r0, r0, ip
    59c4:	1b050122 	blne	145e54 <__bss_end+0x141bcc>
    59c8:	82010000 	andhi	r0, r1, #0
    59cc:	0022b401 	eoreq	fp, r2, r1, lsl #8
    59d0:	0022e400 	eoreq	lr, r2, r0, lsl #8
    59d4:	835d0100 	cmphi	sp, #0
    59d8:	21000003 	tstcs	r0, r3
    59dc:	84010069 	strhi	r0, [r1], #-105	; 0x69
    59e0:	0000007d 	andeq	r0, r0, sp, ror r0
    59e4:	00181617 	andseq	r1, r8, r7, lsl r6
    59e8:	7d850100 	stfvcs	f0, [r5]
    59ec:	f4000000 	vst4.8	{d0-d3}, [r0], r0
    59f0:	0000000c 	andeq	r0, r0, ip
    59f4:	1ace0123 	bne	ff385e88 <__bss_end+0xff381c00>
    59f8:	b6010000 	strlt	r0, [r1], -r0
    59fc:	22e40101 	rsccs	r0, r4, #1073741824	; 0x40000000
    5a00:	22e80000 	rsccs	r0, r8, #0
    5a04:	5d010000 	stcpl	0, cr0, [r1]
    5a08:	19200122 	stmdbne	r0!, {r1, r5, r8}
    5a0c:	4a010000 	bmi	45a14 <__bss_end+0x4178c>
    5a10:	0022e801 	eoreq	lr, r2, r1, lsl #16
    5a14:	00231800 	eoreq	r1, r3, r0, lsl #16
    5a18:	c75d0100 	ldrbgt	r0, [sp, -r0, lsl #2]
    5a1c:	21000003 	tstcs	r0, r3
    5a20:	4c010069 	stcmi	0, cr0, [r1], {105}	; 0x69
    5a24:	0000007d 	andeq	r0, r0, sp, ror r0
    5a28:	00181617 	andseq	r1, r8, r7, lsl r6
    5a2c:	7d4d0100 	stfvce	f0, [sp]
    5a30:	07000000 	streq	r0, [r0, -r0]
    5a34:	0000000d 	andeq	r0, r0, sp
    5a38:	00010724 	andeq	r0, r1, r4, lsr #14
    5a3c:	00231800 	eoreq	r1, r3, r0, lsl #16
    5a40:	00231c00 	eoreq	r1, r3, r0, lsl #24
    5a44:	185d0100 	ldmdane	sp, {r8}^
    5a48:	001b9301 	andseq	r9, fp, r1, lsl #6
    5a4c:	01bc0100 	undefined instruction 0x01bc0100
    5a50:	00231c01 	eoreq	r1, r3, r1, lsl #24
    5a54:	00232000 	eoreq	r2, r3, r0
    5a58:	ff5d0100 	undefined instruction 0xff5d0100
    5a5c:	25000003 	strcs	r0, [r0, #-3]
    5a60:	00000107 	andeq	r0, r0, r7, lsl #2
    5a64:	0000231c 	andeq	r2, r0, ip, lsl r3
    5a68:	00002320 	andeq	r2, r0, r0, lsr #6
    5a6c:	0001be01 	andeq	fp, r1, r1, lsl #28
    5a70:	19720114 	ldmdbne	r2!, {r2, r4, r8}^
    5a74:	59010000 	stmdbpl	r1, {}
    5a78:	00232001 	eoreq	r2, r3, r1
    5a7c:	00239800 	eoreq	r9, r3, r0, lsl #16
    5a80:	000d1a00 	andeq	r1, sp, r0, lsl #20
    5a84:	00045a00 	andeq	r5, r4, r0, lsl #20
    5a88:	00692600 	rsbeq	r2, r9, r0, lsl #12
    5a8c:	007d5b01 	rsbseq	r5, sp, r1, lsl #22
    5a90:	53010000 	movwpl	r0, #4096	; 0x1000
    5a94:	00181617 	andseq	r1, r8, r7, lsl r6
    5a98:	7d5c0100 	ldfvce	f0, [ip]
    5a9c:	39000000 	stmdbcc	r0, {}
    5aa0:	2700000d 	strcs	r0, [r0, -sp]
    5aa4:	000000af 	andeq	r0, r0, pc, lsr #1
    5aa8:	00002368 	andeq	r2, r0, r8, ror #6
    5aac:	000000e0 	andeq	r0, r0, r0, ror #1
    5ab0:	7a1c7101 	bvc	721ebc <__bss_end+0x71dc34>
    5ab4:	1c000001 	stcne	0, cr0, [r0], {1}
    5ab8:	00000173 	andeq	r0, r0, r3, ror r1
    5abc:	00010028 	andeq	r0, r1, r8, lsr #32
    5ac0:	00d21200 	sbcseq	r1, r2, r0, lsl #4
    5ac4:	51010000 	tstpl	r1, r0
    5ac8:	23000000 	movwcs	r0, #0
    5acc:	001ab801 	andseq	fp, sl, r1, lsl #16
    5ad0:	01b00100 	lslseq	r0, r0, #2
    5ad4:	00239801 	eoreq	r9, r3, r1, lsl #16
    5ad8:	00239c00 	eoreq	r9, r3, r0, lsl #24
    5adc:	225d0100 	subscs	r0, sp, #0
    5ae0:	001a5001 	andseq	r5, sl, r1
    5ae4:	011d0100 	tsteq	sp, r0, lsl #2
    5ae8:	0000239c 	muleq	r0, ip, r3
    5aec:	000023cc 	andeq	r2, r0, ip, asr #7
    5af0:	049e5d01 	ldreq	r5, [lr], #3329	; 0xd01
    5af4:	69210000 	stmdbvs	r1!, {}
    5af8:	7d1f0100 	ldfvcs	f0, [pc]
    5afc:	17000000 	strne	r0, [r0, -r0]
    5b00:	00001816 	andeq	r1, r0, r6, lsl r8
    5b04:	007d2001 	rsbseq	r2, sp, r1
    5b08:	0d570000 	ldcleq	0, cr0, [r7]
    5b0c:	14000000 	strne	r0, [r0]
    5b10:	0019c201 	andseq	ip, r9, r1, lsl #4
    5b14:	012c0100 	teqeq	ip, r0, lsl #2
    5b18:	000023cc 	andeq	r2, r0, ip, asr #7
    5b1c:	00002440 	andeq	r2, r0, r0, asr #8
    5b20:	00000d6a 	andeq	r0, r0, sl, ror #26
    5b24:	000004fd 	strdeq	r0, [r0], -sp
    5b28:	01006929 	tsteq	r0, r9, lsr #18
    5b2c:	00007d2e 	andeq	r7, r0, lr, lsr #26
    5b30:	000d8900 	andeq	r8, sp, r0, lsl #18
    5b34:	18161700 	ldmdane	r6, {r8, r9, sl, ip}
    5b38:	2f010000 	svccs	0x00010000
    5b3c:	0000007d 	andeq	r0, r0, sp, ror r0
    5b40:	00000d9c 	muleq	r0, ip, sp
    5b44:	0000af27 	andeq	sl, r0, r7, lsr #30
    5b48:	0023d400 	eoreq	sp, r3, r0, lsl #8
    5b4c:	00012000 	andeq	r2, r1, r0
    5b50:	1c340100 	ldfnes	f0, [r4]
    5b54:	0000017a 	andeq	r0, r0, sl, ror r1
    5b58:	0001731c 	andeq	r7, r1, ip, lsl r3
    5b5c:	01402800 	cmpeq	r0, r0, lsl #16
    5b60:	d22a0000 	eorle	r0, sl, #0
    5b64:	af000000 	svcge	0x00000000
    5b68:	0000000d 	andeq	r0, r0, sp
    5b6c:	01230000 	teqeq	r3, r0
    5b70:	00001b73 	andeq	r1, r0, r3, ror fp
    5b74:	0101aa01 	tsteq	r1, r1, lsl #20
    5b78:	00002440 	andeq	r2, r0, r0, asr #8
    5b7c:	00002444 	andeq	r2, r0, r4, asr #8
    5b80:	012b5d01 	teqeq	fp, r1, lsl #26
    5b84:	000019aa 	andeq	r1, r0, sl, lsr #19
    5b88:	01018901 	tsteq	r1, r1, lsl #18
    5b8c:	0000006b 	andeq	r0, r0, fp, rrx
    5b90:	00002444 	andeq	r2, r0, r4, asr #8
    5b94:	00002500 	andeq	r2, r0, r0, lsl #10
    5b98:	00000dc2 	andeq	r0, r0, r2, asr #27
    5b9c:	00000575 	andeq	r0, r0, r5, ror r5
    5ba0:	0000d12c 	andeq	sp, r0, ip, lsr #2
    5ba4:	018d0100 	orreq	r0, sp, r0, lsl #2
    5ba8:	0000006b 	andeq	r0, r0, fp, rrx
    5bac:	112d5501 	teqne	sp, r1, lsl #10
    5bb0:	48000001 	stmdami	r0, {r0}
    5bb4:	60000024 	andvs	r0, r0, r4, lsr #32
    5bb8:	01000001 	tsteq	r0, r1
    5bbc:	78280190 	stmdavc	r8!, {r4, r7, r8}
    5bc0:	2a000001 	bcs	5bcc <__bss_end+0x1944>
    5bc4:	00000123 	andeq	r0, r0, r3, lsr #2
    5bc8:	00000de1 	andeq	r0, r0, r1, ror #27
    5bcc:	00012f2e 	andeq	r2, r1, lr, lsr #30
    5bd0:	01531200 	cmpeq	r3, r0, lsl #4
    5bd4:	7d020000 	stcvc	0, cr0, [r2]
    5bd8:	013b2e07 	teqeq	fp, r7, lsl #28
    5bdc:	472e0000 	strmi	r0, [lr, -r0]!
    5be0:	00000001 	andeq	r0, r0, r1
    5be4:	012b0000 	teqeq	fp, r0
    5be8:	00001999 	muleq	r0, r9, r9
    5bec:	01010a01 	tsteq	r1, r1, lsl #20
    5bf0:	0000006b 	andeq	r0, r0, fp, rrx
    5bf4:	00002500 	andeq	r2, r0, r0, lsl #10
    5bf8:	00002650 	andeq	r2, r0, r0, asr r6
    5bfc:	00000e15 	andeq	r0, r0, r5, lsl lr
    5c00:	0000067a 	andeq	r0, r0, sl, ror r6
    5c04:	0100692f 	tsteq	r0, pc, lsr #18
    5c08:	007d010c 	rsbseq	r0, sp, ip, lsl #2
    5c0c:	16300000 	ldrtne	r0, [r0], -r0
    5c10:	01000018 	tsteq	r0, r8, lsl r0
    5c14:	007d010d 	rsbseq	r0, sp, sp, lsl #2
    5c18:	0e410000 	cdpeq	0, 4, cr0, cr1, cr0, {0}
    5c1c:	6b0f0000 	blvs	3c5c24 <__bss_end+0x3c199c>
    5c20:	0100001b 	tsteq	r0, fp, lsl r0
    5c24:	007d010e 	rsbseq	r0, sp, lr, lsl #2
    5c28:	892c0000 	stmdbhi	ip!, {}
    5c2c:	01000019 	tsteq	r0, r9, lsl r0
    5c30:	007d010f 	rsbseq	r0, sp, pc, lsl #2
    5c34:	7d020000 	stcvc	0, cr0, [r2]
    5c38:	19912c18 	ldmibne	r1, {r3, r4, sl, fp, sp}
    5c3c:	0f010000 	svceq	0x00010000
    5c40:	00007d01 	andeq	r7, r0, r1, lsl #26
    5c44:	2c5b0100 	ldfcse	f0, [fp], {0}
    5c48:	00001a79 	andeq	r1, r0, r9, ror sl
    5c4c:	7d010f01 	stcvc	15, cr0, [r1, #-4]
    5c50:	01000000 	tsteq	r0, r0
    5c54:	1a822c59 	bne	fe090dc0 <__bss_end+0xfe08cb38>
    5c58:	0f010000 	svceq	0x00010000
    5c5c:	00007d01 	andeq	r7, r0, r1, lsl #26
    5c60:	2c5a0100 	ldfcse	f0, [sl], {0}
    5c64:	00001a8b 	andeq	r1, r0, fp, lsl #21
    5c68:	7d010f01 	stcvc	15, cr0, [r1, #-4]
    5c6c:	01000000 	tsteq	r0, r0
    5c70:	1afe2c58 	bne	fff90dd8 <__bss_end+0xfff8cb50>
    5c74:	0f010000 	svceq	0x00010000
    5c78:	00007d01 	andeq	r7, r0, r1, lsl #26
    5c7c:	2c570100 	ldfcse	f0, [r7], {0}
    5c80:	00001b30 	andeq	r1, r0, r0, lsr fp
    5c84:	7d010f01 	stcvc	15, cr0, [r1, #-4]
    5c88:	02000000 	andeq	r0, r0, #0
    5c8c:	a82c147d 	stmdage	ip!, {r0, r2, r3, r4, r5, r6, sl, ip}
    5c90:	0100001b 	tsteq	r0, fp, lsl r0
    5c94:	007d010f 	rsbseq	r0, sp, pc, lsl #2
    5c98:	7d020000 	stcvc	0, cr0, [r2]
    5c9c:	1bb12c10 	blne	fec50ce4 <__bss_end+0xfec4ca5c>
    5ca0:	0f010000 	svceq	0x00010000
    5ca4:	00007d01 	andeq	r7, r0, r1, lsl #26
    5ca8:	0c7d0200 	lfmeq	f0, 2, [sp]	; (ldcleq 2, cr0, [sp])
    5cac:	001a0b30 	andseq	r0, sl, r0, lsr fp
    5cb0:	01100100 	tsteq	r0, r0, lsl #2
    5cb4:	0000007d 	andeq	r0, r0, sp, ror r0
    5cb8:	00000e5f 	andeq	r0, r0, pc, asr lr
    5cbc:	0019022c 	andseq	r0, r9, ip, lsr #4
    5cc0:	01100100 	tsteq	r0, r0, lsl #2
    5cc4:	0000007d 	andeq	r0, r0, sp, ror r0
    5cc8:	2c087d02 	stccs	13, cr7, [r8], {2}
    5ccc:	000019ee 	andeq	r1, r0, lr, ror #19
    5cd0:	7d011001 	stcvc	0, cr1, [r1, #-4]
    5cd4:	02000000 	andeq	r0, r0, #0
    5cd8:	5c30047d 	cfldrspl	mvf0, [r0], #-500	; 0xfffffe0c
    5cdc:	01000019 	tsteq	r0, r9, lsl r0
    5ce0:	007d0110 	rsbseq	r0, sp, r0, lsl r1
    5ce4:	0e720000 	cdpeq	0, 7, cr0, cr2, cr0, {0}
    5ce8:	31000000 	tstcc	r0, r0
    5cec:	00194601 	andseq	r4, r9, r1, lsl #12
    5cf0:	01a40100 	undefined instruction 0x01a40100
    5cf4:	00007d01 	andeq	r7, r0, r1, lsl #26
    5cf8:	00265000 	eoreq	r5, r6, r0
    5cfc:	00265400 	eoreq	r5, r6, r0, lsl #8
    5d00:	005d0100 	subseq	r0, sp, r0, lsl #2
    5d04:	00000938 	andeq	r0, r0, r8, lsr r9
    5d08:	0c760002 	ldcleq	0, cr0, [r6], #-8
    5d0c:	01040000 	tsteq	r4, r0
    5d10:	00000055 	andeq	r0, r0, r5, asr r0
    5d14:	001e1a01 	andseq	r1, lr, r1, lsl #20
    5d18:	00028b00 	andeq	r8, r2, r0, lsl #22
    5d1c:	00265400 	eoreq	r5, r6, r0, lsl #8
    5d20:	002e8c00 	eoreq	r8, lr, r0, lsl #24
    5d24:	000b3c00 	andeq	r3, fp, r0, lsl #24
    5d28:	05040200 	streq	r0, [r4, #-512]	; 0x200
    5d2c:	00000121 	andeq	r0, r0, r1, lsr #2
    5d30:	02070403 	andeq	r0, r7, #50331648	; 0x3000000
    5d34:	02290704 	eoreq	r0, r9, #1048576	; 0x100000
    5d38:	02020000 	andeq	r0, r2, #0
    5d3c:	00026807 	andeq	r6, r2, r7, lsl #16
    5d40:	07040200 	streq	r0, [r4, -r0, lsl #4]
    5d44:	0000022e 	andeq	r0, r0, lr, lsr #4
    5d48:	96080102 	strls	r0, [r8], -r2, lsl #2
    5d4c:	02000001 	andeq	r0, r0, #1
    5d50:	018f0601 	orreq	r0, pc, r1, lsl #12
    5d54:	01020000 	tsteq	r2, r0
    5d58:	00018d08 	andeq	r8, r1, r8, lsl #26
    5d5c:	05020200 	streq	r0, [r2, #-512]	; 0x200
    5d60:	00000061 	andeq	r0, r0, r1, rrx
    5d64:	0001f704 	andeq	pc, r1, r4, lsl #14
    5d68:	6b120300 	blvs	486970 <__bss_end+0x4826e8>
    5d6c:	05000000 	streq	r0, [r0]
    5d70:	6e690504 	cdpvs	5, 6, cr0, cr9, cr4, {0}
    5d74:	08040074 	stmdaeq	r4, {r2, r4, r5, r6}
    5d78:	03000001 	movweq	r0, #1
    5d7c:	00003d13 	andeq	r3, r0, r3, lsl sp
    5d80:	05080200 	streq	r0, [r8, #-512]	; 0x200
    5d84:	0000011c 	andeq	r0, r0, ip, lsl r1
    5d88:	001bed04 	andseq	lr, fp, r4, lsl #26
    5d8c:	8f150300 	svchi	0x00150300
    5d90:	02000000 	andeq	r0, r0, #0
    5d94:	02240708 	eoreq	r0, r4, #2097152	; 0x200000
    5d98:	3a060000 	bcc	185da0 <__bss_end+0x181b18>
    5d9c:	5000001d 	andpl	r0, r0, sp, lsl r0
    5da0:	01bb1001 	undefined instruction 0x01bb1001
    5da4:	d7070000 	strle	r0, [r7, -r0]
    5da8:	0100001d 	tsteq	r0, sp, lsl r0
    5dac:	00007211 	andeq	r7, r0, r1, lsl r2
    5db0:	00230200 	eoreq	r0, r3, r0, lsl #4
    5db4:	001e5c07 	andseq	r5, lr, r7, lsl #24
    5db8:	72120100 	andsvc	r0, r2, #0
    5dbc:	02000000 	andeq	r0, r0, #0
    5dc0:	a0070423 	andge	r0, r7, r3, lsr #8
    5dc4:	0100001e 	tsteq	r0, lr, lsl r0
    5dc8:	00007213 	andeq	r7, r0, r3, lsl r2
    5dcc:	08230200 	stmdaeq	r3!, {r9}
    5dd0:	001dc907 	andseq	ip, sp, r7, lsl #18
    5dd4:	72140100 	andsvc	r0, r4, #0
    5dd8:	02000000 	andeq	r0, r0, #0
    5ddc:	0c070c23 	stceq	12, cr0, [r7], {35}	; 0x23
    5de0:	0100001d 	tsteq	r0, sp, lsl r0
    5de4:	00007215 	andeq	r7, r0, r5, lsl r2
    5de8:	10230200 	eorne	r0, r3, r0, lsl #4
    5dec:	001e9207 	andseq	r9, lr, r7, lsl #4
    5df0:	72160100 	andsvc	r0, r6, #0
    5df4:	02000000 	andeq	r0, r0, #0
    5df8:	9e071423 	cdpls	4, 0, cr1, cr7, cr3, {1}
    5dfc:	0100001d 	tsteq	r0, sp, lsl r0
    5e00:	00007217 	andeq	r7, r0, r7, lsl r2
    5e04:	18230200 	stmdane	r3!, {r9}
    5e08:	001eb207 	andseq	fp, lr, r7, lsl #4
    5e0c:	72180100 	andsvc	r0, r8, #0
    5e10:	02000000 	andeq	r0, r0, #0
    5e14:	fe071c23 	cdp2	12, 0, cr1, cr7, cr3, {1}
    5e18:	0100001d 	tsteq	r0, sp, lsl r0
    5e1c:	00007219 	andeq	r7, r0, r9, lsl r2
    5e20:	20230200 	eorcs	r0, r3, r0, lsl #4
    5e24:	001d5607 	andseq	r5, sp, r7, lsl #12
    5e28:	721a0100 	andsvc	r0, sl, #0
    5e2c:	02000000 	andeq	r0, r0, #0
    5e30:	21072423 	tstcs	r7, r3, lsr #8
    5e34:	0100001c 	tsteq	r0, ip, lsl r0
    5e38:	0000721b 	andeq	r7, r0, fp, lsl r2
    5e3c:	28230200 	stmdacs	r3!, {r9}
    5e40:	001c9607 	andseq	r9, ip, r7, lsl #12
    5e44:	721c0100 	andsvc	r0, ip, #0
    5e48:	02000000 	andeq	r0, r0, #0
    5e4c:	a0072c23 	andge	r2, r7, r3, lsr #24
    5e50:	0100001c 	tsteq	r0, ip, lsl r0
    5e54:	0000721d 	andeq	r7, r0, sp, lsl r2
    5e58:	30230200 	eorcc	r0, r3, r0, lsl #4
    5e5c:	001caa07 	andseq	sl, ip, r7, lsl #20
    5e60:	721e0100 	andsvc	r0, lr, #0
    5e64:	02000000 	andeq	r0, r0, #0
    5e68:	b4073423 	strlt	r3, [r7], #-1059	; 0x423
    5e6c:	0100001c 	tsteq	r0, ip, lsl r0
    5e70:	0000721f 	andeq	r7, r0, pc, lsl r2
    5e74:	38230200 	stmdacc	r3!, {r9}
    5e78:	001cbe07 	andseq	fp, ip, r7, lsl #28
    5e7c:	72200100 	eorvc	r0, r0, #0
    5e80:	02000000 	andeq	r0, r0, #0
    5e84:	c8073c23 	stmdagt	r7, {r0, r1, r5, sl, fp, ip, sp}
    5e88:	0100001c 	tsteq	r0, ip, lsl r0
    5e8c:	00007221 	andeq	r7, r0, r1, lsr #4
    5e90:	40230200 	eormi	r0, r3, r0, lsl #4
    5e94:	001ce507 	andseq	lr, ip, r7, lsl #10
    5e98:	72220100 	eorvc	r0, r2, #0
    5e9c:	02000000 	andeq	r0, r0, #0
    5ea0:	06074423 	streq	r4, [r7], -r3, lsr #8
    5ea4:	0100001e 	tsteq	r0, lr, lsl r0
    5ea8:	00007223 	andeq	r7, r0, r3, lsr #4
    5eac:	48230200 	stmdami	r3!, {r9}
    5eb0:	001e1007 	andseq	r1, lr, r7
    5eb4:	72240100 	eorvc	r0, r4, #0
    5eb8:	02000000 	andeq	r0, r0, #0
    5ebc:	04004c23 	streq	r4, [r0], #-3107	; 0xc23
    5ec0:	00001d3b 	andeq	r1, r0, fp, lsr sp
    5ec4:	00962501 	addseq	r2, r6, r1, lsl #10
    5ec8:	3a040000 	bcc	105ed0 <__bss_end+0x101c48>
    5ecc:	0100001c 	tsteq	r0, ip, lsl r0
    5ed0:	0001bb67 	andeq	fp, r1, r7, ror #22
    5ed4:	62010800 	andvs	r0, r1, #0
    5ed8:	0100001d 	tsteq	r0, sp, lsl r0
    5edc:	600101d1 	ldrdvs	r0, [r1], -r1
    5ee0:	01000000 	tsteq	r0, r0
    5ee4:	1e330109 	rsfnes	f0, f3, #1.0
    5ee8:	9b010000 	blls	45ef0 <__bss_end+0x41c68>
    5eec:	01fa0101 	mvnseq	r0, r1, lsl #2
    5ef0:	160a0000 	strne	r0, [sl], -r0
    5ef4:	01000018 	tsteq	r0, r8, lsl r0
    5ef8:	0000729d 	muleq	r0, sp, r2
    5efc:	010b0000 	tsteq	fp, r0
    5f00:	00001dad 	andeq	r1, r0, sp, lsr #27
    5f04:	01022e01 	tsteq	r2, r1, lsl #28
    5f08:	00022e01 	andeq	r2, r2, r1, lsl #28
    5f0c:	6c630c00 	stclvs	12, cr0, [r3]
    5f10:	2e01006b 	cdpcs	0, 0, cr0, cr1, cr11, {3}
    5f14:	00007202 	andeq	r7, r0, r2, lsl #4
    5f18:	18160d00 	ldmdane	r6, {r8, sl, fp}
    5f1c:	30010000 	andcc	r0, r1, r0
    5f20:	00007202 	andeq	r7, r0, r2, lsl #4
    5f24:	1df60d00 	ldclne	13, cr0, [r6]
    5f28:	32010000 	andcc	r0, r1, #0
    5f2c:	00007202 	andeq	r7, r0, r2, lsl #4
    5f30:	010e0000 	tsteq	lr, r0
    5f34:	00001c63 	andeq	r1, r0, r3, ror #24
    5f38:	0101e301 	tsteq	r1, r1, lsl #6
    5f3c:	00000060 	andeq	r0, r0, r0, rrx
    5f40:	00024e01 	andeq	r4, r2, r1, lsl #28
    5f44:	18160d00 	ldmdane	r6, {r8, sl, fp}
    5f48:	e5010000 	str	r0, [r1]
    5f4c:	00007201 	andeq	r7, r0, r1, lsl #4
    5f50:	fc0f0000 	stc2	0, cr0, [pc], {0}
    5f54:	0200001b 	andeq	r0, r0, #27
    5f58:	00840115 	addeq	r0, r4, r5, lsl r1
    5f5c:	97030000 	strls	r0, [r3, -r0]
    5f60:	10000002 	andne	r0, r0, r2
    5f64:	000018c2 	andeq	r1, r0, r2, asr #17
    5f68:	00841502 	addeq	r1, r4, r2, lsl #10
    5f6c:	5d100000 	ldcpl	0, cr0, [r0]
    5f70:	02000017 	andeq	r0, r0, #23
    5f74:	00007215 	andeq	r7, r0, r5, lsl r2
    5f78:	17770a00 	ldrbne	r0, [r7, -r0, lsl #20]!
    5f7c:	17020000 	strne	r0, [r2, -r0]
    5f80:	00000084 	andeq	r0, r0, r4, lsl #1
    5f84:	0018ed0a 	andseq	lr, r8, sl, lsl #26
    5f88:	84180200 	ldrhi	r0, [r8], #-512	; 0x200
    5f8c:	0a000000 	beq	5f94 <__bss_end+0x1d0c>
    5f90:	000017b0 	undefined instruction 0x000017b0
    5f94:	00601902 	rsbeq	r1, r0, r2, lsl #18
    5f98:	0b000000 	bleq	5fa0 <__bss_end+0x1d18>
    5f9c:	001d8801 	andseq	r8, sp, r1, lsl #16
    5fa0:	02160100 	andseq	r0, r6, #0
    5fa4:	02be0101 	adcseq	r0, lr, #1073741824	; 0x40000000
    5fa8:	6f0c0000 	svcvs	0x000c0000
    5fac:	1601006e 	strne	r0, [r1], -lr, rrx
    5fb0:	00007202 	andeq	r7, r0, r2, lsl #4
    5fb4:	18160d00 	ldmdane	r6, {r8, sl, fp}
    5fb8:	18010000 	stmdane	r1, {}
    5fbc:	00007202 	andeq	r7, r0, r2, lsl #4
    5fc0:	01090000 	tsteq	r9, r0
    5fc4:	00001de5 	andeq	r1, r0, r5, ror #27
    5fc8:	0101a601 	tsteq	r1, r1, lsl #12
    5fcc:	000002d8 	ldrdeq	r0, [r0], -r8
    5fd0:	0018160a 	andseq	r1, r8, sl, lsl #12
    5fd4:	72a80100 	adcvc	r0, r8, #0
    5fd8:	00000000 	andeq	r0, r0, r0
    5fdc:	1e650109 	pownes	f0, f5, #1.0
    5fe0:	af010000 	svcge	0x00010000
    5fe4:	02f20101 	rscseq	r0, r2, #1073741824	; 0x40000000
    5fe8:	160a0000 	strne	r0, [sl], -r0
    5fec:	01000018 	tsteq	r0, r8, lsl r0
    5ff0:	000072b1 	undefined instruction 0x000072b1
    5ff4:	010b0000 	tsteq	fp, r0
    5ff8:	00001bd5 	ldrdeq	r1, [r0], -r5
    5ffc:	01011201 	tsteq	r1, r1, lsl #4
    6000:	00030c01 	andeq	r0, r3, r1, lsl #24
    6004:	00691100 	rsbeq	r1, r9, r0, lsl #2
    6008:	72011401 	andvc	r1, r1, #16777216	; 0x1000000
    600c:	00000000 	andeq	r0, r0, r0
    6010:	0001e012 	andeq	lr, r1, r2, lsl r0
    6014:	00265400 	eoreq	r5, r6, r0, lsl #8
    6018:	00267400 	eoreq	r7, r6, r0, lsl #8
    601c:	275d0100 	ldrbcs	r0, [sp, -r0, lsl #2]
    6020:	13000003 	movwne	r0, #3
    6024:	000001ee 	andeq	r0, r0, lr, ror #3
    6028:	12005301 	andne	r5, r0, #67108864	; 0x4000000
    602c:	000002be 	undefined instruction 0x000002be
    6030:	00002674 	andeq	r2, r0, r4, ror r6
    6034:	0000268c 	andeq	r2, r0, ip, lsl #13
    6038:	03425d01 	movteq	r5, #11521	; 0x2d01
    603c:	cc130000 	ldcgt	0, cr0, [r3], {0}
    6040:	01000002 	tsteq	r0, r2
    6044:	d8120052 	ldmdale	r2, {r1, r4, r6}
    6048:	8c000002 	stchi	0, cr0, [r0], {2}
    604c:	a4000026 	strge	r0, [r0], #-38	; 0x26
    6050:	01000026 	tsteq	r0, r6, lsr #32
    6054:	00035d5d 	andeq	r5, r3, sp, asr sp
    6058:	02e61300 	rsceq	r1, r6, #0
    605c:	52010000 	andpl	r0, r1, #0
    6060:	29011400 	stmdbcs	r1, {sl, ip}
    6064:	0100001d 	tsteq	r0, sp, lsl r0
    6068:	26a401e9 	strtcs	r0, [r4], r9, ror #3
    606c:	27000000 	strcs	r0, [r0, -r0]
    6070:	5d010000 	stcpl	0, cr0, [r1]
    6074:	00000382 	andeq	r0, r0, r2, lsl #7
    6078:	00181615 	andseq	r1, r8, r5, lsl r6
    607c:	72eb0100 	rscvc	r0, fp, #0
    6080:	01000000 	tsteq	r0, r0
    6084:	f2120052 	vqadd.s16	q0, q1, q1
    6088:	00000002 	andeq	r0, r0, r2
    608c:	34000027 	strcc	r0, [r0], #-39	; 0x27
    6090:	01000027 	tsteq	r0, r7, lsr #32
    6094:	00039d5d 	andeq	r9, r3, sp, asr sp
    6098:	03011300 	movweq	r1, #4864	; 0x1300
    609c:	53010000 	movwpl	r0, #4096	; 0x1000
    60a0:	01d11600 	bicseq	r1, r1, r0, lsl #12
    60a4:	27340000 	ldrcs	r0, [r4, -r0]!
    60a8:	273c0000 	ldrcs	r0, [ip, -r0]!
    60ac:	5d010000 	stcpl	0, cr0, [r1]
    60b0:	00022e12 	andeq	r2, r2, r2, lsl lr
    60b4:	00273c00 	eoreq	r3, r7, r0, lsl #24
    60b8:	00277400 	eoreq	r7, r7, r0, lsl #8
    60bc:	c95d0100 	ldmdbgt	sp, {r8}^
    60c0:	17000003 	strne	r0, [r0, -r3]
    60c4:	00000241 	andeq	r0, r0, r1, asr #4
    60c8:	00000e85 	andeq	r0, r0, r5, lsl #29
    60cc:	02971200 	addseq	r1, r7, #0
    60d0:	27740000 	ldrbcs	r0, [r4, -r0]!
    60d4:	27980000 	ldrcs	r0, [r8, r0]
    60d8:	5d010000 	stcpl	0, cr0, [r1]
    60dc:	000003eb 	andeq	r0, r0, fp, ror #7
    60e0:	0002a618 	andeq	sl, r2, r8, lsl r6
    60e4:	13500100 	cmpne	r0, #0
    60e8:	000002b1 	undefined instruction 0x000002b1
    60ec:	12005301 	andne	r5, r0, #67108864	; 0x4000000
    60f0:	000001fa 	strdeq	r0, [r0], -sl
    60f4:	00002798 	muleq	r0, r8, r7
    60f8:	000027cc 	andeq	r2, r0, ip, asr #15
    60fc:	04125d01 	ldreq	r5, [r2], #-3329	; 0xd01
    6100:	09180000 	ldmdbeq	r8, {}
    6104:	01000002 	tsteq	r0, r2
    6108:	02151350 	andseq	r1, r5, #1073741825	; 0x40000001
    610c:	52010000 	andpl	r0, r1, #0
    6110:	00022119 	andeq	r2, r2, r9, lsl r1
    6114:	011a0000 	tsteq	sl, r0
    6118:	00001c17 	andeq	r1, r0, r7, lsl ip
    611c:	01025a01 	tsteq	r2, r1, lsl #20
    6120:	00000072 	andeq	r0, r0, r2, ror r0
    6124:	000027cc 	andeq	r2, r0, ip, asr #15
    6128:	00002840 	andeq	r2, r0, r0, asr #16
    612c:	045f5d01 	ldrbeq	r5, [pc], #3329	; 6134 <__bss_end+0x1eac>
    6130:	161b0000 	ldrne	r0, [fp], -r0
    6134:	01000018 	tsteq	r0, r8, lsl r0
    6138:	0072025c 	rsbseq	r0, r2, ip, asr r2
    613c:	0ea30000 	cdpeq	0, 10, cr0, cr3, cr0, {0}
    6140:	211b0000 	tstcs	fp, r0
    6144:	0100001c 	tsteq	r0, ip, lsl r0
    6148:	0072025d 	rsbseq	r0, r2, sp, asr r2
    614c:	0eb60000 	cdpeq	0, 11, cr0, cr6, cr0, {0}
    6150:	f31b0000 	vhadd.u16	d0, d11, d0
    6154:	0100001b 	tsteq	r0, fp, lsl r0
    6158:	0072025e 	rsbseq	r0, r2, lr, asr r2
    615c:	0ec90000 	cdpeq	0, 12, cr0, cr9, cr0, {0}
    6160:	1c000000 	stcne	0, cr0, [r0], {0}
    6164:	001d6d01 	andseq	r6, sp, r1, lsl #26
    6168:	027a0100 	rsbseq	r0, sl, #0
    616c:	00006001 	andeq	r6, r0, r1
    6170:	00284000 	eoreq	r4, r8, r0
    6174:	00284800 	eoreq	r4, r8, r0, lsl #16
    6178:	1c5d0100 	ldfnee	f0, [sp], {0}
    617c:	001e4201 	andseq	r4, lr, r1, lsl #4
    6180:	02a20100 	adceq	r0, r2, #0
    6184:	00006001 	andeq	r6, r0, r1
    6188:	00284800 	eoreq	r4, r8, r0, lsl #16
    618c:	00285000 	eoreq	r5, r8, r0
    6190:	1c5d0100 	ldfnee	f0, [sp], {0}
    6194:	001cfe01 	andseq	pc, ip, r1, lsl #28
    6198:	02a70100 	adceq	r0, r7, #0
    619c:	00006001 	andeq	r6, r0, r1
    61a0:	00285000 	eoreq	r5, r8, r0
    61a4:	00285400 	eoreq	r5, r8, r0, lsl #8
    61a8:	1d5d0100 	ldfnee	f0, [sp]
    61ac:	001cef01 	andseq	lr, ip, r1, lsl #30
    61b0:	02b10100 	adcseq	r0, r1, #0
    61b4:	00285401 	eoreq	r5, r8, r1, lsl #8
    61b8:	00287400 	eoreq	r7, r8, r0, lsl #8
    61bc:	e25d0100 	subs	r0, sp, #0
    61c0:	1e000004 	cdpne	0, 0, cr0, cr0, cr4, {0}
    61c4:	000001e0 	andeq	r0, r0, r0, ror #3
    61c8:	00002854 	andeq	r2, r0, r4, asr r8
    61cc:	0000286c 	andeq	r2, r0, ip, ror #16
    61d0:	1f02b301 	svcne	0x0002b301
    61d4:	00002854 	andeq	r2, r0, r4, asr r8
    61d8:	0000286c 	andeq	r2, r0, ip, ror #16
    61dc:	0001ee13 	andeq	lr, r1, r3, lsl lr
    61e0:	00530100 	subseq	r0, r3, r0, lsl #2
    61e4:	011d0000 	tsteq	sp, r0
    61e8:	00001c48 	andeq	r1, r0, r8, asr #24
    61ec:	0102b601 	tsteq	r2, r1, lsl #12
    61f0:	00002874 	andeq	r2, r0, r4, ror r8
    61f4:	000028a8 	andeq	r2, r0, r8, lsr #17
    61f8:	05355d01 	ldreq	r5, [r5, #-3329]!	; 0xd01
    61fc:	63200000 	teqvs	r0, #0
    6200:	01006b6c 	tsteq	r0, ip, ror #22
    6204:	007202b6 	ldrhteq	r0, [r2], #-38	; 0xffffffda
    6208:	50010000 	andpl	r0, r1, r0
    620c:	0001fa1e 	andeq	pc, r1, lr, lsl sl
    6210:	00287400 	eoreq	r7, r8, r0, lsl #8
    6214:	00289c00 	eoreq	r9, r8, r0, lsl #24
    6218:	02b80100 	adcseq	r0, r8, #0
    621c:	0003fe21 	andeq	pc, r3, r1, lsr #28
    6220:	28741f00 	ldmdacs	r4!, {r8, r9, sl, fp, ip}^
    6224:	289c0000 	ldmcs	ip, {}
    6228:	15130000 	ldrne	r0, [r3]
    622c:	01000002 	tsteq	r0, r2
    6230:	02211952 	eoreq	r1, r1, #1343488	; 0x148000
    6234:	00000000 	andeq	r0, r0, r0
    6238:	d2011a00 	andle	r1, r1, #0
    623c:	0100001c 	tsteq	r0, ip, lsl r0
    6240:	600102bb 	undefined instruction 0x600102bb
    6244:	a8000000 	stmdage	r0, {}
    6248:	e0000028 	and	r0, r0, r8, lsr #32
    624c:	01000028 	tsteq	r0, r8, lsr #32
    6250:	0005765d 	andeq	r7, r5, sp, asr r6
    6254:	022e1e00 	eoreq	r1, lr, #0
    6258:	28a80000 	stmiacs	r8!, {}
    625c:	28d00000 	ldmcs	r0, {}^
    6260:	bd010000 	stclt	0, cr0, [r1]
    6264:	28a81f02 	stmiacs	r8!, {r1, r8, r9, sl, fp, ip}
    6268:	28d00000 	ldmcs	r0, {}^
    626c:	41170000 	tstmi	r7, r0
    6270:	08000002 	stmdaeq	r0, {r1}
    6274:	0000000f 	andeq	r0, r0, pc
    6278:	011d0000 	tsteq	sp, r0
    627c:	00001c82 	andeq	r1, r0, r2, lsl #25
    6280:	01028101 	tsteq	r2, r1, lsl #2
    6284:	000028e0 	andeq	r2, r0, r0, ror #17
    6288:	000028f0 	strdeq	r2, [r0], -r0
    628c:	059f5d01 	ldreq	r5, [pc, #3329]	; 6f95 <__bss_end+0x2d0d>
    6290:	80220000 	eorhi	r0, r2, r0
    6294:	0100001e 	tsteq	r0, lr, lsl r0
    6298:	059f0281 	ldreq	r0, [pc, #641]	; 6521 <__bss_end+0x2299>
    629c:	0f260000 	svceq	0x00260000
    62a0:	23000000 	movwcs	r0, #0
    62a4:	0001bb04 	andeq	fp, r1, r4, lsl #22
    62a8:	bf012400 	svclt	0x00012400
    62ac:	0100001b 	tsteq	r0, fp, lsl r0
    62b0:	f001011c 	undefined instruction 0xf001011c
    62b4:	fc000028 	stc2	0, cr0, [r0], {40}	; 0x28
    62b8:	39000029 	stmdbcc	r0, {r0, r3, r5}
    62bc:	2300000f 	movwcs	r0, #15
    62c0:	25000006 	strcs	r0, [r0, #-6]
    62c4:	006b6c63 	rsbeq	r6, fp, r3, ror #24
    62c8:	72011c01 	andvc	r1, r1, #256	; 0x100
    62cc:	58000000 	stmdapl	r0, {}
    62d0:	1b00000f 	blne	6314 <__bss_end+0x208c>
    62d4:	00001816 	andeq	r1, r0, r6, lsl r8
    62d8:	72011e01 	andvc	r1, r1, #16
    62dc:	76000000 	strvc	r0, [r0], -r0
    62e0:	2600000f 	strcs	r0, [r0], -pc
    62e4:	0000024e 	andeq	r0, r0, lr, asr #4
    62e8:	00002908 	andeq	r2, r0, r8, lsl #18
    62ec:	00000190 	muleq	r0, r0, r1
    62f0:	21012701 	tstcs	r1, r1, lsl #14
    62f4:	0000026a 	andeq	r0, r0, sl, ror #4
    62f8:	00025f18 	andeq	r5, r2, r8, lsl pc
    62fc:	93560600 	cmpls	r6, #0
    6300:	04935704 	ldreq	r5, [r3], #1796	; 0x704
    6304:	0001a827 	andeq	sl, r1, r7, lsr #16
    6308:	02751700 	rsbseq	r1, r5, #0
    630c:	0fb50000 	svceq	0x00b50000
    6310:	80170000 	andshi	r0, r7, r0
    6314:	cd000002 	stcgt	0, cr0, [r0, #-8]
    6318:	1700000f 	strne	r0, [r0, -pc]
    631c:	0000028b 	andeq	r0, r0, fp, lsl #5
    6320:	00000ff5 	strdeq	r0, [r0], -r5
    6324:	1d000000 	stcne	0, cr0, [r0]
    6328:	001c2b01 	andseq	r2, ip, r1, lsl #22
    632c:	02ac0100 	adceq	r0, ip, #0
    6330:	0029fc01 	eoreq	pc, r9, r1, lsl #24
    6334:	002a0000 	eoreq	r0, sl, r0
    6338:	4c5d0100 	ldfmie	f0, [sp], {0}
    633c:	25000006 	strcs	r0, [r0, #-6]
    6340:	006b6c63 	rsbeq	r6, fp, r3, ror #24
    6344:	6b02ac01 	blvs	b1350 <__bss_end+0xad0c8>
    6348:	08000000 	stmdaeq	r0, {}
    634c:	00000010 	andeq	r0, r0, r0, lsl r0
    6350:	1c060128 	stfnes	f0, [r6], {40}	; 0x28
    6354:	c6010000 	strgt	r0, [r1], -r0
    6358:	002a0001 	eoreq	r0, sl, r1
    635c:	002ac000 	eoreq	ip, sl, r0
    6360:	00101b00 	andseq	r1, r0, r0, lsl #22
    6364:	00068f00 	andeq	r8, r6, r0, lsl #30
    6368:	00692900 	rsbeq	r2, r9, r0, lsl #18
    636c:	0072c801 	rsbseq	ip, r2, r1, lsl #16
    6370:	103a0000 	eorsne	r0, sl, r0
    6374:	162a0000 	strtne	r0, [sl], -r0
    6378:	01000018 	tsteq	r0, r8, lsl r0
    637c:	000072c9 	andeq	r7, r0, r9, asr #5
    6380:	00106300 	andseq	r6, r0, r0, lsl #6
    6384:	1eaa1500 	cdpne	5, 10, cr1, cr10, cr0, {0}
    6388:	ca010000 	bgt	46390 <__bss_end+0x42108>
    638c:	00000072 	andeq	r0, r0, r2, ror r0
    6390:	28005401 	stmdacs	r0, {r0, sl, ip, lr}
    6394:	001d7701 	andseq	r7, sp, r1, lsl #14
    6398:	01b80100 	undefined instruction 0x01b80100
    639c:	00002ac0 	andeq	r2, r0, r0, asr #21
    63a0:	00002b14 	andeq	r2, r0, r4, lsl fp
    63a4:	00001076 	andeq	r1, r0, r6, ror r0
    63a8:	000006b2 	undefined instruction 0x000006b2
    63ac:	0100692b 	tsteq	r0, fp, lsr #18
    63b0:	000072ba 	undefined instruction 0x000072ba
    63b4:	01280000 	teqeq	r8, r0
    63b8:	00001e4c 	andeq	r1, r0, ip, asr #28
    63bc:	14018e01 	strne	r8, [r1], #-3585	; 0xe01
    63c0:	4400002b 	strmi	r0, [r0], #-43	; 0x2b
    63c4:	9500002b 	strls	r0, [r0, #-43]	; 0x2b
    63c8:	db000010 	blle	6410 <__bss_end+0x2188>
    63cc:	2a000006 	bcs	63ec <__bss_end+0x2164>
    63d0:	00001816 	andeq	r1, r0, r6, lsl r8
    63d4:	00729001 	rsbseq	r9, r2, r1
    63d8:	10b40000 	adcsne	r0, r4, r0
    63dc:	2c000000 	stccs	0, cr0, [r0], {0}
    63e0:	001d1e01 	andseq	r1, sp, r1, lsl #28
    63e4:	01420100 	cmpeq	r2, r0, lsl #2
    63e8:	00006001 	andeq	r6, r0, r1
    63ec:	002b4400 	eoreq	r4, fp, r0, lsl #8
    63f0:	002da000 	eoreq	sl, sp, r0
    63f4:	0010d200 	andseq	sp, r0, r0, lsl #4
    63f8:	00087800 	andeq	r7, r8, r0, lsl #16
    63fc:	1c7d2200 	lfmne	f2, 2, [sp]	; (ldclne 2, cr2, [sp])
    6400:	42010000 	andmi	r0, r1, #0
    6404:	00087801 	andeq	r7, r8, r1, lsl #16
    6408:	0010f100 	andseq	pc, r0, r0, lsl #2
    640c:	00691100 	rsbeq	r1, r9, r0, lsl #2
    6410:	72014401 	andvc	r4, r1, #16777216	; 0x1000000
    6414:	1b000000 	blne	641c <__bss_end+0x2194>
    6418:	00001816 	andeq	r1, r0, r6, lsl r8
    641c:	72014501 	andvc	r4, r1, #4194304	; 0x400000
    6420:	0f000000 	svceq	0x00000000
    6424:	0d000011 	stceq	0, cr0, [r0, #-68]	; 0xffffffbc
    6428:	00001b6b 	andeq	r1, r0, fp, ror #22
    642c:	60014601 	andvs	r4, r1, r1, lsl #12
    6430:	2d000000 	stccs	0, cr0, [r0]
    6434:	000001e0 	andeq	r0, r0, r0, ror #3
    6438:	00002b6c 	andeq	r2, r0, ip, ror #22
    643c:	00002b80 	andeq	r2, r0, r0, lsl #23
    6440:	57015701 	strpl	r5, [r1, -r1, lsl #14]
    6444:	1f000007 	svcne	0x00000007
    6448:	00002b6c 	andeq	r2, r0, ip, ror #22
    644c:	00002b80 	andeq	r2, r0, r0, lsl #23
    6450:	0001ee17 	andeq	lr, r1, r7, lsl lr
    6454:	00116f00 	andseq	r6, r1, r0, lsl #30
    6458:	2d000000 	stccs	0, cr0, [r0]
    645c:	00000297 	muleq	r0, r7, r2
    6460:	00002b80 	andeq	r2, r0, r0, lsl #23
    6464:	00002b8c 	andeq	r2, r0, ip, lsl #23
    6468:	84015a01 	strhi	r5, [r1], #-2561	; 0xa01
    646c:	21000007 	tstcs	r0, r7
    6470:	000003dc 	ldrdeq	r0, [r0], -ip
    6474:	002b801f 	eoreq	r8, fp, pc, lsl r0
    6478:	002b8c00 	eoreq	r8, fp, r0, lsl #24
    647c:	02b11700 	adcseq	r1, r1, #0
    6480:	11820000 	orrne	r0, r2, r0
    6484:	00000000 	andeq	r0, r0, r0
    6488:	0002be2d 	andeq	fp, r2, sp, lsr #28
    648c:	002b8c00 	eoreq	r8, fp, r0, lsl #24
    6490:	002b9800 	eoreq	r9, fp, r0, lsl #16
    6494:	015d0100 	cmpeq	sp, r0, lsl #2
    6498:	000007ac 	andeq	r0, r0, ip, lsr #15
    649c:	002b8c1f 	eoreq	r8, fp, pc, lsl ip
    64a0:	002b9800 	eoreq	r9, fp, r0, lsl #16
    64a4:	02cc1700 	sbceq	r1, ip, #0
    64a8:	11950000 	orrsne	r0, r5, r0
    64ac:	00000000 	andeq	r0, r0, r0
    64b0:	0002972d 	andeq	r9, r2, sp, lsr #14
    64b4:	002c4800 	eoreq	r4, ip, r0, lsl #16
    64b8:	002c5400 	eoreq	r5, ip, r0, lsl #8
    64bc:	01810100 	orreq	r0, r1, r0, lsl #2
    64c0:	000007d9 	ldrdeq	r0, [r0], -r9
    64c4:	0003dc21 	andeq	sp, r3, r1, lsr #24
    64c8:	2c481f00 	mcrrcs	15, 0, r1, r8, cr0
    64cc:	2c540000 	mracs	r0, r4, acc0
    64d0:	b1170000 	tstlt	r7, r0
    64d4:	a8000002 	stmdage	r0, {r1}
    64d8:	00000011 	andeq	r0, r0, r1, lsl r0
    64dc:	01fa2d00 	mvnseq	r2, r0, lsl #26
    64e0:	2c6c0000 	stclcs	0, cr0, [ip]
    64e4:	2c980000 	ldccs	0, cr0, [r8], {0}
    64e8:	8f010000 	svchi	0x00010000
    64ec:	00080b01 	andeq	r0, r8, r1, lsl #22
    64f0:	03fe2100 	mvnseq	r2, #0
    64f4:	6c1f0000 	ldcvs	0, cr0, [pc], {0}
    64f8:	9800002c 	stmdals	r0, {r2, r3, r5}
    64fc:	1700002c 	strne	r0, [r0, -ip, lsr #32]
    6500:	00000215 	andeq	r0, r0, r5, lsl r2
    6504:	000011bb 	undefined instruction 0x000011bb
    6508:	00022119 	andeq	r2, r2, r9, lsl r1
    650c:	2e000000 	cdpcs	0, 0, cr0, cr0, cr0, {0}
    6510:	000002d8 	ldrdeq	r0, [r0], -r8
    6514:	00002d30 	andeq	r2, r0, r0, lsr sp
    6518:	000001c0 	andeq	r0, r0, r0, asr #3
    651c:	2f01b701 	svccs	0x0001b701
    6520:	27000008 	strcs	r0, [r0, -r8]
    6524:	000001d8 	ldrdeq	r0, [r0], -r8
    6528:	0002e617 	andeq	lr, r2, r7, lsl r6
    652c:	0011ce00 	andseq	ip, r1, r0, lsl #28
    6530:	2e000000 	cdpcs	0, 0, cr0, cr0, cr0, {0}
    6534:	0000022e 	andeq	r0, r0, lr, lsr #4
    6538:	00002d34 	andeq	r2, r0, r4, lsr sp
    653c:	000001f0 	strdeq	r0, [r0], -r0
    6540:	5301b801 	movwpl	fp, #6145	; 0x1801
    6544:	27000008 	strcs	r0, [r0, -r8]
    6548:	00000208 	andeq	r0, r0, r8, lsl #4
    654c:	00024117 	andeq	r4, r2, r7, lsl r1
    6550:	0011e100 	andseq	lr, r1, r0, lsl #2
    6554:	1e000000 	cdpne	0, 0, cr0, cr0, cr0, {0}
    6558:	000002f2 	strdeq	r0, [r0], -r2
    655c:	00002d68 	andeq	r2, r0, r8, ror #26
    6560:	00002d8c 	andeq	r2, r0, ip, lsl #27
    6564:	1f01bf01 	svcne	0x0001bf01
    6568:	00002d68 	andeq	r2, r0, r8, ror #26
    656c:	00002d8c 	andeq	r2, r0, ip, lsl #27
    6570:	00030117 	andeq	r0, r3, r7, lsl r1
    6574:	0011ff00 	andseq	pc, r1, r0, lsl #30
    6578:	00000000 	andeq	r0, r0, r0
    657c:	01c60423 	biceq	r0, r6, r3, lsr #8
    6580:	012c0000 	teqeq	ip, r0
    6584:	00001d4c 	andeq	r1, r0, ip, asr #26
    6588:	01028801 	tsteq	r2, r1, lsl #16
    658c:	00000060 	andeq	r0, r0, r0, rrx
    6590:	00002da0 	andeq	r2, r0, r0, lsr #27
    6594:	00002e8c 	andeq	r2, r0, ip, lsl #29
    6598:	00001212 	andeq	r1, r0, r2, lsl r2
    659c:	00000907 	andeq	r0, r0, r7, lsl #18
    65a0:	0100692f 	tsteq	r0, pc, lsr #18
    65a4:	0072028a 	rsbseq	r0, r2, sl, lsl #5
    65a8:	55010000 	strpl	r0, [r1]
    65ac:	001b6b30 	andseq	r6, fp, r0, lsr fp
    65b0:	028b0100 	addeq	r0, fp, #0
    65b4:	00000060 	andeq	r0, r0, r0, rrx
    65b8:	77305401 	ldrvc	r5, [r0, -r1, lsl #8]!
    65bc:	0100001c 	tsteq	r0, ip, lsl r0
    65c0:	01bb028c 	undefined instruction 0x01bb028c
    65c4:	91030000 	tstls	r3, r0
    65c8:	4e267f90 	mcrmi	15, 1, r7, cr6, cr0, {4}
    65cc:	c8000002 	stmdagt	r0, {r1}
    65d0:	2000002d 	andcs	r0, r0, sp, lsr #32
    65d4:	01000002 	tsteq	r0, r2
    65d8:	6a210291 	bvs	847024 <__bss_end+0x842d9c>
    65dc:	31000002 	tstcc	r0, r2
    65e0:	0000025f 	andeq	r0, r0, pc, asr r2
    65e4:	0000123e 	andeq	r1, r0, lr, lsr r2
    65e8:	00023827 	andeq	r3, r2, r7, lsr #16
    65ec:	02751700 	rsbseq	r1, r5, #0
    65f0:	12560000 	subsne	r0, r6, #0
    65f4:	80170000 	andshi	r0, r7, r0
    65f8:	6e000002 	cdpvs	0, 0, cr0, cr0, cr2, {0}
    65fc:	17000012 	smladne	r0, r2, r0, r0
    6600:	0000028b 	andeq	r0, r0, fp, lsl #5
    6604:	00001296 	muleq	r0, r6, r2
    6608:	32000000 	andcc	r0, r0, #0
    660c:	00706d74 	rsbseq	r6, r0, r4, ror sp
    6610:	01bb6901 	undefined instruction 0x01bb6901
    6614:	03050000 	movweq	r0, #20480	; 0x5000
    6618:	00003fb0 	undefined instruction 0x00003fb0
    661c:	00007233 	andeq	r7, r0, r3, lsr r2
    6620:	00092800 	andeq	r2, r9, r0, lsl #16
    6624:	002c3400 	eoreq	r3, ip, r0, lsl #8
    6628:	001f0000 	andseq	r0, pc, r0
    662c:	001e7535 	andseq	r7, lr, r5, lsr r5
    6630:	01070100 	tsteq	r7, r0, lsl #2
    6634:	00000918 	andeq	r0, r0, r8, lsl r9
    6638:	30030501 	andcc	r0, r3, r1, lsl #10
    663c:	0000003f 	andeq	r0, r0, pc, lsr r0
    6640:	000005c0 	andeq	r0, r0, r0, asr #11
    6644:	0f880002 	svceq	0x00880002
    6648:	01040000 	tsteq	r4, r0
    664c:	00000055 	andeq	r0, r0, r5, asr r0
    6650:	001ec401 	andseq	ip, lr, r1, lsl #8
    6654:	00028b00 	andeq	r8, r2, r0, lsl #22
    6658:	002e8c00 	eoreq	r8, lr, r0, lsl #24
    665c:	00321000 	eorseq	r1, r2, r0
    6660:	000dd300 	andeq	sp, sp, r0, lsl #6
    6664:	06010200 	streq	r0, [r1], -r0, lsl #4
    6668:	0000018f 	andeq	r0, r0, pc, lsl #3
    666c:	8d080102 	stfhis	f0, [r8, #-8]
    6670:	02000001 	andeq	r0, r0, #1
    6674:	00610502 	rsbeq	r0, r1, r2, lsl #10
    6678:	02020000 	andeq	r0, r2, #0
    667c:	00026807 	andeq	r6, r2, r7, lsl #16
    6680:	01f70300 	mvnseq	r0, r0, lsl #6
    6684:	12030000 	andne	r0, r3, #0
    6688:	0000004c 	andeq	r0, r0, ip, asr #32
    668c:	69050404 	stmdbvs	r5, {r2, sl}
    6690:	0300746e 	movweq	r7, #1134	; 0x46e
    6694:	00000108 	andeq	r0, r0, r8, lsl #2
    6698:	005e1303 	subseq	r1, lr, r3, lsl #6
    669c:	04020000 	streq	r0, [r2]
    66a0:	00022e07 	andeq	r2, r2, r7, lsl #28
    66a4:	05080200 	streq	r0, [r8, #-512]	; 0x200
    66a8:	0000011c 	andeq	r0, r0, ip, lsl r1
    66ac:	24070802 	strcs	r0, [r7], #-2050	; 0x802
    66b0:	05000002 	streq	r0, [r0, #-2]
    66b4:	01060704 	tsteq	r6, r4, lsl #14
    66b8:	0000204b 	andeq	r2, r0, fp, asr #32
    66bc:	53015401 	movwpl	r5, #5121	; 0x1401
    66c0:	01000000 	tsteq	r0, r0
    66c4:	00000094 	muleq	r0, r4, r0
    66c8:	00218b07 	eoreq	r8, r1, r7, lsl #22
    66cc:	53560100 	cmppl	r6, #0
    66d0:	00000000 	andeq	r0, r0, r0
    66d4:	0018f508 	andseq	pc, r8, r8, lsl #10
    66d8:	01480200 	cmpeq	r8, r0, lsl #4
    66dc:	00000053 	andeq	r0, r0, r3, asr r0
    66e0:	0000dd03 	andeq	sp, r0, r3, lsl #26
    66e4:	18c20900 	stmiane	r2, {r8, fp}^
    66e8:	48020000 	stmdami	r2, {}
    66ec:	00000053 	andeq	r0, r0, r3, asr r0
    66f0:	00175d09 	andseq	r5, r7, r9, lsl #26
    66f4:	53480200 	movtpl	r0, #33280	; 0x8200
    66f8:	07000000 	streq	r0, [r0, -r0]
    66fc:	00001777 	andeq	r1, r0, r7, ror r7
    6700:	00534a02 	subseq	r4, r3, r2, lsl #20
    6704:	ed070000 	stc	0, cr0, [r7]
    6708:	02000018 	andeq	r0, r0, #24
    670c:	0000534b 	andeq	r5, r0, fp, asr #6
    6710:	17b00700 	ldrne	r0, [r0, r0, lsl #14]!
    6714:	4c020000 	stcmi	0, cr0, [r2], {0}
    6718:	00000041 	andeq	r0, r0, r1, asr #32
    671c:	d9010a00 	stmdble	r1, {r9, fp}
    6720:	0100001f 	tsteq	r0, pc, lsl r0
    6724:	2e8c0112 	mcrcs	1, 4, r0, cr12, cr2, {0}
    6728:	2eac0000 	cdpcs	0, 10, cr0, cr12, cr0, {0}
    672c:	12a90000 	adcne	r0, r9, #0
    6730:	01060000 	tsteq	r6, r0
    6734:	250b0000 	strcs	r0, [fp]
    6738:	0100001f 	tsteq	r0, pc, lsl r0
    673c:	00010615 	andeq	r0, r1, r5, lsl r6
    6740:	0012c800 	andseq	ip, r2, r0, lsl #16
    6744:	530c0000 	movwpl	r0, #49152	; 0xc000
    6748:	0a000000 	beq	6750 <__bss_end+0x24c8>
    674c:	001fd401 	andseq	sp, pc, r1, lsl #8
    6750:	011c0100 	tsteq	ip, r0, lsl #2
    6754:	00002eac 	andeq	r2, r0, ip, lsr #29
    6758:	00002ecc 	andeq	r2, r0, ip, asr #29
    675c:	000012e8 	andeq	r1, r0, r8, ror #5
    6760:	00000134 	andeq	r0, r0, r4, lsr r1
    6764:	001f250b 	andseq	r2, pc, fp, lsl #10
    6768:	061f0100 	ldreq	r0, [pc], -r0, lsl #2
    676c:	07000001 	streq	r0, [r0, -r1]
    6770:	00000013 	andeq	r0, r0, r3, lsl r0
    6774:	1f9b010d 	svcne	0x009b010d
    6778:	2a010000 	bcs	46780 <__bss_end+0x424f8>
    677c:	002ecc01 	eoreq	ip, lr, r1, lsl #24
    6780:	002ee400 	eoreq	lr, lr, r0, lsl #8
    6784:	595d0100 	ldmdbpl	sp, {r8}^
    6788:	0e000001 	cdpeq	0, 0, cr0, cr0, cr1, {0}
    678c:	00002099 	muleq	r0, r9, r0
    6790:	00532c01 	subseq	r2, r3, r1, lsl #24
    6794:	52010000 	andpl	r0, r1, #0
    6798:	a4010a00 	strge	r0, [r1], #-2560	; 0xa00
    679c:	01000020 	tsteq	r0, r0, lsr #32
    67a0:	2ee40133 	mcrcs	1, 7, r0, cr4, cr3, {1}
    67a4:	2ef40000 	cdpcs	0, 15, cr0, cr4, cr0, {0}
    67a8:	13270000 	teqne	r7, #0
    67ac:	01800000 	orreq	r0, r0, r0
    67b0:	760f0000 	strvc	r0, [pc], -r0
    67b4:	01006c61 	tsteq	r0, r1, ror #24
    67b8:	00010633 	andeq	r0, r1, r3, lsr r6
    67bc:	00500100 	subseq	r0, r0, r0, lsl #2
    67c0:	20200110 	eorcs	r0, r0, r0, lsl r1
    67c4:	39010000 	stmdbcc	r1, {}
    67c8:	00005301 	andeq	r5, r0, r1, lsl #6
    67cc:	002ef400 	eoreq	pc, lr, r0, lsl #8
    67d0:	002f0400 	eoreq	r0, pc, r0, lsl #8
    67d4:	0a5d0100 	beq	1746bdc <__bss_end+0x1742954>
    67d8:	001f5e01 	andseq	r5, pc, r1, lsl #28
    67dc:	013e0100 	teqeq	lr, r0, lsl #2
    67e0:	00002f04 	andeq	r2, r0, r4, lsl #30
    67e4:	00002f14 	andeq	r2, r0, r4, lsl pc
    67e8:	00001346 	andeq	r1, r0, r6, asr #6
    67ec:	000001be 	undefined instruction 0x000001be
    67f0:	6c61760f 	stclvs	6, cr7, [r1], #-60	; 0xffffffc4
    67f4:	063e0100 	ldrteq	r0, [lr], -r0, lsl #2
    67f8:	01000001 	tsteq	r0, r1
    67fc:	01110050 	tsteq	r1, r0, asr r0
    6800:	00001ed4 	ldrdeq	r1, [r0], -r4
    6804:	53014401 	movwpl	r4, #5121	; 0x1401
    6808:	14000000 	strne	r0, [r0]
    680c:	3800002f 	stmdacc	r0, {r0, r1, r2, r3, r5}
    6810:	6500002f 	strvs	r0, [r0, #-47]	; 0x2f
    6814:	fa000013 	blx	6868 <__bss_end+0x25e0>
    6818:	12000001 	andne	r0, r0, #1
    681c:	006c6176 	rsbeq	r6, ip, r6, ror r1
    6820:	01064401 	tsteq	r6, r1, lsl #8
    6824:	13840000 	orrne	r0, r4, #0
    6828:	74130000 	ldrvc	r0, [r3]
    682c:	0100706d 	tsteq	r0, sp, rrx
    6830:	00005346 	andeq	r5, r0, r6, asr #6
    6834:	0013a300 	andseq	sl, r3, r0, lsl #6
    6838:	01110000 	tsteq	r1, r0
    683c:	0000202f 	andeq	r2, r0, pc, lsr #32
    6840:	53014c01 	movwpl	r4, #7169	; 0x1c01
    6844:	38000000 	stmdacc	r0, {}
    6848:	5c00002f 	stcpl	0, cr0, [r0], {47}	; 0x2f
    684c:	b600002f 	strlt	r0, [r0], -pc, lsr #32
    6850:	36000013 	undefined instruction 0x36000013
    6854:	12000002 	andne	r0, r0, #2
    6858:	006c6176 	rsbeq	r6, ip, r6, ror r1
    685c:	01064c01 	tsteq	r6, r1, lsl #24
    6860:	13d50000 	bicsne	r0, r5, #0
    6864:	74130000 	ldrvc	r0, [r3]
    6868:	0100706d 	tsteq	r0, sp, rrx
    686c:	0000534e 	andeq	r5, r0, lr, asr #6
    6870:	0013f400 	andseq	pc, r3, r0, lsl #8
    6874:	76140000 	ldrvc	r0, [r4], -r0
    6878:	5c000000 	stcpl	0, cr0, [r0], {0}
    687c:	6400002f 	strvs	r0, [r0], #-47	; 0x2f
    6880:	0100002f 	tsteq	r0, pc, lsr #32
    6884:	0002535d 	andeq	r5, r2, sp, asr r3
    6888:	00881500 	addeq	r1, r8, r0, lsl #10
    688c:	14070000 	strne	r0, [r7]
    6890:	16000000 	strne	r0, [r0], -r0
    6894:	001fb101 	andseq	fp, pc, r1, lsl #2
    6898:	015c0100 	cmpeq	ip, r0, lsl #2
    689c:	00002f64 	andeq	r2, r0, r4, ror #30
    68a0:	00002f80 	andeq	r2, r0, r0, lsl #31
    68a4:	010d5d01 	tsteq	sp, r1, lsl #26
    68a8:	00002063 	andeq	r2, r0, r3, rrx
    68ac:	80016601 	andhi	r6, r1, r1, lsl #12
    68b0:	ac00002f 	stcge	0, cr0, [r0], {47}	; 0x2f
    68b4:	0100002f 	tsteq	r0, pc, lsr #32
    68b8:	0002a95d 	andeq	sl, r2, sp, asr r9
    68bc:	1fcb1700 	svcne	0x00cb1700
    68c0:	66010000 	strvs	r0, [r1], -r0
    68c4:	00000053 	andeq	r0, r0, r3, asr r0
    68c8:	0000141a 	andeq	r1, r0, sl, lsl r4
    68cc:	001f4118 	andseq	r4, pc, r8, lsl r1
    68d0:	53660100 	cmnpl	r6, #0
    68d4:	01000000 	tsteq	r0, r0
    68d8:	218b0b51 	orrcs	r0, fp, r1, asr fp
    68dc:	69010000 	stmdbvs	r1, {}
    68e0:	00000053 	andeq	r0, r0, r3, asr r0
    68e4:	0000142d 	andeq	r1, r0, sp, lsr #8
    68e8:	11011600 	tstne	r1, r0, lsl #12
    68ec:	0100001f 	tsteq	r0, pc, lsl r0
    68f0:	2fac0184 	svccs	0x00ac0184
    68f4:	2fcc0000 	svccs	0x00cc0000
    68f8:	5d010000 	stcpl	0, cr0, [r1]
    68fc:	1f50010d 	svcne	0x0050010d
    6900:	8f010000 	svchi	0x00010000
    6904:	002fcc01 	eoreq	ip, pc, r1, lsl #24
    6908:	002fe000 	eoreq	lr, pc, r0
    690c:	df5d0100 	svcle	0x005d0100
    6910:	07000002 	streq	r0, [r0, -r2]
    6914:	0000218b 	andeq	r2, r0, fp, lsl #3
    6918:	00539101 	subseq	r9, r3, r1, lsl #2
    691c:	0a000000 	beq	6924 <__bss_end+0x269c>
    6920:	001efe01 	andseq	pc, lr, r1, lsl #28
    6924:	019a0100 	orrseq	r0, sl, r0, lsl #2
    6928:	00002fe0 	andeq	r2, r0, r0, ror #31
    692c:	00003104 	andeq	r3, r0, r4, lsl #2
    6930:	00001440 	andeq	r1, r0, r0, asr #8
    6934:	000003e6 	andeq	r0, r0, r6, ror #7
    6938:	00200f17 	eoreq	r0, r0, r7, lsl pc
    693c:	539a0100 	orrspl	r0, sl, #0
    6940:	5f000000 	svcpl	0x00000000
    6944:	07000014 	smladeq	r0, r4, r0, r0
    6948:	00002087 	andeq	r2, r0, r7, lsl #1
    694c:	00539c01 	subseq	r9, r3, r1, lsl #24
    6950:	75070000 	strvc	r0, [r7]
    6954:	01000020 	tsteq	r0, r0, lsr #32
    6958:	0000539d 	muleq	r0, sp, r3
    695c:	207e0700 	rsbscs	r0, lr, r0, lsl #14
    6960:	9e010000 	cdpls	0, 0, cr0, cr1, cr0, {0}
    6964:	00000053 	andeq	r0, r0, r3, asr r0
    6968:	00209007 	eoreq	r9, r0, r7
    696c:	539f0100 	orrspl	r0, pc, #0
    6970:	0b000000 	bleq	6978 <__bss_end+0x26f0>
    6974:	000001c7 	andeq	r0, r0, r7, asr #3
    6978:	0053a001 	subseq	sl, r3, r1
    697c:	147d0000 	ldrbtne	r0, [sp]
    6980:	a90b0000 	stmdbge	fp, {}
    6984:	0100001f 	tsteq	r0, pc, lsl r0
    6988:	000053a1 	andeq	r5, r0, r1, lsr #7
    698c:	00149000 	andseq	r9, r4, r0
    6990:	18160b00 	ldmdane	r6, {r8, r9, fp}
    6994:	a2010000 	andge	r0, r1, #0
    6998:	00000106 	andeq	r0, r0, r6, lsl #2
    699c:	000014ae 	andeq	r1, r0, lr, lsr #9
    69a0:	00007619 	andeq	r7, r0, r9, lsl r6
    69a4:	002ffc00 	eoreq	pc, pc, r0, lsl #24
    69a8:	00300000 	eorseq	r0, r0, r0
    69ac:	83ac0100 	undefined instruction 0x83ac0100
    69b0:	1a000003 	bne	69c4 <__bss_end+0x273c>
    69b4:	00002ffc 	strdeq	r2, [r0], -ip
    69b8:	00003000 	andeq	r3, r0, r0
    69bc:	0000881b 	andeq	r8, r0, fp, lsl r8
    69c0:	19000000 	stmdbne	r0, {}
    69c4:	00000076 	andeq	r0, r0, r6, ror r0
    69c8:	00003000 	andeq	r3, r0, r0
    69cc:	00003004 	andeq	r3, r0, r4
    69d0:	03aaad01 	undefined instruction 0x03aaad01
    69d4:	001a0000 	andseq	r0, sl, r0
    69d8:	04000030 	streq	r0, [r0], #-48	; 0x30
    69dc:	15000030 	strne	r0, [r0, #-48]	; 0x30
    69e0:	00000088 	andeq	r0, r0, r8, lsl #1
    69e4:	00001508 	andeq	r1, r0, r8, lsl #10
    69e8:	941c0000 	ldrls	r0, [ip]
    69ec:	90000000 	andls	r0, r0, r0
    69f0:	50000030 	andpl	r0, r0, r0, lsr r0
    69f4:	01000002 	tsteq	r0, r2
    69f8:	00b01dc5 	adcseq	r1, r0, r5, asr #27
    69fc:	a51e0000 	ldrge	r0, [lr]
    6a00:	01000000 	tsteq	r0, r0
    6a04:	02681f50 	rsbeq	r1, r8, #320	; 0x140
    6a08:	bb200000 	bllt	806a10 <__bss_end+0x802788>
    6a0c:	01000000 	tsteq	r0, r0
    6a10:	00c61552 	sbceq	r1, r6, r2, asr r5
    6a14:	15260000 	strne	r0, [r6]!
    6a18:	d1150000 	tstle	r5, r0
    6a1c:	4f000000 	svcmi	0x00000000
    6a20:	00000015 	andeq	r0, r0, r5, lsl r0
    6a24:	010a0000 	tsteq	sl, r0
    6a28:	00001f2f 	andeq	r1, r0, pc, lsr #30
    6a2c:	0401cf01 	streq	ip, [r1], #-3841	; 0xf01
    6a30:	88000031 	stmdahi	r0, {r0, r4, r5}
    6a34:	62000031 	andvs	r0, r0, #49	; 0x31
    6a38:	ba000015 	blt	6a94 <__bss_end+0x280c>
    6a3c:	0f000004 	svceq	0x00000004
    6a40:	01007375 	tsteq	r0, r5, ror r3
    6a44:	000053cf 	andeq	r5, r0, pc, asr #7
    6a48:	07500100 	ldrbeq	r0, [r0, -r0, lsl #2]
    6a4c:	00001fc4 	andeq	r1, r0, r4, asr #31
    6a50:	0053d101 	subseq	sp, r3, r1, lsl #2
    6a54:	63130000 	tstvs	r3, #0
    6a58:	01007275 	tsteq	r0, r5, ror r2
    6a5c:	000053d2 	ldrdeq	r5, [r0], -r2
    6a60:	00158100 	andseq	r8, r5, r0, lsl #2
    6a64:	1eea0e00 	cdpne	14, 14, cr0, cr10, cr0, {0}
    6a68:	d3010000 	movwle	r0, #4096	; 0x1000
    6a6c:	00000053 	andeq	r0, r0, r3, asr r0
    6a70:	94195101 	ldrls	r5, [r9], #-257	; 0x101
    6a74:	20000000 	andcs	r0, r0, r0
    6a78:	54000031 	strpl	r0, [r0], #-49	; 0x31
    6a7c:	01000031 	tsteq	r0, r1, lsr r0
    6a80:	000477d8 	ldrdeq	r7, [r4], -r8
    6a84:	00b01d00 	adcseq	r1, r0, r0, lsl #26
    6a88:	a51e0000 	ldrge	r0, [lr]
    6a8c:	01000000 	tsteq	r0, r0
    6a90:	31201a5c 	teqcc	r0, ip, asr sl
    6a94:	31540000 	cmpcc	r4, r0
    6a98:	bb150000 	bllt	546aa0 <__bss_end+0x542818>
    6a9c:	9f000000 	svcls	0x00000000
    6aa0:	15000015 	strne	r0, [r0, #-21]
    6aa4:	000000c6 	andeq	r0, r0, r6, asr #1
    6aa8:	000015b2 	undefined instruction 0x000015b2
    6aac:	0000d115 	andeq	sp, r0, r5, lsl r1
    6ab0:	0015e600 	andseq	lr, r5, r0, lsl #12
    6ab4:	19000000 	stmdbne	r0, {}
    6ab8:	00000076 	andeq	r0, r0, r6, ror r0
    6abc:	00003154 	andeq	r3, r0, r4, asr r1
    6ac0:	00003158 	andeq	r3, r0, r8, asr r1
    6ac4:	049ade01 	ldreq	sp, [sl], #3585	; 0xe01
    6ac8:	541a0000 	ldrpl	r0, [sl]
    6acc:	58000031 	stmdapl	r0, {r0, r4, r5}
    6ad0:	1b000031 	blne	6b9c <__bss_end+0x2914>
    6ad4:	00000088 	andeq	r0, r0, r8, lsl #1
    6ad8:	76210000 	strtvc	r0, [r1], -r0
    6adc:	70000000 	andvc	r0, r0, r0
    6ae0:	74000031 	strvc	r0, [r0], #-49	; 0x31
    6ae4:	01000031 	tsteq	r0, r1, lsr r0
    6ae8:	31701ae3 	cmncc	r0, r3, ror #21
    6aec:	31740000 	cmncc	r4, r0
    6af0:	881b0000 	ldmdahi	fp, {}
    6af4:	00000000 	andeq	r0, r0, r0
    6af8:	01220000 	teqeq	r2, r0
    6afc:	00001ebb 	undefined instruction 0x00001ebb
    6b00:	01010601 	tsteq	r1, r1, lsl #12
    6b04:	00003188 	andeq	r3, r0, r8, lsl #3
    6b08:	00003194 	muleq	r0, r4, r1
    6b0c:	04e25d01 	strbteq	r5, [r2], #3329	; 0xd01
    6b10:	6d230000 	stcvs	0, cr0, [r3]
    6b14:	06010073 	undefined instruction 0x06010073
    6b18:	00005301 	andeq	r5, r0, r1, lsl #6
    6b1c:	0015f900 	andseq	pc, r5, r0, lsl #18
    6b20:	01240000 	teqeq	r4, r0
    6b24:	00002018 	andeq	r2, r0, r8, lsl r0
    6b28:	01011001 	tsteq	r1, r1
    6b2c:	00003194 	muleq	r0, r4, r1
    6b30:	000031ac 	andeq	r3, r0, ip, lsr #3
    6b34:	01225d01 	teqeq	r2, r1, lsl #26
    6b38:	00001ef1 	strdeq	r1, [r0], -r1
    6b3c:	01011801 	tsteq	r1, r1, lsl #16
    6b40:	000031ac 	andeq	r3, r0, ip, lsr #3
    6b44:	000031c4 	andeq	r3, r0, r4, asr #3
    6b48:	051d5d01 	ldreq	r5, [sp, #-3329]	; 0xd01
    6b4c:	8f250000 	svchi	0x00250000
    6b50:	01000018 	tsteq	r0, r8, lsl r0
    6b54:	0053011a 	subseq	r0, r3, sl, lsl r1
    6b58:	52010000 	andpl	r0, r1, #0
    6b5c:	03012200 	movweq	r2, #4608	; 0x1200
    6b60:	01000020 	tsteq	r0, r0, lsr #32
    6b64:	c4010124 	strgt	r0, [r1], #-292	; 0x124
    6b68:	dc000031 	stcle	0, cr0, [r0], {49}	; 0x31
    6b6c:	01000031 	tsteq	r0, r1, lsr r0
    6b70:	0005445d 	andeq	r4, r5, sp, asr r4
    6b74:	188f2500 	stmne	pc, {r8, sl, sp}
    6b78:	26010000 	strcs	r0, [r1], -r0
    6b7c:	00005301 	andeq	r5, r0, r1, lsl #6
    6b80:	00520100 	subseq	r0, r2, r0, lsl #2
    6b84:	1f740126 	svcne	0x00740126
    6b88:	33010000 	movwcc	r0, #4096	; 0x1000
    6b8c:	31dc0101 	bicscc	r0, ip, r1, lsl #2
    6b90:	32100000 	andscc	r0, r0, #0
    6b94:	160c0000 	strne	r0, [ip], -r0
    6b98:	057f0000 	ldrbeq	r0, [pc, #0]!	; 6ba0 <__bss_end+0x2918>
    6b9c:	6e230000 	cdpvs	0, 2, cr0, cr3, cr0, {0}
    6ba0:	01006d75 	tsteq	r0, r5, ror sp
    6ba4:	004c0133 	subeq	r0, ip, r3, lsr r1
    6ba8:	162b0000 	strtne	r0, [fp], -r0
    6bac:	8f270000 	svchi	0x00270000
    6bb0:	01000018 	tsteq	r0, r8, lsl r0
    6bb4:	00530135 	subseq	r0, r3, r5, lsr r1
    6bb8:	163e0000 	ldrtne	r0, [lr], -r0
    6bbc:	0e000000 	cdpeq	0, 0, cr0, cr0, cr0, {0}
    6bc0:	0000205a 	andeq	r2, r0, sl, asr r0
    6bc4:	00530401 	subseq	r0, r3, r1, lsl #8
    6bc8:	03050000 	movweq	r0, #20480	; 0x5000
    6bcc:	00004280 	andeq	r4, r0, r0, lsl #5
    6bd0:	001f380e 	andseq	r3, pc, lr, lsl #16
    6bd4:	53050100 	movwpl	r0, #20736	; 0x5100
    6bd8:	05000000 	streq	r0, [r0]
    6bdc:	00427c03 	subeq	r7, r2, r3, lsl #24
    6be0:	1fe60e00 	svcne	0x00e60e00
    6be4:	06010000 	streq	r0, [r1], -r0
    6be8:	00000053 	andeq	r0, r0, r3, asr r0
    6bec:	42740305 	rsbsmi	r0, r4, #335544320	; 0x14000000
    6bf0:	7c0e0000 	stcvc	0, cr0, [lr], {0}
    6bf4:	0100001f 	tsteq	r0, pc, lsl r0
    6bf8:	00005307 	andeq	r5, r0, r7, lsl #6
    6bfc:	78030500 	stmdavc	r3, {r8, sl}
    6c00:	00000042 	andeq	r0, r0, r2, asr #32
    6c04:	00000073 	andeq	r0, r0, r3, ror r0
    6c08:	11d40002 	bicsne	r0, r4, r2
    6c0c:	01040000 	tsteq	r4, r0
    6c10:	00000ef0 	strdeq	r0, [r0], -r0
    6c14:	00003210 	andeq	r3, r0, r0, lsl r2
    6c18:	00003360 	andeq	r3, r0, r0, ror #6
    6c1c:	2e2e2f2e 	cdpcs	15, 2, cr2, cr14, cr14, {1}
    6c20:	6d656d2f 	stclvs	13, cr6, [r5, #-188]!	; 0xffffff44
    6c24:	756d6d5f 	strbvc	r6, [sp, #-3423]!	; 0xd5f
    6c28:	5f63705f 	svcpl	0x0063705f
    6c2c:	2e6d7361 	cdpcs	3, 6, cr7, cr13, cr1, {3}
    6c30:	682f0053 	stmdavs	pc!, {r0, r1, r4, r6}
    6c34:	2f656d6f 	svccs	0x00656d6f
    6c38:	656b696d 	strbvs	r6, [fp, #-2413]!	; 0x96d
    6c3c:	726f772f 	rsbvc	r7, pc, #12320768	; 0xbc0000
    6c40:	696c2f6b 	stmdbvs	ip!, {r0, r1, r3, r5, r6, r8, r9, sl, fp, sp}^
    6c44:	5f78756e 	svcpl	0x0078756e
    6c48:	2f343236 	svccs	0x00343236
    6c4c:	68637261 	stmdavs	r3!, {r0, r5, r6, r9, ip, sp, lr}^
    6c50:	6d72612f 	ldfvse	f6, [r2, #-188]!	; 0xffffff44
    6c54:	63616d2f 	cmnvs	r1, #3008	; 0xbc0
    6c58:	75732d68 	ldrbvc	r2, [r3, #-3432]!	; 0xd68
    6c5c:	2f69356e 	svccs	0x0069356e
    6c60:	732f6d70 	teqvc	pc, #7168	; 0x1c00
    6c64:	646e6174 	strbtvs	r6, [lr], #-372	; 0x174
    6c68:	47007962 	strmi	r7, [r0, -r2, ror #18]
    6c6c:	4120554e 	teqmi	r0, lr, asr #10
    6c70:	2e322053 	mrccs	0, 1, r2, cr2, cr3, {2}
    6c74:	312e3032 	teqcc	lr, r2, lsr r0
    6c78:	63800100 	orrvs	r0, r0, #0
    6c7c:	02000001 	andeq	r0, r0, #1
    6c80:	0011e800 	andseq	lr, r1, r0, lsl #16
    6c84:	55010400 	strpl	r0, [r1, #-1024]	; 0x400
    6c88:	01000000 	tsteq	r0, r0
    6c8c:	000020df 	ldrdeq	r2, [r0], -pc
    6c90:	0000028b 	andeq	r0, r0, fp, lsl #5
    6c94:	00003360 	andeq	r3, r0, r0, ror #6
    6c98:	00003410 	andeq	r3, r0, r0, lsl r4
    6c9c:	00000f7a 	andeq	r0, r0, sl, ror pc
    6ca0:	2e070402 	cdpcs	4, 0, cr0, cr7, cr2, {0}
    6ca4:	02000002 	andeq	r0, r0, #2
    6ca8:	018d0801 	orreq	r0, sp, r1, lsl #16
    6cac:	04030000 	streq	r0, [r3]
    6cb0:	746e6905 	strbtvc	r6, [lr], #-2309	; 0x905
    6cb4:	07040400 	streq	r0, [r4, -r0, lsl #8]
    6cb8:	8f060102 	svchi	0x00060102
    6cbc:	02000001 	andeq	r0, r0, #1
    6cc0:	00610502 	rsbeq	r0, r1, r2, lsl #10
    6cc4:	02020000 	andeq	r0, r2, #0
    6cc8:	00026807 	andeq	r6, r2, r7, lsl #16
    6ccc:	01080500 	tsteq	r8, r0, lsl #10
    6cd0:	13030000 	movwne	r0, #12288	; 0x3000
    6cd4:	00000025 	andeq	r0, r0, r5, lsr #32
    6cd8:	1c050802 	stcne	8, cr0, [r5], {2}
    6cdc:	02000001 	andeq	r0, r0, #1
    6ce0:	02240708 	eoreq	r0, r4, #2097152	; 0x200000
    6ce4:	83060000 	movwhi	r0, #24576	; 0x6000
    6ce8:	24000000 	strcs	r0, [r0]
    6cec:	00f52002 	rscseq	r2, r5, r2
    6cf0:	a6070000 	strge	r0, [r7], -r0
    6cf4:	02000000 	andeq	r0, r0, #0
    6cf8:	00005222 	andeq	r5, r0, r2, lsr #4
    6cfc:	00230200 	eoreq	r0, r3, r0, lsl #4
    6d00:	00726308 	rsbseq	r6, r2, r8, lsl #6
    6d04:	00522402 	subseq	r2, r2, r2, lsl #8
    6d08:	23020000 	movwcs	r0, #8192	; 0x2000
    6d0c:	03910704 	orrseq	r0, r1, #1048576	; 0x100000
    6d10:	25020000 	strcs	r0, [r2]
    6d14:	00000052 	andeq	r0, r0, r2, asr r0
    6d18:	07082302 	streq	r2, [r8, -r2, lsl #6]
    6d1c:	00000140 	andeq	r0, r0, r0, asr #2
    6d20:	00522702 	subseq	r2, r2, r2, lsl #14
    6d24:	23020000 	movwcs	r0, #8192	; 0x2000
    6d28:	031f070c 	tsteq	pc, #3145728	; 0x300000
    6d2c:	28020000 	stmdacs	r2, {}
    6d30:	00000052 	andeq	r0, r0, r2, asr r0
    6d34:	07102302 	ldreq	r2, [r0, -r2, lsl #6]
    6d38:	00000347 	andeq	r0, r0, r7, asr #6
    6d3c:	00522902 	subseq	r2, r2, r2, lsl #18
    6d40:	23020000 	movwcs	r0, #8192	; 0x2000
    6d44:	00eb0714 	rsceq	r0, fp, r4, lsl r7
    6d48:	2c020000 	stccs	0, cr0, [r2], {0}
    6d4c:	00000052 	andeq	r0, r0, r2, asr r0
    6d50:	07182302 	ldreq	r2, [r8, -r2, lsl #6]
    6d54:	0000019b 	muleq	r0, fp, r1
    6d58:	00522f02 	subseq	r2, r2, r2, lsl #30
    6d5c:	23020000 	movwcs	r0, #8192	; 0x2000
    6d60:	0342071c 	movteq	r0, #10012	; 0x271c
    6d64:	30020000 	andcc	r0, r2, r0
    6d68:	00000052 	andeq	r0, r0, r2, asr r0
    6d6c:	00202302 	eoreq	r2, r0, r2, lsl #6
    6d70:	20d00109 	sbcscs	r0, r0, r9, lsl #2
    6d74:	07010000 	streq	r0, [r1, -r0]
    6d78:	00336001 	eorseq	r6, r3, r1
    6d7c:	00339c00 	eorseq	r9, r3, r0, lsl #24
    6d80:	1a5d0100 	bne	1747188 <__bss_end+0x1742f00>
    6d84:	0a000001 	beq	6d90 <__bss_end+0x2b08>
    6d88:	0000007d 	andeq	r0, r0, sp, ror r0
    6d8c:	011a0701 	tsteq	sl, r1, lsl #14
    6d90:	50010000 	andpl	r0, r1, r0
    6d94:	6b040b00 	blvs	10999c <__bss_end+0x105714>
    6d98:	09000000 	stmdbeq	r0, {}
    6d9c:	0020be01 	eoreq	fp, r0, r1, lsl #28
    6da0:	011d0100 	tsteq	sp, r0, lsl #2
    6da4:	0000339c 	muleq	r0, ip, r3
    6da8:	00003400 	andeq	r3, r0, r0, lsl #8
    6dac:	01455d01 	cmpeq	r5, r1, lsl #26
    6db0:	7d0a0000 	stcvc	0, cr0, [sl]
    6db4:	01000000 	tsteq	r0, r0
    6db8:	00011a1d 	andeq	r1, r1, sp, lsl sl
    6dbc:	00500100 	subseq	r0, r0, r0, lsl #2
    6dc0:	20b4010c 	adcscs	r0, r4, ip, lsl #2
    6dc4:	52010000 	andpl	r0, r1, #0
    6dc8:	00340001 	eorseq	r0, r4, r1
    6dcc:	00341000 	eorseq	r1, r4, r0
    6dd0:	0d5d0100 	ldfeqe	f0, [sp]
    6dd4:	00627474 	rsbeq	r7, r2, r4, ror r4
    6dd8:	00525401 	subseq	r5, r2, r1, lsl #8
    6ddc:	53010000 	movwpl	r0, #4096	; 0x1000
    6de0:	04cb0000 	strbeq	r0, [fp]
    6de4:	00020000 	andeq	r0, r2, r0
    6de8:	000012a8 	andeq	r1, r0, r8, lsr #5
    6dec:	00550104 	subseq	r0, r5, r4, lsl #2
    6df0:	3b010000 	blcc	46df8 <__bss_end+0x42b70>
    6df4:	8b000021 	blhi	6e80 <__bss_end+0x2bf8>
    6df8:	20000002 	andcs	r0, r0, r2
    6dfc:	38000034 	stmdacc	r0, {r2, r4, r5}
    6e00:	f700003e 	undefined instruction 0xf700003e
    6e04:	0200000f 	andeq	r0, r0, #15
    6e08:	018f0601 	orreq	r0, pc, r1, lsl #12
    6e0c:	01020000 	tsteq	r2, r0
    6e10:	00018d08 	andeq	r8, r1, r8, lsl #26
    6e14:	05020200 	streq	r0, [r2, #-512]	; 0x200
    6e18:	00000061 	andeq	r0, r0, r1, rrx
    6e1c:	68070202 	stmdavs	r7, {r1, r9}
    6e20:	03000002 	movweq	r0, #2
    6e24:	6e690504 	cdpvs	5, 6, cr0, cr9, cr4, {0}
    6e28:	08040074 	stmdaeq	r4, {r2, r4, r5, r6}
    6e2c:	03000001 	movweq	r0, #1
    6e30:	00005313 	andeq	r5, r0, r3, lsl r3
    6e34:	07040200 	streq	r0, [r4, -r0, lsl #4]
    6e38:	0000022e 	andeq	r0, r0, lr, lsr #4
    6e3c:	1c050802 	stcne	8, cr0, [r5], {2}
    6e40:	02000001 	andeq	r0, r0, #1
    6e44:	02240708 	eoreq	r0, r4, #2097152	; 0x200000
    6e48:	04050000 	streq	r0, [r5]
    6e4c:	017f0607 	cmneq	pc, r7, lsl #12
    6e50:	02c40000 	sbceq	r0, r4, #0
    6e54:	0003361b 	andeq	r3, r3, fp, lsl r6
    6e58:	00a60700 	adceq	r0, r6, r0, lsl #14
    6e5c:	20020000 	andcs	r0, r2, r0
    6e60:	00000048 	andeq	r0, r0, r8, asr #32
    6e64:	08002302 	stmdaeq	r0, {r1, r8, r9, sp}
    6e68:	02007263 	andeq	r7, r0, #805306374	; 0x30000006
    6e6c:	00004823 	andeq	r4, r0, r3, lsr #16
    6e70:	04230200 	strteq	r0, [r3], #-512	; 0x200
    6e74:	72636108 	rsbvc	r6, r3, #2
    6e78:	48240200 	stmdami	r4!, {r9}
    6e7c:	02000000 	andeq	r0, r0, #0
    6e80:	91070823 	tstls	r7, r3, lsr #16
    6e84:	02000003 	andeq	r0, r0, #3
    6e88:	00004825 	andeq	r4, r0, r5, lsr #16
    6e8c:	0c230200 	sfmeq	f0, 4, [r3]	; (stceq 2, cr0, [r3])
    6e90:	00002607 	andeq	r2, r0, r7, lsl #12
    6e94:	48260200 	stmdami	r6!, {r9}
    6e98:	02000000 	andeq	r0, r0, #0
    6e9c:	be071023 	cdplt	0, 0, cr1, cr7, cr3, {1}
    6ea0:	02000000 	andeq	r0, r0, #0
    6ea4:	00004827 	andeq	r4, r0, r7, lsr #16
    6ea8:	14230200 	strtne	r0, [r3], #-512	; 0x200
    6eac:	0001ea07 	andeq	lr, r1, r7, lsl #20
    6eb0:	48280200 	stmdami	r8!, {r9}
    6eb4:	02000000 	andeq	r0, r0, #0
    6eb8:	40071823 	andmi	r1, r7, r3, lsr #16
    6ebc:	02000001 	andeq	r0, r0, #1
    6ec0:	00004832 	andeq	r4, r0, r2, lsr r8
    6ec4:	1c230200 	sfmne	f0, 4, [r3]	; (stcne 2, cr0, [r3])
    6ec8:	00031f07 	andeq	r1, r3, r7, lsl #30
    6ecc:	48330200 	ldmdami	r3!, {r9}
    6ed0:	02000000 	andeq	r0, r0, #0
    6ed4:	47072023 	strmi	r2, [r7, -r3, lsr #32]
    6ed8:	02000003 	andeq	r0, r0, #3
    6edc:	00004834 	andeq	r4, r0, r4, lsr r8
    6ee0:	24230200 	strtcs	r0, [r3], #-512	; 0x200
    6ee4:	0000eb07 	andeq	lr, r0, r7, lsl #22
    6ee8:	48360200 	ldmdami	r6!, {r9}
    6eec:	02000000 	andeq	r0, r0, #0
    6ef0:	4f072823 	svcmi	0x00072823
    6ef4:	02000000 	andeq	r0, r0, #0
    6ef8:	00004838 	andeq	r4, r0, r8, lsr r8
    6efc:	2c230200 	sfmcs	f0, 4, [r3]	; (stccs 2, cr0, [r3])
    6f00:	00033c07 	andeq	r3, r3, r7, lsl #24
    6f04:	48390200 	ldmdami	r9!, {r9}
    6f08:	02000000 	andeq	r0, r0, #0
    6f0c:	78073023 	stmdavc	r7, {r0, r1, r5, ip, sp}
    6f10:	02000001 	andeq	r0, r0, #1
    6f14:	0000483a 	andeq	r4, r0, sl, lsr r8
    6f18:	34230200 	strtcc	r0, [r3], #-512	; 0x200
    6f1c:	00035607 	andeq	r5, r3, r7, lsl #12
    6f20:	483b0200 	ldmdami	fp!, {r9}
    6f24:	02000000 	andeq	r0, r0, #0
    6f28:	0e073823 	cdpeq	8, 0, cr3, cr7, cr3, {1}
    6f2c:	02000001 	andeq	r0, r0, #1
    6f30:	0000483d 	andeq	r4, r0, sp, lsr r8
    6f34:	3c230200 	sfmcc	f0, 4, [r3]	; (stccc 2, cr0, [r3])
    6f38:	00001807 	andeq	r1, r0, r7, lsl #16
    6f3c:	483e0200 	ldmdami	lr!, {r9}
    6f40:	02000000 	andeq	r0, r0, #0
    6f44:	70084023 	andvc	r4, r8, r3, lsr #32
    6f48:	02007261 	andeq	r7, r0, #268435462	; 0x10000006
    6f4c:	00004840 	andeq	r4, r0, r0, asr #16
    6f50:	44230200 	strtmi	r0, [r3], #-512	; 0x200
    6f54:	00030207 	andeq	r0, r3, r7, lsl #4
    6f58:	48420200 	stmdami	r2, {r9}^
    6f5c:	02000000 	andeq	r0, r0, #0
    6f60:	0d074823 	stceq	8, cr4, [r7, #-140]	; 0xffffff74
    6f64:	02000003 	andeq	r0, r0, #3
    6f68:	00004843 	andeq	r4, r0, r3, asr #16
    6f6c:	4c230200 	sfmmi	f0, 4, [r3]	; (stcmi 2, cr0, [r3])
    6f70:	00021f07 	andeq	r1, r2, r7, lsl #30
    6f74:	48440200 	stmdami	r4, {r9}^
    6f78:	02000000 	andeq	r0, r0, #0
    6f7c:	fd075023 	stc2	0, cr5, [r7, #-140]	; 0xffffff74
    6f80:	02000002 	andeq	r0, r0, #2
    6f84:	00004845 	andeq	r4, r0, r5, asr #16
    6f88:	54230200 	strtpl	r0, [r3], #-512	; 0x200
    6f8c:	72697308 	rsbvc	r7, r9, #536870912	; 0x20000000
    6f90:	48470200 	stmdami	r7, {r9}^
    6f94:	02000000 	andeq	r0, r0, #0
    6f98:	47075823 	strmi	r5, [r7, -r3, lsr #16]
    6f9c:	02000001 	andeq	r0, r0, #1
    6fa0:	00004849 	andeq	r4, r0, r9, asr #16
    6fa4:	5c230200 	sfmpl	f0, 4, [r3]	; (stcpl 2, cr0, [r3])
    6fa8:	72636308 	rsbvc	r6, r3, #536870912	; 0x20000000
    6fac:	484a0200 	stmdami	sl, {r9}^
    6fb0:	02000000 	andeq	r0, r0, #0
    6fb4:	65086023 	strvs	r6, [r8, #-35]	; 0x23
    6fb8:	02007273 	andeq	r7, r0, #805306375	; 0x30000007
    6fbc:	0000484b 	andeq	r4, r0, fp, asr #16
    6fc0:	64230200 	strtvs	r0, [r3], #-512	; 0x200
    6fc4:	00034d07 	andeq	r4, r3, r7, lsl #26
    6fc8:	484c0200 	stmdami	ip, {r9}^
    6fcc:	02000000 	andeq	r0, r0, #0
    6fd0:	75086823 	strvc	r6, [r8, #-2083]	; 0x823
    6fd4:	02007265 	andeq	r7, r0, #1342177286	; 0x50000006
    6fd8:	0000484d 	andeq	r4, r0, sp, asr #16
    6fdc:	6c230200 	sfmvs	f0, 4, [r3]	; (stcvs 2, cr0, [r3])
    6fe0:	00012a07 	andeq	r2, r1, r7, lsl #20
    6fe4:	484e0200 	stmdami	lr, {r9}^
    6fe8:	02000000 	andeq	r0, r0, #0
    6fec:	3b077023 	blcc	1e3080 <__bss_end+0x1dedf8>
    6ff0:	02000002 	andeq	r0, r0, #2
    6ff4:	0000484f 	andeq	r4, r0, pc, asr #16
    6ff8:	74230200 	strtvc	r0, [r3], #-512	; 0x200
    6ffc:	00038b07 	andeq	r8, r3, r7, lsl #22
    7000:	48510200 	ldmdami	r1, {r9}^
    7004:	02000000 	andeq	r0, r0, #0
    7008:	df077823 	svcle	0x00077823
    700c:	02000000 	andeq	r0, r0, #0
    7010:	00004852 	andeq	r4, r0, r2, asr r8
    7014:	7c230200 	sfmvc	f0, 4, [r3]	; (stcvc 2, cr0, [r3])
    7018:	0002de07 	andeq	sp, r2, r7, lsl #28
    701c:	48560200 	ldmdami	r6, {r9}^
    7020:	03000000 	movweq	r0, #0
    7024:	07018023 	streq	r8, [r1, -r3, lsr #32]
    7028:	000001b9 	undefined instruction 0x000001b9
    702c:	00485802 	subeq	r5, r8, r2, lsl #16
    7030:	23030000 	movwcs	r0, #12288	; 0x3000
    7034:	9b070184 	blls	1c764c <__bss_end+0x1c33c4>
    7038:	02000001 	andeq	r0, r0, #1
    703c:	0000485a 	andeq	r4, r0, sl, asr r8
    7040:	88230300 	stmdahi	r3!, {r8, r9}
    7044:	03420701 	movteq	r0, #9985	; 0x2701
    7048:	5b020000 	blpl	87050 <__bss_end+0x82dc8>
    704c:	00000048 	andeq	r0, r0, r8, asr #32
    7050:	018c2303 	orreq	r2, ip, r3, lsl #6
    7054:	00015e07 	andeq	r5, r1, r7, lsl #28
    7058:	485e0200 	ldmdami	lr, {r9}^
    705c:	03000000 	movweq	r0, #0
    7060:	07019023 	streq	r9, [r1, -r3, lsr #32]
    7064:	0000037d 	andeq	r0, r0, sp, ror r3
    7068:	00485f02 	subeq	r5, r8, r2, lsl #30
    706c:	23030000 	movwcs	r0, #12288	; 0x3000
    7070:	fd070194 	stc2	1, cr0, [r7, #-592]	; 0xfffffdb0
    7074:	02000001 	andeq	r0, r0, #1
    7078:	00004860 	andeq	r4, r0, r0, ror #16
    707c:	98230300 	stmdals	r3!, {r8, r9}
    7080:	00d70701 	sbcseq	r0, r7, r1, lsl #14
    7084:	61020000 	tstvs	r2, r0
    7088:	00000048 	andeq	r0, r0, r8, asr #32
    708c:	019c2303 	orrseq	r2, ip, r3, lsl #6
    7090:	00033407 	andeq	r3, r3, r7, lsl #8
    7094:	48620200 	stmdami	r2!, {r9}^
    7098:	03000000 	movweq	r0, #0
    709c:	0701a023 	streq	sl, [r1, -r3, lsr #32]
    70a0:	0000027b 	andeq	r0, r0, fp, ror r2
    70a4:	00486302 	subeq	r6, r8, r2, lsl #6
    70a8:	23030000 	movwcs	r0, #12288	; 0x3000
    70ac:	400701a4 	andmi	r0, r7, r4, lsr #3
    70b0:	02000002 	andeq	r0, r0, #2
    70b4:	00004867 	andeq	r4, r0, r7, ror #16
    70b8:	a8230300 	stmdage	r3!, {r8, r9}
    70bc:	008d0701 	addeq	r0, sp, r1, lsl #14
    70c0:	68020000 	stmdavs	r2, {}
    70c4:	00000048 	andeq	r0, r0, r8, asr #32
    70c8:	01ac2303 	undefined instruction 0x01ac2303
    70cc:	0002f307 	andeq	pc, r2, r7, lsl #6
    70d0:	48700200 	ldmdami	r0!, {r9}^
    70d4:	03000000 	movweq	r0, #0
    70d8:	0801b023 	stmdaeq	r1, {r0, r1, r5, ip, sp, pc}
    70dc:	00646963 	rsbeq	r6, r4, r3, ror #18
    70e0:	00487102 	subeq	r7, r8, r2, lsl #2
    70e4:	23030000 	movwcs	r0, #12288	; 0x3000
    70e8:	6b0701b4 	blvs	1c77c0 <__bss_end+0x1c3538>
    70ec:	02000000 	andeq	r0, r0, #0
    70f0:	00004872 	andeq	r4, r0, r2, ror r8
    70f4:	b8230300 	stmdalt	r3!, {r8, r9}
    70f8:	02830701 	addeq	r0, r3, #262144	; 0x40000
    70fc:	73020000 	movwvc	r0, #8192	; 0x2000
    7100:	00000048 	andeq	r0, r0, r8, asr #32
    7104:	01bc2303 	undefined instruction 0x01bc2303
    7108:	00038407 	andeq	r8, r3, r7, lsl #8
    710c:	48740200 	ldmdami	r4!, {r9}^
    7110:	03000000 	movweq	r0, #0
    7114:	0001c023 	andeq	ip, r1, r3, lsr #32
    7118:	21660109 	cmncs	r6, r9, lsl #2
    711c:	4f010000 	svcmi	0x00010000
    7120:	00342001 	eorseq	r2, r4, r1
    7124:	0039c400 	eorseq	ip, r9, r0, lsl #8
    7128:	5b5d0100 	blpl	1747530 <__bss_end+0x17432a8>
    712c:	0a000003 	beq	7140 <__bss_end+0x2eb8>
    7130:	00002136 	andeq	r2, r0, r6, lsr r1
    7134:	035b4f01 	cmpeq	fp, #4
    7138:	50010000 	andpl	r0, r1, r0
    713c:	6b040b00 	blvs	109d44 <__bss_end+0x105abc>
    7140:	09000000 	stmdbeq	r0, {}
    7144:	00211c01 	eoreq	r1, r1, r1, lsl #24
    7148:	01c50100 	biceq	r0, r5, r0, lsl #2
    714c:	000039c4 	andeq	r3, r0, r4, asr #19
    7150:	00003d48 	andeq	r3, r0, r8, asr #26
    7154:	03865d01 	orreq	r5, r6, #64	; 0x40
    7158:	360a0000 	strcc	r0, [sl], -r0
    715c:	01000021 	tsteq	r0, r1, lsr #32
    7160:	00035bc5 	andeq	r5, r3, r5, asr #23
    7164:	00500100 	subseq	r0, r0, r0, lsl #2
    7168:	214a010c 	cmpcs	sl, ip, lsl #2
    716c:	2b010000 	blcs	47174 <__bss_end+0x42eec>
    7170:	3d480101 	stfcce	f0, [r8, #-4]
    7174:	3d4c0000 	stclcc	0, cr0, [ip]
    7178:	5d010000 	stcpl	0, cr0, [r1]
    717c:	000003ad 	andeq	r0, r0, sp, lsr #7
    7180:	0021360d 	eoreq	r3, r1, sp, lsl #12
    7184:	012b0100 	teqeq	fp, r0, lsl #2
    7188:	0000035b 	andeq	r0, r0, fp, asr r3
    718c:	0c005001 	stceq	0, cr5, [r0], {1}
    7190:	00210301 	eoreq	r0, r1, r1, lsl #6
    7194:	01300100 	teqeq	r0, r0, lsl #2
    7198:	003d4c01 	eorseq	r4, sp, r1, lsl #24
    719c:	003d6400 	eorseq	r6, sp, r0, lsl #8
    71a0:	d45d0100 	ldrble	r0, [sp], #-256	; 0x100
    71a4:	0e000003 	cdpeq	0, 0, cr0, cr0, cr3, {0}
    71a8:	006c6176 	rsbeq	r6, ip, r6, ror r1
    71ac:	48013301 	stmdami	r1, {r0, r8, r9, ip, sp}
    71b0:	01000000 	tsteq	r0, r0
    71b4:	010c0052 	qaddeq	r0, r2, ip
    71b8:	000020f1 	strdeq	r2, [r0], -r1
    71bc:	01013b01 	tsteq	r1, r1, lsl #22
    71c0:	00003d64 	andeq	r3, r0, r4, ror #26
    71c4:	00003e38 	andeq	r3, r0, r8, lsr lr
    71c8:	03f95d01 	mvnseq	r5, #64	; 0x40
    71cc:	360f0000 	strcc	r0, [pc], -r0
    71d0:	01000021 	tsteq	r0, r1, lsr #32
    71d4:	035b013d 	cmpeq	fp, #1073741839	; 0x4000000f
    71d8:	10000000 	andne	r0, r0, r0
    71dc:	0000217d 	andeq	r2, r0, sp, ror r1
    71e0:	04c90f01 	strbeq	r0, [r9], #3841	; 0xf01
    71e4:	02c40000 	sbceq	r0, r4, #0
    71e8:	78000000 	stmdavc	r0, {}
    71ec:	0200c520 	andeq	ip, r0, #134217728	; 0x8000000
	...
    7260:	42000000 	andmi	r0, r0, #0
	...
    726c:	a4000000 	strge	r0, [r0]
    7270:	e000098a 	and	r0, r0, sl, lsl #19
    7274:	0044e048 	subeq	lr, r4, r8, asr #32
	...
    72a8:	11000000 	tstne	r0, r0
    72ac:	0000006b 	andeq	r0, r0, fp, rrx
	...

Disassembly of section .debug_line:

00000000 <.debug_line>:
       0:	000000d1 	ldrdeq	r0, [r0], -r1
       4:	006e0002 	rsbeq	r0, lr, r2
       8:	01020000 	tsteq	r2, r0
       c:	000d0efb 	strdeq	r0, [sp], -fp
      10:	01010101 	tsteq	r1, r1, lsl #2
      14:	01000000 	tsteq	r0, r0
      18:	2e010000 	cdpcs	0, 0, cr0, cr1, cr0, {0}
      1c:	7075732f 	rsbsvc	r7, r5, pc, lsr #6
      20:	732f7265 	teqvc	pc, #1342177286	; 0x50000006
      24:	65707375 	ldrbvs	r7, [r0, #-885]!	; 0x375
      28:	2e00646e 	cdpcs	4, 0, cr6, cr0, cr14, {3}
      2c:	7075732f 	rsbsvc	r7, r5, pc, lsr #6
      30:	732f7265 	teqvc	pc, #1342177286	; 0x50000006
      34:	65707375 	ldrbvs	r7, [r0, #-885]!	; 0x375
      38:	2e2f646e 	cdpcs	4, 2, cr6, cr15, cr14, {3}
      3c:	2f2e2e2f 	svccs	0x002e2e2f
      40:	2e2f2e2e 	cdpcs	14, 2, cr2, cr15, cr14, {1}
      44:	7300002e 	movwvc	r0, #46	; 0x2e
      48:	65707375 	ldrbvs	r7, [r0, #-885]!	; 0x375
      4c:	632e646e 	teqvs	lr, #1845493760	; 0x6e000000
      50:	00000100 	andeq	r0, r0, r0, lsl #2
      54:	745f6d70 	ldrbvc	r6, [pc], #3440	; 5c <__suspend_start+0x5c>
      58:	73657079 	cmnvc	r5, #121	; 0x79
      5c:	0200682e 	andeq	r6, r0, #3014656	; 0x2e0000
      60:	656d0000 	strbvs	r0, [sp]!
      64:	70635f6d 	rsbvc	r5, r3, sp, ror #30
      68:	00682e75 	rsbeq	r2, r8, r5, ror lr
      6c:	70000002 	andvc	r0, r0, r2
      70:	00682e6d 	rsbeq	r2, r8, sp, ror #28
      74:	00000002 	andeq	r0, r0, r2
      78:	00020500 	andeq	r0, r2, r0, lsl #10
      7c:	03000000 	movweq	r0, #0
      80:	03010185 	movweq	r0, #4485	; 0x1185
      84:	74032e0d 	strvc	r2, [r3], #-3597	; 0xe0d
      88:	2e0c034a 	cdpcs	3, 0, cr0, cr12, cr10, {2}
      8c:	502f4f33 	eorpl	r4, pc, r3, lsr pc
      90:	4a0a032f 	bmi	280d54 <__bss_end+0x27cacc>
      94:	2e0f039f 	mcrcs	3, 0, r0, cr15, cr15, {4}
      98:	302e7103 	eorcc	r7, lr, r3, lsl #2
      9c:	03820d03 	orreq	r0, r2, #192	; 0xc0
      a0:	4b2f2e76 	blmi	bcba80 <__bss_end+0xbc77f8>
      a4:	4b2f4b2f 	blmi	bd2d68 <__bss_end+0xbceae0>
      a8:	23084d4b 	movwcs	r4, #36171	; 0x8d4b
      ac:	302c3085 	eorcc	r3, ip, r5, lsl #1
      b0:	6c2e0903 	stcvs	9, cr0, [lr], #-12
      b4:	4a220333 	bmi	880d88 <__bss_end+0x87cb00>
      b8:	034c2f2f 	movteq	r2, #53039	; 0xcf2f
      bc:	86f52e16 	usathi	r2, #21, r6, lsl #28
      c0:	4f302c30 	svcmi	0x00302c30
      c4:	322e4603 	eorcc	r4, lr, #3145728	; 0x300000
      c8:	03355b08 	teqeq	r5, #8192	; 0x2000
      cc:	4e4d2e79 	mcrmi	14, 2, r2, cr13, cr9, {3}
      d0:	01000e02 	tsteq	r0, r2, lsl #28
      d4:	00004301 	andeq	r4, r0, r1, lsl #6
      d8:	27000200 	strcs	r0, [r0, -r0, lsl #4]
      dc:	02000000 	andeq	r0, r0, #0
      e0:	0d0efb01 	vstreq	d15, [lr, #-4]
      e4:	01010100 	tsteq	r1, r0, lsl #2
      e8:	00000001 	andeq	r0, r0, r1
      ec:	01000001 	tsteq	r0, r1
      f0:	75732f2e 	ldrbvc	r2, [r3, #-3886]!	; 0xf2e
      f4:	00726570 	rsbseq	r6, r2, r0, ror r5
      f8:	6d6f6300 	stclvs	3, cr6, [pc]
      fc:	2e6e6f6d 	cdpcs	15, 6, cr6, cr14, cr13, {3}
     100:	00010063 	andeq	r0, r1, r3, rrx
     104:	05000000 	streq	r0, [r0]
     108:	0001b802 	andeq	fp, r1, r2, lsl #16
     10c:	01230300 	teqeq	r3, r0, lsl #6
     110:	2e090301 	cdpcs	3, 0, cr0, cr9, cr1, {0}
     114:	0287492f 	addeq	r4, r7, #770048	; 0xbc000
     118:	01010002 	tsteq	r1, r2
     11c:	0000014c 	andeq	r0, r0, ip, asr #2
     120:	00260002 	eoreq	r0, r6, r2
     124:	01020000 	tsteq	r2, r0
     128:	000d0efb 	strdeq	r0, [sp], -fp
     12c:	01010101 	tsteq	r1, r1, lsl #2
     130:	01000000 	tsteq	r0, r0
     134:	2e010000 	cdpcs	0, 0, cr0, cr1, cr0, {0}
     138:	7075732f 	rsbsvc	r7, r5, pc, lsr #6
     13c:	00007265 	andeq	r7, r0, r5, ror #4
     140:	63617473 	cmnvs	r1, #1929379840	; 0x73000000
     144:	00532e6b 	subseq	r2, r3, fp, ror #28
     148:	00000001 	andeq	r0, r0, r1
     14c:	e0020500 	and	r0, r2, r0, lsl #10
     150:	03000001 	movweq	r0, #1
     154:	2f2f0109 	svccs	0x002f0109
     158:	332f2f33 	teqcc	pc, #204	; 0xcc
     15c:	2f2f342f 	svccs	0x002f342f
     160:	2f2f3030 	svccs	0x002f3030
     164:	302f302f 	eorcc	r3, pc, pc, lsr #32
     168:	2f302f2f 	svccs	0x00302f2f
     16c:	2f2f2f33 	svccs	0x002f2f33
     170:	302f2f2f 	eorcc	r2, pc, pc, lsr #30
     174:	2f2f2f2f 	svccs	0x002f2f2f
     178:	2f2f2f2f 	svccs	0x002f2f2f
     17c:	2f2f2f2f 	svccs	0x002f2f2f
     180:	30302f2f 	eorscc	r2, r0, pc, lsr #30
     184:	2f2f2f2f 	svccs	0x002f2f2f
     188:	2f302f2f 	svccs	0x00302f2f
     18c:	2f30302f 	svccs	0x0030302f
     190:	342f2f2f 	strtcc	r2, [pc], #3887	; 198 <__suspend_start+0x198>
     194:	2f2f2f2f 	svccs	0x002f2f2f
     198:	2f2f332f 	svccs	0x002f332f
     19c:	332f2f2f 	teqcc	pc, #188	; 0xbc
     1a0:	2f2f2f2f 	svccs	0x002f2f2f
     1a4:	332f2f2f 	teqcc	pc, #188	; 0xbc
     1a8:	2f2f2f2f 	svccs	0x002f2f2f
     1ac:	2f332f2f 	svccs	0x00332f2f
     1b0:	2f2f2f2f 	svccs	0x002f2f2f
     1b4:	2f2f332f 	svccs	0x002f332f
     1b8:	2f2f2f2f 	svccs	0x002f2f2f
     1bc:	2f2f2f33 	svccs	0x002f2f33
     1c0:	332f2f2f 	teqcc	pc, #188	; 0xbc
     1c4:	2f2f2f2f 	svccs	0x002f2f2f
     1c8:	2f332f2f 	svccs	0x00332f2f
     1cc:	2f2f2f2f 	svccs	0x002f2f2f
     1d0:	2f332f2f 	svccs	0x00332f2f
     1d4:	2f2f2f2f 	svccs	0x002f2f2f
     1d8:	302f332f 	eorcc	r3, pc, pc, lsr #6
     1dc:	2f2f312f 	svccs	0x002f312f
     1e0:	2f2f2f2f 	svccs	0x002f2f2f
     1e4:	2f2f2f2f 	svccs	0x002f2f2f
     1e8:	2f2f2f2f 	svccs	0x002f2f2f
     1ec:	2f2f312f 	svccs	0x002f312f
     1f0:	2f2f2f2f 	svccs	0x002f2f2f
     1f4:	2f2f2f2f 	svccs	0x002f2f2f
     1f8:	2f2f2f2f 	svccs	0x002f2f2f
     1fc:	302f2f2f 	eorcc	r2, pc, pc, lsr #30
     200:	2f312f30 	svccs	0x00312f30
     204:	2f2f2f2f 	svccs	0x002f2f2f
     208:	2f2f2f2f 	svccs	0x002f2f2f
     20c:	2f2f2f2f 	svccs	0x002f2f2f
     210:	2f2f2f2f 	svccs	0x002f2f2f
     214:	2f332f30 	svccs	0x00332f30
     218:	2f312f30 	svccs	0x00312f30
     21c:	2f2f2f2f 	svccs	0x002f2f2f
     220:	2f2f2f2f 	svccs	0x002f2f2f
     224:	2f2f2f2f 	svccs	0x002f2f2f
     228:	2f312f2f 	svccs	0x00312f2f
     22c:	2f2f2f2f 	svccs	0x002f2f2f
     230:	2f2f2f2f 	svccs	0x002f2f2f
     234:	2f2f2f2f 	svccs	0x002f2f2f
     238:	2f2f2f2f 	svccs	0x002f2f2f
     23c:	312f3030 	teqcc	pc, r0, lsr r0
     240:	2f2f2f2f 	svccs	0x002f2f2f
     244:	2f2f2f2f 	svccs	0x002f2f2f
     248:	2f2f2f2f 	svccs	0x002f2f2f
     24c:	2f2f2f2f 	svccs	0x002f2f2f
     250:	342f302f 	strtcc	r3, [pc], #47	; 258 <loop1>
     254:	2f2f2f2f 	svccs	0x002f2f2f
     258:	2f2f30c0 	svccs	0x002f30c0
     25c:	2f2f3430 	svccs	0x002f3430
     260:	30dc2f2f 	sbcscc	r2, ip, pc, lsr #30
     264:	02302f2f 	eorseq	r2, r0, #188	; 0xbc
     268:	0101003a 	tsteq	r1, sl, lsr r0
     26c:	000000d1 	ldrdeq	r0, [r0], -r1
     270:	00550002 	subseq	r0, r5, r2
     274:	01020000 	tsteq	r2, r0
     278:	000d0efb 	strdeq	r0, [sp], -fp
     27c:	01010101 	tsteq	r1, r1, lsl #2
     280:	01000000 	tsteq	r0, r0
     284:	2e010000 	cdpcs	0, 0, cr0, cr1, cr0, {0}
     288:	7075732f 	rsbsvc	r7, r5, pc, lsr #6
     28c:	2e007265 	cdpcs	2, 0, cr7, cr0, cr5, {3}
     290:	7075732f 	rsbsvc	r7, r5, pc, lsr #6
     294:	2e2f7265 	cdpcs	2, 2, cr7, cr15, cr5, {3}
     298:	2e2e2f2e 	cdpcs	15, 2, cr2, cr14, cr14, {1}
     29c:	75730000 	ldrbvc	r0, [r3]!
     2a0:	5f726570 	svcpl	0x00726570
     2a4:	2e746e69 	cdpcs	14, 7, cr6, cr4, cr9, {3}
     2a8:	00010063 	andeq	r0, r1, r3, rrx
     2ac:	5f6d7000 	svcpl	0x006d7000
     2b0:	65707974 	ldrbvs	r7, [r0, #-2420]!	; 0x974
     2b4:	00682e73 	rsbeq	r2, r8, r3, ror lr
     2b8:	73000002 	movwvc	r0, #2
     2bc:	72657075 	rsbvc	r7, r5, #117	; 0x75
     2c0:	746e695f 	strbtvc	r6, [lr], #-2399	; 0x95f
     2c4:	0100682e 	tsteq	r0, lr, lsr #16
     2c8:	00000000 	andeq	r0, r0, r0
     2cc:	06e00205 	strbteq	r0, [r0], r5, lsl #4
     2d0:	25030000 	strcs	r0, [r3]
     2d4:	0e031301 	cdpeq	3, 0, cr1, cr3, cr1, {0}
     2d8:	2e72032e 	cdpcs	3, 7, cr0, cr2, cr14, {1}
     2dc:	032e1103 	teqeq	lr, #-1073741824	; 0xc0000000
     2e0:	2f322e6e 	svccs	0x00322e6e
     2e4:	032e1803 	teqeq	lr, #196608	; 0x30000
     2e8:	2f2f2e69 	svccs	0x002f2e69
     2ec:	032f2f2f 	teqeq	pc, #188	; 0xbc
     2f0:	0a032e76 	beq	cbcd0 <__bss_end+0xc7a48>
     2f4:	78032f2e 	stmdavc	r3, {r1, r2, r3, r5, r8, r9, sl, fp, sp}
     2f8:	03352f2e 	teqeq	r5, #184	; 0xb8
     2fc:	2f2f2e7a 	svccs	0x002f2e7a
     300:	10032f2f 	andne	r2, r3, pc, lsr #30
     304:	2e75032e 	cdpcs	3, 7, cr0, cr5, cr14, {1}
     308:	2f2f2f2f 	svccs	0x002f2f2f
     30c:	2f2f2f2f 	svccs	0x002f2f2f
     310:	0f033131 	svceq	0x00033131
     314:	0b031466 	bleq	c54b4 <__bss_end+0xc122c>
     318:	2e75032e 	cdpcs	3, 7, cr0, cr5, cr14, {1}
     31c:	4b4b4b67 	blmi	12d30c0 <__bss_end+0x12cee38>
     320:	4b4b4b4b 	blmi	12d3054 <__bss_end+0x12cedcc>
     324:	4a0f034d 	bmi	3c1060 <__bss_end+0x3bcdd8>
     328:	45322a17 	ldrmi	r2, [r2, #-2583]!	; 0xa17
     32c:	2a314b33 	bcs	c53000 <__bss_end+0xc4ed78>
     330:	0f036983 	svceq	0x00036983
     334:	2930174a 	ldmdbcs	r0!, {r1, r3, r6, r8, r9, sl, ip}
     338:	2f682c33 	svccs	0x00682c33
     33c:	01000802 	tsteq	r0, r2, lsl #16
     340:	00007201 	andeq	r7, r0, r1, lsl #4
     344:	55000200 	strpl	r0, [r0, #-512]	; 0x200
     348:	02000000 	andeq	r0, r0, #0
     34c:	0d0efb01 	vstreq	d15, [lr, #-4]
     350:	01010100 	tsteq	r1, r0, lsl #2
     354:	00000001 	andeq	r0, r0, r1
     358:	01000001 	tsteq	r0, r1
     35c:	75732f2e 	ldrbvc	r2, [r3, #-3886]!	; 0xf2e
     360:	00726570 	rsbseq	r6, r2, r0, ror r5
     364:	75732f2e 	ldrbvc	r2, [r3, #-3886]!	; 0xf2e
     368:	2f726570 	svccs	0x00726570
     36c:	2e2f2e2e 	cdpcs	14, 2, cr2, cr15, cr14, {1}
     370:	7300002e 	movwvc	r0, #46	; 0x2e
     374:	72657075 	rsbvc	r7, r5, #117	; 0x75
     378:	726d745f 	rsbvc	r7, sp, #1593835520	; 0x5f000000
     37c:	0100632e 	tsteq	r0, lr, lsr #6
     380:	75730000 	ldrbvc	r0, [r3]!
     384:	5f726570 	svcpl	0x00726570
     388:	2e726d74 	mrccs	13, 3, r6, cr2, cr4, {3}
     38c:	00010068 	andeq	r0, r1, r8, rrx
     390:	5f6d7000 	svcpl	0x006d7000
     394:	65707974 	ldrbvs	r7, [r0, #-2420]!	; 0x974
     398:	00682e73 	rsbeq	r2, r8, r3, ror lr
     39c:	00000002 	andeq	r0, r0, r2
     3a0:	50020500 	andpl	r0, r2, r0, lsl #10
     3a4:	03000008 	movweq	r0, #8
     3a8:	69140122 	ldmdbvs	r4, {r1, r5, r8}
     3ac:	16661103 	strbtne	r1, [r6], -r3, lsl #2
     3b0:	040269a0 	streq	r6, [r2], #-2464	; 0x9a0
     3b4:	1d010100 	stfnes	f0, [r1]
     3b8:	02000001 	andeq	r0, r0, #1
     3bc:	00009a00 	andeq	r9, r0, r0, lsl #20
     3c0:	fb010200 	blx	40bca <__bss_end+0x3c942>
     3c4:	01000d0e 	tsteq	r0, lr, lsl #26
     3c8:	00010101 	andeq	r0, r1, r1, lsl #2
     3cc:	00010000 	andeq	r0, r1, r0
     3d0:	2f2e0100 	svccs	0x002e0100
     3d4:	65707573 	ldrbvs	r7, [r0, #-1395]!	; 0x573
     3d8:	2f2e0072 	svccs	0x002e0072
     3dc:	65707573 	ldrbvs	r7, [r0, #-1395]!	; 0x573
     3e0:	2e2e2f72 	mcrcs	15, 1, r2, cr14, cr2, {3}
     3e4:	002e2e2f 	eoreq	r2, lr, pc, lsr #28
     3e8:	6d6f682f 	stclvs	8, cr6, [pc, #-188]!	; 0xffffff44
     3ec:	696d2f65 	stmdbvs	sp!, {r0, r2, r5, r6, r8, r9, sl, fp, sp}^
     3f0:	772f656b 	strvc	r6, [pc, -fp, ror #10]!
     3f4:	2f6b726f 	svccs	0x006b726f
     3f8:	756e696c 	strbvc	r6, [lr, #-2412]!	; 0x96c
     3fc:	32365f78 	eorscc	r5, r6, #480	; 0x1e0
     400:	72612f34 	rsbvc	r2, r1, #208	; 0xd0
     404:	612f6863 	teqvs	pc, r3, ror #16
     408:	6d2f6d72 	stcvs	13, cr6, [pc, #-456]!	; 0xfffffe38
     40c:	2d686361 	stclcs	3, cr6, [r8, #-388]!	; 0xfffffe7c
     410:	356e7573 	strbcc	r7, [lr, #-1395]!	; 0x573
     414:	6e692f69 	cdpvs	15, 6, cr2, cr9, cr9, {3}
     418:	64756c63 	ldrbtvs	r6, [r5], #-3171	; 0xc63
     41c:	616d2f65 	cmnvs	sp, r5, ror #30
     420:	00006863 	andeq	r6, r0, r3, ror #16
     424:	65707573 	ldrbvs	r7, [r0, #-1395]!	; 0x573
     428:	6c635f72 	stclvs	15, cr5, [r3], #-456	; 0xfffffe38
     42c:	2e6b636f 	cdpcs	3, 6, cr6, cr11, cr15, {3}
     430:	00010063 	andeq	r0, r1, r3, rrx
     434:	5f6d7000 	svcpl	0x006d7000
     438:	65707974 	ldrbvs	r7, [r0, #-2420]!	; 0x974
     43c:	00682e73 	rsbeq	r2, r8, r3, ror lr
     440:	70000002 	andvc	r0, r0, r2
     444:	00682e6d 	rsbeq	r2, r8, sp, ror #28
     448:	63000002 	movwvs	r0, #2
     44c:	5f756d63 	svcpl	0x00756d63
     450:	73676572 	cmnvc	r7, #478150656	; 0x1c800000
     454:	0300682e 	movweq	r6, #2094	; 0x82e
     458:	00000000 	andeq	r0, r0, r0
     45c:	08900205 	ldmeq	r0, {r0, r2, r9}
     460:	2c030000 	stccs	0, cr0, [r3], {0}
     464:	2b311301 	blcs	c45070 <__bss_end+0xc40de8>
     468:	660e034d 	strvs	r0, [lr], -sp, asr #6
     46c:	2e090313 	mcrcs	3, 0, r0, cr9, cr3, {0}
     470:	832e7703 	teqhi	lr, #786432	; 0xc0000
     474:	67686767 	strbvs	r6, [r8, -r7, ror #14]!
     478:	4a0f0369 	bmi	3c1224 <__bss_end+0x3bcf9c>
     47c:	2e090313 	mcrcs	3, 0, r0, cr9, cr3, {0}
     480:	832e7703 	teqhi	lr, #786432	; 0xc0000
     484:	67686767 	strbvs	r6, [r8, -r7, ror #14]!
     488:	4a0f0369 	bmi	3c1234 <__bss_end+0x3bcfac>
     48c:	2a326a13 	bcs	c9ace0 <__bss_end+0xc96a58>
     490:	83302c30 	teqhi	r0, #12288	; 0x3000
     494:	0e03a19f 	mcreq	1, 0, sl, cr3, cr15, {4}
     498:	326a1366 	rsbcc	r1, sl, #-1744830463	; 0x98000001
     49c:	302c302a 	eorcc	r3, ip, sl, lsr #32
     4a0:	03858383 	orreq	r8, r5, #201326594	; 0xc000002
     4a4:	2c146610 	ldccs	6, cr6, [r4], {16}
     4a8:	2e090330 	mcrcs	3, 0, r0, cr9, cr0, {1}
     4ac:	2d2e7803 	stccs	8, cr7, [lr, #-12]!
     4b0:	8383672f 	orrhi	r6, r3, #12320768	; 0xbc0000
     4b4:	660f0387 	strvs	r0, [pc], -r7, lsl #7
     4b8:	032f2d13 	teqeq	pc, #1216	; 0x4c0
     4bc:	78032e0a 	stmdavc	r3, {r1, r3, r9, sl, fp, sp}
     4c0:	4b302c2e 	blmi	c0b580 <__bss_end+0xc072f8>
     4c4:	036b6767 	cmneq	fp, #27000832	; 0x19c0000
     4c8:	2f2f660f 	svccs	0x002f660f
     4cc:	2b312b31 	blcs	c4b198 <__bss_end+0xc46f10>
     4d0:	02312b31 	eorseq	r2, r1, #50176	; 0xc400
     4d4:	01010006 	tsteq	r1, r6
     4d8:	000001bb 	undefined instruction 0x000001bb
     4dc:	009f0002 	addseq	r0, pc, r2
     4e0:	01020000 	tsteq	r2, r0
     4e4:	000d0efb 	strdeq	r0, [sp], -fp
     4e8:	01010101 	tsteq	r1, r1, lsl #2
     4ec:	01000000 	tsteq	r0, r0
     4f0:	2e010000 	cdpcs	0, 0, cr0, cr1, cr0, {0}
     4f4:	7075732f 	rsbsvc	r7, r5, pc, lsr #6
     4f8:	2e007265 	cdpcs	2, 0, cr7, cr0, cr5, {3}
     4fc:	7075732f 	rsbsvc	r7, r5, pc, lsr #6
     500:	2e2f7265 	cdpcs	2, 2, cr7, cr15, cr5, {3}
     504:	2e2e2f2e 	cdpcs	15, 2, cr2, cr14, cr14, {1}
     508:	6f682f00 	svcvs	0x00682f00
     50c:	6d2f656d 	cfstr32vs	mvfx6, [pc, #-436]!	; 0xfffffe4c
     510:	2f656b69 	svccs	0x00656b69
     514:	6b726f77 	blvs	1c9c2f8 <__bss_end+0x1c98070>
     518:	6e696c2f 	cdpvs	12, 6, cr6, cr9, cr15, {1}
     51c:	365f7875 	undefined instruction 0x365f7875
     520:	612f3432 	teqvs	pc, r2, lsr r4
     524:	2f686372 	svccs	0x00686372
     528:	2f6d7261 	svccs	0x006d7261
     52c:	6863616d 	stmdavs	r3!, {r0, r2, r3, r5, r6, r8, sp, lr}^
     530:	6e75732d 	cdpvs	3, 7, cr7, cr5, cr13, {1}
     534:	692f6935 	stmdbvs	pc!, {r0, r2, r4, r5, r8, fp, sp, lr}
     538:	756c636e 	strbvc	r6, [ip, #-878]!	; 0x36e
     53c:	6d2f6564 	cfstr32vs	mvfx6, [pc, #-400]!	; 0xfffffe70
     540:	00686361 	rsbeq	r6, r8, r1, ror #6
     544:	70757300 	rsbsvc	r7, r5, r0, lsl #6
     548:	745f7265 	ldrbvc	r7, [pc], #613	; 550 <mem_preload_tlb_nommu+0x6c>
     54c:	632e6977 	teqvs	lr, #1949696	; 0x1dc000
     550:	00000100 	andeq	r0, r0, r0, lsl #2
     554:	745f6d70 	ldrbvc	r6, [pc], #3440	; 55c <mem_preload_tlb_nommu+0x78>
     558:	73657079 	cmnvc	r5, #121	; 0x79
     55c:	0200682e 	andeq	r6, r0, #3014656	; 0x2e0000
     560:	63630000 	cmnvs	r3, #0
     564:	725f756d 	subsvc	r7, pc, #457179136	; 0x1b400000
     568:	2e736765 	cdpcs	7, 7, cr6, cr3, cr5, {3}
     56c:	00030068 	andeq	r0, r3, r8, rrx
     570:	70757300 	rsbsvc	r7, r5, r0, lsl #6
     574:	745f7265 	ldrbvc	r7, [pc], #613	; 57c <mem_preload_tlb_nommu+0x98>
     578:	682e6977 	stmdavs	lr!, {r0, r1, r2, r4, r5, r6, r8, fp, sp, lr}
     57c:	00000100 	andeq	r0, r0, r0, lsl #2
     580:	02050000 	andeq	r0, r5, #0
     584:	00000b04 	andeq	r0, r0, r4, lsl #22
     588:	0100e903 	tsteq	r0, r3, lsl #18
     58c:	2c2f6713 	stccs	7, cr6, [pc], #-76	; 0xffffffb4
     590:	4c4c2f2f 	mcrrmi	15, 2, r2, ip, cr15
     594:	2e036967 	cdpcs	9, 0, cr6, cr3, cr7, {3}
     598:	2c301666 	ldccs	6, cr1, [r0], #-408	; 0xfffffe68
     59c:	6cbb31a0 	ldfvss	f3, [fp], #640	; 0x280
     5a0:	88bb6cbb 	ldmhi	fp!, {r0, r1, r3, r4, r5, r7, sl, fp, sp, lr}
     5a4:	184a0e03 	stmdane	sl, {r0, r1, r9, sl, fp}^
     5a8:	0b03472d 	bleq	d2264 <__bss_end+0xcdfdc>
     5ac:	2e78032e 	cdpcs	3, 7, cr0, cr8, cr14, {1}
     5b0:	0336622f 	teqeq	r6, #-268435454	; 0xf0000002
     5b4:	4d362e78 	ldcmi	14, cr2, [r6, #-480]!	; 0xfffffe20
     5b8:	ba13036a 	blt	4c1368 <__bss_end+0x4bd0e0>
     5bc:	68332917 	ldmdavs	r3!, {r0, r1, r2, r4, r8, fp, sp}
     5c0:	660b032f 	strvs	r0, [fp], -pc, lsr #6
     5c4:	2f4fbb84 	svccs	0x004fbb84
     5c8:	2f2d2f6c 	svccs	0x002d2f6c
     5cc:	2f4ebb68 	svccs	0x004ebb68
     5d0:	bb842f6c 	bllt	fe10c388 <__bss_end+0xfe108100>
     5d4:	4d6b2f4e 	stclmi	15, cr2, [fp, #-312]!	; 0xfffffec8
     5d8:	682f2d2f 	stmdavs	pc!, {r0, r1, r2, r3, r5, r8, sl, fp, sp}
     5dc:	6e2f4ebb 	mcrvs	14, 1, r4, cr15, cr11, {5}
     5e0:	2f4ebba0 	svccs	0x004ebba0
     5e4:	2f2d2f6c 	svccs	0x002d2f6c
     5e8:	2f4ebb68 	svccs	0x004ebb68
     5ec:	4ebb846c 	cdpmi	4, 11, cr8, cr11, cr12, {3}
     5f0:	c8032f4b 	stmdagt	r3, {r0, r1, r3, r6, r8, r9, sl, fp, sp}
     5f4:	4c2c667d 	stcmi	6, cr6, [ip], #-500	; 0xfffffe0c
     5f8:	4c322a68 	ldcmi	10, cr2, [r2], #-416	; 0xfffffe60
     5fc:	7903674c 	stmdbvc	r3, {r2, r3, r6, r8, r9, sl, sp, lr}
     600:	684c2c9e 	stmdavs	ip, {r1, r2, r3, r4, r7, sl, fp, sp}^
     604:	4c4c322a 	sfmmi	f3, 2, [ip], {42}	; (stclmi 2, cr3, [ip], {42})	; 0x2a
     608:	02c40367 	sbceq	r0, r4, #-1677721599	; 0x9c000001
     60c:	78033182 	stmdavc	r3, {r1, r7, r8, ip, sp}
     610:	d61b034a 	ldrle	r0, [fp], -sl, asr #6
     614:	4c342917 	ldcmi	9, cr2, [r4], #-92	; 0xffffffa4
     618:	3246322b 	subcc	r3, r6, #-1342177278	; 0xb0000002
     61c:	302e0b03 	eorcc	r0, lr, r3, lsl #22
     620:	4fd7682c 	svcmi	0x00d7682c
     624:	2b316c2f 	blcs	c5b6e8 <__bss_end+0xc57460>
     628:	4ed7842f 	cdpmi	4, 13, cr8, cr7, cr15, {1}
     62c:	2c316c2f 	ldccs	12, cr6, [r1], #-188	; 0xffffff44
     630:	2f4ed784 	svccs	0x004ed784
     634:	2c314d6b 	ldccs	13, cr4, [r1], #-428	; 0xfffffe54
     638:	bb682f2d 	bllt	1a0c2f4 <__bss_end+0x1a0806c>
     63c:	306e4b4e 	rsbcc	r4, lr, lr, asr #22
     640:	4ed7842c 	cdpmi	4, 13, cr8, cr7, cr12, {1}
     644:	2b316c2f 	blcs	c5b708 <__bss_end+0xc57480>
     648:	4ed7842f 	cdpmi	4, 13, cr8, cr7, cr15, {1}
     64c:	2c306c2f 	ldccs	12, cr6, [r0], #-188	; 0xffffff44
     650:	4b4ed768 	blmi	13b63f8 <__bss_end+0x13b2170>
     654:	7cc1032f 	stclvc	3, cr0, [r1], {47}	; 0x2f
     658:	7a033266 	bvc	ccff8 <__bss_end+0xc8d70>
     65c:	0335302e 	teqeq	r5, #46	; 0x2e
     660:	4c302e77 	ldcmi	14, cr2, [r0], #-476	; 0xfffffe24
     664:	4c4c322a 	sfmmi	f3, 2, [ip], {42}	; (stclmi 2, cr3, [ip], {42})	; 0x2a
     668:	9e790367 	cdpls	3, 7, cr0, cr9, cr7, {3}
     66c:	2e7a0332 	mrccs	3, 3, r0, cr10, cr2, {1}
     670:	77033530 	smladxvc	r3, r0, r5, r3
     674:	2a4c302e 	bcs	130c734 <__bss_end+0x13084ac>
     678:	674c4c32 	smlaldxvs	r4, ip, r2, ip
     67c:	8203cc03 	andhi	ip, r3, #768	; 0x300
     680:	032e7a03 	teqeq	lr, #12288	; 0x3000
     684:	30f27ce9 	rscscc	r7, r2, r9, ror #25
     688:	2f852b31 	svccs	0x00852b31
     68c:	2c2c4e4d 	stccs	14, cr4, [ip], #-308	; 0xfffffecc
     690:	04026830 	streq	r6, [r2], #-2096	; 0x830
     694:	4a010100 	bmi	40a9c <__bss_end+0x3c814>
     698:	02000000 	andeq	r0, r0, #0
     69c:	00002c00 	andeq	r2, r0, r0, lsl #24
     6a0:	fb010200 	blx	40eaa <__bss_end+0x3cc22>
     6a4:	01000d0e 	tsteq	r0, lr, lsl #26
     6a8:	00010101 	andeq	r0, r1, r1, lsl #2
     6ac:	00010000 	andeq	r0, r1, r0
     6b0:	2f2e0100 	svccs	0x002e0100
     6b4:	65707573 	ldrbvs	r7, [r0, #-1395]!	; 0x573
     6b8:	73000072 	movwvc	r0, #114	; 0x72
     6bc:	72657075 	rsbvc	r7, r5, #117	; 0x75
     6c0:	6c65645f 	cfstrdvs	mvd6, [r5], #-380	; 0xfffffe84
     6c4:	532e7961 	teqpl	lr, #1589248	; 0x184000
     6c8:	00000100 	andeq	r0, r0, r0, lsl #2
     6cc:	02050000 	andeq	r0, r5, #0
     6d0:	00001290 	muleq	r0, r0, r2
     6d4:	2f010d03 	svccs	0x00010d03
     6d8:	2f2f302f 	svccs	0x002f302f
     6dc:	2f302f2f 	svccs	0x00302f2f
     6e0:	01000202 	tsteq	r0, r2, lsl #4
     6e4:	00024501 	andeq	r4, r2, r1, lsl #10
     6e8:	70000200 	andvc	r0, r0, r0, lsl #4
     6ec:	02000000 	andeq	r0, r0, #0
     6f0:	0d0efb01 	vstreq	d15, [lr, #-4]
     6f4:	01010100 	tsteq	r1, r0, lsl #2
     6f8:	00000001 	andeq	r0, r0, r1
     6fc:	01000001 	tsteq	r0, r1
     700:	75732f2e 	ldrbvc	r2, [r3, #-3886]!	; 0xf2e
     704:	00726570 	rsbseq	r6, r2, r0, ror r5
     708:	75732f2e 	ldrbvc	r2, [r3, #-3886]!	; 0xf2e
     70c:	2f726570 	svccs	0x00726570
     710:	2e2f2e2e 	cdpcs	14, 2, cr2, cr15, cr14, {1}
     714:	7300002e 	movwvc	r0, #46	; 0x2e
     718:	72657075 	rsbvc	r7, r5, #117	; 0x75
     71c:	776f705f 	undefined instruction 0x776f705f
     720:	632e7265 	teqvs	lr, #1342177286	; 0x50000006
     724:	00000100 	andeq	r0, r0, r0, lsl #2
     728:	682e6d70 	stmdavs	lr!, {r4, r5, r6, r8, sl, fp, sp, lr}
     72c:	00000200 	andeq	r0, r0, r0, lsl #4
     730:	745f6d70 	ldrbvc	r6, [pc], #3440	; 738 <mem_int_init+0x58>
     734:	73657079 	cmnvc	r5, #121	; 0x79
     738:	0200682e 	andeq	r6, r0, #3014656	; 0x2e0000
     73c:	75730000 	ldrbvc	r0, [r3]!
     740:	5f726570 	svcpl	0x00726570
     744:	65776f70 	ldrbvs	r6, [r7, #-3952]!	; 0xf70
     748:	00682e72 	rsbeq	r2, r8, r2, ror lr
     74c:	73000001 	movwvc	r0, #1
     750:	72657075 	rsbvc	r7, r5, #117	; 0x75
     754:	6977745f 	ldmdbvs	r7!, {r0, r1, r2, r3, r4, r6, sl, ip, sp, lr}^
     758:	0100682e 	tsteq	r0, lr, lsr #16
     75c:	00000000 	andeq	r0, r0, r0
     760:	12b80205 	adcsne	r0, r8, #1342177280	; 0x50000000
     764:	b4030000 	strlt	r0, [r3]
     768:	4d2f0105 	stfmis	f0, [pc, #-20]!	; 0xffffffec
     76c:	2fa13147 	svccs	0x00a13147
     770:	bd6d4b81 	fstmdbxlt	sp!, {d20-d83}	;@ Deprecated
     774:	034b812f 	movteq	r8, #45359	; 0xb12f
     778:	09036612 	stmdbeq	r3, {r1, r4, r9, sl, sp, lr}
     77c:	7f94032e 	svcvc	0x0094032e
     780:	474d2f4a 	strbmi	r2, [sp, -sl, asr #30]
     784:	812fa131 	teqhi	pc, r1, lsr r1
     788:	2fbd6d4b 	svccs	0x00bd6d4b
     78c:	13034b81 	movwne	r4, #15233	; 0x3b81
     790:	2e090366 	cdpcs	3, 0, cr0, cr9, cr6, {3}
     794:	4a7ed403 	bmi	1fb57a8 <__bss_end+0x1fb1520>
     798:	332e2917 	teqcc	lr, #376832	; 0x5c000
     79c:	812ff52f 	msrhi	CPSR_fsxc, pc, lsr #10
     7a0:	f54b6c4b 	undefined instruction 0xf54b6c4b
     7a4:	6c4b812f 	stfvsp	f0, [fp], {47}	; 0x2f
     7a8:	812ff54b 	msrhi	CPSR_fsxc, fp, asr #10
     7ac:	f54b6c4b 	undefined instruction 0xf54b6c4b
     7b0:	6c4b812f 	stfvsp	f0, [fp], {47}	; 0x2f
     7b4:	812ff54b 	msrhi	CPSR_fsxc, fp, asr #10
     7b8:	f54b6c4b 	undefined instruction 0xf54b6c4b
     7bc:	6d4b812f 	stfvsp	f0, [fp, #-188]	; 0xffffff44
     7c0:	812ff54b 	msrhi	CPSR_fsxc, fp, asr #10
     7c4:	81be6a4b 	undefined instruction 0x81be6a4b
     7c8:	2fbd6a4b 	svccs	0x00bd6a4b
     7cc:	4b6c4b81 	blmi	1b135d8 <__bss_end+0x1b0f350>
     7d0:	4b812ff5 	blmi	fe04c7ac <__bss_end+0xfe048524>
     7d4:	7ca603c0 	stcvc	3, cr0, [r6], #768	; 0x300
     7d8:	032d4a2e 	teqeq	sp, #188416	; 0x2e000
     7dc:	644a7fa5 	strbvs	r7, [sl], #-4005	; 0xfa5
     7e0:	2e00dd03 	cdpcs	13, 0, cr13, cr0, cr3, {0}
     7e4:	2e7fa303 	cdpcs	3, 7, cr10, cr15, cr3, {0}
     7e8:	4a00e303 	bmi	393fc <__bss_end+0x35174>
     7ec:	3049db4e 	subcc	sp, r9, lr, asr #22
     7f0:	2a304c2d 	bcs	c138ac <__bss_end+0xc0f624>
     7f4:	322c2c4e 	eorcc	r2, ip, #19968	; 0x4e00
     7f8:	0367302c 	cmneq	r7, #44	; 0x2c
     7fc:	49667fa7 	stmdbmi	r6!, {r0, r1, r2, r5, r7, r8, r9, sl, fp, ip, sp, lr}^
     800:	644a6b03 	strbvs	r6, [sl], #-2819	; 0xb03
     804:	032e1703 	teqeq	lr, #786432	; 0xc0000
     808:	032c2e6b 	teqeq	ip, #1712	; 0x6b0
     80c:	48034a1e 	stmdami	r3, {r1, r2, r3, r4, r9, fp, lr}
     810:	00c1034a 	sbceq	r0, r1, sl, asr #6
     814:	030204d6 	movweq	r0, #9430	; 0x24d6
     818:	01042e77 	tsteq	r4, r7, ror lr
     81c:	042e0903 	strteq	r0, [lr], #-2307	; 0x903
     820:	2e770302 	cdpcs	3, 7, cr0, cr7, cr2, {0}
     824:	042b2f6e 	strteq	r2, [fp], #-3950	; 0xf6e
     828:	02044d01 	andeq	r4, r4, #64	; 0x40
     82c:	322f4c87 	eorcc	r4, pc, #34560	; 0x8700
     830:	04302c32 	ldrteq	r2, [r0], #-3122	; 0xc32
     834:	4a720301 	bmi	1c81440 <__bss_end+0x1c7d1b8>
     838:	03020486 	movweq	r0, #9350	; 0x2486
     83c:	01042e71 	tsteq	r4, r1, ror lr
     840:	042e0f03 	strteq	r0, [lr], #-3843	; 0xf03
     844:	2e710302 	cdpcs	3, 7, cr0, cr1, cr2, {0}
     848:	042b2f6e 	strteq	r2, [fp], #-3950	; 0xf6e
     84c:	4a090301 	bmi	241458 <__bss_end+0x23d1d0>
     850:	4c810204 	sfmmi	f0, 4, [r1], {4}	; (stcmi 2, cr0, [r1], {4})
     854:	2c32322f 	lfmcs	f3, 4, [r2], #-188	; (ldccs 2, cr3, [r2], #-188)	; 0xffffff44
     858:	01044830 	tsteq	r4, r0, lsr r8
     85c:	2f2e7803 	svccs	0x002e7803
     860:	2d2f684b 	stccs	8, cr6, [pc, #-300]!	; 0xfffffed4
     864:	820c0331 	andhi	r0, ip, #-1006632960	; 0xc4000000
     868:	64302f9b 	ldrtvs	r2, [r0], #-3995	; 0xf9b
     86c:	7a03352d 	bvc	cdd28 <__bss_end+0xc9aa0>
     870:	6c2f2d2e 	stcvs	13, cr2, [pc], #-184	; 0xffffff48
     874:	2f2d2f67 	svccs	0x002d2f67
     878:	03dc2f2d 	bicseq	r2, ip, #180	; 0xb4
     87c:	da032e5a 	ble	cc1ec <__bss_end+0xc7f64>
     880:	312eba00 	teqcc	lr, r0, lsl #20
     884:	2ff54b4c 	svccs	0x00f54b4c
     888:	4b6c4b81 	blmi	1b13694 <__bss_end+0x1b0f40c>
     88c:	4b812ff5 	blmi	fe04c868 <__bss_end+0xfe0485e0>
     890:	2ff54b6c 	svccs	0x00f54b6c
     894:	4b6c4b81 	blmi	1b136a0 <__bss_end+0x1b0f418>
     898:	4b812ff5 	blmi	fe04c874 <__bss_end+0xfe0485ec>
     89c:	2ff54b6c 	svccs	0x00f54b6c
     8a0:	4b6c4b81 	blmi	1b136ac <__bss_end+0x1b0f424>
     8a4:	4b812ff5 	blmi	fe04c880 <__bss_end+0xfe0485f8>
     8a8:	6c4b816c 	stfvsp	f0, [fp], {108}	; 0x6c
     8ac:	812ff54b 	msrhi	CPSR_fsxc, fp, asr #10
     8b0:	81be6a4b 	undefined instruction 0x81be6a4b
     8b4:	2fbd6a4b 	svccs	0x00bd6a4b
     8b8:	4b6c4b81 	blmi	1b136c4 <__bss_end+0x1b0f43c>
     8bc:	4b812ff5 	blmi	fe04c898 <__bss_end+0xfe048610>
     8c0:	2ff74b6a 	svccs	0x00f74b6a
     8c4:	c16b4b81 	cmngt	fp, r1, lsl #23
     8c8:	2c306430 	cfldrscs	mvf6, [r0], #-192	; 0xffffff40
     8cc:	f74b6a4c 	undefined instruction 0xf74b6a4c
     8d0:	6b4b812f 	blvs	12e0d94 <__bss_end+0x12dcb0c>
     8d4:	306430c1 	rsbcc	r3, r4, r1, asr #1
     8d8:	4b6a842c 	blmi	1aa1990 <__bss_end+0x1a9d708>
     8dc:	4b812ff7 	blmi	fe04c8c0 <__bss_end+0xfe048638>
     8e0:	6430c16b 	ldrtvs	ip, [r0], #-363	; 0x16b
     8e4:	6a4c2c30 	bvs	130b9ac <__bss_end+0x1307724>
     8e8:	812ff74b 	msrhi	CPSR_fsxc, fp, asr #14
     8ec:	30c16b4b 	sbccc	r6, r1, fp, asr #22
     8f0:	842c3064 	strthi	r3, [ip], #-100	; 0x64
     8f4:	2ff74b6a 	svccs	0x00f74b6a
     8f8:	c16b4b81 	cmngt	fp, r1, lsl #23
     8fc:	2c306430 	cfldrscs	mvf6, [r0], #-192	; 0xffffff40
     900:	f74b6a4c 	undefined instruction 0xf74b6a4c
     904:	6b4b812f 	blvs	12e0dc8 <__bss_end+0x12dcb40>
     908:	306430c1 	rsbcc	r3, r4, r1, asr #1
     90c:	4b6a842c 	blmi	1aa19c4 <__bss_end+0x1a9d73c>
     910:	4b812ff7 	blmi	fe04c8f4 <__bss_end+0xfe04866c>
     914:	6430c16b 	ldrtvs	ip, [r0], #-363	; 0x16b
     918:	6a4c2c30 	bvs	130b9e0 <__bss_end+0x1307758>
     91c:	812ff74b 	msrhi	CPSR_fsxc, fp, asr #14
     920:	30c16b4b 	sbccc	r6, r1, fp, asr #22
     924:	842c3064 	strthi	r3, [ip], #-100	; 0x64
     928:	000202c0 	andeq	r0, r2, r0, asr #5
     92c:	020a0101 	andeq	r0, sl, #1073741824	; 0x40000000
     930:	00020000 	andeq	r0, r2, r0
     934:	00000071 	andeq	r0, r0, r1, ror r0
     938:	0efb0102 	cdpeq	1, 15, cr0, cr11, cr2, {0}
     93c:	0101000d 	tsteq	r1, sp
     940:	00000101 	andeq	r0, r0, r1, lsl #2
     944:	00000100 	andeq	r0, r0, r0, lsl #2
     948:	732f2e01 	teqvc	pc, #16
     94c:	72657075 	rsbvc	r7, r5, #117	; 0x75
     950:	6172642f 	cmnvs	r2, pc, lsr #8
     954:	2f2e006d 	svccs	0x002e006d
     958:	65707573 	ldrbvs	r7, [r0, #-1395]!	; 0x573
     95c:	72642f72 	rsbvc	r2, r4, #456	; 0x1c8
     960:	2e2f6d61 	cdpcs	13, 2, cr6, cr15, cr1, {3}
     964:	2f2e2e2f 	svccs	0x002e2e2f
     968:	2e2f2e2e 	cdpcs	14, 2, cr2, cr15, cr14, {1}
     96c:	2f2e002e 	svccs	0x002e002e
     970:	65707573 	ldrbvs	r7, [r0, #-1395]!	; 0x573
     974:	72642f72 	rsbvc	r2, r4, #456	; 0x1c8
     978:	2e2f6d61 	cdpcs	13, 2, cr6, cr15, cr1, {3}
     97c:	002e2e2f 	eoreq	r2, lr, pc, lsr #28
     980:	61726400 	cmnvs	r2, r0, lsl #8
     984:	00632e6d 	rsbeq	r2, r3, sp, ror #28
     988:	70000001 	andvc	r0, r0, r1
     98c:	79745f6d 	ldmdbvc	r4!, {r0, r2, r3, r5, r6, r8, r9, sl, fp, ip, lr}^
     990:	2e736570 	mrccs	5, 3, r6, cr3, cr0, {3}
     994:	00020068 	andeq	r0, r2, r8, rrx
     998:	70757300 	rsbsvc	r7, r5, r0, lsl #6
     99c:	745f7265 	ldrbvc	r7, [pc], #613	; 9a4 <mem_clk_setdiv+0x40>
     9a0:	682e6977 	stmdavs	lr!, {r0, r1, r2, r4, r5, r6, r8, fp, sp, lr}
     9a4:	00000300 	andeq	r0, r0, r0, lsl #6
     9a8:	02050000 	andeq	r0, r5, #0
     9ac:	000021a8 	andeq	r2, r0, r8, lsr #3
     9b0:	0101a503 	tsteq	r1, r3, lsl #10
     9b4:	2d2f4c15 	stccs	12, cr4, [pc, #-84]!	; 0xffffffac
     9b8:	032f3030 	teqeq	pc, #48	; 0x30
     9bc:	4c156612 	ldcmi	6, cr6, [r5], {18}
     9c0:	1103504b 	tstne	r3, fp, asr #32
     9c4:	312b154a 	teqcc	fp, sl, asr #10
     9c8:	32483230 	subcc	r3, r8, #3
     9cc:	2f2e7a03 	svccs	0x002e7a03
     9d0:	2f2f2f2f 	svccs	0x002f2f2f
     9d4:	d8032f2f 	stmdale	r3, {r0, r1, r2, r3, r5, r8, r9, sl, fp, sp}
     9d8:	e6036601 	str	r6, [r3], -r1, lsl #12
     9dc:	2f4c017d 	svccs	0x004c017d
     9e0:	2f30302d 	svccs	0x0030302d
     9e4:	66029903 	strvs	r9, [r2], -r3, lsl #18
     9e8:	017dfc03 	cmnpeq	sp, r3, lsl #24
     9ec:	83034b4c 	movwhi	r4, #15180	; 0x3b4c
     9f0:	144e4a02 	strbne	r4, [lr], #-2562	; 0xa02
     9f4:	7eac0311 	mcrvc	3, 5, r0, cr12, cr1, {0}
     9f8:	2b31322e 	blcs	c4d2b8 <__bss_end+0xc49030>
     9fc:	302f2f2f 	eorcc	r2, pc, pc, lsr #30
     a00:	032f2f2f 	teqeq	pc, #188	; 0xbc
     a04:	164a7efb 	undefined instruction 0x164a7efb
     a08:	2e7a0334 	mrccs	3, 3, r0, cr10, cr4, {1}
     a0c:	312f2f2f 	teqcc	pc, pc, lsr #30
     a10:	03112f67 	tsteq	r1, #412	; 0x19c
     a14:	144a02a9 	strbne	r0, [sl], #-681	; 0x2a9
     a18:	7d930311 	ldcvc	3, cr0, [r3, #68]	; 0x44
     a1c:	0334162e 	teqeq	r4, #48234496	; 0x2e00000
     a20:	2f2f2e7a 	svccs	0x002f2e7a
     a24:	2f67312f 	svccs	0x0067312f
     a28:	4a3c0311 	bmi	f01674 <__bss_end+0xefd3ec>
     a2c:	aa031114 	bge	c4e84 <__bss_end+0xc0bfc>
     a30:	03142e02 	tsteq	r4, #32
     a34:	03017dd4 	movweq	r7, #7636	; 0x1dd4
     a38:	31332e47 	teqcc	r3, r7, asr #28
     a3c:	2f2f2a32 	svccs	0x002f2a32
     a40:	4d832f2f 	stcmi	15, cr2, [r3, #188]	; 0xbc
     a44:	032f2d30 	teqeq	pc, #3072	; 0xc00
     a48:	44032e3f 	strmi	r2, [r3], #-3647	; 0xe3f
     a4c:	2e3c034a 	cdpcs	3, 3, cr0, cr12, cr10, {2}
     a50:	032e4403 	teqeq	lr, #50331648	; 0x3000000
     a54:	31302e3c 	teqcc	r0, ip, lsr lr
     a58:	2e7fbf03 	cdpcs	15, 7, cr11, cr15, cr3, {0}
     a5c:	02be0332 	adcseq	r0, lr, #-939524096	; 0xc8000000
     a60:	03111466 	tsteq	r1, #1711276032	; 0x66000000
     a64:	162e7cec 	strtne	r7, [lr], -ip, ror #25
     a68:	2e7a0334 	mrccs	3, 3, r0, cr10, cr4, {1}
     a6c:	312f2f2f 	teqcc	pc, pc, lsr #30
     a70:	4e112f67 	cdpmi	15, 1, cr2, cr1, cr7, {3}
     a74:	4a00fe03 	bmi	40288 <__bss_end+0x3c000>
     a78:	4a7f8703 	bmi	1fe268c <__bss_end+0x1fde404>
     a7c:	2e00f903 	cdpcs	9, 0, cr15, cr0, cr3, {0}
     a80:	2e7f8703 	cdpcs	7, 7, cr8, cr15, cr3, {0}
     a84:	2e00f903 	cdpcs	9, 0, cr15, cr0, cr3, {0}
     a88:	82032f32 	andhi	r2, r3, #200	; 0xc8
     a8c:	0b032e7f 	bleq	cc490 <__bss_end+0xc8208>
     a90:	2a32312e 	bcs	c8cf50 <__bss_end+0xc88cc8>
     a94:	2f2f2f2f 	svccs	0x002f2f2f
     a98:	03674d67 	cmneq	r7, #6592	; 0x19c0
     a9c:	146602e2 	strbtne	r0, [r6], #-738	; 0x2e2
     aa0:	2e5e0311 	mrccs	3, 2, r0, cr14, cr1, {0}
     aa4:	032e6a03 	teqeq	lr, #12288	; 0x3000
     aa8:	6e032e16 	mcrvs	14, 0, r2, cr3, cr6, {0}
     aac:	62322a2e 	eorsvs	r2, r2, #188416	; 0x2e000
     ab0:	2f312a32 	svccs	0x00312a32
     ab4:	6b4b816b 	blvs	12e1068 <__bss_end+0x12dcde0>
     ab8:	0e034b81 	vmlaeq.f64	d4, d19, d1
     abc:	660a0366 	strvs	r0, [sl], -r6, ror #6
     ac0:	4b4c3131 	blmi	130cf8c <__bss_end+0x1308d04>
     ac4:	032e7003 	teqeq	lr, #3
     ac8:	1a827ef8 	bne	fe0a06b0 <__bss_end+0xfe09c428>
     acc:	522e7803 	eorpl	r7, lr, #196608	; 0x30000
     ad0:	032e1803 	teqeq	lr, #196608	; 0x30000
     ad4:	28032e69 	stmdacs	r3, {r0, r3, r5, r6, r9, sl, fp, sp}
     ad8:	2e59032e 	cdpcs	3, 5, cr0, cr9, cr14, {1}
     adc:	2f2f2f2f 	svccs	0x002f2f2f
     ae0:	352e7a03 	strcc	r7, [lr, #-2563]!	; 0xa03
     ae4:	2f2d302d 	svccs	0x002d302d
     ae8:	2f4b2f2f 	svccs	0x004b2f2f
     aec:	032e1203 	teqeq	lr, #805306368	; 0x30000000
     af0:	13032e6d 	movwne	r2, #15981	; 0x3e6d
     af4:	2d4c302e 	stclcs	0, cr3, [ip, #-184]	; 0xffffff48
     af8:	4a6c032f 	bmi	1b017bc <__bss_end+0x1afd534>
     afc:	30302f30 	eorscc	r2, r0, r0, lsr pc
     b00:	0b033131 	bleq	ccfcc <__bss_end+0xc8d44>
     b04:	75032b2e 	strvc	r2, [r3, #-2862]	; 0xb2e
     b08:	3136312e 	teqcc	r6, lr, lsr #2
     b0c:	31684b30 	cmncc	r8, r0, lsr fp
     b10:	2f2e0c03 	svccs	0x002e0c03
     b14:	032e7303 	teqeq	lr, #201326592	; 0xc000000
     b18:	75032e0e 	strvc	r2, [r3, #-3598]	; 0xe0e
     b1c:	2f2f312e 	svccs	0x002f312e
     b20:	2f2f2f31 	svccs	0x002f2f31
     b24:	2f2f2f31 	svccs	0x002f2f31
     b28:	2f2d2f69 	svccs	0x002d2f69
     b2c:	304d2f31 	subcc	r2, sp, r1, lsr pc
     b30:	00c0034d 	sbceq	r0, r0, sp, asr #6
     b34:	02111482 	andseq	r1, r1, #-2113929216	; 0x82000000
     b38:	01010002 	tsteq	r1, r2
     b3c:	00000293 	muleq	r0, r3, r2
     b40:	00730002 	rsbseq	r0, r3, r2
     b44:	01020000 	tsteq	r2, r0
     b48:	000d0efb 	strdeq	r0, [sp], -fp
     b4c:	01010101 	tsteq	r1, r1, lsl #2
     b50:	01000000 	tsteq	r0, r0
     b54:	2e010000 	cdpcs	0, 0, cr0, cr1, cr0, {0}
     b58:	7075732f 	rsbsvc	r7, r5, pc, lsr #6
     b5c:	642f7265 	strtvs	r7, [pc], #613	; b64 <_mem_twi_stop+0x10>
     b60:	006d6172 	rsbeq	r6, sp, r2, ror r1
     b64:	75732f2e 	ldrbvc	r2, [r3, #-3886]!	; 0xf2e
     b68:	2f726570 	svccs	0x00726570
     b6c:	6d617264 	sfmvs	f7, 2, [r1, #-400]!	; (stclvs 2, cr7, [r1, #-400]!)	; 0xfffffe70
     b70:	2e2f2e2f 	cdpcs	14, 2, cr2, cr15, cr15, {1}
     b74:	2f2e002e 	svccs	0x002e002e
     b78:	65707573 	ldrbvs	r7, [r0, #-1395]!	; 0x573
     b7c:	72642f72 	rsbvc	r2, r4, #456	; 0x1c8
     b80:	2e2f6d61 	cdpcs	13, 2, cr6, cr15, cr1, {3}
     b84:	2f2e2e2f 	svccs	0x002e2e2f
     b88:	2e2f2e2e 	cdpcs	14, 2, cr2, cr15, cr14, {1}
     b8c:	6400002e 	strvs	r0, [r0], #-46	; 0x2e
     b90:	5f6d6172 	svcpl	0x006d6172
     b94:	74696e69 	strbtvc	r6, [r9], #-3689	; 0xe69
     b98:	0100632e 	tsteq	r0, lr, lsr #6
     b9c:	6f630000 	svcvs	0x00630000
     ba0:	6e6f6d6d 	cdpvs	13, 6, cr6, cr15, cr13, {3}
     ba4:	0200682e 	andeq	r6, r0, #3014656	; 0x2e0000
     ba8:	6d700000 	ldclvs	0, cr0, [r0]
     bac:	7079745f 	rsbsvc	r7, r9, pc, asr r4
     bb0:	682e7365 	stmdavs	lr!, {r0, r2, r5, r6, r8, r9, ip, sp, lr}
     bb4:	00000300 	andeq	r0, r0, r0, lsl #6
     bb8:	02050000 	andeq	r0, r5, #0
     bbc:	00002654 	andeq	r2, r0, r4, asr r6
     bc0:	01019b03 	tsteq	r1, r3, lsl #22
     bc4:	2f4b4c15 	svccs	0x004b4c15
     bc8:	4b154d2f 	blmi	55408c <__bss_end+0x54fe04>
     bcc:	154d2f2f 	strbne	r2, [sp, #-3887]	; 0xf2f
     bd0:	032f2f4b 	teqeq	pc, #300	; 0x12c
     bd4:	4b154a34 	blmi	5534ac <__bss_end+0x54f224>
     bd8:	2f302f2f 	svccs	0x00302f2f
     bdc:	2f302f2f 	svccs	0x00302f2f
     be0:	2f302f2f 	svccs	0x00302f2f
     be4:	2f302f2f 	svccs	0x00302f2f
     be8:	032f2f2f 	teqeq	pc, #188	; 0xbc
     bec:	29174a0e 	ldmdbcs	r7, {r1, r2, r3, r9, fp, lr}
     bf0:	2c306433 	cfldrscs	mvf6, [r0], #-204	; 0xffffff34
     bf4:	03322c30 	teqeq	r2, #12288	; 0x3000
     bf8:	146601b8 	strbtne	r0, [r6], #-440	; 0x1b8
     bfc:	164a1003 	strbne	r1, [sl], -r3
     c00:	2f2f2933 	svccs	0x002f2933
     c04:	03516931 	cmpeq	r1, #802816	; 0xc4000
     c08:	30158220 	andscc	r8, r5, r0, lsr #4
     c0c:	2e790333 	mrccs	3, 3, r0, cr9, cr3, {1}
     c10:	2f303031 	svccs	0x00303031
     c14:	034a0d03 	movteq	r0, #44291	; 0xad03
     c18:	2c4c0111 	stfcse	f0, [ip], {17}
     c1c:	344b2d69 	strbcc	r2, [fp], #-3433	; 0xd69
     c20:	17661203 	strbne	r1, [r6, -r3, lsl #4]!
     c24:	68682f4b 	stmdavs	r8!, {r0, r1, r3, r6, r8, r9, sl, fp, sp}^
     c28:	4c6b6868 	stclmi	8, cr6, [fp], #-416	; 0xfffffe60
     c2c:	2d302f2d 	ldccs	15, cr2, [r0, #-180]!	; 0xffffff4c
     c30:	4e312f2f 	cdpmi	15, 3, cr2, cr1, cr15, {1}
     c34:	4a250315 	bmi	941890 <__bss_end+0x93d608>
     c38:	11144d14 	tstne	r4, r4, lsl sp
     c3c:	032e0903 	teqeq	lr, #49152	; 0xc000
     c40:	4c017bed 	stcmi	11, cr7, [r1], {237}	; 0xed
     c44:	91032f4b 	tstls	r3, fp, asr #30
     c48:	034d2e04 	movteq	r2, #56836	; 0xde04
     c4c:	4c017f89 	stcmi	15, cr7, [r1], {137}	; 0x89
     c50:	4b2d692c 	blmi	b5b108 <__bss_end+0xb56e80>
     c54:	2e00f603 	cfmadd32cs	mvax0, mvfx15, mvfx0, mvfx3
     c58:	7eac0369 	cdpvc	3, 10, cr0, cr12, cr9, {3}
     c5c:	2f293301 	svccs	0x00293301
     c60:	0369312f 	cmneq	r9, #-1073741813	; 0xc000000b
     c64:	034a01ce 	movteq	r0, #41422	; 0xa1ce
     c68:	4d138244 	lfmmi	f0, 1, [r3, #-272]	; (ldcmi 2, cr8, [r3, #-272])	; 0xfffffef0
     c6c:	7d9a030f 	ldcvc	3, cr0, [sl, #60]	; 0x3c
     c70:	3246164a 	subcc	r1, r6, #77594624	; 0x4a00000
     c74:	82030204 	andhi	r0, r3, #1073741824	; 0x40000000
     c78:	2d2f667e 	stccs	6, cr6, [pc, #-504]!	; 0xfffffe08
     c7c:	0301042c 	movweq	r0, #5164	; 0x142c
     c80:	044a0286 	strbeq	r0, [sl], #-646	; 0x286
     c84:	7e850302 	cdpvc	3, 8, cr0, cr5, cr2, {0}
     c88:	65a14782 	strvs	r4, [r1, #1922]!	; 0x782
     c8c:	484e4e4b 	stmdami	lr, {r0, r1, r3, r6, r9, sl, fp, lr}^
     c90:	f1030104 	undefined instruction 0xf1030104
     c94:	2c326601 	ldccs	6, cr6, [r2], #-4
     c98:	2e7a0335 	mrccs	3, 3, r0, cr10, cr5, {1}
     c9c:	2e7a0335 	mrccs	3, 3, r0, cr10, cr5, {1}
     ca0:	2f2f2f2f 	svccs	0x002f2f2f
     ca4:	032f2f2f 	teqeq	pc, #188	; 0xbc
     ca8:	74032e0d 	strvc	r2, [r3], #-3597	; 0xe0d
     cac:	4e322f2e 	cdpmi	15, 3, cr2, cr2, cr14, {1}
     cb0:	302f2f2f 	eorcc	r2, pc, pc, lsr #30
     cb4:	49302d30 	ldmdbmi	r0!, {r4, r5, r8, sl, fp, sp}
     cb8:	6602ee03 	strvs	lr, [r2], -r3, lsl #28
     cbc:	99031114 	stmdbls	r3, {r2, r4, r8, ip}
     cc0:	31172e7c 	tstcc	r7, ip, ror lr
     cc4:	332e7803 	teqcc	lr, #196608	; 0x30000
     cc8:	30488931 	subcc	r8, r8, r1, lsr r9
     ccc:	3380302c 	orrcc	r3, r0, #44	; 0x2c
     cd0:	2c30486a 	ldccs	8, cr4, [r0], #-424	; 0xfffffe58
     cd4:	6a336430 	bvs	cd9d9c <__bss_end+0xcd5b14>
     cd8:	302c3048 	eorcc	r3, ip, r8, asr #32
     cdc:	2d2f3280 	sfmcs	f3, 4, [pc, #-512]!	; (stccs 2, cr3, [pc, #-512]!)	; 0xfffffe00
     ce0:	31665303 	cmncc	r6, r3, lsl #6
     ce4:	30832d2f 	addcc	r2, r3, pc, lsr #26
     ce8:	304b2d2f 	subcc	r2, fp, pc, lsr #26
     cec:	2d682d2f 	stclcs	13, cr2, [r8, #-188]!	; 0xffffff44
     cf0:	314a4c03 	cmpcc	sl, r3, lsl #24
     cf4:	2f2f2b31 	svccs	0x002f2b31
     cf8:	2f2f2f2f 	svccs	0x002f2f2f
     cfc:	01aa032f 	undefined instruction 0x01aa032f
     d00:	0a03344a 	beq	cde30 <__bss_end+0xc9ba8>
     d04:	4d4d2b66 	vstrmi	d18, [sp, #-408]	; 0xfffffe68
     d08:	2e7ec903 	cdpcs	9, 7, cr12, cr14, cr3, {0}
     d0c:	032f4b30 	teqeq	pc, #49152	; 0xc000
     d10:	332e02f7 	teqcc	lr, #1879048207	; 0x7000000f
     d14:	7d890330 	stcvc	3, cr0, [r9, #192]	; 0xc0
     d18:	032f2f2e 	teqeq	pc, #184	; 0xb8
     d1c:	342e01b2 	strtcc	r0, [lr], #-434	; 0x1b2
     d20:	2c842c4c 	stccs	12, cr2, [r4], {76}	; 0x4c
     d24:	2d2f3030 	stccs	0, cr3, [pc, #-192]!	; 0xffffff40
     d28:	302d2f30 	eorcc	r2, sp, r0, lsr pc
     d2c:	2f302d2f 	svccs	0x00302d2f
     d30:	322f302d 	eorcc	r3, pc, #45	; 0x2d
     d34:	032e0d03 	teqeq	lr, #192	; 0xc0
     d38:	312d2e74 	teqcc	sp, r4, ror lr
     d3c:	2d2f2d2c 	stccs	13, cr2, [pc, #-176]!	; 0xffffff50
     d40:	312f2f2f 	teqcc	pc, pc, lsr #30
     d44:	2d302d2f 	ldccs	13, cr2, [r0, #-188]!	; 0xffffff44
     d48:	9c032f2f 	stcls	15, cr2, [r3], {47}	; 0x2f
     d4c:	32312e01 	eorscc	r2, r1, #16
     d50:	2e7ee103 	expcse	f6, f3
     d54:	bb03842f 	bllt	e1e18 <__bss_end+0xddb90>
     d58:	83bc2e01 	undefined instruction 0x83bc2e01
     d5c:	2e7ecf03 	cdpcs	15, 7, cr12, cr14, cr3, {0}
     d60:	4e4d4b4b 	vmlsmi.f64	d20, d13, d11
     d64:	038432a0 	orreq	r3, r4, #10
     d68:	6f032e11 	svcvs	0x00032e11
     d6c:	4b4b302e 	blmi	12cce2c <__bss_end+0x12c8ba4>
     d70:	2f2f2f4d 	svccs	0x002f2f4d
     d74:	302f2f31 	eorcc	r2, pc, r1, lsr pc
     d78:	827dff03 	rsbshi	pc, sp, #12
     d7c:	2e02ba03 	vmlacs.f32	s22, s4, s6
     d80:	2e7dc703 	cdpcs	7, 7, cr12, cr13, cr3, {0}
     d84:	02b3032f 	adcseq	r0, r3, #-1140850688	; 0xbc000000
     d88:	312f2f2e 	teqcc	pc, lr, lsr #30
     d8c:	a7034b69 	strge	r4, [r3, -r9, ror #22]
     d90:	30804a7e 	addcc	r4, r0, lr, ror sl
     d94:	032c302c 	teqeq	ip, #44	; 0x2c
     d98:	2d2e01ac 	stfcss	f0, [lr, #-688]!	; 0xfffffd50
     d9c:	8201c803 	andhi	ip, r1, #196608	; 0x30000
     da0:	02044b4f 	andeq	r4, r4, #80896	; 0x13c00
     da4:	ba7b9403 	blt	1ee5db8 <__bss_end+0x1ee1b30>
     da8:	042c2d2f 	strteq	r2, [ip], #-3375	; 0xd2f
     dac:	04f00301 	ldrbteq	r0, [r0], #769	; 0x301
     db0:	0302044a 	movweq	r0, #9290	; 0x244a
     db4:	47667b9b 	undefined instruction 0x47667b9b
     db8:	4e4b65a1 	cdpmi	5, 4, cr6, cr11, cr1, {5}
     dbc:	0104484e 	tsteq	r4, lr, asr #16
     dc0:	6604df03 	strvs	sp, [r4], -r3, lsl #30
     dc4:	302c8534 	eorcc	r8, ip, r4, lsr r5
     dc8:	2b2f4c48 	blcs	bd3ef0 <__bss_end+0xbcfc68>
     dcc:	08024c33 	stmdaeq	r2, {r0, r1, r4, r5, sl, fp, lr}
     dd0:	19010100 	stmdbne	r1, {r8}
     dd4:	02000001 	andeq	r0, r0, #1
     dd8:	00003c00 	andeq	r3, r0, r0, lsl #24
     ddc:	fb010200 	blx	415e6 <__bss_end+0x3d35e>
     de0:	01000d0e 	tsteq	r0, lr, lsl #26
     de4:	00010101 	andeq	r0, r1, r1, lsl #2
     de8:	00010000 	andeq	r0, r1, r0
     dec:	2f2e0100 	svccs	0x002e0100
     df0:	00002e2e 	andeq	r2, r0, lr, lsr #28
     df4:	645f6d70 	ldrbvs	r6, [pc], #3440	; dfc <twi_byte_rw+0x1b4>
     df8:	67756265 	ldrbvs	r6, [r5, -r5, ror #4]!
     dfc:	0100632e 	tsteq	r0, lr, lsr #6
     e00:	6d700000 	ldclvs	0, cr0, [r0]
     e04:	0100682e 	tsteq	r0, lr, lsr #16
     e08:	6d700000 	ldclvs	0, cr0, [r0]
     e0c:	7079745f 	rsbsvc	r7, r9, pc, asr r4
     e10:	682e7365 	stmdavs	lr!, {r0, r2, r5, r6, r8, r9, ip, sp, lr}
     e14:	00000100 	andeq	r0, r0, r0, lsl #2
     e18:	02050000 	andeq	r0, r5, #0
     e1c:	00002e8c 	andeq	r2, r0, ip, lsl #29
     e20:	30011203 	andcc	r1, r1, r3, lsl #4
     e24:	304d6a4b 	subcc	r6, sp, fp, asr #20
     e28:	13516a4b 	cmpne	r1, #307200	; 0x4b000
     e2c:	4d302f4c 	ldcmi	15, cr2, [r0, #-304]!	; 0xfffffed0
     e30:	134d312e 	movtne	r3, #53550	; 0xd12e
     e34:	312e4d4b 	teqcc	lr, fp, asr #26
     e38:	302c304d 	eorcc	r3, ip, sp, asr #32
     e3c:	30694c2f 	rsbcc	r4, r9, pc, lsr #24
     e40:	4c2f302c 	stcmi	0, cr3, [pc], #-176	; 0xffffff50
     e44:	31301569 	teqcc	r0, r9, ror #10
     e48:	4d4c6914 	stclmi	9, cr6, [ip, #-80]	; 0xffffffb0
     e4c:	332f6c17 	teqcc	pc, #5888	; 0x1700
     e50:	31314d4e 	teqcc	r1, lr, asr #26
     e54:	4d686915 	stclmi	9, cr6, [r8, #-84]!	; 0xffffffac
     e58:	314b4e15 	cmpcc	fp, r5, lsl lr
     e5c:	30483035 	subcc	r3, r8, r5, lsr r0
     e60:	4a7fb403 	bmi	1fede74 <__bss_end+0x1fe9bec>
     e64:	4a00d503 	bmi	36278 <__bss_end+0x31ff0>
     e68:	67674b6a 	strbvs	r4, [r7, -sl, ror #22]!
     e6c:	68322c4c 	ldmdavs	r2!, {r2, r3, r6, sl, fp, sp}
     e70:	2c306867 	ldccs	8, cr6, [r0], #-412	; 0xfffffe64
     e74:	2c2f302f 	stccs	0, cr3, [pc], #-188	; 0xffffff44
     e78:	04342b31 	ldrteq	r2, [r4], #-2865	; 0xb31
     e7c:	7f890302 	svcvc	0x00890302
     e80:	2e17034a 	cdpcs	3, 1, cr0, cr7, cr10, {2}
     e84:	522e6903 	eorpl	r6, lr, #49152	; 0xc000
     e88:	01042b2f 	tsteq	r4, pc, lsr #22
     e8c:	4a00f103 	bmi	3d2a0 <__bss_end+0x39018>
     e90:	97030204 	strls	r0, [r3, -r4, lsl #4]
     e94:	2f4cd67f 	svccs	0x004cd67f
     e98:	302c3232 	eorcc	r3, ip, r2, lsr r2
     e9c:	de030104 	adfles	f0, f3, f4
     ea0:	884f2e00 	stmdahi	pc, {r9, sl, fp, sp}^
     ea4:	2e790319 	mrccs	3, 3, r0, cr9, cr9, {0}
     ea8:	03020435 	movweq	r0, #9269	; 0x2435
     eac:	2d9e7f80 	ldccs	15, cr7, [lr, #512]	; 0x200
     eb0:	2f4c6e2c 	svccs	0x004c6e2c
     eb4:	302c3232 	eorcc	r3, ip, r2, lsr r2
     eb8:	71030104 	tstvc	r3, r4, lsl #2
     ebc:	0187032e 	orreq	r0, r7, lr, lsr #6
     ec0:	f603a12e 	undefined instruction 0xf603a12e
     ec4:	8a032e7e 	bhi	cc8c4 <__bss_end+0xc863c>
     ec8:	25032e01 	strcs	r2, [r3, #-3585]	; 0xe01
     ecc:	0f4d139e 	svceq	0x004d139e
     ed0:	142e0903 	strtne	r0, [lr], #-2307	; 0x903
     ed4:	4b166969 	blmi	59b480 <__bss_end+0x5971f8>
     ed8:	154d312f 	strbne	r3, [sp, #-303]	; 0x12f
     edc:	50312f4c 	eorspl	r2, r1, ip, asr #30
     ee0:	302c3030 	eorcc	r3, ip, r0, lsr r0
     ee4:	2f2f2c30 	svccs	0x002f2c30
     ee8:	02312f30 	eorseq	r2, r1, #192	; 0xc0
     eec:	01010004 	tsteq	r1, r4
     ef0:	00000086 	andeq	r0, r0, r6, lsl #1
     ef4:	002c0002 	eoreq	r0, ip, r2
     ef8:	01020000 	tsteq	r2, r0
     efc:	000d0efb 	strdeq	r0, [sp], -fp
     f00:	01010101 	tsteq	r1, r1, lsl #2
     f04:	01000000 	tsteq	r0, r0
     f08:	2e010000 	cdpcs	0, 0, cr0, cr1, cr0, {0}
     f0c:	002e2e2f 	eoreq	r2, lr, pc, lsr #28
     f10:	6d656d00 	stclvs	13, cr6, [r5]
     f14:	756d6d5f 	strbvc	r6, [sp, #-3423]!	; 0xd5f
     f18:	5f63705f 	svcpl	0x0063705f
     f1c:	2e6d7361 	cdpcs	3, 6, cr7, cr13, cr1, {3}
     f20:	00010053 	andeq	r0, r1, r3, asr r0
     f24:	05000000 	streq	r0, [r0]
     f28:	00321002 	eorseq	r1, r2, r2
     f2c:	2f2f1700 	svccs	0x002f1700
     f30:	302f2f2f 	eorcc	r2, pc, pc, lsr #30
     f34:	2f2f2f2f 	svccs	0x002f2f2f
     f38:	2f2f2f2f 	svccs	0x002f2f2f
     f3c:	2f2f2f2f 	svccs	0x002f2f2f
     f40:	30302f2f 	eorscc	r2, r0, pc, lsr #30
     f44:	2f2f2f2f 	svccs	0x002f2f2f
     f48:	2f302f2f 	svccs	0x00302f2f
     f4c:	2f30302f 	svccs	0x0030302f
     f50:	2f8a302f 	svccs	0x008a302f
     f54:	2f2f2f2f 	svccs	0x002f2f2f
     f58:	6d2f512f 	stfvss	f5, [pc, #-188]!	; 0xffffff44
     f5c:	30302f2f 	eorscc	r2, r0, pc, lsr #30
     f60:	2f302f2f 	svccs	0x00302f2f
     f64:	6d2f6c2f 	stcvs	12, cr6, [pc, #-188]!	; 0xffffff44
     f68:	2f2f2f2f 	svccs	0x002f2f2f
     f6c:	2f2f2f2f 	svccs	0x002f2f2f
     f70:	2f2f2f2f 	svccs	0x002f2f2f
     f74:	0006022f 	andeq	r0, r6, pc, lsr #4
     f78:	00790101 	rsbseq	r0, r9, r1, lsl #2
     f7c:	00020000 	andeq	r0, r2, r0
     f80:	00000045 	andeq	r0, r0, r5, asr #32
     f84:	0efb0102 	cdpeq	1, 15, cr0, cr11, cr2, {0}
     f88:	0101000d 	tsteq	r1, sp
     f8c:	00000101 	andeq	r0, r0, r1, lsl #2
     f90:	00000100 	andeq	r0, r0, r0, lsl #2
     f94:	2e2f2e01 	cdpcs	14, 2, cr2, cr15, cr1, {0}
     f98:	2f2e002e 	svccs	0x002e002e
     f9c:	2e2f2e2e 	cdpcs	14, 2, cr2, cr15, cr14, {1}
     fa0:	656d0000 	strbvs	r0, [sp]!
     fa4:	6d6d5f6d 	stclvs	15, cr5, [sp, #-436]!	; 0xfffffe4c
     fa8:	63705f75 	cmnvs	r0, #468	; 0x1d4
     fac:	0100632e 	tsteq	r0, lr, lsr #6
     fb0:	6d700000 	ldclvs	0, cr0, [r0]
     fb4:	0200682e 	andeq	r6, r0, #3014656	; 0x2e0000
     fb8:	6d700000 	ldclvs	0, cr0, [r0]
     fbc:	7079745f 	rsbsvc	r7, r9, pc, asr r4
     fc0:	682e7365 	stmdavs	lr!, {r0, r2, r5, r6, r8, r9, ip, sp, lr}
     fc4:	00000100 	andeq	r0, r0, r0, lsl #2
     fc8:	02050000 	andeq	r0, r5, #0
     fcc:	00003360 	andeq	r3, r0, r0, ror #6
     fd0:	4d4c1419 	cfstrdmi	mvd1, [ip, #-100]	; 0xffffff9c
     fd4:	4d4b4b4f 	vstrmi	d20, [fp, #-316]	; 0xfffffec4
     fd8:	4c15314c 	ldfmis	f3, [r5], {76}	; 0x4c
     fdc:	2f4b4e4c 	svccs	0x004b4e4c
     fe0:	1313bb4b 	tstne	r3, #76800	; 0x12c00
     fe4:	2f4c3213 	svccs	0x004c3213
     fe8:	03312f2f 	teqeq	r1, #188	; 0xbc
     fec:	30152e17 	andscc	r2, r5, r7, lsl lr
     ff0:	0202302f 	andeq	r3, r2, #47	; 0x2f
     ff4:	ed010100 	stfs	f0, [r1]
     ff8:	02000000 	andeq	r0, r0, #0
     ffc:	00004700 	andeq	r4, r0, r0, lsl #14
    1000:	fb010200 	blx	4180a <__bss_end+0x3d582>
    1004:	01000d0e 	tsteq	r0, lr, lsl #26
    1008:	00010101 	andeq	r0, r1, r1, lsl #2
    100c:	00010000 	andeq	r0, r1, r0
    1010:	2f2e0100 	svccs	0x002e0100
    1014:	2e002e2e 	cdpcs	14, 0, cr2, cr0, cr14, {1}
    1018:	2f2e2e2f 	svccs	0x002e2e2f
    101c:	6d00002e 	stcvs	0, cr0, [r0, #-184]	; 0xffffff48
    1020:	635f6d65 	cmpvs	pc, #6464	; 0x1940
    1024:	632e7570 	teqvs	lr, #469762048	; 0x1c000000
    1028:	00000100 	andeq	r0, r0, r0, lsl #2
    102c:	5f6d656d 	svcpl	0x006d656d
    1030:	2e757063 	cdpcs	0, 7, cr7, cr5, cr3, {3}
    1034:	00020068 	andeq	r0, r2, r8, rrx
    1038:	5f6d7000 	svcpl	0x006d7000
    103c:	65707974 	ldrbvs	r7, [r0, #-2420]!	; 0x974
    1040:	00682e73 	rsbeq	r2, r8, r3, ror lr
    1044:	00000001 	andeq	r0, r0, r1
    1048:	20020500 	andcs	r0, r2, r0, lsl #10
    104c:	03000034 	movweq	r0, #52	; 0x34
    1050:	160100cf 	strne	r0, [r1], -pc, asr #1
    1054:	0c03f3f7 	stceq	3, cr15, [r3], {247}	; 0xf7
    1058:	f6f3f3f2 	undefined instruction 0xf6f3f3f2
    105c:	f3f3f3f6 	vrsra.u64	<illegal reg q15.5>, q11, #13
    1060:	f6f6f3f6 	undefined instruction 0xf6f6f3f6
    1064:	f6f3f3f3 	undefined instruction 0xf6f3f3f3
    1068:	f3f3f3f6 	vrsra.u64	<illegal reg q15.5>, q11, #13
    106c:	f6f3f3f3 	undefined instruction 0xf6f3f3f3
    1070:	f4f6f7f3 	undefined instruction 0xf4f6f7f3
    1074:	f3f3f5f3 	vsli.64	<illegal reg q15.5>, <illegal reg q9.5>, #51	; 0x33
    1078:	f6f3f3f3 	undefined instruction 0xf6f3f3f3
    107c:	f20903f3 	vcge.s8	q0, <illegal reg q12.5>, <illegal reg q9.5>
    1080:	f3f3f3f3 	vrsra.u64	<illegal reg q15.5>, <illegal reg q9.5>, #13
    1084:	f71431f9 	undefined instruction 0xf71431f9
    1088:	f3f20b03 	vtbl.8	d16, {d2-d5}, d3
    108c:	2ff32f2f 	svccs	0x00f32f2f
    1090:	322ff32f 	eorcc	pc, pc, #-1140850688	; 0xbc000000
    1094:	f21103f4 	vcge.s16	q0, <illegal reg q8.5>, q10
    1098:	f3f4f3f3 	vrsra.u64	<illegal reg q15.5>, <illegal reg q9.5>, #12
    109c:	f3f20a03 	vtbl.8	d16, {d2-d4}, d3
    10a0:	f3f3f3f5 	vrsra.u64	<illegal reg q15.5>, <illegal reg q10.5>, #13
    10a4:	f3f6f3f3 	vrsra.u64	<illegal reg q15.5>, <illegal reg q9.5>, #10
    10a8:	f3f3f3f9 	vrsra.u64	<illegal reg q15.5>, <illegal reg q12.5>, #13
    10ac:	302ff9f3 	strdcc	pc, [pc], -r3
    10b0:	14311431 	ldrtne	r1, [r1], #-1073	; 0x431
    10b4:	4d312f4c 	ldcmi	15, cr2, [r1, #-304]!	; 0xfffffed0
    10b8:	4c4b4d15 	mcrrmi	13, 1, r4, fp, cr5
    10bc:	332f2f4b 	teqcc	pc, #300	; 0x12c
    10c0:	30302f30 	eorscc	r2, r0, r0, lsr pc
    10c4:	302f2f2f 	eorcc	r2, pc, pc, lsr #30
    10c8:	0d03302f 	stceq	0, cr3, [r3, #-188]	; 0xffffff44
    10cc:	302f2f2e 	eorcc	r2, pc, lr, lsr #30
    10d0:	304c4d2f 	subcc	r4, ip, pc, lsr #26
    10d4:	2f4b4d4b 	svccs	0x004b4d4b
    10d8:	312f2f2f 	teqcc	pc, pc, lsr #30
    10dc:	2f2f312f 	svccs	0x002f312f
    10e0:	02302f2f 	eorseq	r2, r0, #188	; 0xbc
    10e4:	01010008 	tsteq	r1, r8

Disassembly of section .debug_frame:

00000000 <.debug_frame>:
   0:	0000000c 	andeq	r0, r0, ip
   4:	ffffffff 	undefined instruction 0xffffffff
   8:	7c010001 	stcvc	0, cr0, [r1], {1}
   c:	000d0c0e 	andeq	r0, sp, lr, lsl #24
  10:	0000001c 	andeq	r0, r0, ip, lsl r0
	...
  1c:	000001b8 	undefined instruction 0x000001b8
  20:	11100e44 	tstne	r0, r4, asr #28
  24:	0611010e 	ldreq	r0, [r1], -lr, lsl #2
  28:	03051102 	movweq	r1, #20738	; 0x5102
  2c:	00040411 	andeq	r0, r4, r1, lsl r4
  30:	0000000c 	andeq	r0, r0, ip
  34:	ffffffff 	undefined instruction 0xffffffff
  38:	7c010001 	stcvc	0, cr0, [r1], {1}
  3c:	000d0c0e 	andeq	r0, sp, lr, lsl #24
  40:	0000000c 	andeq	r0, r0, ip
  44:	00000030 	andeq	r0, r0, r0, lsr r0
  48:	000001b8 	undefined instruction 0x000001b8
  4c:	00000024 	andeq	r0, r0, r4, lsr #32
  50:	0000000c 	andeq	r0, r0, ip
  54:	ffffffff 	undefined instruction 0xffffffff
  58:	7c010001 	stcvc	0, cr0, [r1], {1}
  5c:	000d0c0e 	andeq	r0, sp, lr, lsl #24
  60:	0000002c 	andeq	r0, r0, ip, lsr #32
  64:	00000050 	andeq	r0, r0, r0, asr r0
  68:	000006e0 	andeq	r0, r0, r0, ror #13
  6c:	0000009c 	muleq	r0, ip, r0
  70:	11240e54 	teqne	r4, r4, asr lr
  74:	0b11010e 	bleq	4404b4 <__bss_end+0x43c22c>
  78:	030a1102 	movweq	r1, #41218	; 0xa102
  7c:	11040911 	tstne	r4, r1, lsl r9
  80:	07110508 	ldreq	r0, [r1, -r8, lsl #10]
  84:	07061106 	streq	r1, [r6, -r6, lsl #2]
  88:	11080511 	tstne	r8, r1, lsl r5
  8c:	00000904 	andeq	r0, r0, r4, lsl #18
  90:	0000000c 	andeq	r0, r0, ip
  94:	00000050 	andeq	r0, r0, r0, asr r0
  98:	0000077c 	andeq	r0, r0, ip, ror r7
  9c:	0000005c 	andeq	r0, r0, ip, asr r0
  a0:	00000018 	andeq	r0, r0, r8, lsl r0
  a4:	00000050 	andeq	r0, r0, r0, asr r0
  a8:	000007d8 	ldrdeq	r0, [r0], -r8
  ac:	00000048 	andeq	r0, r0, r8, asr #32
  b0:	11080e54 	tstne	r8, r4, asr lr
  b4:	0411010e 	ldreq	r0, [r1], #-270	; 0x10e
  b8:	00000002 	andeq	r0, r0, r2
  bc:	0000000c 	andeq	r0, r0, ip
  c0:	00000050 	andeq	r0, r0, r0, asr r0
  c4:	00000820 	andeq	r0, r0, r0, lsr #16
  c8:	00000030 	andeq	r0, r0, r0, lsr r0
  cc:	0000000c 	andeq	r0, r0, ip
  d0:	ffffffff 	undefined instruction 0xffffffff
  d4:	7c010001 	stcvc	0, cr0, [r1], {1}
  d8:	000d0c0e 	andeq	r0, sp, lr, lsl #24
  dc:	0000000c 	andeq	r0, r0, ip
  e0:	000000cc 	andeq	r0, r0, ip, asr #1
  e4:	00000850 	andeq	r0, r0, r0, asr r8
  e8:	00000018 	andeq	r0, r0, r8, lsl r0
  ec:	0000000c 	andeq	r0, r0, ip
  f0:	000000cc 	andeq	r0, r0, ip, asr #1
  f4:	00000868 	andeq	r0, r0, r8, ror #16
  f8:	00000028 	andeq	r0, r0, r8, lsr #32
  fc:	0000000c 	andeq	r0, r0, ip
 100:	ffffffff 	undefined instruction 0xffffffff
 104:	7c010001 	stcvc	0, cr0, [r1], {1}
 108:	000d0c0e 	andeq	r0, sp, lr, lsl #24
 10c:	0000000c 	andeq	r0, r0, ip
 110:	000000fc 	strdeq	r0, [r0], -ip
 114:	00000890 	muleq	r0, r0, r8
 118:	0000001c 	andeq	r0, r0, ip, lsl r0
 11c:	0000000c 	andeq	r0, r0, ip
 120:	000000fc 	strdeq	r0, [r0], -ip
 124:	000008ac 	andeq	r0, r0, ip, lsr #17
 128:	0000005c 	andeq	r0, r0, ip, asr r0
 12c:	0000000c 	andeq	r0, r0, ip
 130:	000000fc 	strdeq	r0, [r0], -ip
 134:	00000908 	andeq	r0, r0, r8, lsl #18
 138:	0000005c 	andeq	r0, r0, ip, asr r0
 13c:	0000000c 	andeq	r0, r0, ip
 140:	000000fc 	strdeq	r0, [r0], -ip
 144:	00000964 	andeq	r0, r0, r4, ror #18
 148:	00000064 	andeq	r0, r0, r4, rrx
 14c:	0000000c 	andeq	r0, r0, ip
 150:	000000fc 	strdeq	r0, [r0], -ip
 154:	000009c8 	andeq	r0, r0, r8, asr #19
 158:	0000005c 	andeq	r0, r0, ip, asr r0
 15c:	0000000c 	andeq	r0, r0, ip
 160:	000000fc 	strdeq	r0, [r0], -ip
 164:	00000a24 	andeq	r0, r0, r4, lsr #20
 168:	00000060 	andeq	r0, r0, r0, rrx
 16c:	0000000c 	andeq	r0, r0, ip
 170:	000000fc 	strdeq	r0, [r0], -ip
 174:	00000a84 	andeq	r0, r0, r4, lsl #21
 178:	00000050 	andeq	r0, r0, r0, asr r0
 17c:	0000000c 	andeq	r0, r0, ip
 180:	000000fc 	strdeq	r0, [r0], -ip
 184:	00000ad4 	ldrdeq	r0, [r0], -r4
 188:	00000030 	andeq	r0, r0, r0, lsr r0
 18c:	0000000c 	andeq	r0, r0, ip
 190:	ffffffff 	undefined instruction 0xffffffff
 194:	7c010001 	stcvc	0, cr0, [r1], {1}
 198:	000d0c0e 	andeq	r0, sp, lr, lsl #24
 19c:	0000000c 	andeq	r0, r0, ip
 1a0:	0000018c 	andeq	r0, r0, ip, lsl #3
 1a4:	00000b04 	andeq	r0, r0, r4, lsl #22
 1a8:	00000050 	andeq	r0, r0, r0, asr r0
 1ac:	0000000c 	andeq	r0, r0, ip
 1b0:	0000018c 	andeq	r0, r0, ip, lsl #3
 1b4:	00000b54 	andeq	r0, r0, r4, asr fp
 1b8:	00000098 	muleq	r0, r8, r0
 1bc:	0000000c 	andeq	r0, r0, ip
 1c0:	0000018c 	andeq	r0, r0, ip, lsl #3
 1c4:	00000bec 	andeq	r0, r0, ip, ror #23
 1c8:	0000005c 	andeq	r0, r0, ip, asr r0
 1cc:	00000018 	andeq	r0, r0, r8, lsl r0
 1d0:	0000018c 	andeq	r0, r0, ip, lsl #3
 1d4:	00000c48 	andeq	r0, r0, r8, asr #24
 1d8:	000002d8 	ldrdeq	r0, [r0], -r8
 1dc:	11080e48 	tstne	r8, r8, asr #28
 1e0:	0411010e 	ldreq	r0, [r1], #-270	; 0x10e
 1e4:	00000002 	andeq	r0, r0, r2
 1e8:	0000001c 	andeq	r0, r0, ip, lsl r0
 1ec:	0000018c 	andeq	r0, r0, ip, lsl #3
 1f0:	00000f20 	andeq	r0, r0, r0, lsr #30
 1f4:	00000320 	andeq	r0, r0, r0, lsr #6
 1f8:	11100e48 	tstne	r0, r8, asr #28
 1fc:	0611010e 	ldreq	r0, [r1], -lr, lsl #2
 200:	03051102 	movweq	r1, #20738	; 0x5102
 204:	00040411 	andeq	r0, r4, r1, lsl r4
 208:	00000018 	andeq	r0, r0, r8, lsl r0
 20c:	0000018c 	andeq	r0, r0, ip, lsl #3
 210:	00001240 	andeq	r1, r0, r0, asr #4
 214:	00000050 	andeq	r0, r0, r0, asr r0
 218:	11080e44 	tstne	r8, r4, asr #28
 21c:	0411010e 	ldreq	r0, [r1], #-270	; 0x10e
 220:	00000002 	andeq	r0, r0, r2
 224:	0000000c 	andeq	r0, r0, ip
 228:	ffffffff 	undefined instruction 0xffffffff
 22c:	7c010001 	stcvc	0, cr0, [r1], {1}
 230:	000d0c0e 	andeq	r0, sp, lr, lsl #24
 234:	0000001c 	andeq	r0, r0, ip, lsl r0
 238:	00000224 	andeq	r0, r0, r4, lsr #4
 23c:	000012b8 	undefined instruction 0x000012b8
 240:	000000a0 	andeq	r0, r0, r0, lsr #1
 244:	11100e44 	tstne	r0, r4, asr #28
 248:	0411010e 	ldreq	r0, [r1], #-270	; 0x10e
 24c:	03011102 	movweq	r1, #4354	; 0x1102
 250:	00040011 	andeq	r0, r4, r1, lsl r0
 254:	0000001c 	andeq	r0, r0, ip, lsl r0
 258:	00000224 	andeq	r0, r0, r4, lsr #4
 25c:	00001358 	andeq	r1, r0, r8, asr r3
 260:	000000a0 	andeq	r0, r0, r0, lsr #1
 264:	11100e44 	tstne	r0, r4, asr #28
 268:	0411010e 	ldreq	r0, [r1], #-270	; 0x10e
 26c:	03011102 	movweq	r1, #4354	; 0x1102
 270:	00040011 	andeq	r0, r4, r1, lsl r0
 274:	00000024 	andeq	r0, r0, r4, lsr #32
 278:	00000224 	andeq	r0, r0, r4, lsr #4
 27c:	000013f8 	strdeq	r1, [r0], -r8
 280:	00000314 	andeq	r0, r0, r4, lsl r3
 284:	11180e48 	tstne	r8, r8, asr #28
 288:	0511010e 	ldreq	r0, [r1, #-270]	; 0x10e
 28c:	03041102 	movweq	r1, #16642	; 0x4102
 290:	11040211 	tstne	r4, r1, lsl r2
 294:	00110501 	andseq	r0, r1, r1, lsl #10
 298:	00000006 	andeq	r0, r0, r6
 29c:	00000024 	andeq	r0, r0, r4, lsr #32
 2a0:	00000224 	andeq	r0, r0, r4, lsr #4
 2a4:	0000170c 	andeq	r1, r0, ip, lsl #14
 2a8:	000000a8 	andeq	r0, r0, r8, lsr #1
 2ac:	11180e48 	tstne	r8, r8, asr #28
 2b0:	0511010e 	ldreq	r0, [r1, #-270]	; 0x10e
 2b4:	03041102 	movweq	r1, #16642	; 0x4102
 2b8:	11040211 	tstne	r4, r1, lsl r2
 2bc:	00110501 	andseq	r0, r1, r1, lsl #10
 2c0:	00000006 	andeq	r0, r0, r6
 2c4:	00000028 	andeq	r0, r0, r8, lsr #32
 2c8:	00000224 	andeq	r0, r0, r4, lsr #4
 2cc:	000017b4 	undefined instruction 0x000017b4
 2d0:	000001f4 	strdeq	r0, [r0], -r4
 2d4:	11200e48 	teqne	r0, r8, asr #28
 2d8:	0811010e 	ldmdaeq	r1, {r1, r2, r3, r8}
 2dc:	03071102 	movweq	r1, #28930	; 0x7102
 2e0:	11040611 	tstne	r4, r1, lsl r6
 2e4:	04110505 	ldreq	r0, [r1], #-1285	; 0x505
 2e8:	07011106 	streq	r1, [r1, -r6, lsl #2]
 2ec:	00080011 	andeq	r0, r8, r1, lsl r0
 2f0:	00000024 	andeq	r0, r0, r4, lsr #32
 2f4:	00000224 	andeq	r0, r0, r4, lsr #4
 2f8:	000019a8 	andeq	r1, r0, r8, lsr #19
 2fc:	00000800 	andeq	r0, r0, r0, lsl #16
 300:	11180e44 	tstne	r8, r4, asr #28
 304:	0511010e 	ldreq	r0, [r1, #-270]	; 0x10e
 308:	03041102 	movweq	r1, #16642	; 0x4102
 30c:	11040211 	tstne	r4, r1, lsl r2
 310:	00110501 	andseq	r0, r1, r1, lsl #10
 314:	00000006 	andeq	r0, r0, r6
 318:	0000000c 	andeq	r0, r0, ip
 31c:	ffffffff 	undefined instruction 0xffffffff
 320:	7c010001 	stcvc	0, cr0, [r1], {1}
 324:	000d0c0e 	andeq	r0, sp, lr, lsl #24
 328:	0000000c 	andeq	r0, r0, ip
 32c:	00000318 	andeq	r0, r0, r8, lsl r3
 330:	000021a8 	andeq	r2, r0, r8, lsr #3
 334:	00000028 	andeq	r0, r0, r8, lsr #32
 338:	0000000c 	andeq	r0, r0, ip
 33c:	00000318 	andeq	r0, r0, r8, lsl r3
 340:	000021d0 	ldrdeq	r2, [r0], -r0
 344:	00000020 	andeq	r0, r0, r0, lsr #32
 348:	00000018 	andeq	r0, r0, r8, lsl r0
 34c:	00000318 	andeq	r0, r0, r8, lsl r3
 350:	000021f0 	strdeq	r2, [r0], -r0
 354:	00000048 	andeq	r0, r0, r8, asr #32
 358:	11080e48 	tstne	r8, r8, asr #28
 35c:	0411010e 	ldreq	r0, [r1], #-270	; 0x10e
 360:	00000002 	andeq	r0, r0, r2
 364:	0000000c 	andeq	r0, r0, ip
 368:	00000318 	andeq	r0, r0, r8, lsl r3
 36c:	00002238 	andeq	r2, r0, r8, lsr r2
 370:	00000028 	andeq	r0, r0, r8, lsr #32
 374:	0000000c 	andeq	r0, r0, ip
 378:	00000318 	andeq	r0, r0, r8, lsl r3
 37c:	00002260 	andeq	r2, r0, r0, ror #4
 380:	00000020 	andeq	r0, r0, r0, lsr #32
 384:	0000000c 	andeq	r0, r0, ip
 388:	00000318 	andeq	r0, r0, r8, lsl r3
 38c:	00002280 	andeq	r2, r0, r0, lsl #5
 390:	00000004 	andeq	r0, r0, r4
 394:	00000018 	andeq	r0, r0, r8, lsl r0
 398:	00000318 	andeq	r0, r0, r8, lsl r3
 39c:	00002284 	andeq	r2, r0, r4, lsl #5
 3a0:	00000030 	andeq	r0, r0, r0, lsr r0
 3a4:	11080e44 	tstne	r8, r4, asr #28
 3a8:	0411010e 	ldreq	r0, [r1], #-270	; 0x10e
 3ac:	00000002 	andeq	r0, r0, r2
 3b0:	0000000c 	andeq	r0, r0, ip
 3b4:	00000318 	andeq	r0, r0, r8, lsl r3
 3b8:	000022b4 	undefined instruction 0x000022b4
 3bc:	00000030 	andeq	r0, r0, r0, lsr r0
 3c0:	0000000c 	andeq	r0, r0, ip
 3c4:	00000318 	andeq	r0, r0, r8, lsl r3
 3c8:	000022e4 	andeq	r2, r0, r4, ror #5
 3cc:	00000004 	andeq	r0, r0, r4
 3d0:	0000000c 	andeq	r0, r0, ip
 3d4:	00000318 	andeq	r0, r0, r8, lsl r3
 3d8:	000022e8 	andeq	r2, r0, r8, ror #5
 3dc:	00000030 	andeq	r0, r0, r0, lsr r0
 3e0:	0000000c 	andeq	r0, r0, ip
 3e4:	00000318 	andeq	r0, r0, r8, lsl r3
 3e8:	00002318 	andeq	r2, r0, r8, lsl r3
 3ec:	00000004 	andeq	r0, r0, r4
 3f0:	0000000c 	andeq	r0, r0, ip
 3f4:	00000318 	andeq	r0, r0, r8, lsl r3
 3f8:	0000231c 	andeq	r2, r0, ip, lsl r3
 3fc:	00000004 	andeq	r0, r0, r4
 400:	00000018 	andeq	r0, r0, r8, lsl r0
 404:	00000318 	andeq	r0, r0, r8, lsl r3
 408:	00002320 	andeq	r2, r0, r0, lsr #6
 40c:	00000078 	andeq	r0, r0, r8, ror r0
 410:	11080e44 	tstne	r8, r4, asr #28
 414:	0411010e 	ldreq	r0, [r1], #-270	; 0x10e
 418:	00000002 	andeq	r0, r0, r2
 41c:	0000000c 	andeq	r0, r0, ip
 420:	00000318 	andeq	r0, r0, r8, lsl r3
 424:	00002398 	muleq	r0, r8, r3
 428:	00000004 	andeq	r0, r0, r4
 42c:	0000000c 	andeq	r0, r0, ip
 430:	00000318 	andeq	r0, r0, r8, lsl r3
 434:	0000239c 	muleq	r0, ip, r3
 438:	00000030 	andeq	r0, r0, r0, lsr r0
 43c:	00000018 	andeq	r0, r0, r8, lsl r0
 440:	00000318 	andeq	r0, r0, r8, lsl r3
 444:	000023cc 	andeq	r2, r0, ip, asr #7
 448:	00000074 	andeq	r0, r0, r4, ror r0
 44c:	11080e48 	tstne	r8, r8, asr #28
 450:	0411010e 	ldreq	r0, [r1], #-270	; 0x10e
 454:	00000002 	andeq	r0, r0, r2
 458:	0000000c 	andeq	r0, r0, ip
 45c:	00000318 	andeq	r0, r0, r8, lsl r3
 460:	00002440 	andeq	r2, r0, r0, asr #8
 464:	00000004 	andeq	r0, r0, r4
 468:	00000028 	andeq	r0, r0, r8, lsr #32
 46c:	00000318 	andeq	r0, r0, r8, lsl r3
 470:	00002444 	andeq	r2, r0, r4, asr #8
 474:	000000bc 	strheq	r0, [r0], -ip
 478:	11200e44 	teqne	r0, r4, asr #28
 47c:	0711010e 	ldreq	r0, [r1, -lr, lsl #2]
 480:	03061102 	movweq	r1, #24834	; 0x6102
 484:	11040511 	tstne	r4, r1, lsl r5
 488:	02110504 	andseq	r0, r1, #16777216	; 0x1000000
 48c:	07011106 	streq	r1, [r1, -r6, lsl #2]
 490:	00080011 	andeq	r0, r8, r1, lsl r0
 494:	00000030 	andeq	r0, r0, r0, lsr r0
 498:	00000318 	andeq	r0, r0, r8, lsl r3
 49c:	00002500 	andeq	r2, r0, r0, lsl #10
 4a0:	00000150 	andeq	r0, r0, r0, asr r1
 4a4:	44240e48 	strtmi	r0, [r4], #-3656	; 0xe48
 4a8:	0e11480e 	cdpeq	8, 1, cr4, cr1, cr14, {0}
 4ac:	020b1101 	andeq	r1, fp, #1073741824	; 0x40000000
 4b0:	11030a11 	tstne	r3, r1, lsl sl
 4b4:	08110409 	ldmdaeq	r1, {r0, r3, sl}
 4b8:	06071105 	streq	r1, [r7], -r5, lsl #2
 4bc:	11070611 	tstne	r7, r1, lsl r6
 4c0:	04110805 	ldreq	r0, [r1], #-2053	; 0x805
 4c4:	00000009 	andeq	r0, r0, r9
 4c8:	0000000c 	andeq	r0, r0, ip
 4cc:	00000318 	andeq	r0, r0, r8, lsl r3
 4d0:	00002650 	andeq	r2, r0, r0, asr r6
 4d4:	00000004 	andeq	r0, r0, r4
 4d8:	0000000c 	andeq	r0, r0, ip
 4dc:	ffffffff 	undefined instruction 0xffffffff
 4e0:	7c010001 	stcvc	0, cr0, [r1], {1}
 4e4:	000d0c0e 	andeq	r0, sp, lr, lsl #24
 4e8:	0000000c 	andeq	r0, r0, ip
 4ec:	000004d8 	ldrdeq	r0, [r0], -r8
 4f0:	00002654 	andeq	r2, r0, r4, asr r6
 4f4:	00000020 	andeq	r0, r0, r0, lsr #32
 4f8:	0000000c 	andeq	r0, r0, ip
 4fc:	000004d8 	ldrdeq	r0, [r0], -r8
 500:	00002674 	andeq	r2, r0, r4, ror r6
 504:	00000018 	andeq	r0, r0, r8, lsl r0
 508:	0000000c 	andeq	r0, r0, ip
 50c:	000004d8 	ldrdeq	r0, [r0], -r8
 510:	0000268c 	andeq	r2, r0, ip, lsl #13
 514:	00000018 	andeq	r0, r0, r8, lsl r0
 518:	0000000c 	andeq	r0, r0, ip
 51c:	000004d8 	ldrdeq	r0, [r0], -r8
 520:	000026a4 	andeq	r2, r0, r4, lsr #13
 524:	0000005c 	andeq	r0, r0, ip, asr r0
 528:	0000000c 	andeq	r0, r0, ip
 52c:	000004d8 	ldrdeq	r0, [r0], -r8
 530:	00002700 	andeq	r2, r0, r0, lsl #14
 534:	00000034 	andeq	r0, r0, r4, lsr r0
 538:	0000000c 	andeq	r0, r0, ip
 53c:	000004d8 	ldrdeq	r0, [r0], -r8
 540:	00002734 	andeq	r2, r0, r4, lsr r7
 544:	00000008 	andeq	r0, r0, r8
 548:	0000000c 	andeq	r0, r0, ip
 54c:	000004d8 	ldrdeq	r0, [r0], -r8
 550:	0000273c 	andeq	r2, r0, ip, lsr r7
 554:	00000038 	andeq	r0, r0, r8, lsr r0
 558:	0000000c 	andeq	r0, r0, ip
 55c:	000004d8 	ldrdeq	r0, [r0], -r8
 560:	00002774 	andeq	r2, r0, r4, ror r7
 564:	00000024 	andeq	r0, r0, r4, lsr #32
 568:	0000000c 	andeq	r0, r0, ip
 56c:	000004d8 	ldrdeq	r0, [r0], -r8
 570:	00002798 	muleq	r0, r8, r7
 574:	00000034 	andeq	r0, r0, r4, lsr r0
 578:	0000000c 	andeq	r0, r0, ip
 57c:	000004d8 	ldrdeq	r0, [r0], -r8
 580:	000027cc 	andeq	r2, r0, ip, asr #15
 584:	00000074 	andeq	r0, r0, r4, ror r0
 588:	0000000c 	andeq	r0, r0, ip
 58c:	000004d8 	ldrdeq	r0, [r0], -r8
 590:	00002840 	andeq	r2, r0, r0, asr #16
 594:	00000008 	andeq	r0, r0, r8
 598:	0000000c 	andeq	r0, r0, ip
 59c:	000004d8 	ldrdeq	r0, [r0], -r8
 5a0:	00002848 	andeq	r2, r0, r8, asr #16
 5a4:	00000008 	andeq	r0, r0, r8
 5a8:	0000000c 	andeq	r0, r0, ip
 5ac:	000004d8 	ldrdeq	r0, [r0], -r8
 5b0:	00002850 	andeq	r2, r0, r0, asr r8
 5b4:	00000004 	andeq	r0, r0, r4
 5b8:	0000000c 	andeq	r0, r0, ip
 5bc:	000004d8 	ldrdeq	r0, [r0], -r8
 5c0:	00002854 	andeq	r2, r0, r4, asr r8
 5c4:	00000020 	andeq	r0, r0, r0, lsr #32
 5c8:	0000000c 	andeq	r0, r0, ip
 5cc:	000004d8 	ldrdeq	r0, [r0], -r8
 5d0:	00002874 	andeq	r2, r0, r4, ror r8
 5d4:	00000034 	andeq	r0, r0, r4, lsr r0
 5d8:	0000000c 	andeq	r0, r0, ip
 5dc:	000004d8 	ldrdeq	r0, [r0], -r8
 5e0:	000028a8 	andeq	r2, r0, r8, lsr #17
 5e4:	00000038 	andeq	r0, r0, r8, lsr r0
 5e8:	0000000c 	andeq	r0, r0, ip
 5ec:	000004d8 	ldrdeq	r0, [r0], -r8
 5f0:	000028e0 	andeq	r2, r0, r0, ror #17
 5f4:	00000010 	andeq	r0, r0, r0, lsl r0
 5f8:	00000030 	andeq	r0, r0, r0, lsr r0
 5fc:	000004d8 	ldrdeq	r0, [r0], -r8
 600:	000028f0 	strdeq	r2, [r0], -r0
 604:	0000010c 	andeq	r0, r0, ip, lsl #2
 608:	11280e4c 	teqne	r8, ip, asr #28
 60c:	0b11010e 	bleq	440a4c <__bss_end+0x43c7c4>
 610:	030a1102 	movweq	r1, #41218	; 0xa102
 614:	11040911 	tstne	r4, r1, lsl r9
 618:	07110508 	ldreq	r0, [r1, -r8, lsl #10]
 61c:	07061106 	streq	r1, [r6, -r6, lsl #2]
 620:	11080511 	tstne	r8, r1, lsl r5
 624:	00110904 	andseq	r0, r1, r4, lsl #18
 628:	0000000a 	andeq	r0, r0, sl
 62c:	0000000c 	andeq	r0, r0, ip
 630:	000004d8 	ldrdeq	r0, [r0], -r8
 634:	000029fc 	strdeq	r2, [r0], -ip
 638:	00000004 	andeq	r0, r0, r4
 63c:	00000018 	andeq	r0, r0, r8, lsl r0
 640:	000004d8 	ldrdeq	r0, [r0], -r8
 644:	00002a00 	andeq	r2, r0, r0, lsl #20
 648:	000000c0 	andeq	r0, r0, r0, asr #1
 64c:	11080e4c 	tstne	r8, ip, asr #28
 650:	0411010e 	ldreq	r0, [r1], #-270	; 0x10e
 654:	00000002 	andeq	r0, r0, r2
 658:	00000018 	andeq	r0, r0, r8, lsl r0
 65c:	000004d8 	ldrdeq	r0, [r0], -r8
 660:	00002ac0 	andeq	r2, r0, r0, asr #21
 664:	00000054 	andeq	r0, r0, r4, asr r0
 668:	11080e44 	tstne	r8, r4, asr #28
 66c:	0411010e 	ldreq	r0, [r1], #-270	; 0x10e
 670:	00000002 	andeq	r0, r0, r2
 674:	00000018 	andeq	r0, r0, r8, lsl r0
 678:	000004d8 	ldrdeq	r0, [r0], -r8
 67c:	00002b14 	andeq	r2, r0, r4, lsl fp
 680:	00000030 	andeq	r0, r0, r0, lsr r0
 684:	11080e44 	tstne	r8, r4, asr #28
 688:	0411010e 	ldreq	r0, [r1], #-270	; 0x10e
 68c:	00000002 	andeq	r0, r0, r2
 690:	00000024 	andeq	r0, r0, r4, lsr #32
 694:	000004d8 	ldrdeq	r0, [r0], -r8
 698:	00002b44 	andeq	r2, r0, r4, asr #22
 69c:	0000025c 	andeq	r0, r0, ip, asr r2
 6a0:	11180e44 	tstne	r8, r4, asr #28
 6a4:	0811010e 	ldmdaeq	r1, {r1, r2, r3, r8}
 6a8:	03071102 	movweq	r1, #28930	; 0x7102
 6ac:	11040611 	tstne	r4, r1, lsl r6
 6b0:	04110505 	ldreq	r0, [r1], #-1285	; 0x505
 6b4:	00000006 	andeq	r0, r0, r6
 6b8:	00000028 	andeq	r0, r0, r8, lsr #32
 6bc:	000004d8 	ldrdeq	r0, [r0], -r8
 6c0:	00002da0 	andeq	r2, r0, r0, lsr #27
 6c4:	000000ec 	andeq	r0, r0, ip, ror #1
 6c8:	441c0e44 	ldrmi	r0, [ip], #-3652	; 0xe44
 6cc:	0e11700e 	cdpeq	0, 1, cr7, cr1, cr14, {0}
 6d0:	02091101 	andeq	r1, r9, #1073741824	; 0x40000000
 6d4:	11030811 	tstne	r3, r1, lsl r8
 6d8:	06110407 	ldreq	r0, [r1], -r7, lsl #8
 6dc:	06051105 	streq	r1, [r5], -r5, lsl #2
 6e0:	00070411 	andeq	r0, r7, r1, lsl r4
 6e4:	0000000c 	andeq	r0, r0, ip
 6e8:	ffffffff 	undefined instruction 0xffffffff
 6ec:	7c010001 	stcvc	0, cr0, [r1], {1}
 6f0:	000d0c0e 	andeq	r0, sp, lr, lsl #24
 6f4:	00000010 	andeq	r0, r0, r0, lsl r0
 6f8:	000006e4 	andeq	r0, r0, r4, ror #13
 6fc:	00002e8c 	andeq	r2, r0, ip, lsl #29
 700:	00000020 	andeq	r0, r0, r0, lsr #32
 704:	00080e44 	andeq	r0, r8, r4, asr #28
 708:	00000010 	andeq	r0, r0, r0, lsl r0
 70c:	000006e4 	andeq	r0, r0, r4, ror #13
 710:	00002eac 	andeq	r2, r0, ip, lsr #29
 714:	00000020 	andeq	r0, r0, r0, lsr #32
 718:	00080e44 	andeq	r0, r8, r4, asr #28
 71c:	0000000c 	andeq	r0, r0, ip
 720:	000006e4 	andeq	r0, r0, r4, ror #13
 724:	00002ecc 	andeq	r2, r0, ip, asr #29
 728:	00000018 	andeq	r0, r0, r8, lsl r0
 72c:	00000010 	andeq	r0, r0, r0, lsl r0
 730:	000006e4 	andeq	r0, r0, r4, ror #13
 734:	00002ee4 	andeq	r2, r0, r4, ror #29
 738:	00000010 	andeq	r0, r0, r0, lsl r0
 73c:	00080e44 	andeq	r0, r8, r4, asr #28
 740:	0000000c 	andeq	r0, r0, ip
 744:	000006e4 	andeq	r0, r0, r4, ror #13
 748:	00002ef4 	strdeq	r2, [r0], -r4
 74c:	00000010 	andeq	r0, r0, r0, lsl r0
 750:	00000010 	andeq	r0, r0, r0, lsl r0
 754:	000006e4 	andeq	r0, r0, r4, ror #13
 758:	00002f04 	andeq	r2, r0, r4, lsl #30
 75c:	00000010 	andeq	r0, r0, r0, lsl r0
 760:	00080e44 	andeq	r0, r8, r4, asr #28
 764:	00000010 	andeq	r0, r0, r0, lsl r0
 768:	000006e4 	andeq	r0, r0, r4, ror #13
 76c:	00002f14 	andeq	r2, r0, r4, lsl pc
 770:	00000024 	andeq	r0, r0, r4, lsr #32
 774:	00080e44 	andeq	r0, r8, r4, asr #28
 778:	00000010 	andeq	r0, r0, r0, lsl r0
 77c:	000006e4 	andeq	r0, r0, r4, ror #13
 780:	00002f38 	andeq	r2, r0, r8, lsr pc
 784:	00000024 	andeq	r0, r0, r4, lsr #32
 788:	00080e44 	andeq	r0, r8, r4, asr #28
 78c:	0000000c 	andeq	r0, r0, ip
 790:	000006e4 	andeq	r0, r0, r4, ror #13
 794:	00002f5c 	andeq	r2, r0, ip, asr pc
 798:	00000008 	andeq	r0, r0, r8
 79c:	0000000c 	andeq	r0, r0, ip
 7a0:	000006e4 	andeq	r0, r0, r4, ror #13
 7a4:	00002f64 	andeq	r2, r0, r4, ror #30
 7a8:	0000001c 	andeq	r0, r0, ip, lsl r0
 7ac:	0000000c 	andeq	r0, r0, ip
 7b0:	000006e4 	andeq	r0, r0, r4, ror #13
 7b4:	00002f80 	andeq	r2, r0, r0, lsl #31
 7b8:	0000002c 	andeq	r0, r0, ip, lsr #32
 7bc:	0000000c 	andeq	r0, r0, ip
 7c0:	000006e4 	andeq	r0, r0, r4, ror #13
 7c4:	00002fac 	andeq	r2, r0, ip, lsr #31
 7c8:	00000020 	andeq	r0, r0, r0, lsr #32
 7cc:	0000000c 	andeq	r0, r0, ip
 7d0:	000006e4 	andeq	r0, r0, r4, ror #13
 7d4:	00002fcc 	andeq	r2, r0, ip, asr #31
 7d8:	00000014 	andeq	r0, r0, r4, lsl r0
 7dc:	0000001c 	andeq	r0, r0, ip, lsl r0
 7e0:	000006e4 	andeq	r0, r0, r4, ror #13
 7e4:	00002fe0 	andeq	r2, r0, r0, ror #31
 7e8:	00000124 	andeq	r0, r0, r4, lsr #2
 7ec:	11100e44 	tstne	r0, r4, asr #28
 7f0:	0411010e 	ldreq	r0, [r1], #-270	; 0x10e
 7f4:	03011102 	movweq	r1, #4354	; 0x1102
 7f8:	00040011 	andeq	r0, r4, r1, lsl r0
 7fc:	00000018 	andeq	r0, r0, r8, lsl r0
 800:	000006e4 	andeq	r0, r0, r4, ror #13
 804:	00003104 	andeq	r3, r0, r4, lsl #2
 808:	00000084 	andeq	r0, r0, r4, lsl #1
 80c:	11080e48 	tstne	r8, r8, asr #28
 810:	0411010e 	ldreq	r0, [r1], #-270	; 0x10e
 814:	00000002 	andeq	r0, r0, r2
 818:	0000000c 	andeq	r0, r0, ip
 81c:	000006e4 	andeq	r0, r0, r4, ror #13
 820:	00003188 	andeq	r3, r0, r8, lsl #3
 824:	0000000c 	andeq	r0, r0, ip
 828:	0000000c 	andeq	r0, r0, ip
 82c:	000006e4 	andeq	r0, r0, r4, ror #13
 830:	00003194 	muleq	r0, r4, r1
 834:	00000018 	andeq	r0, r0, r8, lsl r0
 838:	0000000c 	andeq	r0, r0, ip
 83c:	000006e4 	andeq	r0, r0, r4, ror #13
 840:	000031ac 	andeq	r3, r0, ip, lsr #3
 844:	00000018 	andeq	r0, r0, r8, lsl r0
 848:	0000000c 	andeq	r0, r0, ip
 84c:	000006e4 	andeq	r0, r0, r4, ror #13
 850:	000031c4 	andeq	r3, r0, r4, asr #3
 854:	00000018 	andeq	r0, r0, r8, lsl r0
 858:	0000001c 	andeq	r0, r0, ip, lsl r0
 85c:	000006e4 	andeq	r0, r0, r4, ror #13
 860:	000031dc 	ldrdeq	r3, [r0], -ip
 864:	00000034 	andeq	r0, r0, r4, lsr r0
 868:	11100e44 	tstne	r0, r4, asr #28
 86c:	0611010e 	ldreq	r0, [r1], -lr, lsl #2
 870:	03051102 	movweq	r1, #20738	; 0x5102
 874:	00040411 	andeq	r0, r4, r1, lsl r4
 878:	0000000c 	andeq	r0, r0, ip
 87c:	ffffffff 	undefined instruction 0xffffffff
 880:	7c010001 	stcvc	0, cr0, [r1], {1}
 884:	000d0c0e 	andeq	r0, sp, lr, lsl #24
 888:	0000000c 	andeq	r0, r0, ip
 88c:	00000878 	andeq	r0, r0, r8, ror r8
 890:	00003360 	andeq	r3, r0, r0, ror #6
 894:	0000003c 	andeq	r0, r0, ip, lsr r0
 898:	0000000c 	andeq	r0, r0, ip
 89c:	00000878 	andeq	r0, r0, r8, ror r8
 8a0:	0000339c 	muleq	r0, ip, r3
 8a4:	00000064 	andeq	r0, r0, r4, rrx
 8a8:	0000000c 	andeq	r0, r0, ip
 8ac:	00000878 	andeq	r0, r0, r8, ror r8
 8b0:	00003400 	andeq	r3, r0, r0, lsl #8
 8b4:	00000010 	andeq	r0, r0, r0, lsl r0
 8b8:	0000000c 	andeq	r0, r0, ip
 8bc:	ffffffff 	undefined instruction 0xffffffff
 8c0:	7c010001 	stcvc	0, cr0, [r1], {1}
 8c4:	000d0c0e 	andeq	r0, sp, lr, lsl #24
 8c8:	0000000c 	andeq	r0, r0, ip
 8cc:	000008b8 	undefined instruction 0x000008b8
 8d0:	00003420 	andeq	r3, r0, r0, lsr #8
 8d4:	000005a4 	andeq	r0, r0, r4, lsr #11
 8d8:	0000000c 	andeq	r0, r0, ip
 8dc:	000008b8 	undefined instruction 0x000008b8
 8e0:	000039c4 	andeq	r3, r0, r4, asr #19
 8e4:	00000384 	andeq	r0, r0, r4, lsl #7
 8e8:	0000000c 	andeq	r0, r0, ip
 8ec:	000008b8 	undefined instruction 0x000008b8
 8f0:	00003d48 	andeq	r3, r0, r8, asr #26
 8f4:	00000004 	andeq	r0, r0, r4
 8f8:	0000000c 	andeq	r0, r0, ip
 8fc:	000008b8 	undefined instruction 0x000008b8
 900:	00003d4c 	andeq	r3, r0, ip, asr #26
 904:	00000018 	andeq	r0, r0, r8, lsl r0
 908:	0000000c 	andeq	r0, r0, ip
 90c:	000008b8 	undefined instruction 0x000008b8
 910:	00003d64 	andeq	r3, r0, r4, ror #26
 914:	000000d4 	ldrdeq	r0, [r0], -r4

Disassembly of section .debug_loc:

00000000 <.debug_loc>:
       0:	00000000 	andeq	r0, r0, r0
       4:	00000004 	andeq	r0, r0, r4
       8:	045d0001 	ldrbeq	r0, [sp], #-1
       c:	b8000000 	stmdalt	r0, {}
      10:	02000001 	andeq	r0, r0, #1
      14:	00107d00 	andseq	r7, r0, r0, lsl #26
      18:	00000000 	andeq	r0, r0, r0
      1c:	10000000 	andne	r0, r0, r0
      20:	50000000 	andpl	r0, r0, r0
      24:	01000000 	tsteq	r0, r0
      28:	00005400 	andeq	r5, r0, r0, lsl #8
	...
      34:	00140000 	andseq	r0, r4, r0
      38:	00010000 	andeq	r0, r1, r0
      3c:	0000145d 	andeq	r1, r0, sp, asr r4
      40:	00009c00 	andeq	r9, r0, r0, lsl #24
      44:	7d000200 	sfmvc	f0, 4, [r0]	; (stcvc 2, cr0, [r0])
      48:	00000024 	andeq	r0, r0, r4, lsr #32
      4c:	00000000 	andeq	r0, r0, r0
      50:	0000f800 	andeq	pc, r0, r0, lsl #16
      54:	00010c00 	andeq	r0, r1, r0, lsl #24
      58:	5d000100 	stfpls	f0, [r0]
      5c:	0000010c 	andeq	r0, r0, ip, lsl #2
      60:	00000140 	andeq	r0, r0, r0, asr #2
      64:	087d0002 	ldmdaeq	sp!, {r1}^
	...
      70:	000000f8 	strdeq	r0, [r0], -r8
      74:	0000011c 	andeq	r0, r0, ip, lsl r1
      78:	00500001 	subseq	r0, r0, r1
	...
      84:	18000001 	stmdane	r0, {r0}
      88:	01000001 	tsteq	r0, r1
      8c:	00005200 	andeq	r5, r0, r0, lsl #4
      90:	00000000 	andeq	r0, r0, r0
      94:	01400000 	cmpeq	r0, r0
      98:	014c0000 	cmpeq	ip, r0
      9c:	00010000 	andeq	r0, r1, r0
      a0:	00000050 	andeq	r0, r0, r0, asr r0
      a4:	00000000 	andeq	r0, r0, r0
      a8:	00014c00 	andeq	r4, r1, r0, lsl #24
      ac:	00015400 	andeq	r5, r1, r0, lsl #8
      b0:	50000100 	andpl	r0, r0, r0, lsl #2
	...
      bc:	000000d4 	ldrdeq	r0, [r0], -r4
      c0:	000000dc 	ldrdeq	r0, [r0], -ip
      c4:	dc500001 	mrrcle	0, 0, r0, r0, cr1
      c8:	20000000 	andcs	r0, r0, r0
      cc:	01000001 	tsteq	r0, r1
      d0:	00005200 	andeq	r5, r0, r0, lsl #4
      d4:	00000000 	andeq	r0, r0, r0
      d8:	01380000 	teqeq	r8, r0
      dc:	01400000 	cmpeq	r0, r0
      e0:	00010000 	andeq	r0, r1, r0
      e4:	00014050 	andeq	r4, r1, r0, asr r0
      e8:	00019400 	andeq	r9, r1, r0, lsl #8
      ec:	53000100 	movwpl	r0, #256	; 0x100
	...
      f8:	00000194 	muleq	r0, r4, r1
      fc:	000001a4 	andeq	r0, r0, r4, lsr #3
     100:	a4500001 	ldrbge	r0, [r0], #-1
     104:	e0000001 	and	r0, r0, r1
     108:	01000001 	tsteq	r0, r1
     10c:	00005200 	andeq	r5, r0, r0, lsl #4
     110:	00000000 	andeq	r0, r0, r0
     114:	01f40000 	mvnseq	r0, r0
     118:	02040000 	andeq	r0, r4, #0
     11c:	00010000 	andeq	r0, r1, r0
     120:	00020450 	andeq	r0, r2, r0, asr r4
     124:	00024400 	andeq	r4, r2, r0, lsl #8
     128:	52000100 	andpl	r0, r0, #0
	...
     138:	00000010 	andeq	r0, r0, r0, lsl r0
     13c:	00500001 	subseq	r0, r0, r1
     140:	00000000 	andeq	r0, r0, r0
     144:	70000000 	andvc	r0, r0, r0
     148:	74000000 	strvc	r0, [r0]
     14c:	01000000 	tsteq	r0, r0
     150:	00005100 	andeq	r5, r0, r0, lsl #2
     154:	00000000 	andeq	r0, r0, r0
     158:	01440000 	cmpeq	r4, r0
     15c:	014c0000 	cmpeq	ip, r0
     160:	00010000 	andeq	r0, r1, r0
     164:	00014c5d 	andeq	r4, r1, sp, asr ip
     168:	00041c00 	andeq	r1, r4, r0, lsl #24
     16c:	7d000200 	sfmvc	f0, 4, [r0]	; (stcvc 2, cr0, [r0])
     170:	00000008 	andeq	r0, r0, r8
     174:	00000000 	andeq	r0, r0, r0
     178:	00014400 	andeq	r4, r1, r0, lsl #8
     17c:	00028800 	andeq	r8, r2, r0, lsl #16
     180:	50000100 	andpl	r0, r0, r0, lsl #2
     184:	00000354 	andeq	r0, r0, r4, asr r3
     188:	00000360 	andeq	r0, r0, r0, ror #6
     18c:	00500001 	subseq	r0, r0, r1
     190:	04000004 	streq	r0, [r0], #-4
     194:	01000004 	tsteq	r0, r4
     198:	00005000 	andeq	r5, r0, r0
     19c:	00000000 	andeq	r0, r0, r0
     1a0:	01440000 	cmpeq	r4, r0
     1a4:	01ac0000 	undefined instruction 0x01ac0000
     1a8:	00010000 	andeq	r0, r1, r0
     1ac:	00035851 	andeq	r5, r3, r1, asr r8
     1b0:	00036400 	andeq	r6, r3, r0, lsl #8
     1b4:	51000100 	tstpl	r0, r0, lsl #2
	...
     1c0:	00000144 	andeq	r0, r0, r4, asr #2
     1c4:	000001f8 	strdeq	r0, [r0], -r8
     1c8:	58520001 	ldmdapl	r2, {r0}^
     1cc:	68000003 	stmdavs	r0, {r0, r1}
     1d0:	01000003 	tsteq	r0, r3
     1d4:	00005200 	andeq	r5, r0, r0, lsl #4
     1d8:	00000000 	andeq	r0, r0, r0
     1dc:	01440000 	cmpeq	r4, r0
     1e0:	02440000 	subeq	r0, r4, #0
     1e4:	00010000 	andeq	r0, r1, r0
     1e8:	00028453 	andeq	r8, r2, r3, asr r4
     1ec:	00034c00 	andeq	r4, r3, r0, lsl #24
     1f0:	53000100 	movwpl	r0, #256	; 0x100
     1f4:	00000358 	andeq	r0, r0, r8, asr r3
     1f8:	0000035c 	andeq	r0, r0, ip, asr r3
     1fc:	00530001 	subseq	r0, r3, r1
     200:	00000000 	andeq	r0, r0, r0
     204:	70000000 	andvc	r0, r0, r0
     208:	9c000001 	stcls	0, cr0, [r0], {1}
     20c:	01000001 	tsteq	r0, r1
     210:	01b05c00 	lslseq	r5, r0, #24
     214:	01e40000 	mvneq	r0, r0
     218:	00010000 	andeq	r0, r1, r0
     21c:	0001f85c 	andeq	pc, r1, ip, asr r8
     220:	00022800 	andeq	r2, r2, r0, lsl #16
     224:	52000100 	andpl	r0, r0, #0
     228:	00000244 	andeq	r0, r0, r4, asr #4
     22c:	00000278 	andeq	r0, r0, r8, ror r2
     230:	8c530001 	mrrchi	0, 0, r0, r3, cr1
     234:	bc000002 	stclt	0, cr0, [r0], {2}
     238:	01000002 	tsteq	r0, r2
     23c:	02d05200 	sbcseq	r5, r0, #0
     240:	03040000 	movweq	r0, #16384	; 0x4000
     244:	00010000 	andeq	r0, r1, r0
     248:	00031852 	andeq	r1, r3, r2, asr r8
     24c:	00034400 	andeq	r4, r3, r0, lsl #8
     250:	52000100 	andpl	r0, r0, #0
     254:	00000358 	andeq	r0, r0, r8, asr r3
     258:	00000368 	andeq	r0, r0, r8, ror #6
     25c:	68520001 	ldmdavs	r2, {r0}^
     260:	a8000003 	stmdage	r0, {r0, r1}
     264:	01000003 	tsteq	r0, r3
     268:	03f45c00 	mvnseq	r5, #0
     26c:	03f80000 	mvnseq	r0, #0
     270:	00010000 	andeq	r0, r1, r0
     274:	0000005c 	andeq	r0, r0, ip, asr r0
     278:	00000000 	andeq	r0, r0, r0
     27c:	0003a400 	andeq	sl, r3, r0, lsl #8
     280:	0003a800 	andeq	sl, r3, r0, lsl #16
     284:	54000100 	strpl	r0, [r0], #-256	; 0x100
     288:	000003f4 	strdeq	r0, [r0], -r4
     28c:	00000400 	andeq	r0, r0, r0, lsl #8
     290:	00540001 	subseq	r0, r4, r1
     294:	00000000 	andeq	r0, r0, r0
     298:	1c000000 	stcne	0, cr0, [r0], {0}
     29c:	24000004 	strcs	r0, [r0], #-4
     2a0:	01000004 	tsteq	r0, r4
     2a4:	04245d00 	strteq	r5, [r4], #-3328	; 0xd00
     2a8:	073c0000 	ldreq	r0, [ip, -r0]!
     2ac:	00020000 	andeq	r0, r2, r0
     2b0:	0000107d 	andeq	r1, r0, sp, ror r0
     2b4:	00000000 	andeq	r0, r0, r0
     2b8:	041c0000 	ldreq	r0, [ip]
     2bc:	05380000 	ldreq	r0, [r8]!
     2c0:	00010000 	andeq	r0, r1, r0
     2c4:	00058050 	andeq	r8, r5, r0, asr r0
     2c8:	00058c00 	andeq	r8, r5, r0, lsl #24
     2cc:	50000100 	andpl	r0, r0, r0, lsl #2
     2d0:	0000066c 	andeq	r0, r0, ip, ror #12
     2d4:	00000684 	andeq	r0, r0, r4, lsl #13
     2d8:	00500001 	subseq	r0, r0, r1
     2dc:	00000000 	andeq	r0, r0, r0
     2e0:	1c000000 	stcne	0, cr0, [r0], {0}
     2e4:	90000004 	andls	r0, r0, r4
     2e8:	01000004 	tsteq	r0, r4
     2ec:	066c5100 	strbteq	r5, [ip], -r0, lsl #2
     2f0:	067c0000 	ldrbteq	r0, [ip], -r0
     2f4:	00010000 	andeq	r0, r1, r0
     2f8:	00000051 	andeq	r0, r0, r1, asr r0
     2fc:	00000000 	andeq	r0, r0, r0
     300:	00041c00 	andeq	r1, r4, r0, lsl #24
     304:	0004e800 	andeq	lr, r4, r0, lsl #16
     308:	52000100 	andpl	r0, r0, #0
     30c:	0000066c 	andeq	r0, r0, ip, ror #12
     310:	00000670 	andeq	r0, r0, r0, ror r6
     314:	00520001 	subseq	r0, r2, r1
     318:	00000000 	andeq	r0, r0, r0
     31c:	1c000000 	stcne	0, cr0, [r0], {0}
     320:	3c000004 	stccc	0, cr0, [r0], {4}
     324:	01000005 	tsteq	r0, r5
     328:	05805300 	streq	r5, [r0, #768]	; 0x300
     32c:	06600000 	strbteq	r0, [r0], -r0
     330:	00010000 	andeq	r0, r1, r0
     334:	00066c53 	andeq	r6, r6, r3, asr ip
     338:	00067400 	andeq	r7, r6, r0, lsl #8
     33c:	53000100 	movwpl	r0, #256	; 0x100
	...
     348:	00000450 	andeq	r0, r0, r0, asr r4
     34c:	00000480 	andeq	r0, r0, r0, lsl #9
     350:	9c540001 	mrrcls	0, 0, r0, r4, cr1
     354:	d0000004 	andle	r0, r0, r4
     358:	01000004 	tsteq	r0, r4
     35c:	04ec5400 	strbteq	r5, [ip], #1024	; 0x400
     360:	053c0000 	ldreq	r0, [ip]!
     364:	00010000 	andeq	r0, r1, r0
     368:	00053c54 	andeq	r3, r5, r4, asr ip
     36c:	00057000 	andeq	r7, r5, r0
     370:	53000100 	movwpl	r0, #256	; 0x100
     374:	00000580 	andeq	r0, r0, r0, lsl #11
     378:	00000588 	andeq	r0, r0, r8, lsl #11
     37c:	8c540001 	mrrchi	0, 0, r0, r4, cr1
     380:	c0000005 	andgt	r0, r0, r5
     384:	01000005 	tsteq	r0, r5
     388:	05dc5000 	ldrbeq	r5, [ip]
     38c:	06200000 	strteq	r0, [r0], -r0
     390:	00010000 	andeq	r0, r1, r0
     394:	00062850 	andeq	r2, r6, r0, asr r8
     398:	00065800 	andeq	r5, r6, r0, lsl #16
     39c:	52000100 	andpl	r0, r0, #0
     3a0:	0000066c 	andeq	r0, r0, ip, ror #12
     3a4:	00000670 	andeq	r0, r0, r0, ror r6
     3a8:	70520001 	subsvc	r0, r2, r1
     3ac:	84000006 	strhi	r0, [r0], #-6
     3b0:	01000006 	tsteq	r0, r6
     3b4:	00005000 	andeq	r5, r0, r0
     3b8:	00000000 	andeq	r0, r0, r0
     3bc:	06c00000 	strbeq	r0, [r0], r0
     3c0:	06c40000 	strbeq	r0, [r4], r0
     3c4:	00010000 	andeq	r0, r1, r0
     3c8:	00071850 	andeq	r1, r7, r0, asr r8
     3cc:	00071800 	andeq	r1, r7, r0, lsl #16
     3d0:	50000100 	andpl	r0, r0, r0, lsl #2
	...
     3dc:	0000073c 	andeq	r0, r0, ip, lsr r7
     3e0:	00000740 	andeq	r0, r0, r0, asr #14
     3e4:	405d0001 	subsmi	r0, sp, r1
     3e8:	8c000007 	stchi	0, cr0, [r0], {7}
     3ec:	02000007 	andeq	r0, r0, #7
     3f0:	00087d00 	andeq	r7, r8, r0, lsl #26
	...
     3fc:	04000000 	streq	r0, [r0]
     400:	01000000 	tsteq	r0, r0
     404:	00045d00 	andeq	r5, r4, r0, lsl #26
     408:	00a00000 	adceq	r0, r0, r0
     40c:	00020000 	andeq	r0, r2, r0
     410:	0000107d 	andeq	r1, r0, sp, ror r0
     414:	00000000 	andeq	r0, r0, r0
     418:	00180000 	andseq	r0, r8, r0
     41c:	00300000 	eorseq	r0, r0, r0
     420:	00020000 	andeq	r0, r2, r0
     424:	00307f74 	eorseq	r7, r0, r4, ror pc
     428:	00440000 	subeq	r0, r4, r0
     42c:	00010000 	andeq	r0, r1, r0
     430:	0000485c 	andeq	r4, r0, ip, asr r8
     434:	00007000 	andeq	r7, r0, r0
     438:	7d000200 	sfmvc	f0, 4, [r0]	; (stcvc 2, cr0, [r0])
     43c:	00007007 	andeq	r7, r0, r7
     440:	00008400 	andeq	r8, r0, r0, lsl #8
     444:	5c000100 	stfpls	f0, [r0], {0}
     448:	00000088 	andeq	r0, r0, r8, lsl #1
     44c:	000000a0 	andeq	r0, r0, r0, lsr #1
     450:	077d0002 	ldrbeq	r0, [sp, -r2]!
	...
     45c:	000000a0 	andeq	r0, r0, r0, lsr #1
     460:	000000a4 	andeq	r0, r0, r4, lsr #1
     464:	a45d0001 	ldrbge	r0, [sp], #-1
     468:	40000000 	andmi	r0, r0, r0
     46c:	02000001 	andeq	r0, r0, #1
     470:	00107d00 	andseq	r7, r0, r0, lsl #26
     474:	00000000 	andeq	r0, r0, r0
     478:	b8000000 	stmdalt	r0, {}
     47c:	d0000000 	andle	r0, r0, r0
     480:	02000000 	andeq	r0, r0, #0
     484:	d07f7400 	rsbsle	r7, pc, r0, lsl #8
     488:	e4000000 	str	r0, [r0]
     48c:	01000000 	tsteq	r0, r0
     490:	00e85c00 	rsceq	r5, r8, r0, lsl #24
     494:	01100000 	tsteq	r0, r0
     498:	00020000 	andeq	r0, r2, r0
     49c:	0110077d 	tsteq	r0, sp, ror r7
     4a0:	01240000 	teqeq	r4, r0
     4a4:	00010000 	andeq	r0, r1, r0
     4a8:	0001285c 	andeq	r2, r1, ip, asr r8
     4ac:	00014000 	andeq	r4, r1, r0
     4b0:	7d000200 	sfmvc	f0, 4, [r0]	; (stcvc 2, cr0, [r0])
     4b4:	00000007 	andeq	r0, r0, r7
     4b8:	00000000 	andeq	r0, r0, r0
     4bc:	00014000 	andeq	r4, r1, r0
     4c0:	00014800 	andeq	r4, r1, r0, lsl #16
     4c4:	5d000100 	stfpls	f0, [r0]
     4c8:	00000148 	andeq	r0, r0, r8, asr #2
     4cc:	00000454 	andeq	r0, r0, r4, asr r4
     4d0:	187d0002 	ldmdane	sp!, {r1}^
	...
     4dc:	00000140 	andeq	r0, r0, r0, asr #2
     4e0:	00000148 	andeq	r0, r0, r8, asr #2
     4e4:	4c500001 	mrrcmi	0, 0, r0, r0, cr1
     4e8:	50000001 	andpl	r0, r0, r1
     4ec:	01000001 	tsteq	r0, r1
     4f0:	01505000 	cmpeq	r0, r0
     4f4:	04000000 	streq	r0, [r0]
     4f8:	00010000 	andeq	r0, r1, r0
     4fc:	00040054 	andeq	r0, r4, r4, asr r0
     500:	00040400 	andeq	r0, r4, r0, lsl #8
     504:	50000100 	andpl	r0, r0, r0, lsl #2
     508:	00000444 	andeq	r0, r0, r4, asr #8
     50c:	00000454 	andeq	r0, r0, r4, asr r4
     510:	00540001 	subseq	r0, r4, r1
     514:	00000000 	andeq	r0, r0, r0
     518:	74000000 	strvc	r0, [r0]
     51c:	88000001 	stmdahi	r0, {r0}
     520:	02000001 	andeq	r0, r0, #1
     524:	8c679100 	stfhip	f1, [r7]
     528:	c4000001 	strgt	r0, [r0], #-1
     52c:	02000001 	andeq	r0, r0, #1
     530:	c4077d00 	strgt	r7, [r7], #-3328	; 0xd00
     534:	d8000001 	stmdale	r0, {r0}
     538:	01000001 	tsteq	r0, r1
     53c:	01dc5c00 	bicseq	r5, ip, r0, lsl #24
     540:	02140000 	andseq	r0, r4, #0
     544:	00020000 	andeq	r0, r2, r0
     548:	0214077d 	andseq	r0, r4, #32768000	; 0x1f40000
     54c:	02280000 	eoreq	r0, r8, #0
     550:	00010000 	andeq	r0, r1, r0
     554:	00022c5c 	andeq	r2, r2, ip, asr ip
     558:	00026400 	andeq	r6, r2, r0, lsl #8
     55c:	7d000200 	sfmvc	f0, 4, [r0]	; (stcvc 2, cr0, [r0])
     560:	00026407 	andeq	r6, r2, r7, lsl #8
     564:	00027800 	andeq	r7, r2, r0, lsl #16
     568:	5c000100 	stfpls	f0, [r0], {0}
     56c:	0000027c 	andeq	r0, r0, ip, ror r2
     570:	000002b4 	undefined instruction 0x000002b4
     574:	077d0002 	ldrbeq	r0, [sp, -r2]!
     578:	000002b4 	undefined instruction 0x000002b4
     57c:	000002c8 	andeq	r0, r0, r8, asr #5
     580:	cc5c0001 	mrrcgt	0, 0, r0, ip, cr1
     584:	04000002 	streq	r0, [r0], #-2
     588:	02000003 	andeq	r0, r0, #3
     58c:	04077d00 	streq	r7, [r7], #-3328	; 0xd00
     590:	18000003 	stmdane	r0, {r0, r1}
     594:	01000003 	tsteq	r0, r3
     598:	031c5c00 	tsteq	ip, #0
     59c:	03540000 	cmpeq	r4, #0
     5a0:	00020000 	andeq	r0, r2, r0
     5a4:	0354077d 	cmpeq	r4, #32768000	; 0x1f40000
     5a8:	03680000 	cmneq	r8, #0
     5ac:	00010000 	andeq	r0, r1, r0
     5b0:	00036c5c 	andeq	r6, r3, ip, asr ip
     5b4:	0003d000 	andeq	sp, r3, r0
     5b8:	7d000200 	sfmvc	f0, 4, [r0]	; (stcvc 2, cr0, [r0])
     5bc:	0003d007 	andeq	sp, r3, r7
     5c0:	0003e400 	andeq	lr, r3, r0, lsl #8
     5c4:	5c000100 	stfpls	f0, [r0], {0}
     5c8:	000003e8 	andeq	r0, r0, r8, ror #7
     5cc:	00000420 	andeq	r0, r0, r0, lsr #8
     5d0:	077d0002 	ldrbeq	r0, [sp, -r2]!
     5d4:	00000420 	andeq	r0, r0, r0, lsr #8
     5d8:	00000434 	andeq	r0, r0, r4, lsr r4
     5dc:	385c0001 	ldmdacc	ip, {r0}^
     5e0:	54000004 	strpl	r0, [r0], #-4
     5e4:	02000004 	andeq	r0, r0, #4
     5e8:	00077d00 	andeq	r7, r7, r0, lsl #26
     5ec:	00000000 	andeq	r0, r0, r0
     5f0:	54000000 	strpl	r0, [r0]
     5f4:	5c000004 	stcpl	0, cr0, [r0], {4}
     5f8:	01000004 	tsteq	r0, r4
     5fc:	045c5d00 	ldrbeq	r5, [ip], #-3328	; 0xd00
     600:	04fc0000 	ldrbteq	r0, [ip]
     604:	00020000 	andeq	r0, r2, r0
     608:	0000187d 	andeq	r1, r0, sp, ror r8
     60c:	00000000 	andeq	r0, r0, r0
     610:	04540000 	ldrbeq	r0, [r4]
     614:	045c0000 	ldrbeq	r0, [ip]
     618:	00010000 	andeq	r0, r1, r0
     61c:	00046050 	andeq	r6, r4, r0, asr r0
     620:	00046800 	andeq	r6, r4, r0, lsl #16
     624:	50000100 	andpl	r0, r0, r0, lsl #2
     628:	00000468 	andeq	r0, r0, r8, ror #8
     62c:	000004fc 	strdeq	r0, [r0], -ip
     630:	00550001 	subseq	r0, r5, r1
     634:	00000000 	andeq	r0, r0, r0
     638:	c0000000 	andgt	r0, r0, r0
     63c:	dc000004 	stcle	0, cr0, [r0], {4}
     640:	02000004 	andeq	r0, r0, #4
     644:	dc679100 	stflep	f1, [r7]
     648:	e0000004 	and	r0, r0, r4
     64c:	01000004 	tsteq	r0, r4
     650:	04e45300 	strbteq	r5, [r4], #768	; 0x300
     654:	04e80000 	strbteq	r0, [r8]
     658:	00010000 	andeq	r0, r1, r0
     65c:	00000053 	andeq	r0, r0, r3, asr r0
     660:	00000000 	andeq	r0, r0, r0
     664:	0004fc00 	andeq	pc, r4, r0, lsl #24
     668:	00050400 	andeq	r0, r5, r0, lsl #8
     66c:	5d000100 	stfpls	f0, [r0]
     670:	00000504 	andeq	r0, r0, r4, lsl #10
     674:	000006f0 	strdeq	r0, [r0], -r0
     678:	207d0002 	rsbscs	r0, sp, r2
	...
     684:	000004fc 	strdeq	r0, [r0], -ip
     688:	00000504 	andeq	r0, r0, r4, lsl #10
     68c:	0c500001 	mrrceq	0, 0, r0, r0, cr1
     690:	60000005 	andvs	r0, r0, r5
     694:	01000005 	tsteq	r0, r5
     698:	05ac5000 	streq	r5, [ip]!
     69c:	05c00000 	strbeq	r0, [r0]
     6a0:	00010000 	andeq	r0, r1, r0
     6a4:	00065050 	andeq	r5, r6, r0, asr r0
     6a8:	00065800 	andeq	r5, r6, r0, lsl #16
     6ac:	50000100 	andpl	r0, r0, r0, lsl #2
     6b0:	000006c8 	andeq	r0, r0, r8, asr #13
     6b4:	000006cc 	andeq	r0, r0, ip, asr #13
     6b8:	d8500001 	ldmdale	r0, {r0}^
     6bc:	f0000006 	undefined instruction 0xf0000006
     6c0:	01000006 	tsteq	r0, r6
     6c4:	00005000 	andeq	r5, r0, r0
     6c8:	00000000 	andeq	r0, r0, r0
     6cc:	04fc0000 	ldrbteq	r0, [ip]
     6d0:	05040000 	streq	r0, [r4]
     6d4:	00010000 	andeq	r0, r1, r0
     6d8:	00053c51 	andeq	r3, r5, r1, asr ip
     6dc:	00058800 	andeq	r8, r5, r0, lsl #16
     6e0:	51000100 	tstpl	r0, r0, lsl #2
     6e4:	000005ac 	andeq	r0, r0, ip, lsr #11
     6e8:	000005f4 	strdeq	r0, [r0], -r4
     6ec:	18510001 	ldmdane	r1, {r0}^
     6f0:	5c000006 	stcpl	0, cr0, [r0], {6}
     6f4:	01000006 	tsteq	r0, r6
     6f8:	06c85100 	strbeq	r5, [r8], r0, lsl #2
     6fc:	06d00000 	ldrbeq	r0, [r0], r0
     700:	00010000 	andeq	r0, r1, r0
     704:	0006d451 	andeq	sp, r6, r1, asr r4
     708:	0006f000 	andeq	pc, r6, r0
     70c:	51000100 	tstpl	r0, r0, lsl #2
	...
     718:	000005b8 	undefined instruction 0x000005b8
     71c:	000005ec 	andeq	r0, r0, ip, ror #11
     720:	18550001 	ldmdane	r5, {r0}^
     724:	1c000006 	stcne	0, cr0, [r0], {6}
     728:	01000006 	tsteq	r0, r6
     72c:	06205500 	strteq	r5, [r0], -r0, lsl #10
     730:	062c0000 	strteq	r0, [ip], -r0
     734:	00010000 	andeq	r0, r1, r0
     738:	00063055 	andeq	r3, r6, r5, asr r0
     73c:	00063c00 	andeq	r3, r6, r0, lsl #24
     740:	55000100 	strpl	r0, [r0, #-256]	; 0x100
     744:	00000644 	andeq	r0, r0, r4, asr #12
     748:	00000680 	andeq	r0, r0, r0, lsl #13
     74c:	8c550001 	mrrchi	0, 0, r0, r5, cr1
     750:	b0000006 	andlt	r0, r0, r6
     754:	01000006 	tsteq	r0, r6
     758:	06c85500 	strbeq	r5, [r8], r0, lsl #10
     75c:	06d80000 	ldrbeq	r0, [r8], r0
     760:	00010000 	andeq	r0, r1, r0
     764:	00000055 	andeq	r0, r0, r5, asr r0
     768:	00000000 	andeq	r0, r0, r0
     76c:	00069800 	andeq	r9, r6, r0, lsl #16
     770:	0006d800 	andeq	sp, r6, r0, lsl #16
     774:	57000100 	strpl	r0, [r0, -r0, lsl #2]
	...
     780:	00000684 	andeq	r0, r0, r4, lsl #13
     784:	000006b8 	undefined instruction 0x000006b8
     788:	5f910002 	svcpl	0x00910002
     78c:	000006b8 	undefined instruction 0x000006b8
     790:	000006d0 	ldrdeq	r0, [r0], -r0
     794:	077d0002 	ldrbeq	r0, [sp, -r2]!
     798:	000006d0 	ldrdeq	r0, [r0], -r0
     79c:	000006d4 	ldrdeq	r0, [r0], -r4
     7a0:	5f910002 	svcpl	0x00910002
     7a4:	000006d4 	ldrdeq	r0, [r0], -r4
     7a8:	000006d8 	ldrdeq	r0, [r0], -r8
     7ac:	077d0002 	ldrbeq	r0, [sp, -r2]!
	...
     7b8:	000006cc 	andeq	r0, r0, ip, asr #13
     7bc:	000006d0 	ldrdeq	r0, [r0], -r0
     7c0:	d4500001 	ldrble	r0, [r0], #-1
     7c4:	d4000006 	strle	r0, [r0], #-6
     7c8:	01000006 	tsteq	r0, r6
     7cc:	00005000 	andeq	r5, r0, r0
     7d0:	00000000 	andeq	r0, r0, r0
     7d4:	05880000 	streq	r0, [r8]
     7d8:	05ac0000 	streq	r0, [ip]!
     7dc:	00010000 	andeq	r0, r1, r0
     7e0:	00062c51 	andeq	r2, r6, r1, asr ip
     7e4:	00063400 	andeq	r3, r6, r0, lsl #8
     7e8:	51000100 	tstpl	r0, r0, lsl #2
     7ec:	00000650 	andeq	r0, r0, r0, asr r6
     7f0:	0000065c 	andeq	r0, r0, ip, asr r6
     7f4:	00510001 	subseq	r0, r1, r1
     7f8:	00000000 	andeq	r0, r0, r0
     7fc:	5c000000 	stcpl	0, cr0, [r0], {0}
     800:	ac000005 	stcge	0, cr0, [r0], {5}
     804:	01000005 	tsteq	r0, r5
     808:	062c5200 	strteq	r5, [ip], -r0, lsl #4
     80c:	06340000 	ldrteq	r0, [r4], -r0
     810:	00010000 	andeq	r0, r1, r0
     814:	00065052 	andeq	r5, r6, r2, asr r0
     818:	00066000 	andeq	r6, r6, r0
     81c:	52000100 	andpl	r0, r0, #0
	...
     828:	00000580 	andeq	r0, r0, r0, lsl #11
     82c:	00000590 	muleq	r0, r0, r5
     830:	90550001 	subsls	r0, r5, r1
     834:	98000005 	stmdals	r0, {r0, r2}
     838:	01000005 	tsteq	r0, r5
     83c:	05985300 	ldreq	r5, [r8, #768]	; 0x300
     840:	05ac0000 	streq	r0, [ip]!
     844:	00010000 	andeq	r0, r1, r0
     848:	00062c55 	andeq	r2, r6, r5, asr ip
     84c:	00063000 	andeq	r3, r6, r0
     850:	55000100 	strpl	r0, [r0, #-256]	; 0x100
     854:	00000630 	andeq	r0, r0, r0, lsr r6
     858:	00000634 	andeq	r0, r0, r4, lsr r6
     85c:	50530001 	subspl	r0, r3, r1
     860:	64000006 	strvs	r0, [r0], #-6
     864:	01000006 	tsteq	r0, r6
     868:	00005300 	andeq	r5, r0, r0, lsl #6
     86c:	00000000 	andeq	r0, r0, r0
     870:	05600000 	strbeq	r0, [r0]!
     874:	05ac0000 	streq	r0, [ip]!
     878:	00010000 	andeq	r0, r1, r0
     87c:	00062c50 	andeq	r2, r6, r0, asr ip
     880:	00063400 	andeq	r3, r6, r0, lsl #8
     884:	50000100 	andpl	r0, r0, r0, lsl #2
     888:	00000650 	andeq	r0, r0, r0, asr r6
     88c:	00000658 	andeq	r0, r0, r8, asr r6
     890:	00500001 	subseq	r0, r0, r1
     894:	00000000 	andeq	r0, r0, r0
     898:	f4000000 	vst4.8	{d0-d3}, [r0], r0
     89c:	18000005 	stmdane	r0, {r0, r2}
     8a0:	01000006 	tsteq	r0, r6
     8a4:	061c5100 	ldreq	r5, [ip], -r0, lsl #2
     8a8:	065c0000 	ldrbeq	r0, [ip], -r0
     8ac:	00010000 	andeq	r0, r1, r0
     8b0:	00000051 	andeq	r0, r0, r1, asr r0
     8b4:	00000000 	andeq	r0, r0, r0
     8b8:	0005c800 	andeq	ip, r5, r0, lsl #16
     8bc:	00066400 	andeq	r6, r6, r0, lsl #8
     8c0:	53000100 	movwpl	r0, #256	; 0x100
	...
     8cc:	000005ec 	andeq	r0, r0, ip, ror #11
     8d0:	000005fc 	strdeq	r0, [r0], -ip
     8d4:	fc550001 	mrrc2	0, 0, r0, r5, cr1
     8d8:	04000005 	streq	r0, [r0], #-5
     8dc:	01000006 	tsteq	r0, r6
     8e0:	06045000 	streq	r5, [r4], -r0
     8e4:	06180000 	ldreq	r0, [r8], -r0
     8e8:	00010000 	andeq	r0, r1, r0
     8ec:	00061c55 	andeq	r1, r6, r5, asr ip
     8f0:	00062000 	andeq	r2, r6, r0
     8f4:	55000100 	strpl	r0, [r0, #-256]	; 0x100
     8f8:	00000620 	andeq	r0, r0, r0, lsr #12
     8fc:	00000658 	andeq	r0, r0, r8, asr r6
     900:	00500001 	subseq	r0, r0, r1
     904:	00000000 	andeq	r0, r0, r0
     908:	cc000000 	stcgt	0, cr0, [r0], {0}
     90c:	60000005 	andvs	r0, r0, r5
     910:	01000006 	tsteq	r0, r6
     914:	00005200 	andeq	r5, r0, r0, lsl #4
     918:	00000000 	andeq	r0, r0, r0
     91c:	06f00000 	ldrbteq	r0, [r0], r0
     920:	06f40000 	ldrbteq	r0, [r4], r0
     924:	00010000 	andeq	r0, r1, r0
     928:	0006f45d 	andeq	pc, r6, sp, asr r4
     92c:	000ef000 	andeq	pc, lr, r0
     930:	7d000200 	sfmvc	f0, 4, [r0]	; (stcvc 2, cr0, [r0])
     934:	00000018 	andeq	r0, r0, r8, lsl r0
     938:	00000000 	andeq	r0, r0, r0
     93c:	0006f000 	andeq	pc, r6, r0
     940:	0006f400 	andeq	pc, r6, r0, lsl #8
     944:	50000100 	andpl	r0, r0, r0, lsl #2
     948:	000006f8 	strdeq	r0, [r0], -r8
     94c:	000006fc 	strdeq	r0, [r0], -ip
     950:	fc500001 	mrrc2	0, 0, r0, r0, cr1
     954:	50000006 	andpl	r0, r0, r6
     958:	0100000e 	tsteq	r0, lr
     95c:	0ee05400 	cdpeq	4, 14, cr5, cr0, cr0, {0}
     960:	0ef00000 	cdpeq	0, 15, cr0, cr0, cr0, {0}
     964:	00010000 	andeq	r0, r1, r0
     968:	00000054 	andeq	r0, r0, r4, asr r0
     96c:	00000000 	andeq	r0, r0, r0
     970:	00072c00 	andeq	r2, r7, r0, lsl #24
     974:	00074000 	andeq	r4, r7, r0
     978:	91000200 	tstls	r0, r0, lsl #4
     97c:	00074467 	andeq	r4, r7, r7, ror #8
     980:	00077c00 	andeq	r7, r7, r0, lsl #24
     984:	7d000200 	sfmvc	f0, 4, [r0]	; (stcvc 2, cr0, [r0])
     988:	00077c07 	andeq	r7, r7, r7, lsl #24
     98c:	00079000 	andeq	r9, r7, r0
     990:	5c000100 	stfpls	f0, [r0], {0}
     994:	00000794 	muleq	r0, r4, r7
     998:	000007cc 	andeq	r0, r0, ip, asr #15
     99c:	077d0002 	ldrbeq	r0, [sp, -r2]!
     9a0:	000007cc 	andeq	r0, r0, ip, asr #15
     9a4:	000007e0 	andeq	r0, r0, r0, ror #15
     9a8:	e45c0001 	ldrb	r0, [ip], #-1
     9ac:	1c000007 	stcne	0, cr0, [r0], {7}
     9b0:	02000008 	andeq	r0, r0, #8
     9b4:	1c077d00 	stcne	13, cr7, [r7], {0}
     9b8:	30000008 	andcc	r0, r0, r8
     9bc:	01000008 	tsteq	r0, r8
     9c0:	08345c00 	ldmdaeq	r4!, {sl, fp, ip, lr}
     9c4:	086c0000 	stmdaeq	ip!, {}^
     9c8:	00020000 	andeq	r0, r2, r0
     9cc:	086c077d 	stmdaeq	ip!, {r0, r2, r3, r4, r5, r6, r8, r9, sl}^
     9d0:	08800000 	stmeq	r0, {}
     9d4:	00010000 	andeq	r0, r1, r0
     9d8:	0008845c 	andeq	r8, r8, ip, asr r4
     9dc:	0008bc00 	andeq	fp, r8, r0, lsl #24
     9e0:	7d000200 	sfmvc	f0, 4, [r0]	; (stcvc 2, cr0, [r0])
     9e4:	0008bc07 	andeq	fp, r8, r7, lsl #24
     9e8:	0008d000 	andeq	sp, r8, r0
     9ec:	5c000100 	stfpls	f0, [r0], {0}
     9f0:	000008d4 	ldrdeq	r0, [r0], -r4
     9f4:	00000930 	andeq	r0, r0, r0, lsr r9
     9f8:	077d0002 	ldrbeq	r0, [sp, -r2]!
     9fc:	00000930 	andeq	r0, r0, r0, lsr r9
     a00:	00000944 	andeq	r0, r0, r4, asr #18
     a04:	485c0001 	ldmdami	ip, {r0}^
     a08:	ac000009 	stcge	0, cr0, [r0], {9}
     a0c:	02000009 	andeq	r0, r0, #9
     a10:	ac077d00 	stcge	13, cr7, [r7], {0}
     a14:	c0000009 	andgt	r0, r0, r9
     a18:	01000009 	tsteq	r0, r9
     a1c:	09c45c00 	stmibeq	r4, {sl, fp, ip, lr}^
     a20:	09fc0000 	ldmibeq	ip!, {}^
     a24:	00020000 	andeq	r0, r2, r0
     a28:	09fc077d 	ldmibeq	ip!, {r0, r2, r3, r4, r5, r6, r8, r9, sl}^
     a2c:	0a100000 	beq	400a34 <__bss_end+0x3fc7ac>
     a30:	00010000 	andeq	r0, r1, r0
     a34:	000a145c 	andeq	r1, sl, ip, asr r4
     a38:	000a4c00 	andeq	r4, sl, r0, lsl #24
     a3c:	7d000200 	sfmvc	f0, 4, [r0]	; (stcvc 2, cr0, [r0])
     a40:	000a4c07 	andeq	r4, sl, r7, lsl #24
     a44:	000a6000 	andeq	r6, sl, r0
     a48:	5c000100 	stfpls	f0, [r0], {0}
     a4c:	00000a64 	andeq	r0, r0, r4, ror #20
     a50:	00000a8c 	andeq	r0, r0, ip, lsl #21
     a54:	077d0002 	ldrbeq	r0, [sp, -r2]!
     a58:	00000a8c 	andeq	r0, r0, ip, lsl #21
     a5c:	00000a9c 	muleq	r0, ip, sl
     a60:	a85c0001 	ldmdage	ip, {r0}^
     a64:	e000000a 	and	r0, r0, sl
     a68:	0200000a 	andeq	r0, r0, #10
     a6c:	e0077d00 	and	r7, r7, r0, lsl #26
     a70:	f400000a 	vst4.8	{d0-d3}, [r0], sl
     a74:	0100000a 	tsteq	r0, sl
     a78:	0af85c00 	beq	ffe17a80 <__bss_end+0xffe137f8>
     a7c:	0b200000 	bleq	800a84 <__bss_end+0x7fc7fc>
     a80:	00020000 	andeq	r0, r2, r0
     a84:	0b20077d 	bleq	802880 <__bss_end+0x7fe5f8>
     a88:	0b300000 	bleq	c00a90 <__bss_end+0xbfc808>
     a8c:	00010000 	andeq	r0, r1, r0
     a90:	000b445c 	andeq	r4, fp, ip, asr r4
     a94:	000b7c00 	andeq	r7, fp, r0, lsl #24
     a98:	7d000200 	sfmvc	f0, 4, [r0]	; (stcvc 2, cr0, [r0])
     a9c:	000b7c07 	andeq	r7, fp, r7, lsl #24
     aa0:	000b9000 	andeq	r9, fp, r0
     aa4:	5c000100 	stfpls	f0, [r0], {0}
     aa8:	00000b94 	muleq	r0, r4, fp
     aac:	00000bbc 	undefined instruction 0x00000bbc
     ab0:	077d0002 	ldrbeq	r0, [sp, -r2]!
     ab4:	00000bbc 	undefined instruction 0x00000bbc
     ab8:	00000bcc 	andeq	r0, r0, ip, asr #23
     abc:	d85c0001 	ldmdale	ip, {r0}^
     ac0:	1000000b 	andne	r0, r0, fp
     ac4:	0200000c 	andeq	r0, r0, #12
     ac8:	10077d00 	andne	r7, r7, r0, lsl #26
     acc:	2400000c 	strcs	r0, [r0], #-12
     ad0:	0100000c 	tsteq	r0, ip
     ad4:	0c285c00 	stceq	12, cr5, [r8]
     ad8:	0c500000 	mraeq	r0, r0, acc0
     adc:	00020000 	andeq	r0, r2, r0
     ae0:	0c50077d 	mrrceq	7, 7, r0, r0, cr13
     ae4:	0c600000 	stcleq	0, cr0, [r0]
     ae8:	00010000 	andeq	r0, r1, r0
     aec:	000c745c 	andeq	r7, ip, ip, asr r4
     af0:	000cac00 	andeq	sl, ip, r0, lsl #24
     af4:	7d000200 	sfmvc	f0, 4, [r0]	; (stcvc 2, cr0, [r0])
     af8:	000cac07 	andeq	sl, ip, r7, lsl #24
     afc:	000cc000 	andeq	ip, ip, r0
     b00:	5c000100 	stfpls	f0, [r0], {0}
     b04:	00000cc4 	andeq	r0, r0, r4, asr #25
     b08:	00000cec 	andeq	r0, r0, ip, ror #25
     b0c:	077d0002 	ldrbeq	r0, [sp, -r2]!
     b10:	00000cec 	andeq	r0, r0, ip, ror #25
     b14:	00000cfc 	strdeq	r0, [r0], -ip
     b18:	085c0001 	ldmdaeq	ip, {r0}^
     b1c:	4000000d 	andmi	r0, r0, sp
     b20:	0200000d 	andeq	r0, r0, #13
     b24:	40077d00 	andmi	r7, r7, r0, lsl #26
     b28:	5400000d 	strpl	r0, [r0], #-13
     b2c:	0100000d 	tsteq	r0, sp
     b30:	0d585c00 	ldcleq	12, cr5, [r8]
     b34:	0d800000 	stceq	0, cr0, [r0]
     b38:	00020000 	andeq	r0, r2, r0
     b3c:	0d80077d 	stceq	7, cr0, [r0, #500]	; 0x1f4
     b40:	0d900000 	ldceq	0, cr0, [r0]
     b44:	00010000 	andeq	r0, r1, r0
     b48:	000da45c 	andeq	sl, sp, ip, asr r4
     b4c:	000ddc00 	andeq	sp, sp, r0, lsl #24
     b50:	7d000200 	sfmvc	f0, 4, [r0]	; (stcvc 2, cr0, [r0])
     b54:	000ddc07 	andeq	sp, sp, r7, lsl #24
     b58:	000df000 	andeq	pc, sp, r0
     b5c:	5c000100 	stfpls	f0, [r0], {0}
     b60:	00000df4 	strdeq	r0, [r0], -r4
     b64:	00000e1c 	andeq	r0, r0, ip, lsl lr
     b68:	077d0002 	ldrbeq	r0, [sp, -r2]!
     b6c:	00000e1c 	andeq	r0, r0, ip, lsl lr
     b70:	00000e2c 	andeq	r0, r0, ip, lsr #28
     b74:	385c0001 	ldmdacc	ip, {r0}^
     b78:	7000000e 	andvc	r0, r0, lr
     b7c:	0200000e 	andeq	r0, r0, #14
     b80:	70077d00 	andvc	r7, r7, r0, lsl #26
     b84:	8400000e 	strhi	r0, [r0], #-14
     b88:	0100000e 	tsteq	r0, lr
     b8c:	0e885c00 	cdpeq	12, 8, cr5, cr8, cr0, {0}
     b90:	0eb00000 	cdpeq	0, 11, cr0, cr0, cr0, {0}
     b94:	00020000 	andeq	r0, r2, r0
     b98:	0eb0077d 	mrceq	7, 5, r0, cr0, cr13, {3}
     b9c:	0ec00000 	cdpeq	0, 12, cr0, cr0, cr0, {0}
     ba0:	00010000 	andeq	r0, r1, r0
     ba4:	000ed45c 	andeq	sp, lr, ip, asr r4
     ba8:	000ef000 	andeq	pc, lr, r0
     bac:	7d000200 	sfmvc	f0, 4, [r0]	; (stcvc 2, cr0, [r0])
     bb0:	00000007 	andeq	r0, r0, r7
     bb4:	00000000 	andeq	r0, r0, r0
     bb8:	00002800 	andeq	r2, r0, r0, lsl #16
     bbc:	00003000 	andeq	r3, r0, r0
     bc0:	50000100 	andpl	r0, r0, r0, lsl #2
     bc4:	0000003c 	andeq	r0, r0, ip, lsr r0
     bc8:	00000048 	andeq	r0, r0, r8, asr #32
     bcc:	00500001 	subseq	r0, r0, r1
     bd0:	00000000 	andeq	r0, r0, r0
     bd4:	48000000 	stmdami	r0, {}
     bd8:	50000000 	andpl	r0, r0, r0
     bdc:	01000000 	tsteq	r0, r0
     be0:	00505d00 	subseq	r5, r0, r0, lsl #26
     be4:	00900000 	addseq	r0, r0, r0
     be8:	00020000 	andeq	r0, r2, r0
     bec:	0000087d 	andeq	r0, r0, sp, ror r8
     bf0:	00000000 	andeq	r0, r0, r0
     bf4:	00480000 	subeq	r0, r8, r0
     bf8:	00640000 	rsbeq	r0, r4, r0
     bfc:	00010000 	andeq	r0, r1, r0
     c00:	00000051 	andeq	r0, r0, r1, asr r0
     c04:	00000000 	andeq	r0, r0, r0
     c08:	00004800 	andeq	r4, r0, r0, lsl #16
     c0c:	00005c00 	andeq	r5, r0, r0, lsl #24
     c10:	52000100 	andpl	r0, r0, #0
	...
     c1c:	00000048 	andeq	r0, r0, r8, asr #32
     c20:	00000068 	andeq	r0, r0, r8, rrx
     c24:	00530001 	subseq	r0, r3, r1
     c28:	00000000 	andeq	r0, r0, r0
     c2c:	6c000000 	stcvs	0, cr0, [r0], {0}
     c30:	84000000 	strhi	r0, [r0]
     c34:	01000000 	tsteq	r0, r0
     c38:	00845200 	addeq	r5, r4, r0, lsl #4
     c3c:	00900000 	addseq	r0, r0, r0
     c40:	00010000 	andeq	r0, r1, r0
     c44:	00000053 	andeq	r0, r0, r3, asr r0
     c48:	00000000 	andeq	r0, r0, r0
     c4c:	0000b800 	andeq	fp, r0, r0, lsl #16
     c50:	0000c000 	andeq	ip, r0, r0
     c54:	50000100 	andpl	r0, r0, r0, lsl #2
     c58:	000000cc 	andeq	r0, r0, ip, asr #1
     c5c:	000000d8 	ldrdeq	r0, [r0], -r8
     c60:	00500001 	subseq	r0, r0, r1
     c64:	00000000 	andeq	r0, r0, r0
     c68:	d8000000 	stmdale	r0, {}
     c6c:	dc000000 	stcle	0, cr0, [r0], {0}
     c70:	01000000 	tsteq	r0, r0
     c74:	00005000 	andeq	r5, r0, r0
     c78:	00000000 	andeq	r0, r0, r0
     c7c:	00d80000 	sbcseq	r0, r8, r0
     c80:	00dc0000 	sbcseq	r0, ip, r0
     c84:	00010000 	andeq	r0, r1, r0
     c88:	00000051 	andeq	r0, r0, r1, asr r0
     c8c:	00000000 	andeq	r0, r0, r0
     c90:	0000d800 	andeq	sp, r0, r0, lsl #16
     c94:	0000dc00 	andeq	sp, r0, r0, lsl #24
     c98:	52000100 	andpl	r0, r0, #0
	...
     ca4:	000000d8 	ldrdeq	r0, [r0], -r8
     ca8:	000000dc 	ldrdeq	r0, [r0], -ip
     cac:	00530001 	subseq	r0, r3, r1
     cb0:	00000000 	andeq	r0, r0, r0
     cb4:	dc000000 	stcle	0, cr0, [r0], {0}
     cb8:	e0000000 	and	r0, r0, r0
     cbc:	01000000 	tsteq	r0, r0
     cc0:	00e05d00 	rsceq	r5, r0, r0, lsl #26
     cc4:	010c0000 	tsteq	ip, r0
     cc8:	00020000 	andeq	r0, r2, r0
     ccc:	0000087d 	andeq	r0, r0, sp, ror r8
     cd0:	00000000 	andeq	r0, r0, r0
     cd4:	00ec0000 	rsceq	r0, ip, r0
     cd8:	00f80000 	rscseq	r0, r8, r0
     cdc:	00010000 	andeq	r0, r1, r0
     ce0:	0000fc53 	andeq	pc, r0, r3, asr ip
     ce4:	00010c00 	andeq	r0, r1, r0, lsl #24
     ce8:	53000100 	movwpl	r0, #256	; 0x100
	...
     cf4:	00000118 	andeq	r0, r0, r8, lsl r1
     cf8:	00000138 	andeq	r0, r0, r8, lsr r1
     cfc:	00520001 	subseq	r0, r2, r1
     d00:	00000000 	andeq	r0, r0, r0
     d04:	4c000000 	stcmi	0, cr0, [r0], {0}
     d08:	6c000001 	stcvs	0, cr0, [r0], {1}
     d0c:	01000001 	tsteq	r0, r1
     d10:	00005200 	andeq	r5, r0, r0, lsl #4
     d14:	00000000 	andeq	r0, r0, r0
     d18:	01780000 	cmneq	r8, r0
     d1c:	017c0000 	cmneq	ip, r0
     d20:	00010000 	andeq	r0, r1, r0
     d24:	00017c5d 	andeq	r7, r1, sp, asr ip
     d28:	0001f000 	andeq	pc, r1, r0
     d2c:	7d000200 	sfmvc	f0, 4, [r0]	; (stcvc 2, cr0, [r0])
     d30:	00000008 	andeq	r0, r0, r8
     d34:	00000000 	andeq	r0, r0, r0
     d38:	00018c00 	andeq	r8, r1, r0, lsl #24
     d3c:	0001b000 	andeq	fp, r1, r0
     d40:	52000100 	andpl	r0, r0, #0
     d44:	000001b4 	undefined instruction 0x000001b4
     d48:	000001c4 	andeq	r0, r0, r4, asr #3
     d4c:	00520001 	subseq	r0, r2, r1
	...
     d58:	20000002 	andcs	r0, r0, r2
     d5c:	01000002 	tsteq	r0, r2
     d60:	00005200 	andeq	r5, r0, r0, lsl #4
     d64:	00000000 	andeq	r0, r0, r0
     d68:	02240000 	eoreq	r0, r4, #0
     d6c:	022c0000 	eoreq	r0, ip, #0
     d70:	00010000 	andeq	r0, r1, r0
     d74:	00022c5d 	andeq	r2, r2, sp, asr ip
     d78:	00029800 	andeq	r9, r2, r0, lsl #16
     d7c:	7d000200 	sfmvc	f0, 4, [r0]	; (stcvc 2, cr0, [r0])
     d80:	00000008 	andeq	r0, r0, r8
     d84:	00000000 	andeq	r0, r0, r0
     d88:	00022800 	andeq	r2, r2, r0, lsl #16
     d8c:	00025400 	andeq	r5, r2, r0, lsl #8
     d90:	53000100 	movwpl	r0, #256	; 0x100
	...
     d9c:	00000260 	andeq	r0, r0, r0, ror #4
     da0:	00000280 	andeq	r0, r0, r0, lsl #5
     da4:	00520001 	subseq	r0, r2, r1
     da8:	00000000 	andeq	r0, r0, r0
     dac:	44000000 	strmi	r0, [r0]
     db0:	54000002 	strpl	r0, [r0], #-2
     db4:	01000002 	tsteq	r0, r2
     db8:	00005100 	andeq	r5, r0, r0, lsl #2
     dbc:	00000000 	andeq	r0, r0, r0
     dc0:	029c0000 	addseq	r0, ip, #0
     dc4:	02a00000 	adceq	r0, r0, #0
     dc8:	00010000 	andeq	r0, r1, r0
     dcc:	0002a05d 	andeq	sl, r2, sp, asr r0
     dd0:	00035800 	andeq	r5, r3, r0, lsl #16
     dd4:	7d000200 	sfmvc	f0, 4, [r0]	; (stcvc 2, cr0, [r0])
     dd8:	00000020 	andeq	r0, r0, r0, lsr #32
     ddc:	00000000 	andeq	r0, r0, r0
     de0:	0002ac00 	andeq	sl, r2, r0, lsl #24
     de4:	0002b000 	andeq	fp, r2, r0
     de8:	54000100 	strpl	r0, [r0], #-256	; 0x100
     dec:	000002c0 	andeq	r0, r0, r0, asr #5
     df0:	00000310 	andeq	r0, r0, r0, lsl r3
     df4:	20540001 	subscs	r0, r4, r1
     df8:	2c000003 	stccs	0, cr0, [r0], {3}
     dfc:	01000003 	tsteq	r0, r3
     e00:	03405400 	movteq	r5, #1024	; 0x400
     e04:	03480000 	movteq	r0, #32768	; 0x8000
     e08:	00010000 	andeq	r0, r1, r0
     e0c:	00000054 	andeq	r0, r0, r4, asr r0
     e10:	00000000 	andeq	r0, r0, r0
     e14:	00035800 	andeq	r5, r3, r0, lsl #16
     e18:	00036000 	andeq	r6, r3, r0
     e1c:	5d000100 	stfpls	f0, [r0]
     e20:	00000360 	andeq	r0, r0, r0, ror #6
     e24:	00000364 	andeq	r0, r0, r4, ror #6
     e28:	247d0002 	ldrbtcs	r0, [sp], #-2
     e2c:	00000364 	andeq	r0, r0, r4, ror #6
     e30:	000004a8 	andeq	r0, r0, r8, lsr #9
     e34:	c87d0003 	ldmdagt	sp!, {r0, r1}^
	...
     e40:	0003b800 	andeq	fp, r3, r0, lsl #16
     e44:	0003dc00 	andeq	sp, r3, r0, lsl #24
     e48:	53000100 	movwpl	r0, #256	; 0x100
     e4c:	0000045c 	andeq	r0, r0, ip, asr r4
     e50:	00000468 	andeq	r0, r0, r8, ror #8
     e54:	00530001 	subseq	r0, r3, r1
     e58:	00000000 	andeq	r0, r0, r0
     e5c:	a4000000 	strge	r0, [r0]
     e60:	cc000003 	stcgt	0, cr0, [r0], {3}
     e64:	01000003 	tsteq	r0, r3
     e68:	00005200 	andeq	r5, r0, r0, lsl #4
     e6c:	00000000 	andeq	r0, r0, r0
     e70:	03b40000 	undefined instruction 0x03b40000
     e74:	03b80000 	undefined instruction 0x03b80000
     e78:	00010000 	andeq	r0, r1, r0
     e7c:	00000053 	andeq	r0, r0, r3, asr r0
     e80:	00000000 	andeq	r0, r0, r0
     e84:	0000f400 	andeq	pc, r0, r0, lsl #8
     e88:	00011000 	andeq	r1, r1, r0
     e8c:	52000100 	andpl	r0, r0, #0
     e90:	00000110 	andeq	r0, r0, r0, lsl r1
     e94:	00000114 	andeq	r0, r0, r4, lsl r1
     e98:	00500001 	subseq	r0, r0, r1
     e9c:	00000000 	andeq	r0, r0, r0
     ea0:	80000000 	andhi	r0, r0, r0
     ea4:	d8000001 	stmdale	r0, {r0}
     ea8:	01000001 	tsteq	r0, r1
     eac:	00005300 	andeq	r5, r0, r0, lsl #6
     eb0:	00000000 	andeq	r0, r0, r0
     eb4:	018c0000 	orreq	r0, ip, r0
     eb8:	01e40000 	mvneq	r0, r0
     ebc:	00010000 	andeq	r0, r1, r0
     ec0:	00000050 	andeq	r0, r0, r0, asr r0
     ec4:	00000000 	andeq	r0, r0, r0
     ec8:	00018400 	andeq	r8, r1, r0, lsl #8
     ecc:	00018c00 	andeq	r8, r1, r0, lsl #24
     ed0:	50000100 	andpl	r0, r0, r0, lsl #2
     ed4:	00000194 	muleq	r0, r4, r1
     ed8:	00000198 	muleq	r0, r8, r1
     edc:	a0500001 	subsge	r0, r0, r1
     ee0:	a4000001 	strge	r0, [r0], #-1
     ee4:	01000001 	tsteq	r0, r1
     ee8:	01ac5000 	undefined instruction 0x01ac5000
     eec:	01b00000 	movseq	r0, r0
     ef0:	00010000 	andeq	r0, r1, r0
     ef4:	0001b850 	andeq	fp, r1, r0, asr r8
     ef8:	0001bc00 	andeq	fp, r1, r0, lsl #24
     efc:	50000100 	andpl	r0, r0, r0, lsl #2
	...
     f08:	00000260 	andeq	r0, r0, r0, ror #4
     f0c:	0000027c 	andeq	r0, r0, ip, ror r2
     f10:	7c520001 	mrrcvc	0, 0, r0, r2, cr1
     f14:	80000002 	andhi	r0, r0, r2
     f18:	01000002 	tsteq	r0, r2
     f1c:	00005000 	andeq	r5, r0, r0
     f20:	00000000 	andeq	r0, r0, r0
     f24:	028c0000 	addeq	r0, ip, #0
     f28:	02980000 	addseq	r0, r8, #0
     f2c:	00010000 	andeq	r0, r1, r0
     f30:	00000050 	andeq	r0, r0, r0, asr r0
     f34:	00000000 	andeq	r0, r0, r0
     f38:	00029c00 	andeq	r9, r2, r0, lsl #24
     f3c:	0002a800 	andeq	sl, r2, r0, lsl #16
     f40:	5d000100 	stfpls	f0, [r0]
     f44:	000002a8 	andeq	r0, r0, r8, lsr #5
     f48:	000003a8 	andeq	r0, r0, r8, lsr #7
     f4c:	287d0002 	ldmdacs	sp!, {r1}^
	...
     f58:	0000029c 	muleq	r0, ip, r2
     f5c:	000002a8 	andeq	r0, r0, r8, lsr #5
     f60:	d0500001 	subsle	r0, r0, r1
     f64:	44000002 	strmi	r0, [r0], #-2
     f68:	01000003 	tsteq	r0, r3
     f6c:	00005000 	andeq	r5, r0, r0
     f70:	00000000 	andeq	r0, r0, r0
     f74:	02b00000 	adcseq	r0, r0, #0
     f78:	03300000 	teqeq	r0, #0
     f7c:	00010000 	andeq	r0, r1, r0
     f80:	0003305c 	andeq	r3, r3, ip, asr r0
     f84:	00033800 	andeq	r3, r3, r0, lsl #16
     f88:	51000100 	tstpl	r0, r0, lsl #2
     f8c:	00000338 	andeq	r0, r0, r8, lsr r3
     f90:	00000360 	andeq	r0, r0, r0, ror #6
     f94:	64530001 	ldrbvs	r0, [r3], #-1
     f98:	74000003 	strvc	r0, [r0], #-3
     f9c:	01000003 	tsteq	r0, r3
     fa0:	037c5300 	cmneq	ip, #0
     fa4:	03a80000 	undefined instruction 0x03a80000
     fa8:	00010000 	andeq	r0, r1, r0
     fac:	00000055 	andeq	r0, r0, r5, asr r0
     fb0:	00000000 	andeq	r0, r0, r0
     fb4:	0002b400 	andeq	fp, r2, r0, lsl #8
     fb8:	00033c00 	andeq	r3, r3, r0, lsl #24
     fbc:	54000600 	strpl	r0, [r0], #-1536	; 0x600
     fc0:	93550493 	cmpls	r5, #-1828716544	; 0x93000000
     fc4:	00000004 	andeq	r0, r0, r4
     fc8:	00000000 	andeq	r0, r0, r0
     fcc:	0002d800 	andeq	sp, r2, r0, lsl #16
     fd0:	0002f800 	andeq	pc, r2, r0, lsl #16
     fd4:	52000600 	andpl	r0, r0, #0
     fd8:	93530493 	cmpls	r3, #-1828716544	; 0x93000000
     fdc:	00030c04 	andeq	r0, r3, r4, lsl #24
     fe0:	00033400 	andeq	r3, r3, r0, lsl #8
     fe4:	52000600 	andpl	r0, r0, #0
     fe8:	93530493 	cmpls	r3, #-1828716544	; 0x93000000
     fec:	00000004 	andeq	r0, r0, r4
     ff0:	00000000 	andeq	r0, r0, r0
     ff4:	0002a400 	andeq	sl, r2, r0, lsl #8
     ff8:	00033000 	andeq	r3, r3, r0
     ffc:	51000100 	tstpl	r0, r0, lsl #2
	...
    1008:	000003a8 	andeq	r0, r0, r8, lsr #7
    100c:	000003ac 	andeq	r0, r0, ip, lsr #7
    1010:	00500001 	subseq	r0, r0, r1
    1014:	00000000 	andeq	r0, r0, r0
    1018:	ac000000 	stcge	0, cr0, [r0], {0}
    101c:	b8000003 	stmdalt	r0, {r0, r1}
    1020:	01000003 	tsteq	r0, r3
    1024:	03b85d00 	undefined instruction 0x03b85d00
    1028:	046c0000 	strbteq	r0, [ip]
    102c:	00020000 	andeq	r0, r2, r0
    1030:	0000087d 	andeq	r0, r0, sp, ror r8
    1034:	00000000 	andeq	r0, r0, r0
    1038:	03b40000 	undefined instruction 0x03b40000
    103c:	03fc0000 	mvnseq	r0, #0
    1040:	00010000 	andeq	r0, r1, r0
    1044:	00040053 	andeq	r0, r4, r3, asr r0
    1048:	00042c00 	andeq	r2, r4, r0, lsl #24
    104c:	53000100 	movwpl	r0, #256	; 0x100
    1050:	00000430 	andeq	r0, r0, r0, lsr r4
    1054:	00000464 	andeq	r0, r0, r4, ror #8
    1058:	00530001 	subseq	r0, r3, r1
    105c:	00000000 	andeq	r0, r0, r0
    1060:	bc000000 	stclt	0, cr0, [r0], {0}
    1064:	c0000003 	andgt	r0, r0, r3
    1068:	01000003 	tsteq	r0, r3
    106c:	00005400 	andeq	r5, r0, r0, lsl #8
    1070:	00000000 	andeq	r0, r0, r0
    1074:	046c0000 	strbteq	r0, [ip]
    1078:	04700000 	ldrbteq	r0, [r0]
    107c:	00010000 	andeq	r0, r1, r0
    1080:	0004705d 	andeq	r7, r4, sp, asr r0
    1084:	0004c000 	andeq	ip, r4, r0
    1088:	7d000200 	sfmvc	f0, 4, [r0]	; (stcvc 2, cr0, [r0])
    108c:	00000008 	andeq	r0, r0, r8
    1090:	00000000 	andeq	r0, r0, r0
    1094:	0004c000 	andeq	ip, r4, r0
    1098:	0004c400 	andeq	ip, r4, r0, lsl #8
    109c:	5d000100 	stfpls	f0, [r0]
    10a0:	000004c4 	andeq	r0, r0, r4, asr #9
    10a4:	000004f0 	strdeq	r0, [r0], -r0
    10a8:	087d0002 	ldmdaeq	sp!, {r1}^
	...
    10b4:	000004d0 	ldrdeq	r0, [r0], -r0
    10b8:	000004dc 	ldrdeq	r0, [r0], -ip
    10bc:	e0530001 	subs	r0, r3, r1
    10c0:	f0000004 	undefined instruction 0xf0000004
    10c4:	01000004 	tsteq	r0, r4
    10c8:	00005300 	andeq	r5, r0, r0, lsl #6
    10cc:	00000000 	andeq	r0, r0, r0
    10d0:	04f00000 	ldrbteq	r0, [r0]
    10d4:	04f40000 	ldrbteq	r0, [r4]
    10d8:	00010000 	andeq	r0, r1, r0
    10dc:	0004f45d 	andeq	pc, r4, sp, asr r4
    10e0:	00074c00 	andeq	r4, r7, r0, lsl #24
    10e4:	7d000200 	sfmvc	f0, 4, [r0]	; (stcvc 2, cr0, [r0])
    10e8:	00000018 	andeq	r0, r0, r8, lsl r0
    10ec:	00000000 	andeq	r0, r0, r0
    10f0:	0004f000 	andeq	pc, r4, r0
    10f4:	0004fc00 	andeq	pc, r4, r0, lsl #24
    10f8:	50000100 	andpl	r0, r0, r0, lsl #2
    10fc:	000004fc 	strdeq	r0, [r0], -ip
    1100:	0000074c 	andeq	r0, r0, ip, asr #14
    1104:	00540001 	subseq	r0, r4, r1
    1108:	00000000 	andeq	r0, r0, r0
    110c:	6c000000 	stcvs	0, cr0, [r0], {0}
    1110:	cc000005 	stcgt	0, cr0, [r0], {5}
    1114:	01000005 	tsteq	r0, r5
    1118:	05cc5300 	strbeq	r5, [ip, #768]	; 0x300
    111c:	05d40000 	ldrbeq	r0, [r4]
    1120:	00010000 	andeq	r0, r1, r0
    1124:	0005d452 	andeq	sp, r5, r2, asr r4
    1128:	0005dc00 	andeq	sp, r5, r0, lsl #24
    112c:	53000100 	movwpl	r0, #256	; 0x100
    1130:	000005e4 	andeq	r0, r0, r4, ror #11
    1134:	000005ec 	andeq	r0, r0, ip, ror #11
    1138:	ec520001 	mrrc	0, 0, r0, r2, cr1
    113c:	68000005 	stmdavs	r0, {r0, r2}
    1140:	01000006 	tsteq	r0, r6
    1144:	06745500 	ldrbteq	r5, [r4], -r0, lsl #10
    1148:	06800000 	streq	r0, [r0], r0
    114c:	00010000 	andeq	r0, r1, r0
    1150:	00068855 	andeq	r8, r6, r5, asr r8
    1154:	0006b400 	andeq	fp, r6, r0, lsl #8
    1158:	55000100 	strpl	r0, [r0, #-256]	; 0x100
    115c:	000006b4 	undefined instruction 0x000006b4
    1160:	000006d0 	ldrdeq	r0, [r0], -r0
    1164:	00520001 	subseq	r0, r2, r1
    1168:	00000000 	andeq	r0, r0, r0
    116c:	1c000000 	stcne	0, cr0, [r0], {0}
    1170:	30000005 	andcc	r0, r0, r5
    1174:	01000005 	tsteq	r0, r5
    1178:	00005300 	andeq	r5, r0, r0, lsl #6
    117c:	00000000 	andeq	r0, r0, r0
    1180:	05300000 	ldreq	r0, [r0]!
    1184:	053c0000 	ldreq	r0, [ip]!
    1188:	00010000 	andeq	r0, r1, r0
    118c:	00000053 	andeq	r0, r0, r3, asr r0
    1190:	00000000 	andeq	r0, r0, r0
    1194:	00053c00 	andeq	r3, r5, r0, lsl #24
    1198:	00054800 	andeq	r4, r5, r0, lsl #16
    119c:	53000100 	movwpl	r0, #256	; 0x100
	...
    11a8:	000005f8 	strdeq	r0, [r0], -r8
    11ac:	00000604 	andeq	r0, r0, r4, lsl #12
    11b0:	00530001 	subseq	r0, r3, r1
    11b4:	00000000 	andeq	r0, r0, r0
    11b8:	3c000000 	stccc	0, cr0, [r0], {0}
    11bc:	48000006 	stmdami	r0, {r1, r2}
    11c0:	01000006 	tsteq	r0, r6
    11c4:	00005300 	andeq	r5, r0, r0, lsl #6
    11c8:	00000000 	andeq	r0, r0, r0
    11cc:	06e00000 	strbteq	r0, [r0], r0
    11d0:	06f00000 	ldrbteq	r0, [r0], r0
    11d4:	00010000 	andeq	r0, r1, r0
    11d8:	00000052 	andeq	r0, r0, r2, asr r0
    11dc:	00000000 	andeq	r0, r0, r0
    11e0:	0006f000 	andeq	pc, r6, r0
    11e4:	00070c00 	andeq	r0, r7, r0, lsl #24
    11e8:	52000100 	andpl	r0, r0, #0
    11ec:	0000070c 	andeq	r0, r0, ip, lsl #14
    11f0:	00000710 	andeq	r0, r0, r0, lsl r7
    11f4:	00530001 	subseq	r0, r3, r1
    11f8:	00000000 	andeq	r0, r0, r0
    11fc:	20000000 	andcs	r0, r0, r0
    1200:	40000007 	andmi	r0, r0, r7
    1204:	01000007 	tsteq	r0, r7
    1208:	00005300 	andeq	r5, r0, r0, lsl #6
    120c:	00000000 	andeq	r0, r0, r0
    1210:	074c0000 	strbeq	r0, [ip, -r0]
    1214:	07500000 	ldrbeq	r0, [r0, -r0]
    1218:	00010000 	andeq	r0, r1, r0
    121c:	0007505d 	andeq	r5, r7, sp, asr r0
    1220:	00075400 	andeq	r5, r7, r0, lsl #8
    1224:	7d000200 	sfmvc	f0, 4, [r0]	; (stcvc 2, cr0, [r0])
    1228:	0007541c 	andeq	r5, r7, ip, lsl r4
    122c:	00083800 	andeq	r3, r8, r0, lsl #16
    1230:	7d000300 	stcvc	3, cr0, [r0]
    1234:	000000f0 	strdeq	r0, [r0], -r0
    1238:	00000000 	andeq	r0, r0, r0
    123c:	078c0000 	streq	r0, [ip, r0]
    1240:	07f40000 	ldrbeq	r0, [r4, r0]!
    1244:	00060000 	andeq	r0, r6, r0
    1248:	55049354 	strpl	r9, [r4, #-852]	; 0x354
    124c:	00000493 	muleq	r0, r3, r4
    1250:	00000000 	andeq	r0, r0, r0
    1254:	07740000 	ldrbeq	r0, [r4, -r0]!
    1258:	07f80000 	ldrbeq	r0, [r8, r0]!
    125c:	00060000 	andeq	r0, r6, r0
    1260:	53049352 	movwpl	r9, #17234	; 0x4352
    1264:	00000493 	muleq	r0, r3, r4
    1268:	00000000 	andeq	r0, r0, r0
    126c:	07940000 	ldreq	r0, [r4, r0]
    1270:	07b40000 	ldreq	r0, [r4, r0]!
    1274:	00060000 	andeq	r0, r6, r0
    1278:	51049350 	tstpl	r4, r0, asr r3
    127c:	07c80493 	bfieq	r0, r3, (invalid: 9:8)
    1280:	07f00000 	ldrbeq	r0, [r0, r0]!
    1284:	00060000 	andeq	r0, r6, r0
    1288:	51049350 	tstpl	r4, r0, asr r3
    128c:	00000493 	muleq	r0, r3, r4
    1290:	00000000 	andeq	r0, r0, r0
    1294:	07700000 	ldrbeq	r0, [r0, -r0]!
    1298:	07f80000 	ldrbeq	r0, [r8, r0]!
    129c:	00010000 	andeq	r0, r1, r0
    12a0:	0000005c 	andeq	r0, r0, ip, asr r0
	...
    12ac:	00000400 	andeq	r0, r0, r0, lsl #8
    12b0:	5d000100 	stfpls	f0, [r0]
    12b4:	00000004 	andeq	r0, r0, r4
    12b8:	00000020 	andeq	r0, r0, r0, lsr #32
    12bc:	087d0002 	ldmdaeq	sp!, {r1}^
	...
    12c8:	0000000c 	andeq	r0, r0, ip
    12cc:	00000018 	andeq	r0, r0, r8, lsl r0
    12d0:	047d0002 	ldrbteq	r0, [sp], #-2
    12d4:	00000018 	andeq	r0, r0, r8, lsl r0
    12d8:	00000020 	andeq	r0, r0, r0, lsr #32
    12dc:	74910002 	ldrvc	r0, [r1], #2
	...
    12e8:	00000020 	andeq	r0, r0, r0, lsr #32
    12ec:	00000024 	andeq	r0, r0, r4, lsr #32
    12f0:	245d0001 	ldrbcs	r0, [sp], #-1
    12f4:	40000000 	andmi	r0, r0, r0
    12f8:	02000000 	andeq	r0, r0, #0
    12fc:	00087d00 	andeq	r7, r8, r0, lsl #26
    1300:	00000000 	andeq	r0, r0, r0
    1304:	2c000000 	stccs	0, cr0, [r0], {0}
    1308:	38000000 	stmdacc	r0, {}
    130c:	02000000 	andeq	r0, r0, #0
    1310:	38047d00 	stmdacc	r4, {r8, sl, fp, ip, sp, lr}
    1314:	40000000 	andmi	r0, r0, r0
    1318:	02000000 	andeq	r0, r0, #0
    131c:	00749100 	rsbseq	r9, r4, r0, lsl #2
    1320:	00000000 	andeq	r0, r0, r0
    1324:	58000000 	stmdapl	r0, {}
    1328:	5c000000 	stcpl	0, cr0, [r0], {0}
    132c:	01000000 	tsteq	r0, r0
    1330:	005c5d00 	subseq	r5, ip, r0, lsl #26
    1334:	00680000 	rsbeq	r0, r8, r0
    1338:	00020000 	andeq	r0, r2, r0
    133c:	0000087d 	andeq	r0, r0, sp, ror r8
    1340:	00000000 	andeq	r0, r0, r0
    1344:	00780000 	rsbseq	r0, r8, r0
    1348:	007c0000 	rsbseq	r0, ip, r0
    134c:	00010000 	andeq	r0, r1, r0
    1350:	00007c5d 	andeq	r7, r0, sp, asr ip
    1354:	00008800 	andeq	r8, r0, r0, lsl #16
    1358:	7d000200 	sfmvc	f0, 4, [r0]	; (stcvc 2, cr0, [r0])
    135c:	00000008 	andeq	r0, r0, r8
    1360:	00000000 	andeq	r0, r0, r0
    1364:	00008800 	andeq	r8, r0, r0, lsl #16
    1368:	00008c00 	andeq	r8, r0, r0, lsl #24
    136c:	5d000100 	stfpls	f0, [r0]
    1370:	0000008c 	andeq	r0, r0, ip, lsl #1
    1374:	000000ac 	andeq	r0, r0, ip, lsr #1
    1378:	087d0002 	ldmdaeq	sp!, {r1}^
	...
    1384:	00000088 	andeq	r0, r0, r8, lsl #1
    1388:	00000098 	muleq	r0, r8, r0
    138c:	98500001 	ldmdals	r0, {r0}^
    1390:	ac000000 	stcge	0, cr0, [r0], {0}
    1394:	02000000 	andeq	r0, r0, #0
    1398:	00047d00 	andeq	r7, r4, r0, lsl #26
    139c:	00000000 	andeq	r0, r0, r0
    13a0:	98000000 	stmdals	r0, {}
    13a4:	a0000000 	andge	r0, r0, r0
    13a8:	01000000 	tsteq	r0, r0
    13ac:	00005000 	andeq	r5, r0, r0
    13b0:	00000000 	andeq	r0, r0, r0
    13b4:	00ac0000 	adceq	r0, ip, r0
    13b8:	00b00000 	adcseq	r0, r0, r0
    13bc:	00010000 	andeq	r0, r1, r0
    13c0:	0000b05d 	andeq	fp, r0, sp, asr r0
    13c4:	0000d000 	andeq	sp, r0, r0
    13c8:	7d000200 	sfmvc	f0, 4, [r0]	; (stcvc 2, cr0, [r0])
    13cc:	00000008 	andeq	r0, r0, r8
    13d0:	00000000 	andeq	r0, r0, r0
    13d4:	0000ac00 	andeq	sl, r0, r0, lsl #24
    13d8:	0000bc00 	andeq	fp, r0, r0, lsl #24
    13dc:	50000100 	andpl	r0, r0, r0, lsl #2
    13e0:	000000bc 	strheq	r0, [r0], -ip
    13e4:	000000d0 	ldrdeq	r0, [r0], -r0
    13e8:	047d0002 	ldrbteq	r0, [sp], #-2
	...
    13f4:	000000bc 	strheq	r0, [r0], -ip
    13f8:	000000c4 	andeq	r0, r0, r4, asr #1
    13fc:	00500001 	subseq	r0, r0, r1
    1400:	00000000 	andeq	r0, r0, r0
    1404:	d4000000 	strle	r0, [r0]
    1408:	d4000000 	strle	r0, [r0]
    140c:	01000000 	tsteq	r0, r0
    1410:	00005000 	andeq	r5, r0, r0
    1414:	00000000 	andeq	r0, r0, r0
    1418:	00f40000 	rscseq	r0, r4, r0
    141c:	00fc0000 	rscseq	r0, ip, r0
    1420:	00010000 	andeq	r0, r1, r0
    1424:	00000050 	andeq	r0, r0, r0, asr r0
    1428:	00000000 	andeq	r0, r0, r0
    142c:	0000fc00 	andeq	pc, r0, r0, lsl #24
    1430:	00010c00 	andeq	r0, r1, r0, lsl #24
    1434:	50000100 	andpl	r0, r0, r0, lsl #2
	...
    1440:	00000154 	andeq	r0, r0, r4, asr r1
    1444:	00000158 	andeq	r0, r0, r8, asr r1
    1448:	585d0001 	ldmdapl	sp, {r0}^
    144c:	78000001 	stmdavc	r0, {r0}
    1450:	02000002 	andeq	r0, r0, #2
    1454:	00107d00 	andseq	r7, r0, r0, lsl #26
    1458:	00000000 	andeq	r0, r0, r0
    145c:	54000000 	strpl	r0, [r0]
    1460:	58000001 	stmdapl	r0, {r0}
    1464:	01000001 	tsteq	r0, r1
    1468:	01645000 	cmneq	r4, r0
    146c:	01780000 	cmneq	r8, r0
    1470:	00010000 	andeq	r0, r1, r0
    1474:	00000050 	andeq	r0, r0, r0, asr r0
    1478:	00000000 	andeq	r0, r0, r0
    147c:	00017400 	andeq	r7, r1, r0, lsl #8
    1480:	00018000 	andeq	r8, r1, r0
    1484:	51000100 	tstpl	r0, r0, lsl #2
	...
    1490:	00000170 	andeq	r0, r0, r0, ror r1
    1494:	000001dc 	ldrdeq	r0, [r0], -ip
    1498:	68520001 	ldmdavs	r2, {r0}^
    149c:	78000002 	stmdavc	r0, {r1}
    14a0:	01000002 	tsteq	r0, r2
    14a4:	00005200 	andeq	r5, r0, r0, lsl #4
    14a8:	00000000 	andeq	r0, r0, r0
    14ac:	01680000 	cmneq	r8, r0
    14b0:	01940000 	orrseq	r0, r4, r0
    14b4:	00020000 	andeq	r0, r2, r0
    14b8:	0194047d 	orrseq	r0, r4, sp, ror r4
    14bc:	019c0000 	orrseq	r0, ip, r0
    14c0:	00010000 	andeq	r0, r1, r0
    14c4:	00019c51 	andeq	r9, r1, r1, asr ip
    14c8:	0001a000 	andeq	sl, r1, r0
    14cc:	91000200 	tstls	r0, r0, lsl #4
    14d0:	0001a06c 	andeq	sl, r1, ip, rrx
    14d4:	0001a800 	andeq	sl, r1, r0, lsl #16
    14d8:	51000100 	tstpl	r0, r0, lsl #2
    14dc:	000001a8 	andeq	r0, r0, r8, lsr #3
    14e0:	000001e4 	andeq	r0, r0, r4, ror #3
    14e4:	6c910002 	ldcvs	0, cr0, [r1], {2}
    14e8:	000001e4 	andeq	r0, r0, r4, ror #3
    14ec:	00000210 	andeq	r0, r0, r0, lsl r2
    14f0:	047d0002 	ldrbteq	r0, [sp], #-2
    14f4:	00000210 	andeq	r0, r0, r0, lsl r2
    14f8:	00000278 	andeq	r0, r0, r8, ror r2
    14fc:	6c910002 	ldcvs	0, cr0, [r1], {2}
	...
    1508:	00000178 	andeq	r0, r0, r8, ror r1
    150c:	000001f0 	strdeq	r0, [r0], -r0
    1510:	68500001 	ldmdavs	r0, {r0}^
    1514:	78000002 	stmdavc	r0, {r1}
    1518:	01000002 	tsteq	r0, r2
    151c:	00005000 	andeq	r5, r0, r0
    1520:	00000000 	andeq	r0, r0, r0
    1524:	020c0000 	andeq	r0, ip, #0
    1528:	02480000 	subeq	r0, r8, #0
    152c:	00010000 	andeq	r0, r1, r0
    1530:	00024851 	andeq	r4, r2, r1, asr r8
    1534:	00025000 	andeq	r5, r2, r0
    1538:	5c000100 	stfpls	f0, [r0], {0}
    153c:	00000250 	andeq	r0, r0, r0, asr r2
    1540:	00000278 	andeq	r0, r0, r8, ror r2
    1544:	00510001 	subseq	r0, r1, r1
    1548:	00000000 	andeq	r0, r0, r0
    154c:	14000000 	strne	r0, [r0]
    1550:	64000002 	strvs	r0, [r0], #-2
    1554:	01000002 	tsteq	r0, r2
    1558:	00005300 	andeq	r5, r0, r0, lsl #6
    155c:	00000000 	andeq	r0, r0, r0
    1560:	02780000 	rsbseq	r0, r8, #0
    1564:	02800000 	addeq	r0, r0, #0
    1568:	00010000 	andeq	r0, r1, r0
    156c:	0002805d 	andeq	r8, r2, sp, asr r0
    1570:	0002fc00 	andeq	pc, r2, r0, lsl #24
    1574:	7d000200 	sfmvc	f0, 4, [r0]	; (stcvc 2, cr0, [r0])
    1578:	00000008 	andeq	r0, r0, r8
    157c:	00000000 	andeq	r0, r0, r0
    1580:	0002cc00 	andeq	ip, r2, r0, lsl #24
    1584:	0002e400 	andeq	lr, r2, r0, lsl #8
    1588:	53000100 	movwpl	r0, #256	; 0x100
    158c:	000002e8 	andeq	r0, r0, r8, ror #5
    1590:	000002ec 	andeq	r0, r0, ip, ror #5
    1594:	00530001 	subseq	r0, r3, r1
    1598:	00000000 	andeq	r0, r0, r0
    159c:	94000000 	strls	r0, [r0]
    15a0:	cc000002 	stcgt	0, cr0, [r0], {2}
    15a4:	01000002 	tsteq	r0, r2
    15a8:	00005300 	andeq	r5, r0, r0, lsl #6
    15ac:	00000000 	andeq	r0, r0, r0
    15b0:	02a80000 	adceq	r0, r8, #0
    15b4:	02b00000 	adcseq	r0, r0, #0
    15b8:	00010000 	andeq	r0, r1, r0
    15bc:	0002b051 	andeq	fp, r2, r1, asr r0
    15c0:	0002b800 	andeq	fp, r2, r0, lsl #16
    15c4:	54000100 	strpl	r0, [r0], #-256	; 0x100
    15c8:	000002b8 	undefined instruction 0x000002b8
    15cc:	000002d4 	ldrdeq	r0, [r0], -r4
    15d0:	d4510001 	ldrble	r0, [r1], #-1
    15d4:	fc000002 	stc2	0, cr0, [r0], {2}
    15d8:	01000002 	tsteq	r0, r2
    15dc:	00005400 	andeq	r5, r0, r0, lsl #8
    15e0:	00000000 	andeq	r0, r0, r0
    15e4:	02900000 	addseq	r0, r0, #0
    15e8:	02d00000 	sbcseq	r0, r0, #0
    15ec:	00010000 	andeq	r0, r1, r0
    15f0:	00000052 	andeq	r0, r0, r2, asr r0
    15f4:	00000000 	andeq	r0, r0, r0
    15f8:	0002fc00 	andeq	pc, r2, r0, lsl #24
    15fc:	00030400 	andeq	r0, r3, r0, lsl #8
    1600:	50000100 	andpl	r0, r0, r0, lsl #2
	...
    160c:	00000350 	andeq	r0, r0, r0, asr r3
    1610:	00000354 	andeq	r0, r0, r4, asr r3
    1614:	545d0001 	ldrbpl	r0, [sp], #-1
    1618:	84000003 	strhi	r0, [r0], #-3
    161c:	02000003 	andeq	r0, r0, #3
    1620:	00107d00 	andseq	r7, r0, r0, lsl #26
    1624:	00000000 	andeq	r0, r0, r0
    1628:	50000000 	andpl	r0, r0, r0
    162c:	68000003 	stmdavs	r0, {r0, r1}
    1630:	01000003 	tsteq	r0, r3
    1634:	00005000 	andeq	r5, r0, r0
    1638:	00000000 	andeq	r0, r0, r0
    163c:	03600000 	cmneq	r0, #0
    1640:	03780000 	cmneq	r8, #0
    1644:	00010000 	andeq	r0, r1, r0
    1648:	00037856 	andeq	r7, r3, r6, asr r8
    164c:	00038400 	andeq	r8, r3, r0, lsl #8
    1650:	55000100 	strpl	r0, [r0, #-256]	; 0x100
	...

Disassembly of section .debug_pubnames:

00000000 <.debug_pubnames>:
   0:	00000017 	andeq	r0, r0, r7, lsl r0
   4:	00000002 	andeq	r0, r0, r2
   8:	06630000 	strbteq	r0, [r3], -r0
   c:	05940000 	ldreq	r0, [r4]
  10:	616d0000 	cmnvs	sp, r0
  14:	00006e69 	andeq	r6, r0, r9, ror #28
  18:	1d000000 	stcne	0, cr0, [r0]
  1c:	02000000 	andeq	r0, r0, #0
  20:	00066300 	andeq	r6, r6, r0, lsl #6
  24:	0000c300 	andeq	ip, r0, r0, lsl #6
  28:	00006200 	andeq	r6, r0, r0, lsl #4
  2c:	6d656d00 	stclvs	13, cr6, [r5]
  30:	6d656d5f 	stclvs	13, cr6, [r5, #-380]!	; 0xfffffe84
  34:	00797063 	rsbseq	r7, r9, r3, rrx
  38:	00000000 	andeq	r0, r0, r0
  3c:	00000055 	andeq	r0, r0, r5, asr r0
  40:	07970002 	ldreq	r0, [r7, r2]
  44:	03500000 	cmpeq	r0, #0
  48:	023e0000 	eorseq	r0, lr, #0
  4c:	656d0000 	strbvs	r0, [sp]!
  50:	6e695f6d 	cdpvs	15, 6, cr5, cr9, cr13, {3}
  54:	6e695f74 	mcrvs	15, 3, r5, cr9, cr4, {3}
  58:	57007469 	strpl	r7, [r0, -r9, ror #8]
  5c:	6d000002 	stcvs	0, cr0, [r0, #-8]
  60:	695f6d65 	ldmdbvs	pc, {r0, r2, r5, r6, r8, sl, fp, sp, lr}^
  64:	655f746e 	ldrbvs	r7, [pc, #-1134]	; fffffbfe <__bss_end+0xffffb976>
  68:	00746978 	rsbseq	r6, r4, r8, ror r9
  6c:	0000026e 	andeq	r0, r0, lr, ror #4
  70:	5f6d656d 	svcpl	0x006d656d
  74:	62616e65 	rsbvs	r6, r1, #1616	; 0x650
  78:	695f656c 	ldmdbvs	pc, {r2, r3, r5, r6, r8, sl, sp, lr}^
  7c:	b500746e 	strlt	r7, [r0, #-1134]	; 0x46e
  80:	6d000002 	stcvs	0, cr0, [r0, #-8]
  84:	715f6d65 	cmpvc	pc, r5, ror #26
  88:	79726575 	ldmdbvc	r2!, {r0, r2, r4, r5, r6, r8, sl, sp, lr}^
  8c:	746e695f 	strbtvc	r6, [lr], #-2399	; 0x95f
  90:	00000000 	andeq	r0, r0, r0
  94:	00003c00 	andeq	r3, r0, r0, lsl #24
  98:	e7000200 	str	r0, [r0, -r0, lsl #4]
  9c:	0a00000a 	beq	cc <__suspend_start+0xcc>
  a0:	7f000004 	svcvc	0x00000004
  a4:	6d000003 	stcvs	0, cr0, [r0, #-12]
  a8:	745f6d65 	ldrbvc	r6, [pc], #3429	; b0 <__suspend_start+0xb0>
  ac:	695f726d 	ldmdbvs	pc, {r0, r2, r3, r5, r6, r9, ip, sp, lr}^
  b0:	0074696e 	rsbseq	r6, r4, lr, ror #18
  b4:	00000392 	muleq	r0, r2, r3
  b8:	5f6d656d 	svcpl	0x006d656d
  bc:	5f726d74 	svcpl	0x00726d74
  c0:	61736964 	cmnvs	r3, r4, ror #18
  c4:	5f656c62 	svcpl	0x00656c62
  c8:	63746177 	cmnvs	r4, #-1073741795	; 0xc000001d
  cc:	676f6468 	strbvs	r6, [pc, -r8, ror #8]!
  d0:	00000000 	andeq	r0, r0, r0
  d4:	0000d200 	andeq	sp, r0, r0, lsl #4
  d8:	f1000200 	undefined instruction 0xf1000200
  dc:	8000000e 	andhi	r0, r0, lr
  e0:	34000020 	strcc	r0, [r0], #-32
  e4:	6d00001f 	stcvs	0, cr0, [r0, #-124]	; 0xffffff84
  e8:	635f6d65 	cmpvs	pc, #6464	; 0x1940
  ec:	695f6b6c 	ldmdbvs	pc, {r2, r3, r5, r6, r8, r9, fp, sp, lr}^
  f0:	0074696e 	rsbseq	r6, r4, lr, ror #18
  f4:	00001f4b 	andeq	r1, r0, fp, asr #30
  f8:	5f6d656d 	svcpl	0x006d656d
  fc:	5f6b6c63 	svcpl	0x006b6c63
 100:	646c6c70 	strbtvs	r6, [ip], #-3184	; 0xc70
 104:	62617369 	rsbvs	r7, r1, #-1543503871	; 0xa4000001
 108:	6200656c 	andvs	r6, r0, #452984832	; 0x1b000000
 10c:	6d00001f 	stcvs	0, cr0, [r0, #-124]	; 0xffffff84
 110:	635f6d65 	cmpvs	pc, #6464	; 0x1940
 114:	705f6b6c 	subsvc	r6, pc, ip, ror #22
 118:	6e656c6c 	cdpvs	12, 6, cr6, cr5, cr12, {3}
 11c:	656c6261 	strbvs	r6, [ip, #-609]!	; 0x261
 120:	001f7900 	andseq	r7, pc, r0, lsl #18
 124:	6d656d00 	stclvs	13, cr6, [r5]
 128:	6b6c635f 	blvs	1b18eac <__bss_end+0x1b14c24>
 12c:	7465735f 	strbtvc	r7, [r5], #-863	; 0x35f
 130:	00766964 	rsbseq	r6, r6, r4, ror #18
 134:	00001faa 	andeq	r1, r0, sl, lsr #31
 138:	5f6d656d 	svcpl	0x006d656d
 13c:	5f6b6c63 	svcpl	0x006b6c63
 140:	64746567 	ldrbtvs	r6, [r4], #-1383	; 0x567
 144:	d5007669 	strle	r7, [r0, #-1641]	; 0x669
 148:	6d00001f 	stcvs	0, cr0, [r0, #-124]	; 0xffffff84
 14c:	635f6d65 	cmpvs	pc, #6464	; 0x1940
 150:	735f6b6c 	cmpvc	pc, #110592	; 0x1b000
 154:	705f7465 	subsvc	r7, pc, r5, ror #8
 158:	665f6c6c 	ldrbvs	r6, [pc], -ip, ror #24
 15c:	6f746361 	svcvs	0x00746361
 160:	20060072 	andcs	r0, r6, r2, ror r0
 164:	656d0000 	strbvs	r0, [sp]!
 168:	6c635f6d 	stclvs	15, cr5, [r3], #-436	; 0xfffffe4c
 16c:	65675f6b 	strbvs	r5, [r7, #-3947]!	; 0xf6b
 170:	6c705f74 	ldclvs	15, cr5, [r0], #-464	; 0xfffffe30
 174:	61665f6c 	cmnvs	r6, ip, ror #30
 178:	726f7463 	rsbvc	r7, pc, #1660944384	; 0x63000000
 17c:	00203100 	eoreq	r3, r0, r0, lsl #2
 180:	6d656d00 	stclvs	13, cr6, [r5]
 184:	6b6c635f 	blvs	1b18f08 <__bss_end+0x1b14c80>
 188:	6172645f 	cmnvs	r2, pc, asr r4
 18c:	7461676d 	strbtvc	r6, [r1], #-1901	; 0x76d
 190:	00676e69 	rsbeq	r6, r7, r9, ror #28
 194:	0000206d 	andeq	r2, r0, sp, rrx
 198:	5f757063 	svcpl	0x00757063
 19c:	6c5f736d 	mrrcvs	3, 6, r7, pc, cr13
 1a0:	63706f6f 	cmnvs	r0, #444	; 0x1bc
 1a4:	0000746e 	andeq	r7, r0, lr, ror #8
 1a8:	68000000 	stmdavs	r0, {}
 1ac:	02000000 	andeq	r0, r0, #0
 1b0:	002f7100 	eoreq	r7, pc, r0, lsl #2
 1b4:	0021bc00 	eoreq	fp, r1, r0, lsl #24
 1b8:	001f4d00 	andseq	r4, pc, r0, lsl #26
 1bc:	6d656d00 	stclvs	13, cr6, [r5]
 1c0:	6977745f 	ldmdbvs	r7!, {r0, r1, r2, r3, r4, r6, sl, ip, sp, lr}^
 1c4:	696e695f 	stmdbvs	lr!, {r0, r1, r2, r3, r4, r6, r8, fp, sp, lr}^
 1c8:	1faf0074 	svcne	0x00af0074
 1cc:	65730000 	ldrbvs	r0, [r3]!
 1d0:	5f707574 	svcpl	0x00707574
 1d4:	5f697774 	svcpl	0x00697774
 1d8:	00766e65 	rsbseq	r6, r6, r5, ror #28
 1dc:	00001fc2 	andeq	r1, r0, r2, asr #31
 1e0:	5f697774 	svcpl	0x00697774
 1e4:	65747962 	ldrbvs	r7, [r4, #-2402]!	; 0x962
 1e8:	0077725f 	rsbseq	r7, r7, pc, asr r2
 1ec:	00002076 	andeq	r2, r0, r6, ror r0
 1f0:	5f697774 	svcpl	0x00697774
 1f4:	65747962 	ldrbvs	r7, [r4, #-2402]!	; 0x962
 1f8:	5f77725f 	svcpl	0x0077725f
 1fc:	6d6d6f6e 	stclvs	15, cr6, [sp, #-440]!	; 0xfffffe48
 200:	212c0075 	teqcs	ip, r5, ror r0
 204:	656d0000 	strbvs	r0, [sp]!
 208:	77745f6d 	ldrbvc	r5, [r4, -sp, ror #30]!
 20c:	78655f69 	stmdavc	r5!, {r0, r3, r5, r6, r8, r9, sl, fp, ip, lr}^
 210:	00007469 	andeq	r7, r0, r9, ror #8
 214:	86000000 	strhi	r0, [r0], -r0
 218:	02000000 	andeq	r0, r0, #0
 21c:	0051a400 	subseq	sl, r1, r0, lsl #8
 220:	0004cd00 	andeq	ip, r4, r0, lsl #26
 224:	0001e500 	andeq	lr, r1, r0, lsl #10
 228:	6d656d00 	stclvs	13, cr6, [r5]
 22c:	776f705f 	undefined instruction 0x776f705f
 230:	6f5f7265 	svcvs	0x005f7265
 234:	6e5f6666 	cdpvs	6, 5, cr6, cr15, cr6, {3}
 238:	756d6d6f 	strbvc	r6, [sp, #-3439]!	; 0xd6f
 23c:	00021400 	andeq	r1, r2, r0, lsl #8
 240:	6d656d00 	stclvs	13, cr6, [r5]
 244:	776f705f 	undefined instruction 0x776f705f
 248:	6f5f7265 	svcvs	0x005f7265
 24c:	43006666 	movwmi	r6, #1638	; 0x666
 250:	6d000002 	stcvs	0, cr0, [r0, #-8]
 254:	705f6d65 	subsvc	r6, pc, r5, ror #26
 258:	7265776f 	rsbvc	r7, r5, #29097984	; 0x1bc0000
 25c:	6978655f 	ldmdbvs	r8!, {r0, r1, r2, r3, r4, r6, r8, sl, sp, lr}^
 260:	02820074 	addeq	r0, r2, #116	; 0x74
 264:	656d0000 	strbvs	r0, [sp]!
 268:	65675f6d 	strbvs	r5, [r7, #-3949]!	; 0xf6d
 26c:	6f765f74 	svcvs	0x00765f74
 270:	6761746c 	strbvs	r7, [r1, -ip, ror #8]!
 274:	02fb0065 	rscseq	r0, fp, #101	; 0x65
 278:	656d0000 	strbvs	r0, [sp]!
 27c:	65735f6d 	ldrbvs	r5, [r3, #-3949]!	; 0xf6d
 280:	6f765f74 	svcvs	0x00765f74
 284:	6761746c 	strbvs	r7, [r1, -ip, ror #8]!
 288:	04490065 	strbeq	r0, [r9], #-101	; 0x65
 28c:	656d0000 	strbvs	r0, [sp]!
 290:	6f705f6d 	svcvs	0x00705f6d
 294:	5f726577 	svcpl	0x00726577
 298:	74696e69 	strbtvc	r6, [r9], #-3689	; 0xe69
 29c:	00000000 	andeq	r0, r0, r0
 2a0:	00021f00 	andeq	r1, r2, r0, lsl #30
 2a4:	71000200 	tstvc	r0, r0, lsl #4
 2a8:	93000056 	movwls	r0, #86	; 0x56
 2ac:	60000006 	andvs	r0, r0, r6
 2b0:	44000001 	strmi	r0, [r0], #-1
 2b4:	434d4152 	movtmi	r4, #53586	; 0xd152
 2b8:	736f685f 	cmnvc	pc, #6225920	; 0x5f0000
 2bc:	726f7074 	rsbvc	r7, pc, #116	; 0x74
 2c0:	6e6f5f74 	mcrvs	15, 3, r5, cr15, cr4, {3}
 2c4:	66666f5f 	uqsubaddxvs	r6, r6, pc
 2c8:	00018900 	andeq	r8, r1, r0, lsl #18
 2cc:	41524400 	cmpmi	r2, r0, lsl #8
 2d0:	685f434d 	ldmdavs	pc, {r0, r2, r3, r6, r8, r9, lr}^
 2d4:	7074736f 	rsbsvc	r7, r4, pc, ror #6
 2d8:	5f74726f 	svcpl	0x0074726f
 2dc:	63656863 	cmnvs	r5, #6488064	; 0x630000
 2e0:	68615f6b 	stmdavs	r1!, {r0, r1, r3, r5, r6, r8, r9, sl, fp, ip, lr}^
 2e4:	69665f62 	stmdbvs	r6!, {r1, r5, r6, r8, r9, sl, fp, ip, lr}^
 2e8:	735f6f66 	cmpvc	pc, #408	; 0x198
 2ec:	75746174 	ldrbvc	r6, [r4, #-372]!	; 0x174
 2f0:	01ad0073 	undefined instruction 0x01ad0073
 2f4:	52440000 	subpl	r0, r4, #0
 2f8:	5f434d41 	svcpl	0x00434d41
 2fc:	74736f68 	ldrbtvc	r6, [r3], #-3944	; 0xf68
 300:	74726f70 	ldrbtvc	r6, [r2], #-3952	; 0xf70
 304:	7465735f 	strbtvc	r7, [r5], #-863	; 0x35f
 308:	10007075 	andne	r7, r0, r5, ror r0
 30c:	64000002 	strvs	r0, [r0], #-2
 310:	5f6d6172 	svcpl	0x006d6172
 314:	74736f68 	ldrbtvc	r6, [r3], #-3944	; 0xf68
 318:	74726f70 	ldrbtvc	r6, [r2], #-3952	; 0xf70
 31c:	5f6e6f5f 	svcpl	0x006e6f5f
 320:	0066666f 	rsbeq	r6, r6, pc, ror #12
 324:	00000270 	andeq	r0, r0, r0, ror r2
 328:	6d617264 	sfmvs	f7, 2, [r1, #-400]!	; (stclvs 2, cr7, [r1, #-400]!)	; 0xfffffe70
 32c:	736f685f 	cmnvc	pc, #6225920	; 0x5f0000
 330:	726f7074 	rsbvc	r7, pc, #116	; 0x74
 334:	68635f74 	stmdavs	r3!, {r2, r4, r5, r6, r8, r9, sl, fp, ip, lr}^
 338:	5f6b6365 	svcpl	0x006b6365
 33c:	5f626861 	svcpl	0x00626861
 340:	6f666966 	svcvs	0x00666966
 344:	6174735f 	cmnvs	r4, pc, asr r3
 348:	00737574 	rsbseq	r7, r3, r4, ror r5
 34c:	000002c4 	andeq	r0, r0, r4, asr #5
 350:	6d617264 	sfmvs	f7, 2, [r1, #-400]!	; (stclvs 2, cr7, [r1, #-400]!)	; 0xfffffe70
 354:	736f685f 	cmnvc	pc, #6225920	; 0x5f0000
 358:	726f7074 	rsbvc	r7, pc, #116	; 0x74
 35c:	65735f74 	ldrbvs	r5, [r3, #-3956]!	; 0xf74
 360:	00707574 	rsbseq	r7, r0, r4, ror r5
 364:	0000031d 	andeq	r0, r0, sp, lsl r3
 368:	6c74636d 	ldclvs	3, cr6, [r4], #-436	; 0xfffffe4c
 36c:	6268615f 	rsbvs	r6, r8, #-1073741801	; 0xc0000017
 370:	7365725f 	cmnvc	r5, #-268435451	; 0xf0000005
 374:	53007465 	movwpl	r7, #1125	; 0x465
 378:	44000003 	strmi	r0, [r0], #-3
 37c:	434d4152 	movtmi	r4, #53586	; 0xd152
 380:	746e655f 	strbtvc	r6, [lr], #-1375	; 0x55f
 384:	705f7265 	subsvc	r7, pc, r5, ror #4
 388:	7265776f 	rsbvc	r7, r5, #29097984	; 0x1bc0000
 38c:	776f645f 	undefined instruction 0x776f645f
 390:	0383006e 	orreq	r0, r3, #110	; 0x6e
 394:	72640000 	rsbvc	r0, r4, #0
 398:	655f6d61 	ldrbvs	r6, [pc, #-3425]	; fffff63f <__bss_end+0xffffb3b7>
 39c:	7265746e 	rsbvc	r7, r5, #1845493760	; 0x6e000000
 3a0:	776f705f 	undefined instruction 0x776f705f
 3a4:	645f7265 	ldrbvs	r7, [pc], #613	; 3ac <disable_program_flow_prediction+0x14>
 3a8:	006e776f 	rsbeq	r7, lr, pc, ror #14
 3ac:	00000397 	muleq	r0, r7, r3
 3b0:	6c74636d 	ldclvs	3, cr6, [r4], #-436	; 0xfffffe4c
 3b4:	646f6d5f 	strbtvs	r6, [pc], #3423	; 3bc <enable_cache+0x8>
 3b8:	78655f65 	stmdavc	r5!, {r0, r2, r5, r6, r8, r9, sl, fp, ip, lr}^
 3bc:	c7007469 	strgt	r7, [r0, -r9, ror #8]
 3c0:	44000003 	strmi	r0, [r0], #-3
 3c4:	434d4152 	movtmi	r4, #53586	; 0xd152
 3c8:	6978655f 	ldmdbvs	r8!, {r0, r1, r2, r3, r4, r6, r8, sl, sp, lr}^
 3cc:	6f705f74 	svcvs	0x00705f74
 3d0:	5f726577 	svcpl	0x00726577
 3d4:	6e776f64 	cdpvs	15, 7, cr6, cr7, cr4, {3}
 3d8:	0003d600 	andeq	sp, r3, r0, lsl #12
 3dc:	61726400 	cmnvs	r2, r0, lsl #8
 3e0:	78655f6d 	stmdavc	r5!, {r0, r2, r3, r5, r6, r8, r9, sl, fp, ip, lr}^
 3e4:	705f7469 	subsvc	r7, pc, r9, ror #8
 3e8:	7265776f 	rsbvc	r7, r5, #29097984	; 0x1bc0000
 3ec:	776f645f 	undefined instruction 0x776f645f
 3f0:	03ff006e 	mvnseq	r0, #110	; 0x6e
 3f4:	52440000 	subpl	r0, r4, #0
 3f8:	5f434d41 	svcpl	0x00434d41
 3fc:	74697865 	strbtvc	r7, [r9], #-2149	; 0x865
 400:	6c65735f 	stclvs	3, cr7, [r5], #-380	; 0xfffffe84
 404:	66657266 	strbtvs	r7, [r5], -r6, ror #4
 408:	68736572 	ldmdavs	r3!, {r1, r4, r5, r6, r8, sl, sp, lr}^
 40c:	00045a00 	andeq	r5, r4, r0, lsl #20
 410:	61726400 	cmnvs	r2, r0, lsl #8
 414:	78655f6d 	stmdavc	r5!, {r0, r2, r3, r5, r6, r8, r9, sl, fp, ip, lr}^
 418:	735f7469 	cmpvc	pc, #1761607680	; 0x69000000
 41c:	72666c65 	rsbvc	r6, r6, #25856	; 0x6500
 420:	65726665 	ldrbvs	r6, [r2, #-1637]!	; 0x665
 424:	6e006873 	mcrvs	8, 0, r6, cr0, cr3, {3}
 428:	6d000004 	stcvs	0, cr0, [r0, #-16]
 42c:	5f6c7463 	svcpl	0x006c7463
 430:	63657270 	cmnvs	r5, #7
 434:	67726168 	ldrbvs	r6, [r2, -r8, ror #2]!
 438:	6c615f65 	stclvs	15, cr5, [r1], #-404	; 0xfffffe6c
 43c:	049e006c 	ldreq	r0, [lr], #108	; 0x6c
 440:	52440000 	subpl	r0, r4, #0
 444:	5f434d41 	svcpl	0x00434d41
 448:	65746e65 	ldrbvs	r6, [r4, #-3685]!	; 0xe65
 44c:	65735f72 	ldrbvs	r5, [r3, #-3954]!	; 0xf72
 450:	6572666c 	ldrbvs	r6, [r2, #-1644]!	; 0x66c
 454:	73657266 	cmnvc	r5, #1610612742	; 0x60000006
 458:	04fd0068 	ldrbteq	r0, [sp], #104	; 0x68
 45c:	72640000 	rsbvc	r0, r4, #0
 460:	655f6d61 	ldrbvs	r6, [pc, #-3425]	; fffff707 <__bss_end+0xffffb47f>
 464:	7265746e 	rsbvc	r7, r5, #1845493760	; 0x6e000000
 468:	6c65735f 	stclvs	3, cr7, [r5], #-380	; 0xfffffe84
 46c:	66657266 	strbtvs	r7, [r5], -r6, ror #4
 470:	68736572 	ldmdavs	r3!, {r1, r4, r5, r6, r8, sl, sp, lr}^
 474:	00051100 	andeq	r1, r5, r0, lsl #2
 478:	61726400 	cmnvs	r2, r0, lsl #8
 47c:	6f705f6d 	svcvs	0x00705f6d
 480:	5f726577 	svcpl	0x00726577
 484:	65766173 	ldrbvs	r6, [r6, #-371]!	; 0x173
 488:	6f72705f 	svcvs	0x0072705f
 48c:	73736563 	cmnvc	r3, #415236096	; 0x18c00000
 490:	00057500 	andeq	r7, r5, r0, lsl #10
 494:	41524400 	cmpmi	r2, r0, lsl #8
 498:	725f434d 	subsvc	r4, pc, #872415233	; 0x34000001
 49c:	61727465 	cmnvs	r2, r5, ror #8
 4a0:	6e696e69 	cdpvs	14, 6, cr6, cr9, cr9, {3}
 4a4:	067a0067 	ldrbteq	r0, [sl], -r7, rrx
 4a8:	72640000 	rsbvc	r0, r4, #0
 4ac:	705f6d61 	subsvc	r6, pc, r1, ror #26
 4b0:	7265776f 	rsbvc	r7, r5, #29097984	; 0x1bc0000
 4b4:	5f70755f 	svcpl	0x0070755f
 4b8:	636f7270 	cmnvs	pc, #7
 4bc:	00737365 	rsbseq	r7, r3, r5, ror #6
 4c0:	00000000 	andeq	r0, r0, r0
 4c4:	0000021a 	andeq	r0, r0, sl, lsl r2
 4c8:	5d040002 	stcpl	0, cr0, [r4, #-8]
 4cc:	093c0000 	ldmdbeq	ip!, {}
 4d0:	030c0000 	movweq	r0, #49152	; 0xc000
 4d4:	636d0000 	cmnvs	sp, #0
 4d8:	735f6c74 	cmpvc	pc, #29696	; 0x7400
 4dc:	645f7465 	ldrbvs	r7, [pc], #1125	; 4e4 <mem_preload_tlb_nommu>
 4e0:	65766972 	ldrbvs	r6, [r6, #-2418]!	; 0x972
 4e4:	00032700 	andeq	r2, r3, r0, lsl #14
 4e8:	74636d00 	strbtvc	r6, [r3], #-3328	; 0xd00
 4ec:	74695f6c 	strbtvc	r5, [r9], #-3948	; 0xf6c
 4f0:	69645f6d 	stmdbvs	r4!, {r0, r2, r3, r5, r6, r8, r9, sl, fp, ip, lr}^
 4f4:	6c626173 	stfvse	f6, [r2], #-460	; 0xfffffe34
 4f8:	03420065 	movteq	r0, #8293	; 0x2065
 4fc:	636d0000 	cmnvs	sp, #0
 500:	695f6c74 	ldmdbvs	pc, {r2, r4, r5, r6, sl, fp, sp, lr}^
 504:	655f6d74 	ldrbvs	r6, [pc, #-3444]	; fffff798 <__bss_end+0xffffb510>
 508:	6c62616e 	stfvse	f6, [r2], #-440	; 0xfffffe48
 50c:	035d0065 	cmpeq	sp, #101	; 0x65
 510:	636d0000 	cmnvs	sp, #0
 514:	645f6c74 	ldrbvs	r6, [pc], #3188	; 51c <mem_preload_tlb_nommu+0x38>
 518:	62617369 	rsbvs	r7, r1, #-1543503871	; 0xa4000001
 51c:	645f656c 	ldrbvs	r6, [pc], #1388	; 524 <mem_preload_tlb_nommu+0x40>
 520:	82006c6c 	andhi	r6, r0, #27648	; 0x6c00
 524:	6d000003 	stcvs	0, cr0, [r0, #-12]
 528:	5f6c7463 	svcpl	0x006c7463
 52c:	666e6f63 	strbtvs	r6, [lr], -r3, ror #30
 530:	72756769 	rsbsvc	r6, r5, #27525120	; 0x1a40000
 534:	6f685f65 	svcvs	0x00685f65
 538:	6f707473 	svcvs	0x00707473
 53c:	9d007472 	cfstrsls	mvf7, [r0, #-456]	; 0xfffffe38
 540:	44000003 	strmi	r0, [r0], #-3
 544:	434d4152 	movtmi	r4, #53586	; 0xd152
 548:	6978655f 	ldmdbvs	r8!, {r0, r1, r2, r3, r4, r6, r8, sl, sp, lr}^
 54c:	03ac0074 	undefined instruction 0x03ac0074
 550:	52440000 	subpl	r0, r4, #0
 554:	5f434d41 	svcpl	0x00434d41
 558:	6e616373 	mcrvs	3, 3, r6, cr1, cr3, {3}
 55c:	6165725f 	cmnvs	r5, pc, asr r2
 560:	70697064 	rsbvc	r7, r9, r4, rrx
 564:	03c90065 	biceq	r0, r9, #101	; 0x65
 568:	52440000 	subpl	r0, r4, #0
 56c:	5f434d41 	svcpl	0x00434d41
 570:	636f6c63 	cmnvs	pc, #25344	; 0x6300
 574:	756f5f6b 	strbvc	r5, [pc, #-3947]!	; fffff611 <__bss_end+0xffffb389>
 578:	74757074 	ldrbtvc	r7, [r5], #-116	; 0x74
 57c:	006e655f 	rsbeq	r6, lr, pc, asr r5
 580:	000003eb 	andeq	r0, r0, fp, ror #7
 584:	4d415244 	sfmmi	f5, 2, [r1, #-272]	; (stclmi 2, cr5, [r1, #-272])	; 0xfffffef0
 588:	65735f43 	ldrbvs	r5, [r3, #-3907]!	; 0xf43
 58c:	75615f74 	strbvc	r5, [r1, #-3956]!	; 0xf74
 590:	65726f74 	ldrbvs	r6, [r2, #-3956]!	; 0xf74
 594:	73657266 	cmnvc	r5, #1610612742	; 0x60000006
 598:	79635f68 	stmdbvc	r3!, {r3, r5, r6, r8, r9, sl, fp, ip, lr}^
 59c:	00656c63 	rsbeq	r6, r5, r3, ror #24
 5a0:	00000412 	andeq	r0, r0, r2, lsl r4
 5a4:	4d415244 	sfmmi	f5, 2, [r1, #-272]	; (stclmi 2, cr5, [r1, #-272])	; 0xfffffef0
 5a8:	65675f43 	strbvs	r5, [r7, #-3907]!	; 0xf43
 5ac:	72645f74 	rsbvc	r5, r4, #464	; 0x1d0
 5b0:	735f6d61 	cmpvc	pc, #6208	; 0x1840
 5b4:	00657a69 	rsbeq	r7, r5, r9, ror #20
 5b8:	0000045f 	andeq	r0, r0, pc, asr r4
 5bc:	6d617264 	sfmvs	f7, 2, [r1, #-400]!	; (stclvs 2, cr7, [r1, #-400]!)	; 0xfffffe70
 5c0:	696e695f 	stmdbvs	lr!, {r0, r1, r2, r3, r4, r6, r8, fp, sp, lr}^
 5c4:	04770074 	ldrbteq	r0, [r7], #-116	; 0x74
 5c8:	72640000 	rsbvc	r0, r4, #0
 5cc:	655f6d61 	ldrbvs	r6, [pc, #-3425]	; fffff873 <__bss_end+0xffffb5eb>
 5d0:	00746978 	rsbseq	r6, r4, r8, ror r9
 5d4:	0000048f 	andeq	r0, r0, pc, lsl #9
 5d8:	6d617264 	sfmvs	f7, 2, [r1, #-400]!	; (stclvs 2, cr7, [r1, #-400]!)	; 0xfffffe70
 5dc:	7465675f 	strbtvc	r6, [r5], #-1887	; 0x75f
 5e0:	7a69735f 	bvc	1a5d364 <__bss_end+0x1a590dc>
 5e4:	04a70065 	strteq	r0, [r7], #101	; 0x65
 5e8:	72640000 	rsbvc	r0, r4, #0
 5ec:	735f6d61 	cmpvc	pc, #6208	; 0x1840
 5f0:	645f7465 	ldrbvs	r7, [pc], #1125	; 5f8 <disable_mmu+0x20>
 5f4:	65766972 	ldrbvs	r6, [r6, #-2418]!	; 0x972
 5f8:	0004e200 	andeq	lr, r4, r0, lsl #4
 5fc:	61726400 	cmnvs	r2, r0, lsl #8
 600:	65735f6d 	ldrbvs	r5, [r3, #-3949]!	; 0xf6d
 604:	75615f74 	strbvc	r5, [r1, #-3956]!	; 0xf74
 608:	65726f74 	ldrbvs	r6, [r2, #-3956]!	; 0xf74
 60c:	73657266 	cmnvc	r5, #1610612742	; 0x60000006
 610:	79635f68 	stmdbvc	r3!, {r3, r5, r6, r8, r9, sl, fp, ip, lr}^
 614:	00656c63 	rsbeq	r6, r5, r3, ror #24
 618:	00000535 	andeq	r0, r0, r5, lsr r5
 61c:	6d617264 	sfmvs	f7, 2, [r1, #-400]!	; (stclvs 2, cr7, [r1, #-400]!)	; 0xfffffe70
 620:	6163735f 	cmnvs	r3, pc, asr r3
 624:	65725f6e 	ldrbvs	r5, [r2, #-3950]!	; 0xf6e
 628:	69706461 	ldmdbvs	r0!, {r0, r5, r6, sl, sp, lr}^
 62c:	76006570 	undefined instruction 0x76006570
 630:	67000005 	strvs	r0, [r0, -r5]
 634:	625f7465 	subsvs	r7, pc, #1694498816	; 0x65000000
 638:	30746f6f 	rsbscc	r6, r4, pc, ror #30
 63c:	6172645f 	cmnvs	r2, pc, asr r4
 640:	61705f6d 	cmnvs	r0, sp, ror #30
 644:	a5006172 	strge	r6, [r0, #-370]	; 0x172
 648:	6d000005 	stcvs	0, cr0, [r0, #-20]	; 0xffffffec
 64c:	5f6c7463 	svcpl	0x006c7463
 650:	75746573 	ldrbvc	r6, [r4, #-1395]!	; 0x573
 654:	72645f70 	rsbvc	r5, r4, #448	; 0x1c0
 658:	635f6d61 	cmpvs	pc, #6208	; 0x1840
 65c:	6b636f6c 	blvs	18dc414 <__bss_end+0x18d818c>
 660:	00062300 	andeq	r2, r6, r0, lsl #6
 664:	61726400 	cmnvs	r2, r0, lsl #8
 668:	65735f6d 	ldrbvs	r5, [r3, #-3949]!	; 0xf6d
 66c:	6c635f74 	stclvs	15, cr5, [r3], #-464	; 0xfffffe30
 670:	006b636f 	rsbeq	r6, fp, pc, ror #6
 674:	0000064c 	andeq	r0, r0, ip, asr #12
 678:	6c74636d 	ldclvs	3, cr6, [r4], #-436	; 0xfffffe4c
 67c:	616e655f 	cmnvs	lr, pc, asr r5
 680:	5f656c62 	svcpl	0x00656c62
 684:	786c6c64 	stmdavc	ip!, {r2, r5, r6, sl, fp, sp, lr}^
 688:	00068f00 	andeq	r8, r6, r0, lsl #30
 68c:	74636d00 	strbtvc	r6, [r3], #-3328	; 0xd00
 690:	6e655f6c 	cdpvs	15, 6, cr5, cr5, cr12, {3}
 694:	656c6261 	strbvs	r6, [ip, #-609]!	; 0x261
 698:	6c6c645f 	cfstrdvs	mvd6, [ip], #-380	; 0xfffffe84
 69c:	06b20030 	undefined instruction 0x06b20030
 6a0:	636d0000 	cmnvs	sp, #0
 6a4:	645f6c74 	ldrbvs	r6, [pc], #3188	; 6ac <__turn_mmu_on+0x6c>
 6a8:	5f337264 	svcpl	0x00337264
 6ac:	65736572 	ldrbvs	r6, [r3, #-1394]!	; 0x572
 6b0:	06db0074 	undefined instruction 0x06db0074
 6b4:	52440000 	subpl	r0, r4, #0
 6b8:	5f434d41 	svcpl	0x00434d41
 6bc:	74696e69 	strbtvc	r6, [r9], #-3689	; 0xe69
 6c0:	00087e00 	andeq	r7, r8, r0, lsl #28
 6c4:	696e6900 	stmdbvs	lr!, {r8, fp, sp, lr}^
 6c8:	52445f74 	subpl	r5, r4, #464	; 0x1d0
 6cc:	28004d41 	stmdacs	r0, {r0, r6, r8, sl, fp, lr}
 6d0:	68000009 	stmdavs	r0, {r0, r3}
 6d4:	5f726370 	svcpl	0x00726370
 6d8:	756c6176 	strbvc	r6, [ip, #-374]!	; 0x176
 6dc:	00000065 	andeq	r0, r0, r5, rrx
 6e0:	01960000 	orrseq	r0, r6, r0
 6e4:	00020000 	andeq	r0, r2, r0
 6e8:	00006640 	andeq	r6, r0, r0, asr #12
 6ec:	000005c4 	andeq	r0, r0, r4, asr #11
 6f0:	000000dd 	ldrdeq	r0, [r0], -sp
 6f4:	79737562 	ldmdbvc	r3!, {r1, r5, r6, r8, sl, ip, sp, lr}^
 6f8:	6961775f 	stmdbvs	r1!, {r0, r1, r2, r3, r4, r6, r8, r9, sl, ip, sp, lr}^
 6fc:	676e6974 	undefined instruction 0x676e6974
 700:	00010b00 	andeq	r0, r1, r0, lsl #22
 704:	6b616600 	blvs	1859f0c <__bss_end+0x1855c84>
 708:	75625f65 	strbvc	r5, [r2, #-3941]!	; 0xf65
 70c:	775f7973 	undefined instruction 0x775f7973
 710:	69746961 	ldmdbvs	r4!, {r0, r5, r6, r8, fp, sp, lr}^
 714:	3400676e 	strcc	r6, [r0], #-1902	; 0x76e
 718:	73000001 	movwvc	r0, #1
 71c:	5f657661 	svcpl	0x00657661
 720:	5f6d656d 	svcpl	0x006d656d
 724:	67616c66 	strbvs	r6, [r1, -r6, ror #24]!
 728:	00015900 	andeq	r5, r1, r0, lsl #18
 72c:	76617300 	strbtvc	r7, [r1], -r0, lsl #6
 730:	656d5f65 	strbvs	r5, [sp, #-3941]!	; 0xf65
 734:	74735f6d 	ldrbtvc	r5, [r3], #-3949	; 0xf6d
 738:	73757461 	cmnvc	r5, #1627389952	; 0x61000000
 73c:	00018000 	andeq	r8, r1, r0
 740:	74656700 	strbtvc	r6, [r5], #-1792	; 0x700
 744:	6d656d5f 	stclvs	13, cr6, [r5, #-380]!	; 0xfffffe84
 748:	6174735f 	cmnvs	r4, pc, asr r3
 74c:	00737574 	rsbseq	r7, r3, r4, ror r5
 750:	00000197 	muleq	r0, r7, r1
 754:	65766173 	ldrbvs	r6, [r6, #-371]!	; 0x173
 758:	6d656d5f 	stclvs	13, cr6, [r5, #-380]!	; 0xfffffe84
 75c:	6174735f 	cmnvs	r4, pc, asr r3
 760:	5f737574 	svcpl	0x00737574
 764:	6d6d6f6e 	stclvs	15, cr6, [sp, #-440]!	; 0xfffffe48
 768:	01be0075 	undefined instruction 0x01be0075
 76c:	61730000 	cmnvs	r3, r0
 770:	735f6576 	cmpvc	pc, #494927872	; 0x1d800000
 774:	69356e75 	ldmdbvs	r5!, {r0, r2, r4, r5, r6, r9, sl, fp, sp, lr}
 778:	6d656d5f 	stclvs	13, cr6, [r5, #-380]!	; 0xfffffe84
 77c:	6174735f 	cmnvs	r4, pc, asr r3
 780:	00737574 	rsbseq	r7, r3, r4, ror r5
 784:	000001fa 	strdeq	r0, [r0], -sl
 788:	65766173 	ldrbvs	r6, [r6, #-371]!	; 0x173
 78c:	6e75735f 	mrcvs	3, 3, r7, cr5, cr15, {2}
 790:	6d5f6935 	ldclvs	9, cr6, [pc, #-212]	; 0xffffff2c
 794:	735f6d65 	cmpvc	pc, #6464	; 0x1940
 798:	75746174 	ldrbvc	r6, [r4, #-372]!	; 0x174
 79c:	6f6e5f73 	svcvs	0x006e5f73
 7a0:	00756d6d 	rsbseq	r6, r5, sp, ror #26
 7a4:	00000236 	andeq	r0, r0, r6, lsr r2
 7a8:	5f746567 	svcpl	0x00746567
 7ac:	6c637963 	stclvs	9, cr7, [r3], #-396	; 0xfffffe74
 7b0:	756f6365 	strbvc	r6, [pc, #-869]!	; 453 <mem_preload_tlb+0x63>
 7b4:	5300746e 	movwpl	r7, #1134	; 0x46e
 7b8:	62000002 	andvs	r0, r0, #2
 7bc:	756b6361 	strbvc	r6, [fp, #-865]!	; 0x361
 7c0:	65705f70 	ldrbvs	r5, [r0, #-3952]!	; 0xf70
 7c4:	6f636672 	svcvs	0x00636672
 7c8:	65746e75 	ldrbvs	r6, [r4, #-3701]!	; 0xe75
 7cc:	02660072 	rsbeq	r0, r6, #114	; 0x72
 7d0:	6e690000 	cdpvs	0, 6, cr0, cr9, cr0, {0}
 7d4:	705f7469 	subsvc	r7, pc, r9, ror #8
 7d8:	63667265 	cmnvs	r6, #1342177286	; 0x50000006
 7dc:	746e756f 	strbtvc	r7, [lr], #-1391	; 0x56f
 7e0:	00737265 	rsbseq	r7, r3, r5, ror #4
 7e4:	000002a9 	andeq	r0, r0, r9, lsr #5
 7e8:	74736572 	ldrbtvc	r6, [r3], #-1394	; 0x572
 7ec:	5f65726f 	svcpl	0x0065726f
 7f0:	66726570 	undefined instruction 0x66726570
 7f4:	6e756f63 	cdpvs	15, 7, cr6, cr5, cr3, {3}
 7f8:	00726574 	rsbseq	r6, r2, r4, ror r5
 7fc:	000002bc 	undefined instruction 0x000002bc
 800:	65736572 	ldrbvs	r6, [r3, #-1394]!	; 0x572
 804:	6f635f74 	svcvs	0x00635f74
 808:	65746e75 	ldrbvs	r6, [r4, #-3701]!	; 0xe75
 80c:	02df0072 	sbcseq	r0, pc, #114	; 0x72
 810:	68630000 	stmdavs	r3!, {}^
 814:	65676e61 	strbvs	r6, [r7, #-3681]!	; 0xe61
 818:	6e75725f 	mrcvs	2, 3, r7, cr5, cr15, {2}
 81c:	656d6974 	strbvs	r6, [sp, #-2420]!	; 0x974
 820:	766e655f 	undefined instruction 0x766e655f
 824:	0003e600 	andeq	lr, r3, r0, lsl #12
 828:	6c656400 	cfstrdvs	mvd6, [r5]
 82c:	755f7961 	ldrbvc	r7, [pc, #-2401]	; fffffed3 <__bss_end+0xffffbc4b>
 830:	04ba0073 	ldrteq	r0, [sl], #115	; 0x73
 834:	65640000 	strbvs	r0, [r4]!
 838:	5f79616c 	svcpl	0x0079616c
 83c:	e200736d 	and	r7, r0, #-1275068415	; 0xb4000001
 840:	69000004 	stmdbvs	r0, {r2}
 844:	6e695f6f 	cdpvs	15, 6, cr5, cr9, cr15, {3}
 848:	f6007469 	undefined instruction 0xf6007469
 84c:	69000004 	stmdbvs	r0, {r2}
 850:	6e695f6f 	cdpvs	15, 6, cr5, cr9, cr15, {3}
 854:	685f7469 	ldmdavs	pc, {r0, r3, r5, r6, sl, ip, sp, lr}^
 858:	00686769 	rsbeq	r6, r8, r9, ror #14
 85c:	0000051d 	andeq	r0, r0, sp, lsl r5
 860:	695f6f69 	ldmdbvs	pc, {r0, r3, r5, r6, r8, r9, sl, fp, sp, lr}^
 864:	5f74696e 	svcpl	0x0074696e
 868:	00776f6c 	rsbseq	r6, r7, ip, ror #30
 86c:	00000544 	andeq	r0, r0, r4, asr #10
 870:	685f6f69 	ldmdavs	pc, {r0, r3, r5, r6, r8, r9, sl, fp, sp, lr}^
 874:	00686769 	rsbeq	r6, r8, r9, ror #14
 878:	00000000 	andeq	r0, r0, r0
 87c:	00000045 	andeq	r0, r0, r5, asr #32
 880:	6c7b0002 	ldclvs	0, cr0, [fp], #-8
 884:	01670000 	cmneq	r7, r0
 888:	00f50000 	rscseq	r0, r5, r0
 88c:	61730000 	cmnvs	r3, r0
 890:	6d5f6576 	cfldr64vs	mvdx6, [pc, #-472]	; 0xfffffe28
 894:	735f756d 	cmpvc	pc, #457179136	; 0x1b400000
 898:	65746174 	ldrbvs	r6, [r4, #-372]!	; 0x174
 89c:	00012000 	andeq	r2, r1, r0
 8a0:	73657200 	cmnvc	r5, #0
 8a4:	65726f74 	ldrbvs	r6, [r2, #-3956]!	; 0xf74
 8a8:	756d6d5f 	strbvc	r6, [sp, #-3423]!	; 0xd5f
 8ac:	6174735f 	cmnvs	r4, pc, asr r3
 8b0:	45006574 	strmi	r6, [r0, #-1396]	; 0x574
 8b4:	73000001 	movwvc	r0, #1
 8b8:	745f7465 	ldrbvc	r7, [pc], #1125	; 8c0 <mem_clk_plldisable+0x14>
 8bc:	30726274 	rsbscc	r6, r2, r4, ror r2
 8c0:	00000000 	andeq	r0, r0, r0
 8c4:	00009a00 	andeq	r9, r0, r0, lsl #20
 8c8:	e2000200 	and	r0, r0, #0
 8cc:	cf00006d 	svcgt	0x0000006d
 8d0:	36000004 	strcc	r0, [r0], -r4
 8d4:	5f000003 	svcpl	0x00000003
 8d8:	7661735f 	undefined instruction 0x7661735f
 8dc:	72705f65 	rsbsvc	r5, r0, #404	; 0x194
 8e0:	7365636f 	cmnvc	r5, #-1140850687	; 0xbc000001
 8e4:	5f726f73 	svcpl	0x00726f73
 8e8:	74617473 	strbtvc	r7, [r1], #-1139	; 0x473
 8ec:	03610065 	cmneq	r1, #101	; 0x65
 8f0:	5f5f0000 	svcpl	0x005f0000
 8f4:	74736572 	ldrbtvc	r6, [r3], #-1394	; 0x572
 8f8:	5f65726f 	svcpl	0x0065726f
 8fc:	636f7270 	cmnvs	pc, #7
 900:	6f737365 	svcvs	0x00737365
 904:	74735f72 	ldrbtvc	r5, [r3], #-3954	; 0xf72
 908:	00657461 	rsbeq	r7, r5, r1, ror #8
 90c:	00000386 	andeq	r0, r0, r6, lsl #7
 910:	5f6d656d 	svcpl	0x006d656d
 914:	74736572 	ldrbtvc	r6, [r3], #-1394	; 0x572
 918:	5f65726f 	svcpl	0x0065726f
 91c:	636f7270 	cmnvs	pc, #7
 920:	6f737365 	svcvs	0x00737365
 924:	74735f72 	ldrbtvc	r5, [r3], #-3954	; 0xf72
 928:	00657461 	rsbeq	r7, r5, r1, ror #8
 92c:	000003ad 	andeq	r0, r0, sp, lsr #7
 930:	61736964 	cmnvs	r3, r4, ror #18
 934:	5f656c62 	svcpl	0x00656c62
 938:	68636163 	stmdavs	r3!, {r0, r1, r5, r6, r8, sp, lr}^
 93c:	6e695f65 	cdpvs	15, 6, cr5, cr9, cr5, {3}
 940:	696c6176 	stmdbvs	ip!, {r1, r2, r4, r5, r6, r8, sp, lr}^
 944:	65746164 	ldrbvs	r6, [r4, #-356]!	; 0x164
 948:	0003d400 	andeq	sp, r3, r0, lsl #8
 94c:	74657300 	strbtvc	r7, [r5], #-768	; 0x300
 950:	706f635f 	rsbvc	r6, pc, pc, asr r3
 954:	645f6f72 	ldrbvs	r6, [pc], #3954	; 95c <mem_clk_pllenable+0x54>
 958:	75616665 	strbvc	r6, [r1, #-1637]!	; 0x665
 95c:	0000746c 	andeq	r7, r0, ip, ror #8
 960:	Address 0x00000960 is out of bounds.


Disassembly of section .debug_aranges:

00000000 <.debug_aranges>:
   0:	0000001c 	andeq	r0, r0, ip, lsl r0
   4:	00000002 	andeq	r0, r0, r2
   8:	00040000 	andeq	r0, r4, r0
	...
  14:	000001b8 	undefined instruction 0x000001b8
	...
  20:	0000001c 	andeq	r0, r0, ip, lsl r0
  24:	06630002 	strbteq	r0, [r3], -r2
  28:	00040000 	andeq	r0, r4, r0
  2c:	00000000 	andeq	r0, r0, r0
  30:	000001b8 	undefined instruction 0x000001b8
  34:	00000024 	andeq	r0, r0, r4, lsr #32
	...
  40:	0000001c 	andeq	r0, r0, ip, lsl r0
  44:	07260002 	streq	r0, [r6, -r2]!
  48:	00040000 	andeq	r0, r4, r0
  4c:	00000000 	andeq	r0, r0, r0
  50:	000001e0 	andeq	r0, r0, r0, ror #3
  54:	000004e4 	andeq	r0, r0, r4, ror #9
	...
  60:	0000001c 	andeq	r0, r0, ip, lsl r0
  64:	07970002 	ldreq	r0, [r7, r2]
  68:	00040000 	andeq	r0, r4, r0
  6c:	00000000 	andeq	r0, r0, r0
  70:	000006e0 	andeq	r0, r0, r0, ror #13
  74:	00000170 	andeq	r0, r0, r0, ror r1
	...
  80:	0000001c 	andeq	r0, r0, ip, lsl r0
  84:	0ae70002 	beq	ff9c0094 <__bss_end+0xff9bbe0c>
  88:	00040000 	andeq	r0, r4, r0
  8c:	00000000 	andeq	r0, r0, r0
  90:	00000850 	andeq	r0, r0, r0, asr r8
  94:	00000040 	andeq	r0, r0, r0, asr #32
	...
  a0:	0000001c 	andeq	r0, r0, ip, lsl r0
  a4:	0ef10002 	cdpeq	0, 15, cr0, cr1, cr2, {0}
  a8:	00040000 	andeq	r0, r4, r0
  ac:	00000000 	andeq	r0, r0, r0
  b0:	00000890 	muleq	r0, r0, r8
  b4:	00000274 	andeq	r0, r0, r4, ror r2
	...
  c0:	0000001c 	andeq	r0, r0, ip, lsl r0
  c4:	2f710002 	svccs	0x00710002
  c8:	00040000 	andeq	r0, r4, r0
  cc:	00000000 	andeq	r0, r0, r0
  d0:	00000b04 	andeq	r0, r0, r4, lsl #22
  d4:	0000078c 	andeq	r0, r0, ip, lsl #15
	...
  e0:	0000001c 	andeq	r0, r0, ip, lsl r0
  e4:	512d0002 	teqpl	sp, r2
  e8:	00040000 	andeq	r0, r4, r0
  ec:	00000000 	andeq	r0, r0, r0
  f0:	00001290 	muleq	r0, r0, r2
  f4:	00000028 	andeq	r0, r0, r8, lsr #32
	...
 100:	0000001c 	andeq	r0, r0, ip, lsl r0
 104:	51a40002 	undefined instruction 0x51a40002
 108:	00040000 	andeq	r0, r4, r0
 10c:	00000000 	andeq	r0, r0, r0
 110:	000012b8 	undefined instruction 0x000012b8
 114:	00000ef0 	strdeq	r0, [r0], -r0
	...
 120:	0000001c 	andeq	r0, r0, ip, lsl r0
 124:	56710002 	ldrbtpl	r0, [r1], -r2
 128:	00040000 	andeq	r0, r4, r0
 12c:	00000000 	andeq	r0, r0, r0
 130:	000021a8 	andeq	r2, r0, r8, lsr #3
 134:	000004ac 	andeq	r0, r0, ip, lsr #9
	...
 140:	0000001c 	andeq	r0, r0, ip, lsl r0
 144:	5d040002 	stcpl	0, cr0, [r4, #-8]
 148:	00040000 	andeq	r0, r4, r0
 14c:	00000000 	andeq	r0, r0, r0
 150:	00002654 	andeq	r2, r0, r4, asr r6
 154:	00000838 	andeq	r0, r0, r8, lsr r8
	...
 160:	0000001c 	andeq	r0, r0, ip, lsl r0
 164:	66400002 	strbvs	r0, [r0], -r2
 168:	00040000 	andeq	r0, r4, r0
 16c:	00000000 	andeq	r0, r0, r0
 170:	00002e8c 	andeq	r2, r0, ip, lsl #29
 174:	00000384 	andeq	r0, r0, r4, lsl #7
	...
 180:	0000001c 	andeq	r0, r0, ip, lsl r0
 184:	6c040002 	stcvs	0, cr0, [r4], {2}
 188:	00040000 	andeq	r0, r4, r0
 18c:	00000000 	andeq	r0, r0, r0
 190:	00003210 	andeq	r3, r0, r0, lsl r2
 194:	00000150 	andeq	r0, r0, r0, asr r1
	...
 1a0:	0000001c 	andeq	r0, r0, ip, lsl r0
 1a4:	6c7b0002 	ldclvs	0, cr0, [fp], #-8
 1a8:	00040000 	andeq	r0, r4, r0
 1ac:	00000000 	andeq	r0, r0, r0
 1b0:	00003360 	andeq	r3, r0, r0, ror #6
 1b4:	000000b0 	strheq	r0, [r0], -r0
	...
 1c0:	0000001c 	andeq	r0, r0, ip, lsl r0
 1c4:	6de20002 	stclvs	0, cr0, [r2, #8]!
 1c8:	00040000 	andeq	r0, r4, r0
 1cc:	00000000 	andeq	r0, r0, r0
 1d0:	00003420 	andeq	r3, r0, r0, lsr #8
 1d4:	00000a18 	andeq	r0, r0, r8, lsl sl
	...

Disassembly of section .debug_str:

00000000 <.debug_str>:
       0:	74636146 	strbtvc	r6, [r3], #-326	; 0x146
       4:	004d726f 	subeq	r7, sp, pc, ror #4
       8:	74636146 	strbtvc	r6, [r3], #-326	; 0x146
       c:	004e726f 	subeq	r7, lr, pc, ror #4
      10:	74636146 	strbtvc	r6, [r3], #-326	; 0x146
      14:	0050726f 	subseq	r7, r0, pc, ror #4
      18:	61665f69 	cmnvs	r6, r9, ror #30
      1c:	70630072 	rsbvc	r0, r3, r2, ror r0
      20:	69645f75 	stmdbvs	r4!, {r0, r2, r4, r5, r6, r8, r9, sl, fp, ip, lr}^
      24:	63730076 	cmnvs	r3, #118	; 0x76
      28:	72676663 	rsbvc	r6, r7, #103809024	; 0x6300000
      2c:	6b6c6300 	blvs	1b18c34 <__bss_end+0x1b149ac>
      30:	7669645f 	undefined instruction 0x7669645f
      34:	76617300 	strbtvc	r7, [r1], -r0, lsl #6
      38:	725f6465 	subsvc	r6, pc, #1694498816	; 0x65000000
      3c:	69746e75 	ldmdbvs	r4!, {r0, r2, r4, r5, r6, r9, sl, fp, sp, lr}^
      40:	635f656d 	cmpvs	pc, #457179136	; 0x1b400000
      44:	65746e6f 	ldrbvs	r6, [r4, #-3695]!	; 0xe6f
      48:	735f7478 	cmpvc	pc, #2013265920	; 0x78000000
      4c:	64006376 	strvs	r6, [r0], #-886	; 0x376
      50:	7273665f 	rsbsvc	r6, r3, #99614720	; 0x5f00000
      54:	554e4700 	strbpl	r4, [lr, #-1792]	; 0x700
      58:	34204320 	strtcc	r4, [r0], #-800	; 0x320
      5c:	342e342e 	strtcc	r3, [lr], #-1070	; 0x42e
      60:	6f687300 	svcvs	0x00687300
      64:	69207472 	stmdbvs	r0!, {r1, r4, r5, r6, sl, ip, sp, lr}
      68:	7500746e 	strvc	r7, [r0, #-1134]	; 0x46e
      6c:	70747772 	rsbsvc	r7, r4, r2, ror r7
      70:	5f006469 	svcpl	0x00006469
      74:	7373625f 	cmnvc	r3, #-268435451	; 0xf0000005
      78:	646e655f 	strbtvs	r6, [lr], #-1375	; 0x55f
      7c:	76617300 	strbtvc	r7, [r1], -r0, lsl #6
      80:	6d5f6465 	cfldrdvs	mvd6, [pc, #-404]	; 0xfffffe6c
      84:	735f756d 	cmpvc	pc, #457179136	; 0x1b400000
      88:	65746174 	ldrbvs	r6, [r4, #-372]!	; 0x174
      8c:	6e6f6d00 	cdpvs	13, 6, cr6, cr15, cr0, {0}
      90:	62636576 	rsbvs	r6, r3, #494927872	; 0x1d800000
      94:	63007261 	movwvs	r7, #609	; 0x261
      98:	645f6b6c 	ldrbvs	r6, [pc], #2924	; a0 <__suspend_start+0xa0>
      9c:	745f7669 	ldrbvc	r7, [pc], #1641	; a4 <__suspend_start+0xa4>
      a0:	69616d00 	stmdbvs	r1!, {r8, sl, fp, sp, lr}^
      a4:	7363006e 	cmnvc	r3, #110	; 0x6e
      a8:	6d007273 	sfmvs	f7, 4, [r0, #-460]	; (stcvs 2, cr7, [r0, #-460])	; 0xfffffe34
      ac:	705f6d65 	subsvc	r6, pc, r5, ror #26
      b0:	7265776f 	rsbvc	r7, r5, #29097984	; 0x1bc0000
      b4:	696e695f 	stmdbvs	lr!, {r0, r1, r2, r3, r4, r6, r8, fp, sp, lr}^
      b8:	72655f74 	rsbvc	r5, r5, #464	; 0x1d0
      bc:	63730072 	cmnvs	r3, #114	; 0x72
      c0:	65676264 	strbvs	r6, [r7, #-612]!	; 0x264
      c4:	726c626e 	rsbvc	r6, ip, #-536870906	; 0xe0000006
      c8:	69786100 	ldmdbvs	r8!, {r8, sp, lr}^
      cc:	7669645f 	undefined instruction 0x7669645f
      d0:	74657200 	strbtvc	r7, [r5], #-512	; 0x200
      d4:	70007972 	andvc	r7, r0, r2, ror r9
      d8:	7369656c 	cmnvc	r9, #452984832	; 0x1b000000
      dc:	6c007261 	sfmvs	f7, 4, [r0], {97}	; (stcvs 2, cr7, [r0], {97})	; 0x61
      e0:	75616332 	strbvc	r6, [r1, #-818]!	; 0x332
      e4:	72746378 	rsbsvc	r6, r4, #-536870911	; 0xe0000001
      e8:	6400726c 	strvs	r7, [r0], #-620	; 0x26c
      ec:	00726361 	rsbseq	r6, r2, r1, ror #6
      f0:	5f6d656d 	svcpl	0x006d656d
      f4:	65776f70 	ldrbvs	r6, [r7, #-3952]!	; 0xf70
      f8:	666f5f72 	uqsub16vs	r5, pc, r2
      fc:	6f6e5f66 	svcvs	0x006e5f66
     100:	5f756d6d 	svcpl	0x00756d6d
     104:	00727265 	rsbseq	r7, r2, r5, ror #4
     108:	33755f5f 	cmncc	r5, #380	; 0x17c
     10c:	5f640032 	svcpl	0x00640032
     110:	00726166 	rsbseq	r6, r2, r6, ror #2
     114:	5f627061 	svcpl	0x00627061
     118:	00766964 	rsbseq	r6, r6, r4, ror #18
     11c:	676e6f6c 	strbvs	r6, [lr, -ip, ror #30]!
     120:	6e6f6c20 	cdpvs	12, 6, cr6, cr15, cr0, {1}
     124:	6e692067 	cdpvs	0, 6, cr2, cr9, cr7, {3}
     128:	65690074 	strbvs	r0, [r9, #-116]!	; 0x74
     12c:	61007273 	tstvs	r0, r3, ror r2
     130:	645f6268 	ldrbvs	r6, [pc], #616	; 138 <__suspend_start+0x138>
     134:	72007669 	andvc	r7, r0, #110100480	; 0x6900000
     138:	72657365 	rsbvc	r7, r5, #-1811939327	; 0x94000001
     13c:	00646576 	rsbeq	r6, r4, r6, ror r5
     140:	5f627474 	svcpl	0x00627474
     144:	70007230 	andvc	r7, r0, r0, lsr r2
     148:	00727363 	rsbseq	r7, r2, r3, ror #6
     14c:	65766173 	ldrbvs	r6, [r6, #-371]!	; 0x173
     150:	70635f64 	rsbvc	r5, r3, r4, ror #30
     154:	6f635f75 	svcvs	0x00635f75
     158:	7865746e 	stmdavc	r5!, {r1, r2, r3, r5, r6, sl, ip, sp, lr}^
     15c:	6c700074 	ldclvs	0, cr0, [r0], #-464	; 0xfffffe30
     160:	72617565 	rsbvc	r7, r1, #423624704	; 0x19400000
     164:	5f776100 	svcpl	0x00776100
     168:	5f6d656d 	svcpl	0x006d656d
     16c:	61726170 	cmnvs	r2, r0, ror r1
     170:	706d7400 	rsbvc	r7, sp, r0, lsl #8
     174:	00727450 	rsbseq	r7, r2, r0, asr r4
     178:	66615f64 	strbtvs	r5, [r1], -r4, ror #30
     17c:	73007273 	movwvc	r7, #627	; 0x273
     180:	64657661 	strbtvs	r7, [r5], #-1633	; 0x661
     184:	6e6f635f 	mcrvs	3, 3, r6, cr15, cr15, {2}
     188:	74786574 	ldrbtvc	r6, [r8], #-1396	; 0x574
     18c:	736e7500 	cmnvc	lr, #0
     190:	656e6769 	strbvs	r6, [lr, #-1897]!	; 0x769
     194:	68632064 	stmdavs	r3!, {r2, r5, r6, sp}^
     198:	70007261 	andvc	r7, r0, r1, ror #4
     19c:	00727272 	rsbseq	r7, r2, r2, ror r2
     1a0:	65766173 	ldrbvs	r6, [r6, #-371]!	; 0x173
     1a4:	72645f64 	rsbvc	r5, r4, #400	; 0x190
     1a8:	745f6d61 	ldrbvc	r6, [pc], #3425	; 1b0 <__suspend_start+0x1b0>
     1ac:	6e696172 	mcrvs	1, 3, r6, cr9, cr2, {3}
     1b0:	5f676e69 	svcpl	0x00676e69
     1b4:	61657261 	cmnvs	r5, r1, ror #4
     1b8:	745f6900 	ldrbvc	r6, [pc], #2304	; 1c0 <mem_memcpy+0x8>
     1bc:	726c626c 	rsbvc	r6, ip, #-1073741818	; 0xc0000006
     1c0:	625f5f00 	subsvs	r5, pc, #0
     1c4:	735f7373 	cmpvc	pc, #-872415231	; 0xcc000001
     1c8:	74726174 	ldrbtvc	r6, [r2], #-372	; 0x174
     1cc:	73797300 	cmnvc	r9, #0
     1d0:	6576655f 	ldrbvs	r6, [r6, #-1375]!	; 0x55f
     1d4:	7300746e 	movwvc	r7, #1134	; 0x46e
     1d8:	65707375 	ldrbvs	r7, [r0, #-885]!	; 0x375
     1dc:	775f646e 	ldrbvc	r6, [pc, -lr, ror #8]
     1e0:	5f687469 	svcpl	0x00687469
     1e4:	6d6d6f6e 	stclvs	15, cr6, [sp, #-440]!	; 0xfffffe48
     1e8:	6f6e0075 	svcvs	0x006e0075
     1ec:	6163736e 	cmnvs	r3, lr, ror #6
     1f0:	72746363 	rsbsvc	r6, r4, #-1946157055	; 0x8c000001
     1f4:	5f00726c 	svcpl	0x0000726c
     1f8:	3233735f 	eorscc	r7, r3, #2080374785	; 0x7c000001
     1fc:	656c7000 	strbvs	r7, [ip]!
     200:	73007263 	movwvc	r7, #611	; 0x263
     204:	65707375 	ldrbvs	r7, [r0, #-885]!	; 0x375
     208:	645f646e 	ldrbvs	r6, [pc], #1134	; 210 <mem_flush_tlb+0x10>
     20c:	32636463 	rsbcc	r6, r3, #1660944384	; 0x63000000
     210:	73757300 	cmnvc	r5, #0
     214:	646e6570 	strbtvs	r6, [lr], #-1392	; 0x570
     218:	6463645f 	strbtvs	r6, [r3], #-1119	; 0x45f
     21c:	63003363 	movwvs	r3, #867	; 0x363
     220:	00726365 	rsbseq	r6, r2, r5, ror #6
     224:	676e6f6c 	strbvs	r6, [lr, -ip, ror #30]!
     228:	6e6f6c20 	cdpvs	12, 6, cr6, cr15, cr0, {1}
     22c:	6e752067 	cdpvs	0, 7, cr2, cr5, cr7, {3}
     230:	6e676973 	mcrvs	9, 3, r6, cr7, cr3, {3}
     234:	69206465 	stmdbvs	r0!, {r0, r2, r5, r6, sl, sp, lr}
     238:	6900746e 	stmdbvs	r0, {r1, r2, r3, r5, r6, sl, ip, sp, lr}
     23c:	00726365 	rsbseq	r6, r2, r5, ror #6
     240:	76736e73 	undefined instruction 0x76736e73
     244:	00726162 	rsbseq	r6, r2, r2, ror #2
     248:	625f7073 	subsvs	r7, pc, #115	; 0x73
     24c:	756b6361 	strbvc	r6, [fp, #-865]!	; 0x361
     250:	75730070 	ldrbvc	r0, [r3, #-112]!	; 0x70
     254:	6e657073 	mcrvs	0, 3, r7, cr5, cr3, {3}
     258:	72655f64 	rsbvc	r5, r5, #400	; 0x190
     25c:	78610072 	stmdavc	r1!, {r1, r4, r5, r6}^
     260:	76655f70 	uqsub16vc	r5, r5, r0
     264:	00746e65 	rsbseq	r6, r4, r5, ror #28
     268:	726f6873 	rsbvc	r6, pc, #7536640	; 0x730000
     26c:	6e752074 	mrcvs	0, 3, r2, cr5, cr4, {3}
     270:	6e676973 	mcrvs	9, 3, r6, cr7, cr3, {3}
     274:	69206465 	stmdbvs	r0!, {r0, r2, r5, r6, sl, sp, lr}
     278:	7000746e 	andvc	r7, r0, lr, ror #8
     27c:	6963656c 	stmdbvs	r3!, {r2, r3, r5, r6, r8, sl, sp, lr}^
     280:	75007264 	strvc	r7, [r0, #-612]	; 0x264
     284:	70746f72 	rsbsvc	r6, r4, r2, ror pc
     288:	2f006469 	svccs	0x00006469
     28c:	656d6f68 	strbvs	r6, [sp, #-3944]!	; 0xf68
     290:	6b696d2f 	blvs	1a5b754 <__bss_end+0x1a574cc>
     294:	6f772f65 	svcvs	0x00772f65
     298:	6c2f6b72 	stcvs	11, cr6, [pc], #-456	; 0xfffffe38
     29c:	78756e69 	ldmdavc	r5!, {r0, r3, r5, r6, r9, sl, fp, sp, lr}^
     2a0:	3432365f 	ldrtcc	r3, [r2], #-1631	; 0x65f
     2a4:	6372612f 	cmnvs	r2, #-1073741813	; 0xc000000b
     2a8:	72612f68 	rsbvc	r2, r1, #416	; 0x1a0
     2ac:	616d2f6d 	cmnvs	sp, sp, ror #30
     2b0:	732d6863 	teqvc	sp, #6488064	; 0x630000
     2b4:	69356e75 	ldmdbvs	r5!, {r0, r2, r4, r5, r6, r9, sl, fp, sp, lr}
     2b8:	2f6d702f 	svccs	0x006d702f
     2bc:	6e617473 	mcrvs	4, 3, r7, cr1, cr3, {3}
     2c0:	00796264 	rsbseq	r6, r9, r4, ror #4
     2c4:	75732f2e 	ldrbvc	r2, [r3, #-3886]!	; 0xf2e
     2c8:	2f726570 	svccs	0x00726570
     2cc:	70737573 	rsbsvc	r7, r3, r3, ror r5
     2d0:	2f646e65 	svccs	0x00646e65
     2d4:	70737573 	rsbsvc	r7, r3, r3, ror r5
     2d8:	2e646e65 	cdpcs	14, 6, cr6, cr4, cr5, {3}
     2dc:	5f640063 	svcpl	0x00640063
     2e0:	6c626c74 	stclvs	12, cr6, [r2], #-464	; 0xfffffe30
     2e4:	6c700072 	ldclvs	0, cr0, [r0], #-456	; 0xfffffe38
     2e8:	61665f6c 	cmnvs	r6, ip, ror #30
     2ec:	726f7463 	rsbvc	r7, pc, #1660944384	; 0x63000000
     2f0:	6600745f 	undefined instruction 0x6600745f
     2f4:	00657363 	rsbeq	r7, r5, r3, ror #6
     2f8:	38755f5f 	ldmdacc	r5!, {r0, r1, r2, r3, r4, r6, r8, r9, sl, fp, ip, lr}^
     2fc:	73666f00 	cmnvc	r6, #0
     300:	6d700072 	ldclvs	0, cr0, [r0, #-456]!	; 0xfffffe38
     304:	746e6f63 	strbtvc	r6, [lr], #-3939	; 0xf63
     308:	726c6f72 	rsbvc	r6, ip, #456	; 0x1c8
     30c:	73656300 	cmnvc	r5, #0
     310:	75730072 	ldrbvc	r0, [r3, #-114]!	; 0x72
     314:	6e657073 	mcrvs	0, 3, r7, cr5, cr3, {3}
     318:	72665f64 	rsbvc	r5, r6, #400	; 0x190
     31c:	74007165 	strvc	r7, [r0], #-357	; 0x165
     320:	315f6274 	cmpcc	pc, r4, ror r2
     324:	656d0072 	strbvs	r0, [sp, #-114]!	; 0x72
     328:	61705f6d 	cmnvs	r0, sp, ror #30
     32c:	695f6172 	ldmdbvs	pc, {r1, r4, r5, r6, r8, sp, lr}^
     330:	006f666e 	rsbeq	r6, pc, lr, ror #12
     334:	69656c70 	stmdbvs	r5!, {r4, r5, r6, sl, fp, sp, lr}^
     338:	00726165 	rsbseq	r6, r2, r5, ror #2
     33c:	73665f69 	cmnvc	r6, #420	; 0x1a4
     340:	726e0072 	rsbvc	r0, lr, #114	; 0x72
     344:	74007272 	strvc	r7, [r0], #-626	; 0x272
     348:	72636274 	rsbvc	r6, r3, #1073741831	; 0x40000007
     34c:	636d7000 	cmnvs	sp, #0
     350:	746e756f 	strbtvc	r7, [lr], #-1391	; 0x56f
     354:	5f690072 	svcpl	0x00690072
     358:	72736661 	rsbsvc	r6, r3, #101711872	; 0x6100000
     35c:	73757300 	cmnvc	r5, #0
     360:	646e6570 	strbtvs	r6, [lr], #-1392	; 0x570
     364:	6172645f 	cmnvs	r2, pc, asr r4
     368:	72655f6d 	rsbvc	r5, r5, #436	; 0x1b4
     36c:	65720072 	ldrbvs	r0, [r2, #-114]!	; 0x72
     370:	656d7573 	strbvs	r7, [sp, #-1395]!	; 0x573
     374:	696f705f 	stmdbvs	pc!, {r0, r1, r2, r3, r4, r6, ip, sp, lr}^
     378:	7265746e 	rsbvc	r7, r5, #1845493760	; 0x6e000000
     37c:	656c7000 	strbvs	r7, [ip]!
     380:	00726e63 	rsbseq	r6, r2, r3, ror #28
     384:	70746f70 	rsbsvc	r6, r4, r0, ror pc
     388:	6c006469 	cfstrsvs	mvf6, [r0], {105}	; 0x69
     38c:	726c6332 	rsbvc	r6, ip, #-939524096	; 0xc8000000
     390:	63616300 	cmnvs	r1, #0
     394:	61460072 	cmpvs	r6, r2, ror r0
     398:	726f7463 	rsbvc	r7, pc, #1660944384	; 0x63000000
     39c:	6564004b 	strbvs	r0, [r4, #-75]!	; 0x4b
     3a0:	74007473 	strvc	r7, [r0], #-1139	; 0x473
     3a4:	645f706d 	ldrbvs	r7, [pc], #109	; 3ac <disable_program_flow_prediction+0x14>
     3a8:	2e007473 	mcrcs	4, 0, r7, cr0, cr3, {3}
     3ac:	7075732f 	rsbsvc	r7, r5, pc, lsr #6
     3b0:	632f7265 	teqvs	pc, #1342177286	; 0x50000006
     3b4:	6f6d6d6f 	svcvs	0x006d6d6f
     3b8:	00632e6e 	rsbeq	r2, r3, lr, ror #28
     3bc:	5f706d74 	svcpl	0x00706d74
     3c0:	00637273 	rsbeq	r7, r3, r3, ror r2
     3c4:	5f6d656d 	svcpl	0x006d656d
     3c8:	636d656d 	cmnvs	sp, #457179136	; 0x1b400000
     3cc:	46007970 	undefined instruction 0x46007970
     3d0:	65507169 	ldrbvs	r7, [r0, #-361]	; 0x169
     3d4:	6d00646e 	cfstrsvs	mvf6, [r0, #-440]	; 0xfffffe48
     3d8:	695f6d65 	ldmdbvs	pc, {r0, r2, r5, r6, r8, sl, fp, sp, lr}^
     3dc:	655f746e 	ldrbvs	r7, [pc, #-1134]	; ffffff76 <__bss_end+0xffffbcee>
     3e0:	00746978 	rsbseq	r6, r4, r8, ror r9
     3e4:	65746e69 	ldrbvs	r6, [r4, #-3689]!	; 0xe69
     3e8:	70757272 	rsbsvc	r7, r5, r2, ror r2
     3ec:	6f735f74 	svcvs	0x00735f74
     3f0:	65637275 	strbvs	r7, [r3, #-629]!	; 0x275
     3f4:	4900655f 	stmdbmi	r0, {r0, r1, r2, r3, r4, r6, r8, sl, sp, lr}
     3f8:	72507172 	subsvc	r7, r0, #-2147483620	; 0x8000001c
     3fc:	6d006f69 	stcvs	15, cr6, [r0, #-420]	; 0xfffffe5c
     400:	715f6d65 	cmpvc	pc, r5, ror #26
     404:	79726575 	ldmdbvc	r2!, {r0, r2, r4, r5, r6, r8, sl, sp, lr}^
     408:	746e695f 	strbtvc	r6, [lr], #-2399	; 0x95f
     40c:	71724900 	cmnvc	r2, r0, lsl #18
     410:	646e6550 	strbtvs	r6, [lr], #-1360	; 0x550
     414:	71724900 	cmnvc	r2, r0, lsl #18
     418:	63726f46 	cmnvs	r2, #280	; 0x118
     41c:	72490065 	subvc	r0, r9, #101	; 0x65
     420:	526e4571 	rsbpl	r4, lr, #473956352	; 0x1c400000
     424:	49006765 	stmdbmi	r0, {r0, r2, r5, r6, r8, r9, sl, sp, lr}
     428:	535f544e 	cmppl	pc, #1308622848	; 0x4e000000
     42c:	4352554f 	cmpmi	r2, #331350016	; 0x13c00000
     430:	454b5f45 	strbmi	r5, [fp, #-3909]	; 0xf45
     434:	44415059 	strbmi	r5, [r1], #-89	; 0x59
     438:	544e4900 	strbpl	r4, [lr], #-2304	; 0x900
     43c:	554f535f 	strbpl	r5, [pc, #-863]	; e5 <__suspend_start+0xe5>
     440:	5f454352 	svcpl	0x00454352
     444:	52414c41 	subpl	r4, r1, #16640	; 0x4100
     448:	7249004d 	subvc	r0, r9, #77	; 0x4d
     44c:	73655271 	cmnvc	r5, #268435463	; 0x10000007
     450:	4e490070 	mcrmi	0, 2, r0, cr9, cr0, {3}
     454:	4f535f54 	svcmi	0x00535f54
     458:	45435255 	strbmi	r5, [r3, #-597]	; 0x255
     45c:	554f545f 	strbpl	r5, [pc, #-1119]	; 5 <__suspend_start+0x5>
     460:	4e504843 	cdpmi	8, 5, cr4, cr0, cr3, {2}
     464:	4e49004c 	cdpmi	0, 4, cr0, cr9, cr12, {2}
     468:	4f535f54 	svcmi	0x00535f54
     46c:	45435255 	strbmi	r5, [r3, #-597]	; 0x255
     470:	3052495f 	subscc	r4, r2, pc, asr r9
     474:	544e4900 	strbpl	r4, [lr], #-2304	; 0x900
     478:	554f535f 	strbpl	r5, [pc, #-863]	; 121 <__suspend_start+0x121>
     47c:	5f454352 	svcpl	0x00454352
     480:	00315249 	eorseq	r5, r1, r9, asr #4
     484:	5f6d656d 	svcpl	0x006d656d
     488:	5f746e69 	svcpl	0x00746e69
     48c:	74696e69 	strbtvc	r6, [r9], #-3689	; 0xe69
     490:	544e4900 	strbpl	r4, [lr], #-2304	; 0x900
     494:	554f535f 	strbpl	r5, [pc, #-863]	; 13d <__suspend_start+0x13d>
     498:	5f454352 	svcpl	0x00454352
     49c:	454d4954 	strbmi	r4, [sp, #-2388]	; 0x954
     4a0:	49003052 	stmdbmi	r0, {r1, r4, r6, ip, sp}
     4a4:	535f544e 	cmppl	pc, #1308622848	; 0x4e000000
     4a8:	4352554f 	cmpmi	r2, #331350016	; 0x13c00000
     4ac:	49545f45 	ldmdbmi	r4, {r0, r2, r6, r8, r9, sl, fp, ip, lr}^
     4b0:	3152454d 	cmpcc	r2, sp, asr #10
     4b4:	544e4900 	strbpl	r4, [lr], #-2304	; 0x900
     4b8:	554f535f 	strbpl	r5, [pc, #-863]	; 161 <__suspend_start+0x161>
     4bc:	5f454352 	svcpl	0x00454352
     4c0:	30425355 	subcc	r5, r2, r5, asr r3
     4c4:	544e4900 	strbpl	r4, [lr], #-2304	; 0x900
     4c8:	554f535f 	strbpl	r5, [pc, #-863]	; 171 <__suspend_start+0x171>
     4cc:	5f454352 	svcpl	0x00454352
     4d0:	31425355 	cmpcc	r2, r5, asr r3
     4d4:	544e4900 	strbpl	r4, [lr], #-2304	; 0x900
     4d8:	554f535f 	strbpl	r5, [pc, #-863]	; 181 <__suspend_start+0x181>
     4dc:	5f454352 	svcpl	0x00454352
     4e0:	32425355 	subcc	r5, r2, #1409286145	; 0x54000001
     4e4:	544e4900 	strbpl	r4, [lr], #-2304	; 0x900
     4e8:	554f535f 	strbpl	r5, [pc, #-863]	; 191 <__suspend_start+0x191>
     4ec:	5f454352 	svcpl	0x00454352
     4f0:	33425355 	movtcc	r5, #9045	; 0x2355
     4f4:	544e4900 	strbpl	r4, [lr], #-2304	; 0x900
     4f8:	554f535f 	strbpl	r5, [pc, #-863]	; 1a1 <__suspend_start+0x1a1>
     4fc:	5f454352 	svcpl	0x00454352
     500:	34425355 	strbcc	r5, [r2], #-853	; 0x355
     504:	70795400 	rsbsvc	r5, r9, r0, lsl #8
     508:	6c655365 	stclvs	3, cr5, [r5], #-404	; 0xfffffe6c
     50c:	544e4900 	strbpl	r4, [lr], #-2304	; 0x900
     510:	554f535f 	strbpl	r5, [pc, #-863]	; 1b9 <mem_memcpy+0x1>
     514:	5f454352 	svcpl	0x00454352
     518:	4e545845 	cdpmi	8, 5, cr5, cr4, cr5, {2}
     51c:	4e00494d 	cdpmi	9, 0, cr4, cr0, cr13, {2}
     520:	7443696d 	strbvc	r6, [r3], #-2413	; 0x96d
     524:	6d006c72 	stcvs	12, cr6, [r0, #-456]	; 0xfffffe38
     528:	695f6d65 	ldmdbvs	pc, {r0, r2, r5, r6, r8, sl, fp, sp, lr}^
     52c:	725f746e 	subsvc	r7, pc, #1845493760	; 0x6e000000
     530:	745f6765 	ldrbvc	r6, [pc], #1893	; 538 <mem_preload_tlb_nommu+0x54>
     534:	73657200 	cmnvc	r5, #0
     538:	00746c75 	rsbseq	r6, r4, r5, ror ip
     53c:	74636556 	strbtvc	r6, [r3], #-1366	; 0x556
     540:	4900726f 	stmdbmi	r0, {r0, r1, r2, r3, r5, r6, r9, ip, sp, lr}
     544:	535f544e 	cmppl	pc, #1308622848	; 0x4e000000
     548:	4352554f 	cmpmi	r2, #331350016	; 0x13c00000
     54c:	524c5f45 	subpl	r5, ip, #276	; 0x114
     550:	00434441 	subeq	r4, r3, r1, asr #8
     554:	65736142 	ldrbvs	r6, [r3, #-322]!	; 0x142
     558:	72646441 	rsbvc	r6, r4, #1090519040	; 0x41000000
     55c:	71724900 	cmnvc	r2, r0, lsl #18
     560:	6b73614d 	blvs	1cd8a9c <__bss_end+0x1cd4814>
     564:	732f2e00 	teqvc	pc, #0
     568:	72657075 	rsbvc	r7, r5, #117	; 0x75
     56c:	7075732f 	rsbsvc	r7, r5, pc, lsr #6
     570:	695f7265 	ldmdbvs	pc, {r0, r2, r5, r6, r9, ip, sp, lr}^
     574:	632e746e 	teqvs	lr, #1845493760	; 0x6e000000
     578:	706d7400 	rsbvc	r7, sp, r0, lsl #8
     57c:	00707247 	rsbseq	r7, r0, r7, asr #4
     580:	4d717249 	lfmmi	f7, 2, [r1, #-292]!	; (ldclmi 2, cr7, [r1, #-292]!)	; 0xfffffedc
     584:	526b7361 	rsbpl	r7, fp, #-2080374783	; 0x84000001
     588:	49006765 	stmdbmi	r0, {r0, r2, r5, r6, r8, r9, sl, sp, lr}
     58c:	5263746e 	rsbpl	r7, r3, #1845493760	; 0x6e000000
     590:	49006765 	stmdbmi	r0, {r0, r2, r5, r6, r8, r9, sl, sp, lr}
     594:	65537172 	ldrbvs	r7, [r3, #-370]	; 0x172
     598:	6765526c 	strbvs	r5, [r5, -ip, ror #4]!
     59c:	706d7400 	rsbvc	r7, sp, r0, lsl #8
     5a0:	00637253 	rsbeq	r7, r3, r3, asr r2
     5a4:	5f6d656d 	svcpl	0x006d656d
     5a8:	62616e65 	rsbvs	r6, r1, #1616	; 0x650
     5ac:	695f656c 	ldmdbvs	pc, {r2, r3, r5, r6, r8, sl, sp, lr}^
     5b0:	7200746e 	andvc	r7, r0, #1845493760	; 0x6e000000
     5b4:	72657365 	rsbvc	r7, r5, #-1811939327	; 0x94000001
     5b8:	30646576 	rsbcc	r6, r4, r6, ror r5
     5bc:	73657200 	cmnvc	r5, #0
     5c0:	65767265 	ldrbvs	r7, [r6, #-613]!	; 0x265
     5c4:	72003164 	andvc	r3, r0, #25
     5c8:	72657365 	rsbvc	r7, r5, #-1811939327	; 0x94000001
     5cc:	32646576 	rsbcc	r6, r4, #494927872	; 0x1d800000
     5d0:	73657200 	cmnvc	r5, #0
     5d4:	65767265 	ldrbvs	r7, [r6, #-613]!	; 0x265
     5d8:	72003364 	andvc	r3, r0, #-1879048191	; 0x90000001
     5dc:	72657365 	rsbvc	r7, r5, #-1811939327	; 0x94000001
     5e0:	34646576 	strbtcc	r6, [r4], #-1398	; 0x576
     5e4:	73657200 	cmnvc	r5, #0
     5e8:	65767265 	ldrbvs	r7, [r6, #-613]!	; 0x265
     5ec:	72003564 	andvc	r3, r0, #419430400	; 0x19000000
     5f0:	72657365 	rsbvc	r7, r5, #-1811939327	; 0x94000001
     5f4:	36646576 	undefined instruction 0x36646576
     5f8:	73657200 	cmnvc	r5, #0
     5fc:	65767265 	ldrbvs	r7, [r6, #-613]!	; 0x265
     600:	41003764 	tstmi	r0, r4, ror #14
     604:	6d72616c 	ldfvse	f6, [r2, #-432]!	; 0xfffffe50
     608:	534d4857 	movtpl	r4, #55383	; 0xd857
     60c:	616c4100 	cmnvs	ip, r0, lsl #2
     610:	72496d72 	subvc	r6, r9, #7296	; 0x1c80
     614:	61745371 	cmnvs	r4, r1, ror r3
     618:	73764100 	cmnvc	r6, #0
     61c:	746e4331 	strbtvc	r4, [lr], #-817	; 0x331
     620:	616c4100 	cmnvs	ip, r0, lsl #2
     624:	72496d72 	subvc	r6, r9, #7296	; 0x1c80
     628:	006e4571 	rsbeq	r4, lr, r1, ror r5
     62c:	44637452 	strbtmi	r7, [r3], #-1106	; 0x452
     630:	00534d48 	subseq	r4, r3, r8, asr #26
     634:	43676f44 	cmnmi	r7, #272	; 0x110
     638:	52006c74 	andpl	r6, r0, #29696	; 0x7400
     63c:	4d596374 	ldclmi	3, cr6, [r9, #-464]	; 0xfffffe30
     640:	6d540044 	ldclvs	0, cr0, [r4, #-272]	; 0xfffffef0
     644:	6e493072 	mcrvs	0, 2, r3, cr9, cr2, {3}
     648:	6c615674 	stclvs	6, cr5, [r1], #-464	; 0xfffffe30
     64c:	63745200 	cmnvs	r4, #0
     650:	00534d48 	subseq	r4, r3, r8, asr #26
     654:	31726d54 	cmncc	r2, r4, asr sp
     658:	006c7443 	rsbeq	r7, ip, r3, asr #8
     65c:	30726d54 	rsbscc	r6, r2, r4, asr sp
     660:	56746e43 	ldrbtpl	r6, [r4], -r3, asr #28
     664:	54006c61 	strpl	r6, [r0], #-3169	; 0xc61
     668:	4335726d 	teqmi	r5, #-805306362	; 0xd0000006
     66c:	54006c74 	strpl	r6, [r0], #-3188	; 0xc74
     670:	4932726d 	ldmdbmi	r2!, {r0, r2, r3, r5, r6, r9, ip, sp, lr}
     674:	6156746e 	cmpvs	r6, lr, ror #8
     678:	5f5f006c 	svcpl	0x005f006c
     67c:	5f6d656d 	svcpl	0x006d656d
     680:	5f726d74 	svcpl	0x00726d74
     684:	5f676572 	svcpl	0x00676572
     688:	5f5f0074 	svcpl	0x005f0074
     68c:	4e415453 	mcrmi	4, 2, r5, cr1, cr3, {2}
     690:	5f594244 	svcpl	0x00594244
     694:	5f524d54 	svcpl	0x00524d54
     698:	00474552 	subeq	r4, r7, r2, asr r5
     69c:	32726d54 	rsbscc	r6, r2, #5376	; 0x1500
     6a0:	56746e43 	ldrbtpl	r6, [r4], -r3, asr #28
     6a4:	54006c61 	strpl	r6, [r0], #-3169	; 0xc61
     6a8:	4934726d 	ldmdbmi	r4!, {r0, r2, r3, r5, r6, r9, ip, sp, lr}
     6ac:	6156746e 	cmpvs	r6, lr, ror #8
     6b0:	6d54006c 	ldclvs	0, cr0, [r4, #-432]	; 0xfffffe50
     6b4:	6e433472 	mcrvs	4, 2, r3, cr3, cr2, {3}
     6b8:	6c615674 	stclvs	6, cr5, [r1], #-464	; 0xfffffe30
     6bc:	616c4100 	cmnvs	ip, r0, lsl #2
     6c0:	6e456d72 	mcrvs	13, 2, r6, cr5, cr2, {3}
     6c4:	73657200 	cmnvc	r5, #0
     6c8:	65767265 	ldrbvs	r7, [r6, #-613]!	; 0x265
     6cc:	43003864 	movwmi	r3, #2148	; 0x864
     6d0:	3436746e 	ldrtcc	r7, [r6], #-1134	; 0x46e
     6d4:	54006948 	strpl	r6, [r0], #-2376	; 0x948
     6d8:	4332726d 	teqmi	r2, #-805306362	; 0xd0000006
     6dc:	6d006c74 	stcvs	12, cr6, [r0, #-464]	; 0xfffffe30
     6e0:	745f6d65 	ldrbvc	r6, [pc], #3429	; 6e8 <mem_int_init+0x8>
     6e4:	695f726d 	ldmdbvs	pc, {r0, r2, r3, r5, r6, r9, ip, sp, lr}^
     6e8:	0074696e 	rsbseq	r6, r4, lr, ror #18
     6ec:	4d676f44 	stclmi	15, cr6, [r7, #-272]!	; 0xfffffef0
     6f0:	0065646f 	rsbeq	r6, r5, pc, ror #8
     6f4:	36746e43 	ldrbtcc	r6, [r4], -r3, asr #28
     6f8:	006f4c34 	rsbeq	r4, pc, r4, lsr ip
     6fc:	5f6d656d 	svcpl	0x006d656d
     700:	5f726d74 	svcpl	0x00726d74
     704:	61736964 	cmnvs	r3, r4, ror #18
     708:	5f656c62 	svcpl	0x00656c62
     70c:	63746177 	cmnvs	r4, #-1073741795	; 0xc000001d
     710:	676f6468 	strbvs	r6, [pc, -r8, ror #8]!
     714:	736f4c00 	cmnvc	pc, #0
     718:	6c744363 	ldclvs	3, cr4, [r4], #-396	; 0xfffffe74
     71c:	746e4300 	strbtvc	r4, [lr], #-768	; 0x300
     720:	74433436 	strbvc	r3, [r3], #-1078	; 0x436
     724:	6d54006c 	ldclvs	0, cr0, [r4, #-432]	; 0xfffffe50
     728:	6e493172 	mcrvs	1, 2, r3, cr9, cr2, {3}
     72c:	6c615674 	stclvs	6, cr5, [r1], #-464	; 0xfffffe30
     730:	73764100 	cmnvc	r6, #0
     734:	00766944 	rsbseq	r6, r6, r4, asr #18
     738:	33726d54 	cmncc	r2, #5376	; 0x1500
     73c:	006c7443 	rsbeq	r7, ip, r3, asr #8
     740:	43737641 	cmnmi	r3, #68157440	; 0x4100000
     744:	49006c74 	stmdbmi	r0, {r2, r4, r5, r6, sl, fp, sp, lr}
     748:	7453746e 	ldrbvc	r7, [r3], #-1134	; 0x46e
     74c:	6d540061 	ldclvs	0, cr0, [r4, #-388]	; 0xfffffe7c
     750:	52704772 	rsbspl	r4, r0, #29884416	; 0x1c80000
     754:	54006765 	strpl	r6, [r0], #-1893	; 0x765
     758:	4331726d 	teqmi	r1, #-805306362	; 0xd0000006
     75c:	6156746e 	cmpvs	r6, lr, ror #8
     760:	6d54006c 	ldclvs	0, cr0, [r4, #-432]	; 0xfffffe50
     764:	746e4972 	strbtvc	r4, [lr], #-2418	; 0x972
     768:	006c7443 	rsbeq	r7, ip, r3, asr #8
     76c:	33726d54 	cmncc	r2, #5376	; 0x1500
     770:	56746e49 	ldrbtpl	r6, [r4], -r9, asr #28
     774:	2e006c61 	cdpcs	12, 0, cr6, cr0, cr1, {3}
     778:	7075732f 	rsbsvc	r7, r5, pc, lsr #6
     77c:	732f7265 	teqvc	pc, #1342177286	; 0x50000006
     780:	72657075 	rsbvc	r7, r5, #117	; 0x75
     784:	726d745f 	rsbvc	r7, sp, #1593835520	; 0x5f000000
     788:	4100632e 	tstmi	r0, lr, lsr #6
     78c:	43307376 	teqmi	r0, #-671088639	; 0xd8000001
     790:	5400746e 	strpl	r7, [r0], #-1134	; 0x46e
     794:	4935726d 	ldmdbmi	r5!, {r0, r2, r3, r5, r6, r9, ip, sp, lr}
     798:	6156746e 	cmpvs	r6, lr, ror #8
     79c:	6d54006c 	ldclvs	0, cr0, [r4, #-432]	; 0xfffffe50
     7a0:	6e433572 	mcrvs	5, 2, r3, cr3, cr2, {3}
     7a4:	6c615674 	stclvs	6, cr5, [r1], #-464	; 0xfffffe30
     7a8:	726d5400 	rsbvc	r5, sp, #0
     7ac:	00676552 	rsbeq	r6, r7, r2, asr r5
     7b0:	30726d54 	rsbscc	r6, r2, r4, asr sp
     7b4:	006c7443 	rsbeq	r7, ip, r3, asr #8
     7b8:	34726d54 	ldrbtcc	r6, [r2], #-3412	; 0xd54
     7bc:	006c7443 	rsbeq	r7, ip, r3, asr #8
     7c0:	356c6c50 	strbcc	r6, [ip, #-3152]!	; 0xc50
     7c4:	656e7554 	strbvs	r7, [lr, #-1364]!	; 0x554
     7c8:	76615700 	strbtvc	r5, [r1], -r0, lsl #14
     7cc:	65745365 	ldrbvs	r5, [r4, #-869]!	; 0x365
     7d0:	5f5f0070 	svcpl	0x005f0070
     7d4:	756d6363 	strbvc	r6, [sp, #-867]!	; 0x363
     7d8:	6268615f 	rsbvs	r6, r8, #-1073741801	; 0xc0000017
     7dc:	5f6b6c63 	svcpl	0x006b6c63
     7e0:	65746167 	ldrbvs	r6, [r4, #-359]!	; 0x167
     7e4:	65725f30 	ldrbvs	r5, [r2, #-3888]!	; 0xf30
     7e8:	36303067 	ldrtcc	r3, [r0], -r7, rrx
     7ec:	00745f30 	rsbseq	r5, r4, r0, lsr pc
     7f0:	356c6c50 	strbcc	r6, [ip, #-3152]!	; 0xc50
     7f4:	656e7554 	strbvs	r7, [lr, #-1364]!	; 0x554
     7f8:	65560032 	ldrbvs	r0, [r6, #-50]	; 0x32
     7fc:	006b6c43 	rsbeq	r6, fp, r3, asr #24
     800:	52657654 	rsbpl	r7, r5, #88080384	; 0x5400000
     804:	74657365 	strbtvc	r7, [r5], #-869	; 0x365
     808:	635f5f00 	cmpvs	pc, #0
     80c:	5f756d63 	svcpl	0x00756d63
     810:	696d6468 	stmdbvs	sp!, {r3, r5, r6, sl, sp, lr}^
     814:	6b6c635f 	blvs	1b19598 <__bss_end+0x1b15310>
     818:	6765725f 	undefined instruction 0x6765725f
     81c:	30353130 	eorscc	r3, r5, r0, lsr r1
     820:	5f00745f 	svcpl	0x0000745f
     824:	4d43435f 	stclmi	3, cr4, [r3, #-380]	; 0xfffffe84
     828:	48415f55 	stmdami	r1, {r0, r2, r4, r6, r8, r9, sl, fp, ip, lr}^
     82c:	4b4c4342 	blmi	131153c <__bss_end+0x130d2b4>
     830:	5441475f 	strbpl	r4, [r1], #-1887	; 0x75f
     834:	525f3045 	subspl	r3, pc, #69	; 0x45
     838:	30304745 	eorscc	r4, r0, r5, asr #14
     83c:	4d003036 	stcmi	0, cr3, [r0, #-216]	; 0xffffff28
     840:	43737562 	cmnmi	r3, #411041792	; 0x18800000
     844:	54006b6c 	strpl	r6, [r0], #-2924	; 0xb6c
     848:	74614773 	strbtvc	r4, [r1], #-1907	; 0x773
     84c:	70530065 	subsvc	r0, r3, r5, rrx
     850:	6c433169 	stfvse	f3, [r3], {105}	; 0x69
     854:	634c006b 	movtvs	r0, #49259	; 0xc06b
     858:	68433064 	stmdavs	r3, {r2, r5, r6, ip, sp}^
     85c:	6b6c4330 	blvs	1b11524 <__bss_end+0x1b0d29c>
     860:	435f5f00 	cmpmi	pc, #0
     864:	5f554d43 	svcpl	0x00554d43
     868:	324c4c50 	subcc	r4, ip, #20480	; 0x5000
     86c:	4e55545f 	mrcmi	4, 2, r5, cr5, cr15, {2}
     870:	5f474e49 	svcpl	0x00474e49
     874:	30474552 	subcc	r4, r7, r2, asr r5
     878:	00433030 	subeq	r3, r3, r0, lsr r0
     87c:	474f4356 	smlsldmi	r4, pc, r6, r3
     880:	436e6961 	cmnmi	lr, #1589248	; 0x184000
     884:	5f006c74 	svcpl	0x00006c74
     888:	4d43435f 	stclmi	3, cr4, [r3, #-380]	; 0xfffffe84
     88c:	45465f55 	strbmi	r5, [r6, #-3925]	; 0xf55
     890:	504d4544 	subpl	r4, sp, r4, asr #10
     894:	4b4c435f 	blmi	1311618 <__bss_end+0x130d390>
     898:	435f5f00 	cmpmi	pc, #0
     89c:	5f554d43 	svcpl	0x00554d43
     8a0:	4d415244 	sfmmi	f5, 2, [r1, #-272]	; (stclmi 2, cr5, [r1, #-272])	; 0xfffffef0
     8a4:	5441475f 	strbpl	r4, [r1], #-1887	; 0x75f
     8a8:	45525f45 	ldrbmi	r5, [r2, #-3909]	; 0xf45
     8ac:	30313047 	eorscc	r3, r1, r7, asr #32
     8b0:	5f5f0030 	svcpl	0x005f0030
     8b4:	756d6363 	strbvc	r6, [sp, #-867]!	; 0x363
     8b8:	6464615f 	strbtvs	r6, [r4], #-351	; 0x15f
     8bc:	6c635f61 	stclvs	15, cr5, [r3], #-388	; 0xfffffe7c
     8c0:	65725f6b 	ldrbvs	r5, [r2, #-3947]!	; 0xf6b
     8c4:	34313067 	ldrtcc	r3, [r1], #-103	; 0x67
     8c8:	00745f30 	rsbseq	r5, r4, r0, lsr pc
     8cc:	63635f5f 	cmnvs	r3, #380	; 0x17c
     8d0:	645f756d 	ldrbvs	r7, [pc], #1389	; 8d8 <mem_clk_plldisable+0x2c>
     8d4:	5f6d6172 	svcpl	0x006d6172
     8d8:	65746167 	ldrbvs	r6, [r4, #-359]!	; 0x167
     8dc:	6765725f 	undefined instruction 0x6765725f
     8e0:	30303130 	eorscc	r3, r0, r0, lsr r1
     8e4:	5000745f 	andpl	r7, r0, pc, asr r4
     8e8:	4474736f 	ldrbtmi	r7, [r4], #-879	; 0x36f
     8ec:	53007669 	movwpl	r7, #1641	; 0x669
     8f0:	47306970 	undefined instruction 0x47306970
     8f4:	00657461 	rsbeq	r7, r5, r1, ror #8
     8f8:	6d4d6453 	cfstrdvs	mvd6, [sp, #-332]	; 0xfffffeb4
     8fc:	6c433063 	mcrrvs	0, 6, r3, r3, cr3
     900:	6c43006b 	mcrrvs	0, 6, r0, r3, cr11
     904:	6572506b 	ldrbvs	r5, [r2, #-107]!	; 0x6b
     908:	00766944 	rsbseq	r6, r6, r4, asr #18
     90c:	474f4356 	smlsldmi	r4, pc, r6, r3
     910:	456e6961 	strbmi	r6, [lr, #-2401]!	; 0x961
     914:	4c50006e 	mrrcmi	0, 6, r0, r0, cr14
     918:	506e494c 	rsbpl	r4, lr, ip, asr #18
     91c:	7265776f 	rsbvc	r7, r5, #29097984	; 0x1bc0000
     920:	435f5f00 	cmpmi	pc, #0
     924:	5f554d43 	svcpl	0x00554d43
     928:	5344564c 	movtpl	r5, #17996	; 0x464c
     92c:	4b4c435f 	blmi	13116b0 <__bss_end+0x130d428>
     930:	4745525f 	smlsldmi	r5, r5, pc, r2
     934:	43343130 	teqmi	r4, #12
     938:	6f695000 	svcvs	0x00695000
     93c:	65746147 	ldrbvs	r6, [r4, #-327]!	; 0x147
     940:	6c6c5000 	stclvs	0, cr5, [ip]
     944:	6c744334 	ldclvs	3, cr4, [r4], #-208	; 0xffffff30
     948:	635f5f00 	cmpvs	pc, #0
     94c:	5f756d63 	svcpl	0x00756d63
     950:	316c6c70 	smccc	50880	; 0xc6c0
     954:	6e75745f 	mrcvs	4, 3, r7, cr5, cr15, {2}
     958:	32676e69 	rsbcc	r6, r7, #1680	; 0x690
     95c:	6765725f 	undefined instruction 0x6765725f
     960:	38333030 	ldmdacc	r3!, {r4, r5, ip, sp}
     964:	5f00745f 	svcpl	0x0000745f
     968:	4d43435f 	stclmi	3, cr4, [r3, #-380]	; 0xfffffe84
     96c:	4f4d5f55 	svcmi	0x004d5f55
     970:	454c5544 	strbmi	r5, [ip, #-1348]	; 0x544
     974:	4c435f31 	mcrrmi	15, 3, r5, r3, cr1
     978:	444c004b 	strbmi	r0, [ip], #-75	; 0x4b
     97c:	006e454f 	rsbeq	r4, lr, pc, asr #10
     980:	63635f5f 	cmnvs	r3, #380	; 0x17c
     984:	705f756d 	subsvc	r7, pc, sp, ror #10
     988:	5f366c6c 	svcpl	0x00366c6c
     98c:	61746173 	cmnvs	r4, r3, ror r1
     990:	6765725f 	undefined instruction 0x6765725f
     994:	38323030 	ldmdacc	r2!, {r4, r5, ip, sp}
     998:	4200745f 	andmi	r7, r0, #1593835520	; 0x5f000000
     99c:	57646e61 	strbpl	r6, [r4, -r1, ror #28]!
     9a0:	68746469 	ldmdavs	r4!, {r0, r3, r5, r6, sl, sp, lr}^
     9a4:	43735300 	cmnmi	r3, #0
     9a8:	55006b6c 	strpl	r6, [r0, #-2924]	; 0xb6c
     9ac:	6c436273 	sfmvs	f6, 2, [r3], {115}	; (stclvs 2, cr6, [r3], {115})	; 0x73
     9b0:	5f5f006b 	svcpl	0x005f006b
     9b4:	756d6363 	strbvc	r6, [sp, #-867]!	; 0x363
     9b8:	64636c5f 	strbtvs	r6, [r3], #-3167	; 0xc5f
     9bc:	5f306863 	svcpl	0x00306863
     9c0:	5f6b6c63 	svcpl	0x006b6c63
     9c4:	634c0074 	movtvs	r0, #49268	; 0xc074
     9c8:	68433064 	stmdavs	r3, {r2, r5, r6, ip, sp}^
     9cc:	6b6c4331 	blvs	1b11698 <__bss_end+0x1b0d410>
     9d0:	635f5f00 	cmpvs	pc, #0
     9d4:	5f756d63 	svcpl	0x00756d63
     9d8:	7375626d 	cmnvc	r5, #-805306362	; 0xd0000006
     9dc:	6b6c635f 	blvs	1b19760 <__bss_end+0x1b154d8>
     9e0:	6765725f 	undefined instruction 0x6765725f
     9e4:	63353130 	teqvs	r5, #12
     9e8:	5f00745f 	svcpl	0x0000745f
     9ec:	4d43435f 	stclmi	3, cr4, [r3, #-380]	; 0xfffffe84
     9f0:	44485f55 	strbmi	r5, [r8], #-3925	; 0xf55
     9f4:	435f494d 	cmpmi	pc, #1261568	; 0x134000
     9f8:	525f4b4c 	subspl	r4, pc, #77824	; 0x13000
     9fc:	31304745 	teqcc	r0, r5, asr #14
     a00:	41003035 	tstmi	r0, r5, lsr r0
     a04:	47306270 	undefined instruction 0x47306270
     a08:	00657461 	rsbeq	r7, r5, r1, ror #8
     a0c:	63657053 	cmnvs	r5, #83	; 0x53
     a10:	316b6c43 	cmncc	fp, r3, asr #24
     a14:	00637253 	rsbeq	r7, r3, r3, asr r2
     a18:	43435f5f 	movtmi	r5, #16223	; 0x3f5f
     a1c:	505f554d 	subspl	r5, pc, sp, asr #10
     a20:	5f354c4c 	svcpl	0x00354c4c
     a24:	5f524444 	svcpl	0x00524444
     a28:	30474552 	subcc	r4, r7, r2, asr r5
     a2c:	00303230 	eorseq	r3, r0, r0, lsr r2
     a30:	63736f48 	cmnvs	r3, #288	; 0x120
     a34:	006c7443 	rsbeq	r7, ip, r3, asr #8
     a38:	63635f5f 	cmnvs	r3, #380	; 0x17c
     a3c:	705f756d 	subsvc	r7, pc, sp, ror #10
     a40:	5f316c6c 	svcpl	0x00316c6c
     a44:	696e7574 	stmdbvs	lr!, {r2, r4, r5, r6, r8, sl, ip, sp, lr}^
     a48:	725f676e 	subsvc	r6, pc, #28835840	; 0x1b80000
     a4c:	30306765 	eorscc	r6, r0, r5, ror #14
     a50:	745f3430 	ldrbvc	r3, [pc], #1072	; a58 <mem_clk_set_pll_factor+0x34>
     a54:	435f5f00 	cmpmi	pc, #0
     a58:	5f554d43 	svcpl	0x00554d43
     a5c:	344c4c50 	strbcc	r4, [ip], #-3152	; 0xc50
     a60:	5f45565f 	svcpl	0x0045565f
     a64:	30474552 	subcc	r4, r7, r2, asr r5
     a68:	00383130 	eorseq	r3, r8, r0, lsr r1
     a6c:	63635f5f 	cmnvs	r3, #380	; 0x17c
     a70:	615f756d 	cmpvs	pc, sp, ror #10
     a74:	63316270 	teqvs	r1, #7
     a78:	725f6b6c 	subsvc	r6, pc, #110592	; 0x1b000
     a7c:	6f697461 	svcvs	0x00697461
     a80:	6765725f 	undefined instruction 0x6765725f
     a84:	38353030 	ldmdacc	r5!, {r4, r5, ip, sp}
     a88:	6d00745f 	cfstrsvs	mvf7, [r0, #-380]	; 0xfffffe84
     a8c:	635f6d65 	cmpvs	pc, #6464	; 0x1940
     a90:	735f6b6c 	cmpvc	pc, #110592	; 0x1b000
     a94:	705f7465 	subsvc	r7, pc, r5, ror #8
     a98:	665f6c6c 	ldrbvs	r6, [pc], -ip, ror #24
     a9c:	6f746361 	svcvs	0x00746361
     aa0:	444c0072 	strbmi	r0, [ip], #-114	; 0x72
     aa4:	74754f4f 	ldrbtvc	r4, [r5], #-3919	; 0xf4f
     aa8:	00747570 	rsbseq	r7, r4, r0, ror r5
     aac:	63635f5f 	cmnvs	r3, #380	; 0x17c
     ab0:	755f756d 	ldrbvc	r7, [pc, #-1389]	; 54b <mem_preload_tlb_nommu+0x67>
     ab4:	635f6273 	cmpvs	pc, #805306375	; 0x30000007
     ab8:	725f6b6c 	subsvc	r6, pc, #110592	; 0x1b000
     abc:	30306765 	eorscc	r6, r0, r5, ror #14
     ac0:	745f6363 	ldrbvc	r6, [pc], #867	; ac8 <mem_clk_get_pll_factor+0x44>
     ac4:	47734d00 	ldrbmi	r4, [r3, -r0, lsl #26]!
     ac8:	00657461 	rsbeq	r7, r5, r1, ror #8
     acc:	5f6d656d 	svcpl	0x006d656d
     ad0:	5f6b6c63 	svcpl	0x006b6c63
     ad4:	64746567 	ldrbtvs	r6, [r4], #-1383	; 0x567
     ad8:	5f007669 	svcpl	0x00007669
     adc:	4d43435f 	stclmi	3, cr4, [r3, #-380]	; 0xfffffe84
     ae0:	4c505f55 	mrrcmi	15, 5, r5, r0, cr5
     ae4:	535f364c 	cmppl	pc, #79691776	; 0x4c00000
     ae8:	5f415441 	svcpl	0x00415441
     aec:	30474552 	subcc	r4, r7, r2, asr r5
     af0:	00383230 	eorseq	r3, r8, r0, lsr r2
     af4:	74726155 	ldrbtvc	r6, [r2], #-341	; 0x155
     af8:	74614732 	strbtvc	r4, [r1], #-1842	; 0x732
     afc:	734d0065 	movtvc	r0, #53349	; 0xd065
     b00:	006b6c43 	rsbeq	r6, fp, r3, asr #24
     b04:	63635f5f 	cmnvs	r3, #380	; 0x17c
     b08:	6d5f756d 	cfldr64vs	mvdx7, [pc, #-436]	; 0xfffffe4c
     b0c:	6c75646f 	cfldrdvs	mvd6, [r5], #-444	; 0xfffffe44
     b10:	635f3165 	cmpvs	pc, #1073741849	; 0x40000019
     b14:	745f6b6c 	ldrbvc	r6, [pc], #2924	; b1c <mem_twi_init+0x18>
     b18:	635f5f00 	cmpvs	pc, #0
     b1c:	5f756d63 	svcpl	0x00756d63
     b20:	5f676572 	svcpl	0x00676572
     b24:	7473696c 	ldrbtvc	r6, [r3], #-2412	; 0x96c
     b28:	5f00745f 	svcpl	0x0000745f
     b2c:	6d63635f 	stclvs	3, cr6, [r3, #-380]!	; 0xfffffe84
     b30:	736f5f75 	cmnvc	pc, #468	; 0x1d4
     b34:	6d343263 	lfmvs	f3, 4, [r4, #-396]!	; (ldcvs 2, cr3, [r4, #-396]!)	; 0xfffffe74
     b38:	6765725f 	undefined instruction 0x6765725f
     b3c:	30353030 	eorscc	r3, r5, r0, lsr r0
     b40:	5300745f 	movwpl	r7, #1119	; 0x45f
     b44:	636d4d64 	cmnvs	sp, #6400	; 0x1900
     b48:	6b6c4332 	blvs	1b11818 <__bss_end+0x1b0d590>
     b4c:	435f5f00 	cmpmi	pc, #0
     b50:	5f554d43 	svcpl	0x00554d43
     b54:	5355424d 	cmppl	r5, #-805306364	; 0xd0000004
     b58:	4b4c435f 	blmi	13118dc <__bss_end+0x130d654>
     b5c:	4745525f 	smlsldmi	r5, r5, pc, r2
     b60:	43353130 	teqmi	r5, #12
     b64:	64634c00 	strbtvs	r4, [r3], #-3072	; 0xc00
     b68:	74614730 	strbtvc	r4, [r1], #-1840	; 0x730
     b6c:	69440065 	stmdbvs	r4, {r0, r2, r5, r6}^
     b70:	55004d76 	strpl	r4, [r0, #-3446]	; 0xd76
     b74:	47306273 	undefined instruction 0x47306273
     b78:	00657461 	rsbeq	r7, r5, r1, ror #8
     b7c:	63635f5f 	cmnvs	r3, #380	; 0x17c
     b80:	705f756d 	subsvc	r7, pc, sp, ror #10
     b84:	5f356c6c 	svcpl	0x00356c6c
     b88:	5f726464 	svcpl	0x00726464
     b8c:	30676572 	rsbcc	r6, r7, r2, ror r5
     b90:	5f303230 	svcpl	0x00303230
     b94:	5f5f0074 	svcpl	0x005f0074
     b98:	756d6363 	strbvc	r6, [sp, #-867]!	; 0x363
     b9c:	6c6c705f 	stclvs	0, cr7, [ip], #-380	; 0xfffffe84
     ba0:	75615f32 	strbvc	r5, [r1, #-3890]!	; 0xf32
     ba4:	5f6f6964 	svcpl	0x006f6964
     ba8:	30676572 	rsbcc	r6, r7, r2, ror r5
     bac:	5f383030 	svcpl	0x00383030
     bb0:	5f5f0074 	svcpl	0x005f0074
     bb4:	554d4343 	strbpl	r4, [sp, #-835]	; 0x343
     bb8:	5356415f 	cmppl	r6, #-1073741801	; 0xc0000017
     bbc:	4b4c435f 	blmi	1311940 <__bss_end+0x130d6b8>
     bc0:	4745525f 	smlsldmi	r5, r5, pc, r2
     bc4:	34343130 	ldrtcc	r3, [r4], #-304	; 0x130
     bc8:	65724600 	ldrbvs	r4, [r2, #-1536]!	; 0x600
     bcc:	646f4d71 	strbtvs	r4, [pc], #3441	; bd4 <_mem_twi_stop+0x80>
     bd0:	4c500065 	mrrcmi	0, 6, r0, r0, cr5
     bd4:	7669444c 	strbtvc	r4, [r9], -ip, asr #8
     bd8:	77540050 	undefined instruction 0x77540050
     bdc:	61473069 	cmpvs	r7, r9, rrx
     be0:	50006574 	andpl	r6, r0, r4, ror r5
     be4:	54316c6c 	ldrtpl	r6, [r1], #-3180	; 0xc6c
     be8:	00656e75 	rsbeq	r6, r5, r5, ror lr
     bec:	43435f5f 	movtmi	r5, #16223	; 0x3f5f
     bf0:	415f554d 	cmpmi	pc, sp, asr #10
     bf4:	4c434248 	sfmmi	f4, 2, [r3], {72}	; (stclmi 2, cr4, [r3], {72})	; 0x48
     bf8:	41475f4b 	cmpmi	r7, fp, asr #30
     bfc:	5f314554 	svcpl	0x00314554
     c00:	30474552 	subcc	r4, r7, r2, asr r5
     c04:	00343630 	eorseq	r3, r4, r0, lsr r6
     c08:	31697053 	qdsubcc	r7, r3, r9
     c0c:	65746147 	ldrbvs	r6, [r4, #-327]!	; 0x147
     c10:	6d656d00 	stclvs	13, cr6, [r5]
     c14:	6b6c635f 	blvs	1b19998 <__bss_end+0x1b15710>
     c18:	7465675f 	strbtvc	r6, [r5], #-1887	; 0x75f
     c1c:	6c6c705f 	stclvs	0, cr7, [ip], #-380	; 0xfffffe84
     c20:	6361665f 	cmnvs	r1, #99614720	; 0x5f00000
     c24:	00726f74 	rsbseq	r6, r2, r4, ror pc
     c28:	74736942 	ldrbtvc	r6, [r3], #-2370	; 0x942
     c2c:	65746147 	ldrbvs	r6, [r4, #-327]!	; 0x147
     c30:	635f5f00 	cmpvs	pc, #0
     c34:	5f756d63 	svcpl	0x00756d63
     c38:	5f697363 	svcpl	0x00697363
     c3c:	5f6b6c63 	svcpl	0x006b6c63
     c40:	48410074 	stmdami	r1, {r2, r4, r5, r6}^
     c44:	6b6c4342 	blvs	1b11954 <__bss_end+0x1b0d6cc>
     c48:	00766944 	rsbseq	r6, r6, r4, asr #18
     c4c:	6d6d6453 	cfstrdvs	mvd6, [sp, #-332]!	; 0xfffffeb4
     c50:	61473063 	cmpvs	r7, r3, rrx
     c54:	5f006574 	svcpl	0x00006574
     c58:	6d63635f 	stclvs	3, cr6, [r3, #-380]!	; 0xfffffe84
     c5c:	68615f75 	stmdavs	r1!, {r0, r2, r4, r5, r6, r8, r9, sl, fp, ip, lr}^
     c60:	6b6c6362 	blvs	1b199f0 <__bss_end+0x1b15768>
     c64:	7461675f 	strbtvc	r6, [r1], #-1887	; 0x75f
     c68:	725f3165 	subsvc	r3, pc, #1073741849	; 0x40000019
     c6c:	30306765 	eorscc	r6, r0, r5, ror #14
     c70:	745f3436 	ldrbvc	r3, [pc], #1078	; c78 <twi_byte_rw+0x30>
     c74:	635f5f00 	cmpvs	pc, #0
     c78:	5f756d63 	svcpl	0x00756d63
     c7c:	696c616d 	stmdbvs	ip!, {r0, r2, r3, r5, r6, r8, sp, lr}^
     c80:	5f303034 	svcpl	0x00303034
     c84:	5f6b6c63 	svcpl	0x006b6c63
     c88:	30676572 	rsbcc	r6, r7, r2, ror r5
     c8c:	5f343531 	svcpl	0x00343531
     c90:	73430074 	movtvc	r0, #12404	; 0x3074
     c94:	6c433069 	mcrrvs	0, 6, r3, r3, cr9
     c98:	7256006b 	subsvc	r0, r6, #107	; 0x6b
     c9c:	754f6765 	strbvc	r6, [pc, #-1893]	; 53f <mem_preload_tlb_nommu+0x5b>
     ca0:	006e4574 	rsbeq	r4, lr, r4, ror r5
     ca4:	63635f5f 	cmnvs	r3, #380	; 0x17c
     ca8:	675f756d 	ldrbvs	r7, [pc, -sp, ror #10]
     cac:	635f7370 	cmpvs	pc, #-1073741823	; 0xc0000001
     cb0:	725f6b6c 	subsvc	r6, pc, #110592	; 0x1b000
     cb4:	30306765 	eorscc	r6, r0, r5, ror #14
     cb8:	745f3064 	ldrbvc	r3, [pc], #100	; cc0 <twi_byte_rw+0x78>
     cbc:	62684100 	rsbvs	r4, r8, #0
     cc0:	65746147 	ldrbvs	r6, [r4, #-327]!	; 0x147
     cc4:	68410030 	stmdavs	r1, {r4, r5}^
     cc8:	74614762 	strbtvc	r4, [r1], #-1890	; 0x762
     ccc:	55003165 	strpl	r3, [r0, #-357]	; 0x165
     cd0:	68506273 	ldmdavs	r0, {r0, r1, r4, r5, r6, r9, sp, lr}^
     cd4:	73523179 	cmpvc	r2, #1073741854	; 0x4000001e
     cd8:	32490074 	subcc	r0, r9, #116	; 0x74
     cdc:	6b6c4373 	blvs	1b11ab0 <__bss_end+0x1b0d828>
     ce0:	435f5f00 	cmpmi	pc, #0
     ce4:	5f554d43 	svcpl	0x00554d43
     ce8:	5f495343 	svcpl	0x00495343
     cec:	004b4c43 	subeq	r4, fp, r3, asr #24
     cf0:	63635f5f 	cmnvs	r3, #380	; 0x17c
     cf4:	6b5f756d 	blvs	17de2b0 <__bss_end+0x17da028>
     cf8:	61707965 	cmnvs	r0, r5, ror #18
     cfc:	6c635f64 	stclvs	15, cr5, [r3], #-400	; 0xfffffe70
     d00:	65725f6b 	ldrbvs	r5, [r2, #-3947]!	; 0xf6b
     d04:	63303067 	teqvs	r0, #103	; 0x67
     d08:	00745f34 	rsbseq	r5, r4, r4, lsr pc
     d0c:	316c6c50 	cmncc	ip, r0, asr ip
     d10:	006c7443 	rsbeq	r7, ip, r3, asr #8
     d14:	706d6144 	rsbvc	r6, sp, r4, asr #2
     d18:	74636146 	strbtvc	r6, [r3], #-326	; 0x146
     d1c:	4b00726f 	blmi	1d6e0 <__bss_end+0x19458>
     d20:	61707965 	cmnvs	r0, r5, ror #18
     d24:	74614764 	strbtvc	r4, [r1], #-1892	; 0x764
     d28:	70530065 	subsvc	r0, r3, r5, rrx
     d2c:	61473269 	cmpvs	r7, r9, ror #4
     d30:	44006574 	strmi	r6, [r0], #-1396	; 0x574
     d34:	30654665 	rsbcc	r4, r5, r5, ror #12
     d38:	006b6c43 	rsbeq	r6, fp, r3, asr #24
     d3c:	536c6c50 	cmnpl	ip, #20480	; 0x5000
     d40:	63746977 	cmnvs	r4, #1949696	; 0x1dc000
     d44:	76540068 	ldrbvc	r0, [r4], -r8, rrx
     d48:	61473065 	cmpvs	r7, r5, rrx
     d4c:	5f006574 	svcpl	0x00006574
     d50:	6d63635f 	stclvs	3, cr6, [r3, #-380]!	; 0xfffffe84
     d54:	6c705f75 	ldclvs	15, cr5, [r0], #-468	; 0xfffffe2c
     d58:	635f316c 	cmpvs	pc, #27
     d5c:	5f65726f 	svcpl	0x0065726f
     d60:	30676572 	rsbcc	r6, r7, r2, ror r5
     d64:	5f303030 	svcpl	0x00303030
     d68:	70530074 	subsvc	r0, r3, r4, ror r0
     d6c:	6c436365 	mcrrvs	3, 6, r6, r3, cr5
     d70:	6147326b 	cmpvs	r7, fp, ror #4
     d74:	49006574 	stmdbmi	r0, {r2, r4, r5, r6, r8, sl, sp, lr}
     d78:	6c433072 	mcrrvs	0, 7, r3, r3, cr2
     d7c:	7041006b 	subvc	r0, r1, fp, rrx
     d80:	6c433162 	stfvse	f3, [r3], {98}	; 0x62
     d84:	7669446b 	strbtvc	r4, [r9], -fp, ror #8
     d88:	6c614d00 	stclvs	13, cr4, [r1]
     d8c:	74614769 	strbtvc	r4, [r1], #-1897	; 0x769
     d90:	5f5f0065 	svcpl	0x005f0065
     d94:	554d4343 	strbpl	r4, [sp, #-835]	; 0x343
     d98:	4c414d5f 	mcrrmi	13, 5, r4, r1, cr15
     d9c:	30303449 	eorscc	r3, r0, r9, asr #8
     da0:	4b4c435f 	blmi	1311b24 <__bss_end+0x130d89c>
     da4:	4745525f 	smlsldmi	r5, r5, pc, r2
     da8:	34353130 	ldrtcc	r3, [r5], #-304	; 0x130
     dac:	73657200 	cmnvc	r5, #0
     db0:	65767265 	ldrbvs	r7, [r6, #-613]!	; 0x265
     db4:	00313164 	eorseq	r3, r1, r4, ror #2
     db8:	65736572 	ldrbvs	r6, [r3, #-1394]!	; 0x572
     dbc:	64657672 	strbtvs	r7, [r5], #-1650	; 0x672
     dc0:	72003231 	andvc	r3, r0, #268435459	; 0x10000003
     dc4:	72657365 	rsbvc	r7, r5, #-1811939327	; 0x94000001
     dc8:	31646576 	smccc	18006	; 0x4656
     dcc:	5f5f0033 	svcpl	0x005f0033
     dd0:	554d4343 	strbpl	r4, [sp, #-835]	; 0x343
     dd4:	4253555f 	subsmi	r5, r3, #398458880	; 0x17c00000
     dd8:	4b4c435f 	blmi	1311b5c <__bss_end+0x130d8d4>
     ddc:	4745525f 	smlsldmi	r5, r5, pc, r2
     de0:	43433030 	movtmi	r3, #12336	; 0x3030
     de4:	73657200 	cmnvc	r5, #0
     de8:	65767265 	ldrbvs	r7, [r6, #-613]!	; 0x265
     dec:	00353164 	eorseq	r3, r5, r4, ror #2
     df0:	65736572 	ldrbvs	r6, [r3, #-1394]!	; 0x572
     df4:	64657672 	strbtvs	r7, [r5], #-1650	; 0x672
     df8:	72003631 	andvc	r3, r0, #51380224	; 0x3100000
     dfc:	72657365 	rsbvc	r7, r5, #-1811939327	; 0x94000001
     e00:	31646576 	smccc	18006	; 0x4656
     e04:	65720037 	ldrbvs	r0, [r2, #-55]!	; 0x37
     e08:	76726573 	undefined instruction 0x76726573
     e0c:	38316465 	ldmdacc	r1!, {r0, r2, r5, r6, sl, sp, lr}
     e10:	73657200 	cmnvc	r5, #0
     e14:	65767265 	ldrbvs	r7, [r6, #-613]!	; 0x265
     e18:	00393164 	eorseq	r3, r9, r4, ror #2
     e1c:	53796850 	cmnpl	r9, #5242880	; 0x500000
     e20:	43636570 	cmnmi	r3, #469762048	; 0x1c000000
     e24:	61476b6c 	cmpvs	r7, ip, ror #22
     e28:	53006574 	movwpl	r6, #1396	; 0x574
     e2c:	66696470 	undefined instruction 0x66696470
     e30:	65746147 	ldrbvs	r6, [r4, #-327]!	; 0x147
     e34:	76615700 	strbtvc	r5, [r1], -r0, lsl #14
     e38:	746f4265 	strbtvc	r4, [pc], #613	; e40 <twi_byte_rw+0x1f8>
     e3c:	006d6f74 	rsbeq	r6, sp, r4, ror pc
     e40:	5f6d656d 	svcpl	0x006d656d
     e44:	5f6b6c63 	svcpl	0x006b6c63
     e48:	64746573 	ldrbtvs	r6, [r4], #-1395	; 0x573
     e4c:	53007669 	movwpl	r7, #1641	; 0x669
     e50:	43306970 	teqmi	r0, #1835008	; 0x1c0000
     e54:	5f006b6c 	svcpl	0x00006b6c
     e58:	4d43435f 	stclmi	3, cr4, [r3, #-380]	; 0xfffffe84
     e5c:	4f4d5f55 	svcmi	0x004d5f55
     e60:	454c5544 	strbmi	r5, [ip, #-1348]	; 0x544
     e64:	4c435f30 	mcrrmi	15, 3, r5, r3, cr0
     e68:	6549004b 	strbvs	r0, [r9, #-75]	; 0x4b
     e6c:	74614770 	strbtvc	r4, [r1], #-1904	; 0x770
     e70:	5f5f0065 	svcpl	0x005f0065
     e74:	756d6363 	strbvc	r6, [sp, #-867]!	; 0x363
     e78:	7065695f 	rsbvc	r6, r5, pc, asr r9
     e7c:	6b6c635f 	blvs	1b19c00 <__bss_end+0x1b15978>
     e80:	6765725f 	undefined instruction 0x6765725f
     e84:	30363130 	eorscc	r3, r6, r0, lsr r1
     e88:	7200745f 	andvc	r7, r0, #1593835520	; 0x5f000000
     e8c:	72657365 	rsbvc	r7, r5, #-1811939327	; 0x94000001
     e90:	32646576 	rsbcc	r6, r4, #494927872	; 0x1d800000
     e94:	65720030 	ldrbvs	r0, [r2, #-48]!	; 0x30
     e98:	76726573 	undefined instruction 0x76726573
     e9c:	31326465 	teqcc	r2, r5, ror #8
     ea0:	47655600 	strbmi	r5, [r5, -r0, lsl #12]!
     ea4:	00657461 	rsbeq	r7, r5, r1, ror #8
     ea8:	696d6448 	stmdbvs	sp!, {r3, r6, sl, sp, lr}^
     eac:	006b6c43 	rsbeq	r6, fp, r3, asr #24
     eb0:	424c4c50 	submi	r4, ip, #20480	; 0x5000
     eb4:	73617079 	cmnvc	r1, #121	; 0x79
     eb8:	65720073 	ldrbvs	r0, [r2, #-115]!	; 0x73
     ebc:	76726573 	undefined instruction 0x76726573
     ec0:	34316465 	ldrtcc	r6, [r1], #-1125	; 0x465
     ec4:	61724600 	cmnvs	r2, r0, lsl #12
     ec8:	74655363 	strbtvc	r5, [r5], #-867	; 0x363
     ecc:	635f5f00 	cmpvs	pc, #0
     ed0:	5f756d63 	svcpl	0x00756d63
     ed4:	31627061 	cmncc	r2, r1, rrx
     ed8:	5f6b6c63 	svcpl	0x006b6c63
     edc:	65746167 	ldrbvs	r6, [r4, #-359]!	; 0x167
     ee0:	6765725f 	undefined instruction 0x6765725f
     ee4:	63363030 	teqvs	r6, #48	; 0x30
     ee8:	5000745f 	andpl	r7, r0, pc, asr r4
     eec:	69424c4c 	stmdbvs	r2, {r2, r3, r6, sl, fp, lr}^
     ef0:	6e457361 	cdpvs	3, 4, cr7, cr5, cr1, {3}
     ef4:	64764c00 	ldrbtvs	r4, [r6], #-3072	; 0xc00
     ef8:	6b6c4373 	blvs	1b11ccc <__bss_end+0x1b0da44>
     efc:	4f435600 	svcmi	0x00435600
     f00:	49747352 	ldmdbmi	r4!, {r1, r4, r6, r8, r9, ip, sp, lr}^
     f04:	5f5f006e 	svcpl	0x005f006e
     f08:	554d4343 	strbpl	r4, [sp, #-835]	; 0x343
     f0c:	4958415f 	ldmdbmi	r8, {r0, r1, r2, r3, r4, r6, r8, lr}^
     f10:	5f4b4c43 	svcpl	0x004b4c43
     f14:	45544147 	ldrbmi	r4, [r4, #-327]	; 0x147
     f18:	4745525f 	smlsldmi	r5, r5, pc, r2
     f1c:	63353030 	teqvs	r5, #48	; 0x30
     f20:	73795300 	cmnvc	r9, #0
     f24:	446b6c43 	strbtmi	r6, [fp], #-3139	; 0xc43
     f28:	6f007669 	svcvs	0x00007669
     f2c:	66666f6e 	strbtvs	r6, [r6], -lr, ror #30
     f30:	732f2e00 	teqvc	pc, #0
     f34:	72657075 	rsbvc	r7, r5, #117	; 0x75
     f38:	7075732f 	rsbsvc	r7, r5, pc, lsr #6
     f3c:	635f7265 	cmpvs	pc, #1342177286	; 0x50000006
     f40:	6b636f6c 	blvs	18dccf8 <__bss_end+0x18d8a70>
     f44:	5f00632e 	svcpl	0x0000632e
     f48:	4d43435f 	stclmi	3, cr4, [r3, #-380]	; 0xfffffe84
     f4c:	4c505f55 	mrrcmi	15, 5, r5, r0, cr5
     f50:	415f324c 	cmpmi	pc, ip, asr #4
     f54:	4f494455 	svcmi	0x00494455
     f58:	4745525f 	smlsldmi	r5, r5, pc, r2
     f5c:	38303030 	ldmdacc	r0!, {r4, r5, ip, sp}
     f60:	435f5f00 	cmpmi	pc, #0
     f64:	5f554d43 	svcpl	0x00554d43
     f68:	4344434c 	movtmi	r4, #17228	; 0x434c
     f6c:	435f3148 	cmpmi	pc, #18
     f70:	5f004b4c 	svcpl	0x00004b4c
     f74:	6d63635f 	stclvs	3, cr6, [r3, #-380]!	; 0xfffffe84
     f78:	6c705f75 	ldclvs	15, cr5, [r0], #-468	; 0xfffffe2c
     f7c:	745f356c 	ldrbvc	r3, [pc], #1388	; f84 <twi_byte_rw_nommu+0x64>
     f80:	6e696e75 	mcrvs	14, 3, r6, cr9, cr5, {3}
     f84:	65725f67 	ldrbvs	r5, [r2, #-3943]!	; 0xf67
     f88:	32303067 	eorscc	r3, r0, #103	; 0x67
     f8c:	00745f34 	rsbseq	r5, r4, r4, lsr pc
     f90:	435f5f5f 	cmpmi	pc, #380	; 0x17c
     f94:	5f554d43 	svcpl	0x00554d43
     f98:	314c4c50 	cmpcc	ip, r0, asr ip
     f9c:	524f435f 	subpl	r4, pc, #2080374785	; 0x7c000001
     fa0:	45525f45 	ldrbmi	r5, [r2, #-3909]	; 0xf45
     fa4:	30303047 	eorscc	r3, r0, r7, asr #32
     fa8:	61550030 	cmpvs	r5, r0, lsr r0
     fac:	47317472 	undefined instruction 0x47317472
     fb0:	00657461 	rsbeq	r7, r5, r1, ror #8
     fb4:	43737047 	cmnmi	r3, #71	; 0x47
     fb8:	5f006b6c 	svcpl	0x00006b6c
     fbc:	4d43435f 	stclmi	3, cr4, [r3, #-380]	; 0xfffffe84
     fc0:	44415f55 	strbmi	r5, [r1], #-3925	; 0xf55
     fc4:	435f4144 	cmpmi	pc, #17
     fc8:	525f4b4c 	subspl	r4, pc, #77824	; 0x13000
     fcc:	31304745 	teqcc	r0, r5, asr #14
     fd0:	53003034 	movwpl	r3, #52	; 0x34
     fd4:	66696470 	undefined instruction 0x66696470
     fd8:	006b6c43 	rsbeq	r6, fp, r3, asr #24
     fdc:	63635f5f 	cmnvs	r3, #380	; 0x17c
     fe0:	705f756d 	subsvc	r7, pc, sp, ror #10
     fe4:	5f336c6c 	svcpl	0x00336c6c
     fe8:	65646976 	strbvs	r6, [r4, #-2422]!	; 0x976
     fec:	65725f6f 	ldrbvs	r5, [r2, #-3951]!	; 0xf6f
     ff0:	31303067 	teqcc	r0, r7, rrx
     ff4:	00745f30 	rsbseq	r5, r4, r0, lsr pc
     ff8:	61726453 	cmnvs	r2, r3, asr r4
     ffc:	7461476d 	strbtvc	r4, [r1], #-1901	; 0x76d
    1000:	77540065 	ldrbvc	r0, [r4, -r5, rrx]
    1004:	61473269 	cmpvs	r7, r9, ror #4
    1008:	5f006574 	svcpl	0x00006574
    100c:	6d63635f 	stclvs	3, cr6, [r3, #-380]!	; 0xfffffe84
    1010:	70615f75 	rsbvc	r5, r1, r5, ror pc
    1014:	6c633062 	stclvs	0, cr3, [r3], #-392	; 0xfffffe78
    1018:	61675f6b 	cmnvs	r7, fp, ror #30
    101c:	725f6574 	subsvc	r6, pc, #486539264	; 0x1d000000
    1020:	30306765 	eorscc	r6, r0, r5, ror #14
    1024:	745f3836 	ldrbvc	r3, [pc], #2102	; 102c <twi_byte_rw_nommu+0x10c>
    1028:	69705300 	ldmdbvs	r0!, {r8, r9, ip, lr}^
    102c:	6b6c4332 	blvs	1b11cfc <__bss_end+0x1b0da74>
    1030:	6d656d00 	stclvs	13, cr6, [r5]
    1034:	6b6c635f 	blvs	1b19db8 <__bss_end+0x1b15b30>
    1038:	6c6c705f 	stclvs	0, cr7, [ip], #-380	; 0xfffffe84
    103c:	62616e65 	rsbvs	r6, r1, #1616	; 0x650
    1040:	4400656c 	strmi	r6, [r0], #-1388	; 0x56c
    1044:	30654265 	rsbcc	r4, r5, r5, ror #4
    1048:	006b6c43 	rsbeq	r6, fp, r3, asr #24
    104c:	3243534f 	subcc	r5, r3, #1006632961	; 0x3c000001
    1050:	73474d34 	movtvc	r4, #32052	; 0x7d34
    1054:	7244006d 	subvc	r0, r4, #109	; 0x6d
    1058:	61476d61 	cmpvs	r7, r1, ror #26
    105c:	55006574 	strpl	r6, [r0, #-1396]	; 0x574
    1060:	68506273 	ldmdavs	r0, {r0, r1, r4, r5, r6, r9, sp, lr}^
    1064:	73523079 	cmpvc	r2, #121	; 0x79
    1068:	64530074 	ldrbvs	r0, [r3], #-116	; 0x74
    106c:	32636d6d 	rsbcc	r6, r3, #6976	; 0x1b40
    1070:	65746147 	ldrbvs	r6, [r4, #-327]!	; 0x147
    1074:	635f5f00 	cmpvs	pc, #0
    1078:	5f756d63 	svcpl	0x00756d63
    107c:	376c6c70 	undefined instruction 0x376c6c70
    1080:	6469765f 	strbtvs	r7, [r9], #-1631	; 0x65f
    1084:	5f316f65 	svcpl	0x00316f65
    1088:	30676572 	rsbcc	r6, r7, r2, ror r5
    108c:	5f303330 	svcpl	0x00303330
    1090:	5f5f0074 	svcpl	0x005f0074
    1094:	554d4343 	strbpl	r4, [sp, #-835]	; 0x343
    1098:	4250415f 	subsmi	r4, r0, #-1073741801	; 0xc0000017
    109c:	4b4c4331 	blmi	1311d68 <__bss_end+0x130dae0>
    10a0:	5441475f 	strbpl	r4, [r1], #-1887	; 0x75f
    10a4:	45525f45 	ldrbmi	r5, [r2, #-3909]	; 0xf45
    10a8:	36303047 	ldrtcc	r3, [r0], -r7, asr #32
    10ac:	6f4d0043 	svcvs	0x004d0043
    10b0:	65536564 	ldrbvs	r6, [r3, #-1380]	; 0x564
    10b4:	5f5f006c 	svcpl	0x005f006c
    10b8:	554d4343 	strbpl	r4, [sp, #-835]	; 0x343
    10bc:	4c4c505f 	mcrrmi	0, 5, r5, ip, cr15
    10c0:	49565f37 	ldmdbmi	r6, {r0, r1, r2, r4, r5, r8, r9, sl, fp, ip, lr}^
    10c4:	314f4544 	cmpcc	pc, r4, asr #10
    10c8:	4745525f 	smlsldmi	r5, r5, pc, r2
    10cc:	30333030 	eorscc	r3, r3, r0, lsr r0
    10d0:	63684f00 	cmnvs	r8, #0
    10d4:	61473069 	cmpvs	r7, r9, rrx
    10d8:	49006574 	stmdbmi	r0, {r2, r4, r5, r6, r8, sl, sp, lr}
    10dc:	61473072 	cmpvs	r7, r2, ror r0
    10e0:	5f006574 	svcpl	0x00006574
    10e4:	4d43435f 	stclmi	3, cr4, [r3, #-380]	; 0xfffffe84
    10e8:	50475f55 	subpl	r5, r7, r5, asr pc
    10ec:	4c435f53 	mcrrmi	15, 5, r5, r3, cr3
    10f0:	45525f4b 	ldrbmi	r5, [r2, #-3915]	; 0xf4b
    10f4:	44303047 	ldrtmi	r3, [r0], #-71	; 0x47
    10f8:	5f5f0030 	svcpl	0x005f0030
    10fc:	756d6363 	strbvc	r6, [sp, #-867]!	; 0x363
    1100:	646f6d5f 	strbtvs	r6, [pc], #3423	; 1108 <twi_byte_rw_nommu+0x1e8>
    1104:	30656c75 	rsbcc	r6, r5, r5, ror ip
    1108:	6b6c635f 	blvs	1b19e8c <__bss_end+0x1b15c04>
    110c:	5f00745f 	svcpl	0x0000745f
    1110:	4d43435f 	stclmi	3, cr4, [r3, #-380]	; 0xfffffe84
    1114:	534f5f55 	movtpl	r5, #65365	; 0xff55
    1118:	4d343243 	lfmmi	f3, 4, [r4, #-268]!	; (ldcmi 2, cr3, [r4, #-268]!)	; 0xfffffef4
    111c:	4745525f 	smlsldmi	r5, r5, pc, r2
    1120:	30353030 	eorscc	r3, r5, r0, lsr r0
    1124:	6c6c5000 	stclvs	0, cr5, [ip]
    1128:	6e755431 	mrcvs	4, 3, r5, cr5, cr1, {1}
    112c:	53003265 	movwpl	r3, #613	; 0x265
    1130:	47726d74 	undefined instruction 0x47726d74
    1134:	00657461 	rsbeq	r7, r5, r1, ror #8
    1138:	63616d45 	cmnvs	r1, #4416	; 0x1140
    113c:	65746147 	ldrbvs	r6, [r4, #-327]!	; 0x147
    1140:	79654b00 	stmdbvc	r5!, {r8, r9, fp, lr}^
    1144:	6c656946 	stclvs	9, cr6, [r5], #-280	; 0xfffffee8
    1148:	5f5f0064 	svcpl	0x005f0064
    114c:	756d6363 	strbvc	r6, [sp, #-867]!	; 0x363
    1150:	64766c5f 	ldrbtvs	r6, [r6], #-3167	; 0xc5f
    1154:	6c635f73 	stclvs	15, cr5, [r3], #-460	; 0xfffffe34
    1158:	65725f6b 	ldrbvs	r5, [r2, #-3947]!	; 0xf6b
    115c:	34313067 	ldrtcc	r3, [r1], #-103	; 0x67
    1160:	00745f63 	rsbseq	r5, r4, r3, ror #30
    1164:	356c6c50 	strbcc	r6, [ip, #-3152]!	; 0xc50
    1168:	006c7443 	rsbeq	r7, ip, r3, asr #8
    116c:	63635f5f 	cmnvs	r3, #380	; 0x17c
    1170:	765f756d 	ldrbvc	r7, [pc], -sp, ror #10
    1174:	6c635f65 	stclvs	15, cr5, [r3], #-404	; 0xfffffe6c
    1178:	65725f6b 	ldrbvs	r5, [r2, #-3947]!	; 0xf6b
    117c:	33313067 	teqcc	r1, #103	; 0x67
    1180:	00745f63 	rsbseq	r5, r4, r3, ror #30
    1184:	63635f5f 	cmnvs	r3, #380	; 0x17c
    1188:	705f756d 	subsvc	r7, pc, sp, ror #10
    118c:	5f326c6c 	svcpl	0x00326c6c
    1190:	696e7574 	stmdbvs	lr!, {r2, r4, r5, r6, r8, sl, ip, sp, lr}^
    1194:	725f676e 	subsvc	r6, pc, #28835840	; 0x1b80000
    1198:	30306765 	eorscc	r6, r0, r5, ror #14
    119c:	745f6330 	ldrbvc	r6, [pc], #816	; 11a4 <twi_byte_rw_nommu+0x284>
    11a0:	67695300 	strbvs	r5, [r9, -r0, lsl #6]!
    11a4:	6e49616d 	dvfvsez	f6, f1, #5.0
    11a8:	74754f00 	ldrbtvc	r4, [r5], #-3840	; 0xf00
    11ac:	45747570 	ldrbmi	r7, [r4, #-1392]!	; 0x570
    11b0:	5f5f006e 	svcpl	0x005f006e
    11b4:	554d4343 	strbpl	r4, [sp, #-835]	; 0x343
    11b8:	4c4c505f 	mcrrmi	0, 5, r5, ip, cr15
    11bc:	49565f33 	ldmdbmi	r6, {r0, r1, r4, r5, r8, r9, sl, fp, ip, lr}^
    11c0:	5f4f4544 	svcpl	0x004f4544
    11c4:	30474552 	subcc	r4, r7, r2, asr r5
    11c8:	00303130 	eorseq	r3, r0, r0, lsr r1
    11cc:	43435f5f 	movtmi	r5, #16223	; 0x3f5f
    11d0:	505f554d 	subspl	r5, pc, sp, asr #10
    11d4:	5f354c4c 	svcpl	0x00354c4c
    11d8:	494e5554 	stmdbmi	lr, {r2, r4, r6, r8, sl, ip, lr}^
    11dc:	5f32474e 	svcpl	0x0032474e
    11e0:	30474552 	subcc	r4, r7, r2, asr r5
    11e4:	00433330 	subeq	r3, r3, r0, lsr r3
    11e8:	61646441 	cmnvs	r4, r1, asr #8
    11ec:	65746147 	ldrbvs	r6, [r4, #-327]!	; 0x147
    11f0:	4f435600 	svcmi	0x00435600
    11f4:	73616942 	cmnvc	r1, #1081344	; 0x108000
    11f8:	635f5f00 	cmpvs	pc, #0
    11fc:	5f756d63 	svcpl	0x00756d63
    1200:	6364636c 	cmnvs	r4, #-1342177279	; 0xb0000001
    1204:	635f3168 	cmpvs	pc, #26
    1208:	745f6b6c 	ldrbvc	r6, [pc], #2924	; 1210 <twi_byte_rw_nommu+0x2f0>
    120c:	42654400 	rsbmi	r4, r5, #0
    1210:	61473065 	cmpvs	r7, r5, rrx
    1214:	53006574 	movwpl	r6, #1396	; 0x574
    1218:	636d4d64 	cmnvs	sp, #6400	; 0x1900
    121c:	6b6c4331 	blvs	1b11ee8 <__bss_end+0x1b0dc60>
    1220:	435f5f00 	cmpmi	pc, #0
    1224:	5f554d43 	svcpl	0x00554d43
    1228:	5f504549 	svcpl	0x00504549
    122c:	5f4b4c43 	svcpl	0x004b4c43
    1230:	30474552 	subcc	r4, r7, r2, asr r5
    1234:	00303631 	eorseq	r3, r0, r1, lsr r6
    1238:	43435f5f 	movtmi	r5, #16223	; 0x3f5f
    123c:	415f554d 	cmpmi	pc, sp, asr #10
    1240:	43314250 	teqmi	r1, #5
    1244:	525f4b4c 	subspl	r4, pc, #77824	; 0x13000
    1248:	4f495441 	svcmi	0x00495441
    124c:	4745525f 	smlsldmi	r5, r5, pc, r2
    1250:	38353030 	ldmdacc	r5!, {r4, r5, ip, sp}
    1254:	6d656d00 	stclvs	13, cr6, [r5]
    1258:	6b6c635f 	blvs	1b19fdc <__bss_end+0x1b15d54>
    125c:	6172645f 	cmnvs	r2, pc, asr r4
    1260:	7461676d 	strbtvc	r6, [r1], #-1901	; 0x76d
    1264:	00676e69 	rsbeq	r6, r7, r9, ror #28
    1268:	43435f5f 	movtmi	r5, #16223	; 0x3f5f
    126c:	505f554d 	subspl	r5, pc, sp, asr #10
    1270:	5f314c4c 	svcpl	0x00314c4c
    1274:	494e5554 	stmdbmi	lr, {r2, r4, r6, r8, sl, ip, lr}^
    1278:	5f32474e 	svcpl	0x0032474e
    127c:	30474552 	subcc	r4, r7, r2, asr r5
    1280:	00383330 	eorseq	r3, r8, r0, lsr r3
    1284:	63657053 	cmnvs	r5, #83	; 0x53
    1288:	316b6c43 	cmncc	fp, r3, asr #24
    128c:	65746147 	ldrbvs	r6, [r4, #-327]!	; 0x147
    1290:	73657200 	cmnvc	r5, #0
    1294:	65767265 	ldrbvs	r7, [r6, #-613]!	; 0x265
    1298:	53003964 	movwpl	r3, #2404	; 0x964
    129c:	43636570 	cmnmi	r3, #469762048	; 0x1c000000
    12a0:	53326b6c 	teqpl	r2, #110592	; 0x1b000
    12a4:	49006372 	stmdbmi	r0, {r1, r4, r5, r6, r8, r9, sp, lr}
    12a8:	61477369 	cmpvs	r7, r9, ror #6
    12ac:	4f006574 	svcmi	0x00006574
    12b0:	34324353 	ldrtcc	r4, [r2], #-851	; 0x353
    12b4:	006e454d 	rsbeq	r4, lr, sp, asr #10
    12b8:	5f757063 	svcpl	0x00757063
    12bc:	6c5f736d 	mrrcvs	3, 6, r7, pc, cr13
    12c0:	63706f6f 	cmnvs	r0, #444	; 0x1bc
    12c4:	4400746e 	strmi	r7, [r0], #-1134	; 0x46e
    12c8:	6147616d 	cmpvs	r7, sp, ror #2
    12cc:	50006574 	andpl	r6, r0, r4, ror r5
    12d0:	6e454c4c 	cdpvs	12, 4, cr4, cr5, cr12, {2}
    12d4:	435f5f00 	cmpmi	pc, #0
    12d8:	5f554d43 	svcpl	0x00554d43
    12dc:	5059454b 	subspl	r4, r9, fp, asr #10
    12e0:	435f4441 	cmpmi	pc, #1090519040	; 0x41000000
    12e4:	525f4b4c 	subspl	r4, pc, #77824	; 0x13000
    12e8:	30304745 	eorscc	r4, r0, r5, asr #14
    12ec:	5f003443 	svcpl	0x00003443
    12f0:	4d43435f 	stclmi	3, cr4, [r3, #-380]	; 0xfffffe84
    12f4:	59535f55 	ldmdbpl	r3, {r0, r2, r4, r6, r8, r9, sl, fp, ip, lr}^
    12f8:	4b4c4353 	blmi	131204c <__bss_end+0x130ddc4>
    12fc:	5441525f 	strbpl	r5, [r1], #-607	; 0x25f
    1300:	525f4f49 	subspl	r4, pc, #292	; 0x124
    1304:	30304745 	eorscc	r4, r0, r5, asr #14
    1308:	41003435 	tstmi	r0, r5, lsr r4
    130c:	43616464 	cmnmi	r1, #1677721600	; 0x64000000
    1310:	54006b6c 	strpl	r6, [r0], #-2924	; 0xb6c
    1314:	6b6c4373 	blvs	1b120e8 <__bss_end+0x1b0de60>
    1318:	63684500 	cmnvs	r8, #0
    131c:	61473069 	cmpvs	r7, r9, rrx
    1320:	49006574 	stmdbmi	r0, {r2, r4, r5, r6, r8, sl, sp, lr}
    1324:	4674696e 	ldrbtmi	r6, [r4], -lr, ror #18
    1328:	00716572 	rsbseq	r6, r1, r2, ror r5
    132c:	5079654b 	rsbspl	r6, r9, fp, asr #10
    1330:	6c436461 	cfstrdvs	mvd6, [r3], {97}	; 0x61
    1334:	4c50006b 	mrrcmi	0, 6, r0, r0, cr11
    1338:	6169424c 	cmnvs	r9, ip, asr #4
    133c:	614e0073 	cmpvs	lr, r3, ror r0
    1340:	6147646e 	cmpvs	r7, lr, ror #8
    1344:	53006574 	movwpl	r6, #1396	; 0x574
    1348:	74614773 	strbtvc	r4, [r1], #-1907	; 0x773
    134c:	5f5f0065 	svcpl	0x005f0065
    1350:	756d6363 	strbvc	r6, [sp, #-867]!	; 0x363
    1354:	6465665f 	strbtvs	r6, [r5], #-1631	; 0x65f
    1358:	5f706d65 	svcpl	0x00706d65
    135c:	5f6b6c63 	svcpl	0x006b6c63
    1360:	656d0074 	strbvs	r0, [sp, #-116]!	; 0x74
    1364:	6c635f6d 	stclvs	15, cr5, [r3], #-436	; 0xfffffe4c
    1368:	6e695f6b 	cdpvs	15, 6, cr5, cr9, cr11, {3}
    136c:	43007469 	movwmi	r7, #1129	; 0x469
    1370:	6552756d 	ldrbvs	r7, [r2, #-1389]	; 0x56d
    1374:	64480067 	strbvs	r0, [r8], #-103	; 0x67
    1378:	4744696d 	strbmi	r6, [r4, -sp, ror #18]
    137c:	00657461 	rsbeq	r7, r5, r1, ror #8
    1380:	5f6d656d 	svcpl	0x006d656d
    1384:	5f6b6c63 	svcpl	0x006b6c63
    1388:	646c6c70 	strbtvs	r6, [ip], #-3184	; 0xc70
    138c:	62617369 	rsbvs	r7, r1, #-1543503871	; 0xa4000001
    1390:	5600656c 	strpl	r6, [r0], -ip, ror #10
    1394:	31676572 	smccc	30290	; 0x7652
    1398:	4574754f 	ldrbmi	r7, [r4, #-1359]!	; 0x54f
    139c:	5f5f006e 	svcpl	0x005f006e
    13a0:	756d6363 	strbvc	r6, [sp, #-867]!	; 0x363
    13a4:	6c6c705f 	stclvs	0, cr7, [ip], #-380	; 0xfffffe84
    13a8:	75745f35 	ldrbvc	r5, [r4, #-3893]!	; 0xf35
    13ac:	676e696e 	strbvs	r6, [lr, -lr, ror #18]!
    13b0:	65725f32 	ldrbvs	r5, [r2, #-3890]!	; 0xf32
    13b4:	33303067 	teqcc	r0, #103	; 0x67
    13b8:	00745f63 	rsbseq	r5, r4, r3, ror #30
    13bc:	326c6c50 	rsbcc	r6, ip, #20480	; 0x5000
    13c0:	656e7554 	strbvs	r7, [lr, #-1364]!	; 0x554
    13c4:	635f5f00 	cmpvs	pc, #0
    13c8:	5f756d63 	svcpl	0x00756d63
    13cc:	63697861 	cmnvs	r9, #6356992	; 0x610000
    13d0:	675f6b6c 	ldrbvs	r6, [pc, -ip, ror #22]
    13d4:	5f657461 	svcpl	0x00657461
    13d8:	30676572 	rsbcc	r6, r7, r2, ror r5
    13dc:	5f633530 	svcpl	0x00633530
    13e0:	444c0074 	strbmi	r0, [ip], #-116	; 0x74
    13e4:	6e45324f 	cdpvs	2, 4, cr3, cr5, cr15, {2}
    13e8:	63614600 	cmnvs	r1, #0
    13ec:	4d726f74 	ldclmi	15, cr6, [r2, #-464]!	; 0xfffffe30
    13f0:	6c500031 	mrrcvs	0, 3, r0, r0, cr1
    13f4:	7443376c 	strbvc	r3, [r3], #-1900	; 0x76c
    13f8:	614e006c 	cmpvs	lr, ip, rrx
    13fc:	6c43646e 	cfstrdvs	mvd6, [r3], {110}	; 0x6e
    1400:	484f006b 	stmdami	pc, {r0, r1, r3, r5, r6}^
    1404:	53304943 	teqpl	r0, #1097728	; 0x10c000
    1408:	43636570 	cmnmi	r3, #469762048	; 0x1c000000
    140c:	61476b6c 	cmpvs	r7, ip, ror #22
    1410:	5f006574 	svcpl	0x00006574
    1414:	4d43435f 	stclmi	3, cr4, [r3, #-380]	; 0xfffffe84
    1418:	4c505f55 	mrrcmi	15, 5, r5, r0, cr5
    141c:	545f314c 	ldrbpl	r3, [pc], #332	; 1424 <mem_power_exit+0x2c>
    1420:	4e494e55 	mcrmi	14, 2, r4, cr9, cr5, {2}
    1424:	45525f47 	ldrbmi	r5, [r2, #-3911]	; 0xf47
    1428:	30303047 	eorscc	r3, r0, r7, asr #32
    142c:	65490034 	strbvs	r0, [r9, #-52]	; 0x34
    1430:	6b6c4370 	blvs	1b121f8 <__bss_end+0x1b0df70>
    1434:	635f5f00 	cmpvs	pc, #0
    1438:	5f756d63 	svcpl	0x00756d63
    143c:	5f737661 	svcpl	0x00737661
    1440:	5f6b6c63 	svcpl	0x006b6c63
    1444:	30676572 	rsbcc	r6, r7, r2, ror r5
    1448:	5f343431 	svcpl	0x00343431
    144c:	614d0074 	cmpvs	sp, r4, ror r0
    1450:	6c43696c 	mcrrvs	9, 6, r6, r3, cr12
    1454:	7641006b 	strbvc	r0, [r1], -fp, rrx
    1458:	6b6c4373 	blvs	1b1222c <__bss_end+0x1b0dfa4>
    145c:	64634c00 	strbtvs	r4, [r3], #-3072	; 0xc00
    1460:	65736552 	ldrbvs	r6, [r3, #-1362]!	; 0x552
    1464:	69530074 	ldmdbvs	r3, {r2, r4, r5, r6}^
    1468:	45616d67 	strbmi	r6, [r1, #-3431]!	; 0xd67
    146c:	5f5f006e 	svcpl	0x005f006e
    1470:	756d6363 	strbvc	r6, [sp, #-867]!	; 0x363
    1474:	7379735f 	cmnvc	r9, #2080374785	; 0x7c000001
    1478:	6c6b6c63 	stclvs	12, cr6, [fp], #-396	; 0xfffffe74
    147c:	7461725f 	strbtvc	r7, [r1], #-607	; 0x25f
    1480:	725f6f69 	subsvc	r6, pc, #420	; 0x1a4
    1484:	30306765 	eorscc	r6, r0, r5, ror #14
    1488:	745f3435 	ldrbvc	r3, [pc], #1077	; 1490 <mem_power_exit+0x98>
    148c:	72615500 	rsbvc	r5, r1, #0
    1490:	61473374 	cmpvs	r7, r4, ror r3
    1494:	44006574 	strmi	r6, [r0], #-1396	; 0x574
    1498:	30654665 	rsbcc	r4, r5, r5, ror #12
    149c:	65746147 	ldrbvs	r6, [r4, #-327]!	; 0x147
    14a0:	6c6c5000 	stclvs	0, cr5, [ip]
    14a4:	6c744333 	ldclvs	3, cr4, [r4], #-204	; 0xffffff34
    14a8:	69784100 	ldmdbvs	r8!, {r8, lr}^
    14ac:	65746147 	ldrbvs	r6, [r4, #-327]!	; 0x147
    14b0:	73704700 	cmnvc	r0, #0
    14b4:	65746147 	ldrbvs	r6, [r4, #-327]!	; 0x147
    14b8:	6c6c5000 	stclvs	0, cr5, [ip]
    14bc:	6c744336 	ldclvs	3, cr4, [r4], #-216	; 0xffffff28
    14c0:	435f5f00 	cmpmi	pc, #0
    14c4:	5f554d43 	svcpl	0x00554d43
    14c8:	4344434c 	movtmi	r4, #17228	; 0x434c
    14cc:	435f3048 	cmpmi	pc, #72	; 0x48
    14d0:	4c004b4c 	stcmi	11, cr4, [r0], {76}	; 0x4c
    14d4:	546b636f 	strbtpl	r6, [fp], #-879	; 0x36f
    14d8:	00656d69 	rsbeq	r6, r5, r9, ror #26
    14dc:	43435f5f 	movtmi	r5, #16223	; 0x3f5f
    14e0:	565f554d 	ldrbpl	r5, [pc], -sp, asr #10
    14e4:	4c435f45 	mcrrmi	15, 4, r5, r3, cr5
    14e8:	45525f4b 	ldrbmi	r5, [r2, #-3915]	; 0xf4b
    14ec:	33313047 	teqcc	r1, #71	; 0x47
    14f0:	61550043 	cmpvs	r5, r3, asr #32
    14f4:	47307472 	undefined instruction 0x47307472
    14f8:	00657461 	rsbeq	r7, r5, r1, ror #8
    14fc:	426f6356 	rsbmi	r6, pc, #1476395009	; 0x58000001
    1500:	00736169 	rsbseq	r6, r3, r9, ror #2
    1504:	76657250 	undefined instruction 0x76657250
    1508:	00766944 	rsbseq	r6, r6, r4, asr #18
    150c:	43495841 	movtmi	r5, #38977	; 0x9841
    1510:	69446b6c 	stmdbvs	r4, {r2, r3, r5, r6, r8, r9, fp, sp, lr}^
    1514:	70410076 	subvc	r0, r1, r6, ror r0
    1518:	61473162 	cmpvs	r7, r2, ror #2
    151c:	5f006574 	svcpl	0x00006574
    1520:	4d43435f 	stclmi	3, cr4, [r3, #-380]	; 0xfffffe84
    1524:	4c505f55 	mrrcmi	15, 5, r5, r0, cr5
    1528:	545f354c 	ldrbpl	r3, [pc], #1356	; 1530 <mem_power_exit+0x138>
    152c:	4e494e55 	mcrmi	14, 2, r4, cr9, cr5, {2}
    1530:	45525f47 	ldrbmi	r5, [r2, #-3911]	; 0xf47
    1534:	32303047 	eorscc	r3, r0, #71	; 0x47
    1538:	43560034 	cmpmi	r6, #52	; 0x34
    153c:	6961474f 	stmdbvs	r1!, {r0, r1, r2, r3, r6, r8, r9, sl, lr}^
    1540:	4341006e 	movtmi	r0, #4206	; 0x106e
    1544:	43383233 	teqmi	r8, #805306371	; 0x30000003
    1548:	72536b6c 	subsvc	r6, r3, #110592	; 0x1b000
    154c:	72460063 	subvc	r0, r6, #99	; 0x63
    1550:	65757165 	ldrbvs	r7, [r5, #-357]!	; 0x165
    1554:	0079636e 	rsbseq	r6, r9, lr, ror #6
    1558:	31697754 	cmncc	r9, r4, asr r7
    155c:	65746147 	ldrbvs	r6, [r4, #-327]!	; 0x147
    1560:	6c6c5000 	stclvs	0, cr5, [ip]
    1564:	6c744332 	ldclvs	3, cr4, [r4], #-200	; 0xffffff38
    1568:	435f5f00 	cmpmi	pc, #0
    156c:	5f554d43 	svcpl	0x00554d43
    1570:	5f474552 	svcpl	0x00474552
    1574:	5453494c 	ldrbpl	r4, [r3], #-2380	; 0x94c
    1578:	635f5f00 	cmpvs	pc, #0
    157c:	5f756d63 	svcpl	0x00756d63
    1580:	346c6c70 	strbtcc	r6, [ip], #-3184	; 0xc70
    1584:	5f65765f 	svcpl	0x0065765f
    1588:	30676572 	rsbcc	r6, r7, r2, ror r5
    158c:	5f383130 	svcpl	0x00383130
    1590:	50410074 	subpl	r0, r1, r4, ror r0
    1594:	6c433042 	mcrrvs	0, 4, r3, r3, cr2
    1598:	7669446b 	strbtvc	r4, [r9], -fp, ror #8
    159c:	42484100 	submi	r4, r8, #0
    15a0:	536b6c43 	cmnpl	fp, #17152	; 0x4300
    15a4:	43006c65 	movwmi	r6, #3173	; 0xc65
    15a8:	47306973 	undefined instruction 0x47306973
    15ac:	00657461 	rsbeq	r7, r5, r1, ror #8
    15b0:	6d6d6453 	cfstrdvs	mvd6, [sp, #-332]!	; 0xfffffeb4
    15b4:	61473163 	cmpvs	r7, r3, ror #2
    15b8:	5f006574 	svcpl	0x00006574
    15bc:	4d43435f 	stclmi	3, cr4, [r3, #-380]	; 0xfffffe84
    15c0:	50415f55 	subpl	r5, r1, r5, asr pc
    15c4:	4c433042 	mcrrmi	0, 4, r3, r3, cr2
    15c8:	41475f4b 	cmpmi	r7, fp, asr #30
    15cc:	525f4554 	subspl	r4, pc, #352321536	; 0x15000000
    15d0:	30304745 	eorscc	r4, r0, r5, asr #14
    15d4:	67003836 	smladxvs	r0, r6, r8, r3
    15d8:	70756f72 	rsbsvc	r6, r5, r2, ror pc
    15dc:	67657200 	strbvs	r7, [r5, -r0, lsl #4]!
    15e0:	6c74635f 	ldclvs	3, cr6, [r4], #-380	; 0xfffffe84
    15e4:	49575400 	ldmdbmi	r7, {sl, ip, lr}^
    15e8:	5f504f5f 	svcpl	0x00504f5f
    15ec:	5f005257 	svcpl	0x00005257
    15f0:	5f6d656d 	svcpl	0x006d656d
    15f4:	5f697774 	svcpl	0x00697774
    15f8:	74666f73 	strbtvc	r6, [r6], #-3955	; 0xf73
    15fc:	7365725f 	cmnvc	r5, #-268435451	; 0xf0000005
    1600:	73007465 	movwvc	r7, #1125	; 0x465
    1604:	5f706f74 	svcpl	0x00706f74
    1608:	0074756f 	rsbseq	r7, r4, pc, ror #10
    160c:	64646162 	strbtvs	r6, [r4], #-354	; 0x162
    1610:	656d0072 	strbvs	r0, [sp, #-114]!	; 0x72
    1614:	77745f6d 	ldrbvc	r5, [r4, -sp, ror #30]!
    1618:	6e695f69 	cdpvs	15, 6, cr5, cr9, cr9, {3}
    161c:	2e007469 	cdpcs	4, 0, cr7, cr0, cr9, {3}
    1620:	7075732f 	rsbsvc	r7, r5, pc, lsr #6
    1624:	732f7265 	teqvc	pc, #1342177286	; 0x50000006
    1628:	72657075 	rsbvc	r7, r5, #117	; 0x75
    162c:	6977745f 	ldmdbvs	r7!, {r0, r1, r2, r3, r4, r6, sl, ip, sp, lr}^
    1630:	7200632e 	andvc	r6, r0, #-1207959552	; 0xb8000000
    1634:	725f6765 	subsvc	r6, pc, #26476544	; 0x1940000
    1638:	74657365 	strbtvc	r7, [r5], #-869	; 0x365
    163c:	67657200 	strbvs	r7, [r5, -r0, lsl #4]!
    1640:	7461645f 	strbtvc	r6, [r1], #-1119	; 0x45f
    1644:	5f5f0061 	svcpl	0x005f0061
    1648:	63697774 	cmnvs	r9, #30408704	; 0x1d00000
    164c:	6765725f 	undefined instruction 0x6765725f
    1650:	7400745f 	strvc	r7, [r0], #-1119	; 0x45f
    1654:	6f5f6977 	svcvs	0x005f6977
    1658:	79745f70 	ldmdbvc	r4!, {r4, r5, r6, r8, r9, sl, fp, ip, lr}^
    165c:	655f6570 	ldrbvs	r6, [pc, #-1392]	; 10f4 <twi_byte_rw_nommu+0x1d4>
    1660:	61747300 	cmnvs	r4, r0, lsl #6
    1664:	745f6574 	ldrbvc	r6, [pc], #1396	; 166c <mem_power_exit+0x274>
    1668:	7400706d 	strvc	r7, [r0], #-109	; 0x6d
    166c:	725f6977 	subsvc	r6, pc, #1949696	; 0x1dc000
    1670:	6e006765 	cdpvs	7, 0, cr6, cr0, cr5, {3}
    1674:	725f706f 	subsvc	r7, pc, #111	; 0x6f
    1678:	00646165 	rsbeq	r6, r4, r5, ror #2
    167c:	5f676174 	svcpl	0x00676174
    1680:	63697774 	cmnvs	r9, #30408704	; 0x1d00000
    1684:	6765725f 	undefined instruction 0x6765725f
    1688:	69775400 	ldmdbvs	r7!, {sl, ip, lr}^
    168c:	526b6c43 	rsbpl	r6, fp, #17152	; 0x4300
    1690:	61426765 	cmpvs	r2, r5, ror #14
    1694:	6573006b 	ldrbvs	r0, [r3, #-107]!	; 0x6b
    1698:	5f707574 	svcpl	0x00707574
    169c:	5f697774 	svcpl	0x00697774
    16a0:	00766e65 	rsbseq	r6, r6, r5, ror #28
    16a4:	5f676572 	svcpl	0x00676572
    16a8:	726b6c63 	rsbvc	r6, fp, #25344	; 0x6300
    16ac:	67657200 	strbvs	r7, [r5, -r0, lsl #4]!
    16b0:	6173785f 	cmnvs	r3, pc, asr r8
    16b4:	00726464 	rsbseq	r6, r2, r4, ror #8
    16b8:	5f676572 	svcpl	0x00676572
    16bc:	74617473 	strbtvc	r7, [r1], #-1139	; 0x473
    16c0:	72007375 	andvc	r7, r0, #-738197503	; 0xd4000001
    16c4:	735f6765 	cmpvc	pc, #26476544	; 0x1940000
    16c8:	72646461 	rsbvc	r6, r4, #1627389952	; 0x61000000
    16cc:	69777400 	ldmdbvs	r7!, {sl, ip, sp, lr}^
    16d0:	7479625f 	ldrbtvc	r6, [r9], #-607	; 0x25f
    16d4:	77725f65 	ldrbvc	r5, [r2, -r5, ror #30]!
    16d8:	49575400 	ldmdbmi	r7, {sl, ip, lr}^
    16dc:	4745525f 	smlsldmi	r5, r5, pc, r2
    16e0:	5341425f 	movtpl	r4, #4703	; 0x125f
    16e4:	57540045 	ldrbpl	r0, [r4, -r5, asr #32]
    16e8:	504f5f49 	subpl	r5, pc, r9, asr #30
    16ec:	0044525f 	subeq	r5, r4, pc, asr r2
    16f0:	5f676572 	svcpl	0x00676572
    16f4:	6c74636c 	ldclvs	3, cr6, [r4], #-432	; 0xfffffe50
    16f8:	69777400 	ldmdbvs	r7!, {sl, ip, sp, lr}^
    16fc:	7479625f 	ldrbtvc	r6, [r9], #-607	; 0x25f
    1700:	77725f65 	ldrbvc	r5, [r2, -r5, ror #30]!
    1704:	6d6f6e5f 	stclvs	14, cr6, [pc, #-380]!	; 0xfffffe84
    1708:	5f00756d 	svcpl	0x0000756d
    170c:	5f6d656d 	svcpl	0x006d656d
    1710:	5f697774 	svcpl	0x00697774
    1714:	706f7473 	rsbvc	r7, pc, r3, ror r4
    1718:	6d656d00 	stclvs	13, cr6, [r5]
    171c:	6977745f 	ldmdbvs	r7!, {r0, r1, r2, r3, r4, r6, sl, ip, sp, lr}^
    1720:	6978655f 	ldmdbvs	r8!, {r0, r1, r2, r3, r4, r6, r8, sl, sp, lr}^
    1724:	69740074 	ldmdbvs	r4!, {r2, r4, r5, r6}^
    1728:	756f656d 	strbvc	r6, [pc, #-1389]!	; 11c3 <twi_byte_rw_nommu+0x2a3>
    172c:	65720074 	ldrbvs	r0, [r2, #-116]!	; 0x74
    1730:	66655f67 	strbtvs	r5, [r5], -r7, ror #30
    1734:	77540072 	undefined instruction 0x77540072
    1738:	6c744369 	ldclvs	3, cr4, [r4], #-420	; 0xfffffe5c
    173c:	42676552 	rsbmi	r6, r7, #343932928	; 0x14800000
    1740:	5f006b61 	svcpl	0x00006b61
    1744:	5f6d656d 	svcpl	0x006d656d
    1748:	5f697774 	svcpl	0x00697774
    174c:	74666f73 	strbtvc	r6, [r6], #-3955	; 0xf73
    1750:	7365725f 	cmnvc	r5, #-268435451	; 0xf0000005
    1754:	6e5f7465 	cdpvs	4, 5, cr7, cr15, cr5, {3}
    1758:	756d6d6f 	strbvc	r6, [sp, #-3439]!	; 0xd6f
    175c:	76696400 	strbtvc	r6, [r9], -r0, lsl #8
    1760:	6f697369 	svcvs	0x00697369
    1764:	69660072 	stmdbvs	r6!, {r1, r4, r5, r6}^
    1768:	695f646e 	ldmdbvs	pc, {r1, r2, r3, r5, r6, sl, sp, lr}^
    176c:	006f666e 	rsbeq	r6, pc, lr, ror #12
    1770:	5f78616d 	svcpl	0x0078616d
    1774:	74005675 	strvc	r5, [r0], #-1653	; 0x675
    1778:	6944706d 	stmdbvs	r4, {r0, r2, r3, r5, r6, ip, sp, lr}^
    177c:	616d0076 	smcvs	53254	; 0xd006
    1780:	73006b73 	movwvc	r6, #2931	; 0xb73
    1784:	5f706574 	svcpl	0x00706574
    1788:	76005675 	undefined instruction 0x76005675
    178c:	6e5f6c6f 	cdpvs	12, 5, cr6, cr15, cr15, {3}
    1790:	73746962 	cmnvc	r4, #1605632	; 0x188000
    1794:	6c6f7600 	stclvs	6, cr7, [pc]
    1798:	6765725f 	undefined instruction 0x6765725f
    179c:	6d656d00 	stclvs	13, cr6, [r5]
    17a0:	776f705f 	undefined instruction 0x776f705f
    17a4:	655f7265 	ldrbvs	r7, [pc, #-613]	; 1547 <mem_power_exit+0x14f>
    17a8:	00746978 	rsbseq	r6, r4, r8, ror r9
    17ac:	5f6c6f76 	svcpl	0x006c6f76
    17b0:	66696873 	undefined instruction 0x66696873
    17b4:	656d0074 	strbvs	r0, [sp, #-116]!	; 0x74
    17b8:	6f705f6d 	svcvs	0x00705f6d
    17bc:	5f726577 	svcpl	0x00726577
    17c0:	0066666f 	rsbeq	r6, r6, pc, ror #12
    17c4:	32707861 	rsbscc	r7, r0, #6356992	; 0x610000
    17c8:	6e695f30 	mcrvs	15, 3, r5, cr9, cr0, {1}
    17cc:	61006f66 	tstvs	r0, r6, ror #30
    17d0:	695f7078 	ldmdbvs	pc, {r3, r4, r5, r6, ip, sp, lr}^
    17d4:	006f666e 	rsbeq	r6, pc, lr, ror #12
    17d8:	656b6177 	strbvs	r6, [fp, #-375]!	; 0x177
    17dc:	735f7075 	cmpvc	pc, #117	; 0x75
    17e0:	6d006372 	stcvs	3, cr6, [r0, #-456]	; 0xfffffe38
    17e4:	705f6d65 	subsvc	r6, pc, r5, ror #26
    17e8:	7265776f 	rsbvc	r7, r5, #29097984	; 0x1bc0000
    17ec:	66666f5f 	uqsubaddxvs	r6, r6, pc
    17f0:	6d6f6e5f 	stclvs	14, cr6, [pc, #-380]!	; 0xfffffe84
    17f4:	5000756d 	andpl	r7, r0, sp, ror #10
    17f8:	5245574f 	subpl	r5, r5, #20709376	; 0x13c0000
    17fc:	4c4f565f 	mcrrmi	6, 5, r5, pc, cr15
    1800:	4f444c5f 	svcmi	0x00444c5f
    1804:	656d0033 	strbvs	r0, [sp, #-51]!	; 0x33
    1808:	65675f6d 	strbvs	r5, [r7, #-3949]!	; 0xf6d
    180c:	6f765f74 	svcvs	0x00765f74
    1810:	6761746c 	strbvs	r7, [r1, -ip, ror #8]!
    1814:	65720065 	ldrbvs	r0, [r2, #-101]!	; 0x65
    1818:	61765f67 	cmnvs	r6, r7, ror #30
    181c:	4f50006c 	svcmi	0x0050006c
    1820:	5f524557 	svcpl	0x00524557
    1824:	5f4c4f56 	svcpl	0x004c4f56
    1828:	43444344 	movtmi	r4, #17220	; 0x4344
    182c:	4f500031 	svcmi	0x00500031
    1830:	5f524557 	svcpl	0x00524557
    1834:	5f4c4f56 	svcpl	0x004c4f56
    1838:	43444344 	movtmi	r4, #17220	; 0x4344
    183c:	4f500032 	svcmi	0x00500032
    1840:	5f524557 	svcpl	0x00524557
    1844:	5f4c4f56 	svcpl	0x004c4f56
    1848:	43444344 	movtmi	r4, #17220	; 0x4344
    184c:	656d0033 	strbvs	r0, [sp, #-51]!	; 0x33
    1850:	6f705f6d 	svcvs	0x00705f6d
    1854:	5f726577 	svcpl	0x00726577
    1858:	74696e69 	strbtvc	r6, [r9], #-3689	; 0xe69
    185c:	732f2e00 	teqvc	pc, #0
    1860:	72657075 	rsbvc	r7, r5, #117	; 0x75
    1864:	7075732f 	rsbsvc	r7, r5, pc, lsr #6
    1868:	705f7265 	subsvc	r7, pc, r5, ror #4
    186c:	7265776f 	rsbvc	r7, r5, #29097984	; 0x1bc0000
    1870:	7000632e 	andvc	r6, r0, lr, lsr #6
    1874:	7265776f 	rsbvc	r7, r5, #29097984	; 0x1bc0000
    1878:	6c6f765f 	stclvs	6, cr7, [pc], #-380	; 0xfffffe84
    187c:	7079745f 	rsbsvc	r7, r9, pc, asr r4
    1880:	00655f65 	rsbeq	r5, r5, r5, ror #30
    1884:	32707861 	rsbscc	r7, r0, #6356992	; 0x610000
    1888:	646c5f30 	strbtvs	r5, [ip], #-3888	; 0xf30
    188c:	645f346f 	ldrbvs	r3, [pc], #1135	; 1894 <mem_set_voltage+0xe0>
    1890:	00617461 	rsbeq	r7, r1, r1, ror #8
    1894:	5f6d656d 	svcpl	0x006d656d
    1898:	5f746573 	svcpl	0x00746573
    189c:	746c6f76 	strbtvc	r6, [ip], #-3958	; 0xf76
    18a0:	00656761 	rsbeq	r6, r5, r1, ror #14
    18a4:	45574f50 	ldrbmi	r4, [r7, #-3920]	; 0xf50
    18a8:	4f565f52 	svcmi	0x00565f52
    18ac:	444c5f4c 	strbmi	r5, [ip], #-3916	; 0xf4c
    18b0:	5000314f 	andpl	r3, r0, pc, asr #2
    18b4:	5245574f 	subpl	r5, r5, #20709376	; 0x13c0000
    18b8:	4c4f565f 	mcrrmi	6, 5, r5, pc, cr15
    18bc:	4f444c5f 	svcmi	0x00444c5f
    18c0:	69640032 	stmdbvs	r4!, {r1, r4, r5}^
    18c4:	65646976 	strbvs	r6, [r4, #-2422]!	; 0x976
    18c8:	5000646e 	andpl	r6, r0, lr, ror #8
    18cc:	5245574f 	subpl	r5, r5, #20709376	; 0x13c0000
    18d0:	4c4f565f 	mcrrmi	6, 5, r5, pc, cr15
    18d4:	4f444c5f 	svcmi	0x00444c5f
    18d8:	68630034 	stmdavs	r3!, {r2, r4, r5}^
    18dc:	5f6b6365 	svcpl	0x006b6365
    18e0:	676e6172 	undefined instruction 0x676e6172
    18e4:	696d0065 	stmdbvs	sp!, {r0, r2, r5, r6}^
    18e8:	56755f6e 	ldrbtpl	r5, [r5], -lr, ror #30
    18ec:	706d7400 	rsbvc	r7, sp, r0, lsl #8
    18f0:	746f7551 	strbtvc	r7, [pc], #1361	; 18f8 <mem_set_voltage+0x144>
    18f4:	77617200 	strbvc	r7, [r1, -r0, lsl #4]!
    18f8:	62696c5f 	rsbvs	r6, r9, #24320	; 0x5f00
    18fc:	6964755f 	stmdbvs	r4!, {r0, r1, r2, r3, r4, r6, r8, sl, ip, sp, lr}^
    1900:	65720076 	ldrbvs	r0, [r2, #-118]!	; 0x76
    1904:	6f695f67 	svcvs	0x00695f67
    1908:	44007263 	strmi	r7, [r0], #-611	; 0x263
    190c:	434d4152 	movtmi	r4, #53586	; 0xd152
    1910:	736f685f 	cmnvc	pc, #6225920	; 0x5f0000
    1914:	726f7074 	rsbvc	r7, pc, #116	; 0x74
    1918:	65735f74 	ldrbvs	r5, [r3, #-3956]!	; 0xf74
    191c:	00707574 	rsbseq	r7, r0, r4, ror r5
    1920:	6c74636d 	ldclvs	3, cr6, [r4], #-436	; 0xfffffe4c
    1924:	646f6d5f 	strbtvs	r6, [pc], #3423	; 192c <mem_set_voltage+0x178>
    1928:	78655f65 	stmdavc	r5!, {r0, r2, r5, r6, r8, r9, sl, fp, ip, lr}^
    192c:	63007469 	movwvs	r7, #1129	; 0x469
    1930:	6e5f646d 	cdpvs	4, 5, cr6, cr15, cr13, {3}
    1934:	70006d75 	andvc	r6, r0, r5, ror sp
    1938:	5f74726f 	svcpl	0x0074726f
    193c:	5f697270 	svcpl	0x00697270
    1940:	6576656c 	ldrbvs	r6, [r6, #-1388]!	; 0x56c
    1944:	7264006c 	rsbvc	r0, r4, #108	; 0x6c
    1948:	705f6d61 	subsvc	r6, pc, r1, ror #26
    194c:	7265776f 	rsbvc	r7, r5, #29097984	; 0x1bc0000
    1950:	5f70755f 	svcpl	0x0070755f
    1954:	636f7270 	cmnvs	pc, #7
    1958:	00737365 	rsbseq	r7, r3, r5, ror #6
    195c:	5f676572 	svcpl	0x00676572
    1960:	7273717a 	rsbsvc	r7, r3, #-2147483618	; 0x8000001e
    1964:	67657200 	strbvs	r7, [r5, -r0, lsl #4]!
    1968:	6464615f 	strbtvs	r6, [r4], #-351	; 0x15f
    196c:	73315f72 	teqvc	r1, #456	; 0x1c8
    1970:	52440074 	subpl	r0, r4, #116	; 0x74
    1974:	5f434d41 	svcpl	0x00434d41
    1978:	74697865 	strbtvc	r7, [r9], #-2149	; 0x865
    197c:	6c65735f 	stclvs	3, cr7, [r5], #-380	; 0xfffffe84
    1980:	66657266 	strbtvs	r7, [r5], -r6, ror #4
    1984:	68736572 	ldmdavs	r3!, {r1, r4, r5, r6, r8, sl, sp, lr}^
    1988:	67657200 	strbvs	r7, [r5, -r0, lsl #4]!
    198c:	7263645f 	rsbvc	r6, r3, #1593835520	; 0x5f000000
    1990:	67657200 	strbvs	r7, [r5, -r0, lsl #4]!
    1994:	7272645f 	rsbsvc	r6, r2, #1593835520	; 0x5f000000
    1998:	41524400 	cmpmi	r2, r0, lsl #8
    199c:	725f434d 	subsvc	r4, pc, #872415233	; 0x34000001
    19a0:	61727465 	cmnvs	r2, r5, ror #8
    19a4:	6e696e69 	cdpvs	14, 6, cr6, cr9, cr9, {3}
    19a8:	72640067 	rsbvc	r0, r4, #103	; 0x67
    19ac:	705f6d61 	subsvc	r6, pc, r1, ror #26
    19b0:	7265776f 	rsbvc	r7, r5, #29097984	; 0x1bc0000
    19b4:	7661735f 	undefined instruction 0x7661735f
    19b8:	72705f65 	rsbsvc	r5, r0, #404	; 0x194
    19bc:	7365636f 	cmnvc	r5, #-1140850687	; 0xbc000001
    19c0:	52440073 	subpl	r0, r4, #115	; 0x73
    19c4:	5f434d41 	svcpl	0x00434d41
    19c8:	65746e65 	ldrbvs	r6, [r4, #-3685]!	; 0xe65
    19cc:	65735f72 	ldrbvs	r5, [r3, #-3954]!	; 0xf72
    19d0:	6572666c 	ldrbvs	r6, [r2, #-1644]!	; 0x66c
    19d4:	73657266 	cmnvc	r5, #1610612742	; 0x60000006
    19d8:	72640068 	rsbvc	r0, r4, #104	; 0x68
    19dc:	685f6d61 	ldmdavs	pc, {r0, r5, r6, r8, sl, fp, sp, lr}^
    19e0:	7074736f 	rsbsvc	r7, r4, pc, ror #6
    19e4:	5f74726f 	svcpl	0x0074726f
    19e8:	75746573 	ldrbvc	r6, [r4, #-1395]!	; 0x573
    19ec:	65720070 	ldrbvs	r0, [r2, #-112]!	; 0x70
    19f0:	63635f67 	cmnvs	r3, #412	; 0x19c
    19f4:	72640072 	rsbvc	r0, r4, #114	; 0x72
    19f8:	685f6d61 	ldmdavs	pc, {r0, r5, r6, r8, sl, fp, sp, lr}^
    19fc:	7074736f 	rsbsvc	r7, r4, pc, ror #6
    1a00:	5f74726f 	svcpl	0x0074726f
    1a04:	6f5f6e6f 	svcvs	0x005f6e6f
    1a08:	72006666 	andvc	r6, r0, #106954752	; 0x6600000
    1a0c:	7a5f6765 	bvc	17db7a8 <__bss_end+0x17d7520>
    1a10:	30726371 	rsbscc	r6, r2, r1, ror r3
    1a14:	41524400 	cmpmi	r2, r0, lsl #8
    1a18:	685f434d 	ldmdavs	pc, {r0, r2, r3, r6, r8, r9, lr}^
    1a1c:	7074736f 	rsbsvc	r7, r4, pc, ror #6
    1a20:	5f74726f 	svcpl	0x0074726f
    1a24:	63656863 	cmnvs	r5, #6488064	; 0x630000
    1a28:	68615f6b 	stmdavs	r1!, {r0, r1, r3, r5, r6, r8, r9, sl, fp, ip, lr}^
    1a2c:	69665f62 	stmdbvs	r6!, {r1, r5, r6, r8, r9, sl, fp, ip, lr}^
    1a30:	735f6f66 	cmpvc	pc, #408	; 0x198
    1a34:	75746174 	ldrbvc	r6, [r4, #-372]!	; 0x174
    1a38:	52440073 	subpl	r0, r4, #115	; 0x73
    1a3c:	5f434d41 	svcpl	0x00434d41
    1a40:	74736f68 	ldrbtvc	r6, [r3], #-3944	; 0xf68
    1a44:	74726f70 	ldrbtvc	r6, [r2], #-3952	; 0xf70
    1a48:	5f6e6f5f 	svcpl	0x006e6f5f
    1a4c:	0066666f 	rsbeq	r6, r6, pc, ror #12
    1a50:	6c74636d 	ldclvs	3, cr6, [r4], #-436	; 0xfffffe4c
    1a54:	6572705f 	ldrbvs	r7, [r2, #-95]!	; 0x5f
    1a58:	72616863 	rsbvc	r6, r1, #6488064	; 0x630000
    1a5c:	615f6567 	cmpvs	pc, r7, ror #10
    1a60:	44006c6c 	strmi	r6, [r0], #-3180	; 0xc6c
    1a64:	434d4152 	movtmi	r4, #53586	; 0xd152
    1a68:	6978655f 	ldmdbvs	r8!, {r0, r1, r2, r3, r4, r6, r8, sl, sp, lr}^
    1a6c:	6f705f74 	svcvs	0x00705f74
    1a70:	5f726577 	svcpl	0x00726577
    1a74:	6e776f64 	cdpvs	15, 7, cr6, cr7, cr4, {3}
    1a78:	67657200 	strbvs	r7, [r5, -r0, lsl #4]!
    1a7c:	7270745f 	rsbsvc	r7, r0, #1593835520	; 0x5f000000
    1a80:	65720030 	ldrbvs	r0, [r2, #-48]!	; 0x30
    1a84:	70745f67 	rsbsvc	r5, r4, r7, ror #30
    1a88:	72003172 	andvc	r3, r0, #-2147483620	; 0x8000001c
    1a8c:	745f6765 	ldrbvc	r6, [pc], #1893	; 1a94 <mem_power_init+0xec>
    1a90:	00327270 	eorseq	r7, r2, r0, ror r2
    1a94:	6d617264 	sfmvs	f7, 2, [r1, #-400]!	; (stclvs 2, cr7, [r1, #-400]!)	; 0xfffffe70
    1a98:	736f685f 	cmnvc	pc, #6225920	; 0x5f0000
    1a9c:	726f7074 	rsbvc	r7, pc, #116	; 0x74
    1aa0:	68635f74 	stmdavs	r3!, {r2, r4, r5, r6, r8, r9, sl, fp, ip, lr}^
    1aa4:	5f6b6365 	svcpl	0x006b6365
    1aa8:	5f626861 	svcpl	0x00626861
    1aac:	6f666966 	svcvs	0x00666966
    1ab0:	6174735f 	cmnvs	r4, pc, asr r3
    1ab4:	00737574 	rsbseq	r7, r3, r4, ror r5
    1ab8:	6d617264 	sfmvs	f7, 2, [r1, #-400]!	; (stclvs 2, cr7, [r1, #-400]!)	; 0xfffffe70
    1abc:	6978655f 	ldmdbvs	r8!, {r0, r1, r2, r3, r4, r6, r8, sl, sp, lr}^
    1ac0:	65735f74 	ldrbvs	r5, [r3, #-3956]!	; 0xf74
    1ac4:	6572666c 	ldrbvs	r6, [r2, #-1644]!	; 0x66c
    1ac8:	73657266 	cmnvc	r5, #1610612742	; 0x60000006
    1acc:	72640068 	rsbvc	r0, r4, #104	; 0x68
    1ad0:	655f6d61 	ldrbvs	r6, [pc, #-3425]	; d77 <twi_byte_rw+0x12f>
    1ad4:	7265746e 	rsbvc	r7, r5, #1845493760	; 0x6e000000
    1ad8:	776f705f 	undefined instruction 0x776f705f
    1adc:	645f7265 	ldrbvs	r7, [pc], #613	; 1ae4 <mem_power_init+0x13c>
    1ae0:	006e776f 	rsbeq	r7, lr, pc, ror #14
    1ae4:	5f676572 	svcpl	0x00676572
    1ae8:	72646461 	rsbvc	r6, r4, #1627389952	; 0x61000000
    1aec:	6472335f 	ldrbtvs	r3, [r2], #-863	; 0x35f
    1af0:	67657200 	strbvs	r7, [r5, -r0, lsl #4]!
    1af4:	6464615f 	strbtvs	r6, [r4], #-351	; 0x15f
    1af8:	6e325f72 	mrcvs	15, 1, r5, cr2, cr2, {3}
    1afc:	65720064 	ldrbvs	r0, [r2, #-100]!	; 0x64
    1b00:	726d5f67 	rsbvc	r5, sp, #412	; 0x19c
    1b04:	41524400 	cmpmi	r2, r0, lsl #8
    1b08:	655f434d 	ldrbvs	r4, [pc, #-845]	; 17c3 <mem_set_voltage+0xf>
    1b0c:	7265746e 	rsbvc	r7, r5, #1845493760	; 0x6e000000
    1b10:	776f705f 	undefined instruction 0x776f705f
    1b14:	645f7265 	ldrbvs	r7, [pc], #613	; 1b1c <mem_power_init+0x174>
    1b18:	006e776f 	rsbeq	r7, lr, pc, ror #14
    1b1c:	75732f2e 	ldrbvc	r2, [r3, #-3886]!	; 0xf2e
    1b20:	2f726570 	svccs	0x00726570
    1b24:	6d617264 	sfmvs	f7, 2, [r1, #-400]!	; (stclvs 2, cr7, [r1, #-400]!)	; 0xfffffe70
    1b28:	6172642f 	cmnvs	r2, pc, lsr #8
    1b2c:	00632e6d 	rsbeq	r2, r3, sp, ror #28
    1b30:	5f676572 	svcpl	0x00676572
    1b34:	00726d65 	rsbseq	r6, r2, r5, ror #26
    1b38:	6b636162 	blvs	18da0c8 <__bss_end+0x18d5e40>
    1b3c:	645f7075 	ldrbvs	r7, [pc], #117	; 1b44 <mem_power_init+0x19c>
    1b40:	5f6d6172 	svcpl	0x006d6172
    1b44:	5f6c6163 	svcpl	0x006c6163
    1b48:	006c6176 	rsbeq	r6, ip, r6, ror r1
    1b4c:	6c74636d 	ldclvs	3, cr6, [r4], #-436	; 0xfffffe4c
    1b50:	6268615f 	rsbvs	r6, r8, #-1073741801	; 0xc0000017
    1b54:	7365725f 	cmnvc	r5, #-268435451	; 0xf0000005
    1b58:	70007465 	andvc	r7, r0, r5, ror #8
    1b5c:	5f74726f 	svcpl	0x0074726f
    1b60:	74696177 	strbtvc	r6, [r9], #-375	; 0x177
    1b64:	6379635f 	cmnvs	r9, #2080374785	; 0x7c000001
    1b68:	7200656c 	andvc	r6, r0, #452984832	; 0x1b000000
    1b6c:	765f7465 	ldrbvc	r7, [pc], -r5, ror #8
    1b70:	64006c61 	strvs	r6, [r0], #-3169	; 0xc61
    1b74:	5f6d6172 	svcpl	0x006d6172
    1b78:	65746e65 	ldrbvs	r6, [r4, #-3685]!	; 0xe65
    1b7c:	65735f72 	ldrbvs	r5, [r3, #-3954]!	; 0xf72
    1b80:	6572666c 	ldrbvs	r6, [r2, #-1644]!	; 0x66c
    1b84:	73657266 	cmnvc	r5, #1610612742	; 0x60000006
    1b88:	6f700068 	svcvs	0x00700068
    1b8c:	695f7472 	ldmdbvs	pc, {r1, r4, r5, r6, sl, ip, sp, lr}^
    1b90:	64007864 	strvs	r7, [r0], #-2148	; 0x864
    1b94:	5f6d6172 	svcpl	0x006d6172
    1b98:	74697865 	strbtvc	r7, [r9], #-2149	; 0x865
    1b9c:	776f705f 	undefined instruction 0x776f705f
    1ba0:	645f7265 	ldrbvs	r7, [pc], #613	; 1ba8 <mem_power_init+0x200>
    1ba4:	006e776f 	rsbeq	r7, lr, pc, ror #14
    1ba8:	5f676572 	svcpl	0x00676572
    1bac:	32726d65 	rsbscc	r6, r2, #6464	; 0x1940
    1bb0:	67657200 	strbvs	r7, [r5, -r0, lsl #4]!
    1bb4:	726d655f 	rsbvc	r6, sp, #398458880	; 0x17c00000
    1bb8:	72700033 	rsbsvc	r0, r0, #51	; 0x33
    1bbc:	6d006f69 	stcvs	15, cr6, [r0, #-420]	; 0xfffffe5c
    1bc0:	5f6c7463 	svcpl	0x006c7463
    1bc4:	75746573 	ldrbvc	r6, [r4, #-1395]!	; 0x573
    1bc8:	72645f70 	rsbvc	r5, r4, #448	; 0x1c0
    1bcc:	635f6d61 	cmpvs	pc, #6208	; 0x1840
    1bd0:	6b636f6c 	blvs	18dd988 <__bss_end+0x18d9700>
    1bd4:	74636d00 	strbtvc	r6, [r3], #-3328	; 0xd00
    1bd8:	6f635f6c 	svcvs	0x00635f6c
    1bdc:	6769666e 	strbvs	r6, [r9, -lr, ror #12]!
    1be0:	5f657275 	svcpl	0x00657275
    1be4:	74736f68 	ldrbtvc	r6, [r3], #-3944	; 0xf68
    1be8:	74726f70 	ldrbtvc	r6, [r2], #-3952	; 0xf70
    1bec:	755f5f00 	ldrbvc	r5, [pc, #-3840]	; cf4 <twi_byte_rw+0xac>
    1bf0:	63003436 	movwvs	r3, #1078	; 0x436
    1bf4:	5f706968 	svcpl	0x00706968
    1bf8:	006e6564 	rsbeq	r6, lr, r4, ror #10
    1bfc:	5f6d656d 	svcpl	0x006d656d
    1c00:	69646c75 	stmdbvs	r4!, {r0, r2, r4, r5, r6, sl, fp, sp, lr}^
    1c04:	636d0076 	cmnvs	sp, #118	; 0x76
    1c08:	655f6c74 	ldrbvs	r6, [pc, #-3188]	; f9c <twi_byte_rw_nommu+0x7c>
    1c0c:	6c62616e 	stfvse	f6, [r2], #-440	; 0xfffffe48
    1c10:	6c645f65 	stclvs	15, cr5, [r4], #-404	; 0xfffffe6c
    1c14:	4400786c 	strmi	r7, [r0], #-2156	; 0x86c
    1c18:	434d4152 	movtmi	r4, #53586	; 0xd152
    1c1c:	7465675f 	strbtvc	r6, [r5], #-1887	; 0x75f
    1c20:	6172645f 	cmnvs	r2, pc, asr r4
    1c24:	69735f6d 	ldmdbvs	r3!, {r0, r2, r3, r5, r6, r8, r9, sl, fp, ip, lr}^
    1c28:	6400657a 	strvs	r6, [r0], #-1402	; 0x57a
    1c2c:	5f6d6172 	svcpl	0x006d6172
    1c30:	5f746573 	svcpl	0x00746573
    1c34:	636f6c63 	cmnvs	pc, #25344	; 0x6300
    1c38:	5f5f006b 	svcpl	0x005f006b
    1c3c:	6d617264 	sfmvs	f7, 2, [r1, #-400]!	; (stclvs 2, cr7, [r1, #-400]!)	; 0xfffffe70
    1c40:	7261705f 	rsbvc	r7, r1, #95	; 0x5f
    1c44:	00745f61 	rsbseq	r5, r4, r1, ror #30
    1c48:	6d617264 	sfmvs	f7, 2, [r1, #-400]!	; (stclvs 2, cr7, [r1, #-400]!)	; 0xfffffe70
    1c4c:	7465735f 	strbtvc	r7, [r5], #-863	; 0x35f
    1c50:	7475615f 	ldrbtvc	r6, [r5], #-351	; 0x15f
    1c54:	6665726f 	strbtvs	r7, [r5], -pc, ror #4
    1c58:	68736572 	ldmdavs	r3!, {r1, r4, r5, r6, r8, sl, sp, lr}^
    1c5c:	6379635f 	cmnvs	r9, #2080374785	; 0x7c000001
    1c60:	4400656c 	strmi	r6, [r0], #-1388	; 0x56c
    1c64:	434d4152 	movtmi	r4, #53586	; 0xd152
    1c68:	6163735f 	cmnvs	r3, pc, asr r3
    1c6c:	65725f6e 	ldrbvs	r5, [r2, #-3950]!	; 0xf6e
    1c70:	69706461 	ldmdbvs	r0!, {r0, r5, r6, sl, sp, lr}^
    1c74:	62006570 	andvs	r6, r0, #469762048	; 0x1c000000
    1c78:	30746f6f 	rsbscc	r6, r4, pc, ror #30
    1c7c:	7261705f 	rsbvc	r7, r1, #95	; 0x5f
    1c80:	65670061 	strbvs	r0, [r7, #-97]!	; 0x61
    1c84:	6f625f74 	svcvs	0x00625f74
    1c88:	5f30746f 	svcpl	0x0030746f
    1c8c:	6d617264 	sfmvs	f7, 2, [r1, #-400]!	; (stclvs 2, cr7, [r1, #-400]!)	; 0xfffffe70
    1c90:	7261705f 	rsbvc	r7, r1, #95	; 0x5f
    1c94:	72640061 	rsbvc	r0, r4, #97	; 0x61
    1c98:	745f6d61 	ldrbvc	r6, [pc], #3425	; 1ca0 <mem_power_init+0x2f8>
    1c9c:	00307270 	eorseq	r7, r0, r0, ror r2
    1ca0:	6d617264 	sfmvs	f7, 2, [r1, #-400]!	; (stclvs 2, cr7, [r1, #-400]!)	; 0xfffffe70
    1ca4:	7270745f 	rsbsvc	r7, r0, #1593835520	; 0x5f000000
    1ca8:	72640031 	rsbvc	r0, r4, #49	; 0x31
    1cac:	745f6d61 	ldrbvc	r6, [pc], #3425	; 1cb4 <mem_power_init+0x30c>
    1cb0:	00327270 	eorseq	r7, r2, r0, ror r2
    1cb4:	6d617264 	sfmvs	f7, 2, [r1, #-400]!	; (stclvs 2, cr7, [r1, #-400]!)	; 0xfffffe70
    1cb8:	7270745f 	rsbsvc	r7, r0, #1593835520	; 0x5f000000
    1cbc:	72640033 	rsbvc	r0, r4, #51	; 0x33
    1cc0:	745f6d61 	ldrbvc	r6, [pc], #3425	; 1cc8 <mem_power_init+0x320>
    1cc4:	00347270 	eorseq	r7, r4, r0, ror r2
    1cc8:	6d617264 	sfmvs	f7, 2, [r1, #-400]!	; (stclvs 2, cr7, [r1, #-400]!)	; 0xfffffe70
    1ccc:	7270745f 	rsbsvc	r7, r0, #1593835520	; 0x5f000000
    1cd0:	72640035 	rsbvc	r0, r4, #53	; 0x35
    1cd4:	735f6d61 	cmpvc	pc, #6208	; 0x1840
    1cd8:	5f6e6163 	svcpl	0x006e6163
    1cdc:	64616572 	strbtvs	r6, [r1], #-1394	; 0x572
    1ce0:	65706970 	ldrbvs	r6, [r0, #-2416]!	; 0x970
    1ce4:	61726400 	cmnvs	r2, r0, lsl #8
    1ce8:	6d655f6d 	stclvs	15, cr5, [r5, #-436]!	; 0xfffffe4c
    1cec:	64003172 	strvs	r3, [r0], #-370	; 0x172
    1cf0:	5f6d6172 	svcpl	0x006d6172
    1cf4:	5f746573 	svcpl	0x00746573
    1cf8:	76697264 	strbtvc	r7, [r9], -r4, ror #4
    1cfc:	72640065 	rsbvc	r0, r4, #101	; 0x65
    1d00:	675f6d61 	ldrbvs	r6, [pc, -r1, ror #26]
    1d04:	735f7465 	cmpvc	pc, #1694498816	; 0x65000000
    1d08:	00657a69 	rsbeq	r7, r5, r9, ror #20
    1d0c:	6d617264 	sfmvs	f7, 2, [r1, #-400]!	; (stclvs 2, cr7, [r1, #-400]!)	; 0xfffffe70
    1d10:	6968635f 	stmdbvs	r8!, {r0, r1, r2, r3, r4, r6, r8, r9, sp, lr}^
    1d14:	65645f70 	strbvs	r5, [r4, #-3952]!	; 0xf70
    1d18:	7469736e 	strbtvc	r7, [r9], #-878	; 0x36e
    1d1c:	52440079 	subpl	r0, r4, #121	; 0x79
    1d20:	5f434d41 	svcpl	0x00434d41
    1d24:	74696e69 	strbtvc	r6, [r9], #-3689	; 0xe69
    1d28:	74636d00 	strbtvc	r6, [r3], #-3328	; 0xd00
    1d2c:	69645f6c 	stmdbvs	r4!, {r2, r3, r5, r6, r8, r9, sl, fp, ip, lr}^
    1d30:	6c626173 	stfvse	f6, [r2], #-460	; 0xfffffe34
    1d34:	6c645f65 	stclvs	15, cr5, [r4], #-404	; 0xfffffe6c
    1d38:	625f006c 	subsvs	r0, pc, #108	; 0x6c
    1d3c:	5f746f6f 	svcpl	0x00746f6f
    1d40:	6d617264 	sfmvs	f7, 2, [r1, #-400]!	; (stclvs 2, cr7, [r1, #-400]!)	; 0xfffffe70
    1d44:	7261705f 	rsbvc	r7, r1, #95	; 0x5f
    1d48:	00745f61 	rsbseq	r5, r4, r1, ror #30
    1d4c:	74696e69 	strbtvc	r6, [r9], #-3689	; 0xe69
    1d50:	4152445f 	cmpmi	r2, pc, asr r4
    1d54:	7264004d 	rsbvc	r0, r4, #77	; 0x4d
    1d58:	6f5f6d61 	svcvs	0x005f6d61
    1d5c:	655f7464 	ldrbvs	r7, [pc, #-1124]	; 1900 <mem_set_voltage+0x14c>
    1d60:	5244006e 	subpl	r0, r4, #110	; 0x6e
    1d64:	5f434d41 	svcpl	0x00434d41
    1d68:	74697865 	strbtvc	r7, [r9], #-2149	; 0x865
    1d6c:	61726400 	cmnvs	r2, r0, lsl #8
    1d70:	6e695f6d 	cdpvs	15, 6, cr5, cr9, cr13, {3}
    1d74:	6d007469 	cfstrsvs	mvf7, [r0, #-420]	; 0xfffffe5c
    1d78:	5f6c7463 	svcpl	0x006c7463
    1d7c:	62616e65 	rsbvs	r6, r1, #1616	; 0x650
    1d80:	645f656c 	ldrbvs	r6, [pc], #1388	; 1d88 <mem_power_init+0x3e0>
    1d84:	00306c6c 	eorseq	r6, r0, ip, ror #24
    1d88:	4d415244 	sfmmi	f5, 2, [r1, #-272]	; (stclmi 2, cr5, [r1, #-272])	; 0xfffffef0
    1d8c:	6c635f43 	stclvs	15, cr5, [r3], #-268	; 0xfffffef4
    1d90:	5f6b636f 	svcpl	0x006b636f
    1d94:	7074756f 	rsbsvc	r7, r4, pc, ror #10
    1d98:	655f7475 	ldrbvs	r7, [pc, #-1141]	; 192b <mem_set_voltage+0x177>
    1d9c:	7264006e 	rsbvc	r0, r4, #110	; 0x6e
    1da0:	625f6d61 	subsvs	r6, pc, #6208	; 0x1840
    1da4:	775f7375 	undefined instruction 0x775f7375
    1da8:	68746469 	ldmdavs	r4!, {r0, r3, r5, r6, sl, sp, lr}^
    1dac:	41524400 	cmpmi	r2, r0, lsl #8
    1db0:	735f434d 	cmpvc	pc, #872415233	; 0x34000001
    1db4:	615f7465 	cmpvs	pc, r5, ror #8
    1db8:	726f7475 	rsbvc	r7, pc, #1962934272	; 0x75000000
    1dbc:	65726665 	ldrbvs	r6, [r2, #-1637]!	; 0x665
    1dc0:	635f6873 	cmpvs	pc, #7536640	; 0x730000
    1dc4:	656c6379 	strbvs	r6, [ip, #-889]!	; 0x379
    1dc8:	61726400 	cmnvs	r2, r0, lsl #8
    1dcc:	61725f6d 	cmnvs	r2, sp, ror #30
    1dd0:	6e5f6b6e 	vnmlavs.f64	d22, d15, d30
    1dd4:	64006d75 	strvs	r6, [r0], #-3445	; 0xd75
    1dd8:	5f6d6172 	svcpl	0x006d6172
    1ddc:	65736162 	ldrbvs	r6, [r3, #-354]!	; 0x162
    1de0:	72646461 	rsbvc	r6, r4, #1627389952	; 0x61000000
    1de4:	74636d00 	strbtvc	r6, [r3], #-3328	; 0xd00
    1de8:	74695f6c 	strbtvc	r5, [r9], #-3948	; 0xf6c
    1dec:	69645f6d 	stmdbvs	r4!, {r0, r2, r3, r5, r6, r8, r9, sl, fp, ip, lr}^
    1df0:	6c626173 	stfvse	f6, [r2], #-460	; 0xfffffe34
    1df4:	6d740065 	ldclvs	0, cr0, [r4, #-404]!	; 0xfffffe6c
    1df8:	61765f70 	cmnvs	r6, r0, ror pc
    1dfc:	7264006c 	rsbvc	r0, r4, #108	; 0x6c
    1e00:	7a5f6d61 	bvc	17dd38c <__bss_end+0x17d9104>
    1e04:	72640071 	rsbvc	r0, r4, #113	; 0x71
    1e08:	655f6d61 	ldrbvs	r6, [pc, #-3425]	; 10af <twi_byte_rw_nommu+0x18f>
    1e0c:	0032726d 	eorseq	r7, r2, sp, ror #4
    1e10:	6d617264 	sfmvs	f7, 2, [r1, #-400]!	; (stclvs 2, cr7, [r1, #-400]!)	; 0xfffffe70
    1e14:	726d655f 	rsbvc	r6, sp, #398458880	; 0x17c00000
    1e18:	2f2e0033 	svccs	0x002e0033
    1e1c:	65707573 	ldrbvs	r7, [r0, #-1395]!	; 0x573
    1e20:	72642f72 	rsbvc	r2, r4, #456	; 0x1c8
    1e24:	642f6d61 	strtvs	r6, [pc], #3425	; 1e2c <mem_power_init+0x484>
    1e28:	5f6d6172 	svcpl	0x006d6172
    1e2c:	74696e69 	strbtvc	r6, [r9], #-3689	; 0xe69
    1e30:	6d00632e 	stcvs	3, cr6, [r0, #-184]	; 0xffffff48
    1e34:	5f6c7463 	svcpl	0x006c7463
    1e38:	5f746573 	svcpl	0x00746573
    1e3c:	76697264 	strbtvc	r7, [r9], -r4, ror #4
    1e40:	72640065 	rsbvc	r0, r4, #101	; 0x65
    1e44:	655f6d61 	ldrbvs	r6, [pc, #-3425]	; 10eb <twi_byte_rw_nommu+0x1cb>
    1e48:	00746978 	rsbseq	r6, r4, r8, ror r9
    1e4c:	6c74636d 	ldclvs	3, cr6, [r4], #-436	; 0xfffffe4c
    1e50:	7264645f 	rsbvc	r6, r4, #1593835520	; 0x5f000000
    1e54:	65725f33 	ldrbvs	r5, [r2, #-3891]!	; 0xf33
    1e58:	00746573 	rsbseq	r6, r4, r3, ror r5
    1e5c:	6d617264 	sfmvs	f7, 2, [r1, #-400]!	; (stclvs 2, cr7, [r1, #-400]!)	; 0xfffffe70
    1e60:	6b6c635f 	blvs	1b1abe4 <__bss_end+0x1b1695c>
    1e64:	74636d00 	strbtvc	r6, [r3], #-3328	; 0xd00
    1e68:	74695f6c 	strbtvc	r5, [r9], #-3948	; 0xf6c
    1e6c:	6e655f6d 	cdpvs	15, 6, cr5, cr5, cr13, {3}
    1e70:	656c6261 	strbvs	r6, [ip, #-609]!	; 0x261
    1e74:	63706800 	cmnvs	r0, #0
    1e78:	61765f72 	cmnvs	r6, r2, ror pc
    1e7c:	0065756c 	rsbeq	r7, r5, ip, ror #10
    1e80:	746f6f62 	strbtvc	r6, [pc], #3938	; 1e88 <mem_power_init+0x4e0>
    1e84:	72645f30 	rsbvc	r5, r4, #192	; 0xc0
    1e88:	705f6d61 	subsvc	r6, pc, r1, ror #26
    1e8c:	5f617261 	svcpl	0x00617261
    1e90:	72640070 	rsbvc	r0, r4, #112	; 0x70
    1e94:	695f6d61 	ldmdbvs	pc, {r0, r5, r6, r8, sl, fp, sp, lr}^
    1e98:	69775f6f 	ldmdbvs	r7!, {r0, r1, r2, r3, r5, r6, r8, r9, sl, fp, ip, lr}^
    1e9c:	00687464 	rsbeq	r7, r8, r4, ror #8
    1ea0:	6d617264 	sfmvs	f7, 2, [r1, #-400]!	; (stclvs 2, cr7, [r1, #-400]!)	; 0xfffffe70
    1ea4:	7079745f 	rsbsvc	r7, r9, pc, asr r4
    1ea8:	6c640065 	stclvs	0, cr0, [r4], #-404	; 0xfffffe6c
    1eac:	756e5f6c 	strbvc	r5, [lr, #-3948]!	; 0xf6c
    1eb0:	7264006d 	rsbvc	r0, r4, #109	; 0x6d
    1eb4:	635f6d61 	cmpvs	pc, #6208	; 0x1840
    1eb8:	64007361 	strvs	r7, [r0], #-865	; 0x361
    1ebc:	79616c65 	stmdbvc	r1!, {r0, r2, r5, r6, sl, fp, sp, lr}^
    1ec0:	00736d5f 	rsbseq	r6, r3, pc, asr sp
    1ec4:	2e2e2f2e 	cdpcs	15, 2, cr2, cr14, cr14, {1}
    1ec8:	5f6d702f 	svcpl	0x006d702f
    1ecc:	75626564 	strbvc	r6, [r2, #-1380]!	; 0x564
    1ed0:	00632e67 	rsbeq	r2, r3, r7, ror #28
    1ed4:	65766173 	ldrbvs	r6, [r6, #-371]!	; 0x173
    1ed8:	6e75735f 	mrcvs	3, 3, r7, cr5, cr15, {2}
    1edc:	6d5f6935 	ldclvs	9, cr6, [pc, #-212]	; 0xffffff2c
    1ee0:	735f6d65 	cmpvc	pc, #6464	; 0x1940
    1ee4:	75746174 	ldrbvc	r6, [r4, #-372]!	; 0x174
    1ee8:	61740073 	cmnvs	r4, r3, ror r0
    1eec:	74656772 	strbtvc	r6, [r5], #-1906	; 0x772
    1ef0:	5f6f6900 	svcpl	0x006f6900
    1ef4:	74696e69 	strbtvc	r6, [r9], #-3689	; 0xe69
    1ef8:	6769685f 	undefined instruction 0x6769685f
    1efc:	68630068 	stmdavs	r3!, {r3, r5, r6}^
    1f00:	65676e61 	strbvs	r6, [r7, #-3681]!	; 0xe61
    1f04:	6e75725f 	mrcvs	2, 3, r7, cr5, cr15, {2}
    1f08:	656d6974 	strbvs	r6, [sp, #-2420]!	; 0x974
    1f0c:	766e655f 	undefined instruction 0x766e655f
    1f10:	73657200 	cmnvc	r5, #0
    1f14:	65726f74 	ldrbvs	r6, [r2, #-3956]!	; 0xf74
    1f18:	7265705f 	rsbvc	r7, r5, #95	; 0x5f
    1f1c:	756f6366 	strbvc	r6, [pc, #-870]!	; 1bbe <mem_power_init+0x216>
    1f20:	7265746e 	rsbvc	r7, r5, #1845493760	; 0x6e000000
    1f24:	6f6f6c00 	svcvs	0x006f6c00
    1f28:	6c665f70 	stclvs	15, cr5, [r6], #-448	; 0xfffffe40
    1f2c:	64006761 	strvs	r6, [r0], #-1889	; 0x761
    1f30:	79616c65 	stmdbvc	r1!, {r0, r2, r5, r6, sl, fp, sp, lr}^
    1f34:	0073755f 	rsbseq	r7, r3, pc, asr r5
    1f38:	7265766f 	rsbvc	r7, r5, #116391936	; 0x6f00000
    1f3c:	64616568 	strbtvs	r6, [r1], #-1384	; 0x568
    1f40:	616e6500 	cmnvs	lr, r0, lsl #10
    1f44:	5f656c62 	svcpl	0x00656c62
    1f48:	69766964 	ldmdbvs	r6!, {r2, r5, r6, r8, fp, sp, lr}^
    1f4c:	00726564 	rsbseq	r6, r2, r4, ror #10
    1f50:	65736572 	ldrbvs	r6, [r3, #-1394]!	; 0x572
    1f54:	6f635f74 	svcvs	0x00635f74
    1f58:	65746e75 	ldrbvs	r6, [r4, #-3701]!	; 0xe75
    1f5c:	61730072 	cmnvs	r3, r2, ror r0
    1f60:	6d5f6576 	cfldr64vs	mvdx6, [pc, #-472]	; 0xfffffe28
    1f64:	735f6d65 	cmpvc	pc, #6464	; 0x1940
    1f68:	75746174 	ldrbvc	r6, [r4, #-372]!	; 0x174
    1f6c:	6f6e5f73 	svcvs	0x006e5f73
    1f70:	00756d6d 	rsbseq	r6, r5, sp, ror #26
    1f74:	685f6f69 	ldmdavs	pc, {r0, r3, r5, r6, r8, r9, sl, fp, sp, lr}^
    1f78:	00686769 	rsbeq	r6, r8, r9, ror #14
    1f7c:	6b636162 	blvs	18da50c <__bss_end+0x18d6284>
    1f80:	705f7075 	subsvc	r7, pc, r5, ror r0
    1f84:	5f667265 	svcpl	0x00667265
    1f88:	6e756f63 	cdpvs	15, 7, cr6, cr5, cr3, {3}
    1f8c:	5f726574 	svcpl	0x00726574
    1f90:	62616e65 	rsbvs	r6, r1, #1616	; 0x650
    1f94:	725f656c 	subsvc	r6, pc, #452984832	; 0x1b000000
    1f98:	73006765 	movwvc	r6, #1893	; 0x765
    1f9c:	5f657661 	svcpl	0x00657661
    1fa0:	5f6d656d 	svcpl	0x006d656d
    1fa4:	67616c66 	strbvs	r6, [r1, -r6, ror #24]!
    1fa8:	756d6300 	strbvc	r6, [sp, #-768]!	; 0x300
    1fac:	6765725f 	undefined instruction 0x6765725f
    1fb0:	63616200 	cmnvs	r1, #0
    1fb4:	5f70756b 	svcpl	0x0070756b
    1fb8:	66726570 	undefined instruction 0x66726570
    1fbc:	6e756f63 	cdpvs	15, 7, cr6, cr5, cr3, {3}
    1fc0:	00726574 	rsbseq	r6, r2, r4, ror r5
    1fc4:	635f7375 	cmpvs	pc, #-738197503	; 0xd4000001
    1fc8:	6400746e 	strvs	r7, [r0], #-1134	; 0x46e
    1fcc:	65725f6f 	ldrbvs	r5, [r2, #-3951]!	; 0xf6f
    1fd0:	00746573 	rsbseq	r6, r4, r3, ror r5
    1fd4:	656b6166 	strbvs	r6, [fp, #-358]!	; 0x166
    1fd8:	7375625f 	cmnvc	r5, #-268435451	; 0xf0000005
    1fdc:	61775f79 	cmnvs	r7, r9, ror pc
    1fe0:	6e697469 	cdpvs	4, 6, cr7, cr9, cr9, {3}
    1fe4:	61620067 	cmnvs	r2, r7, rrx
    1fe8:	70756b63 	rsbsvc	r6, r5, r3, ror #22
    1fec:	7265705f 	rsbvc	r7, r5, #95	; 0x5f
    1ff0:	6f635f66 	svcvs	0x00635f66
    1ff4:	65746e75 	ldrbvs	r6, [r4, #-3701]!	; 0xe75
    1ff8:	74635f72 	strbtvc	r5, [r3], #-3954	; 0xf72
    1ffc:	725f6c72 	subsvc	r6, pc, #29184	; 0x7200
    2000:	69006765 	stmdbvs	r0, {r0, r2, r5, r6, r8, r9, sl, sp, lr}
    2004:	6e695f6f 	cdpvs	15, 6, cr5, cr9, cr15, {3}
    2008:	6c5f7469 	cfldrdvs	mvd7, [pc], {105}	; 0x69
    200c:	6d00776f 	stcvs	7, cr7, [r0, #-444]	; 0xfffffe44
    2010:	665f756d 	ldrbvs	r7, [pc], -sp, ror #10
    2014:	0067616c 	rsbeq	r6, r7, ip, ror #2
    2018:	695f6f69 	ldmdbvs	pc, {r0, r3, r5, r6, r8, r9, sl, fp, sp, lr}^
    201c:	0074696e 	rsbseq	r6, r4, lr, ror #18
    2020:	5f746567 	svcpl	0x00746567
    2024:	5f6d656d 	svcpl	0x006d656d
    2028:	74617473 	strbtvc	r7, [r1], #-1139	; 0x473
    202c:	73007375 	movwvc	r7, #885	; 0x375
    2030:	5f657661 	svcpl	0x00657661
    2034:	356e7573 	strbcc	r7, [lr, #-1395]!	; 0x573
    2038:	656d5f69 	strbvs	r5, [sp, #-3945]!	; 0xf69
    203c:	74735f6d 	ldrbtvc	r5, [r3], #-3949	; 0xf6d
    2040:	73757461 	cmnvc	r5, #1627389952	; 0x61000000
    2044:	6d6f6e5f 	stclvs	14, cr6, [pc, #-380]!	; 0xfffffe84
    2048:	6700756d 	strvs	r7, [r0, -sp, ror #10]
    204c:	635f7465 	cmpvs	pc, #1694498816	; 0x65000000
    2050:	656c6379 	strbvs	r6, [ip, #-889]!	; 0x379
    2054:	6e756f63 	cdpvs	15, 7, cr6, cr5, cr3, {3}
    2058:	70630074 	rsbvc	r0, r3, r4, ror r0
    205c:	72665f75 	rsbvc	r5, r6, #468	; 0x1d4
    2060:	69007165 	stmdbvs	r0, {r0, r2, r5, r6, r8, ip, sp, lr}
    2064:	5f74696e 	svcpl	0x0074696e
    2068:	66726570 	undefined instruction 0x66726570
    206c:	6e756f63 	cdpvs	15, 7, cr6, cr5, cr3, {3}
    2070:	73726574 	cmnvc	r2, #486539264	; 0x1d000000
    2074:	63616600 	cmnvs	r1, #0
    2078:	5f726f74 	svcpl	0x00726f74
    207c:	6166006b 	cmnvs	r6, fp, rrx
    2080:	726f7463 	rsbvc	r7, pc, #1660944384	; 0x63000000
    2084:	66006d5f 	undefined instruction 0x66006d5f
    2088:	6f746361 	svcvs	0x00746361
    208c:	006e5f72 	rsbeq	r5, lr, r2, ror pc
    2090:	74636166 	strbtvc	r6, [r3], #-358	; 0x166
    2094:	705f726f 	subsvc	r7, pc, pc, ror #4
    2098:	76617300 	strbtvc	r7, [r1], -r0, lsl #6
    209c:	665f6465 	ldrbvs	r6, [pc], -r5, ror #8
    20a0:	0067616c 	rsbeq	r6, r7, ip, ror #2
    20a4:	65766173 	ldrbvs	r6, [r6, #-371]!	; 0x173
    20a8:	6d656d5f 	stclvs	13, cr6, [r5, #-380]!	; 0xfffffe84
    20ac:	6174735f 	cmnvs	r4, pc, asr r3
    20b0:	00737574 	rsbseq	r7, r3, r4, ror r5
    20b4:	5f746573 	svcpl	0x00746573
    20b8:	72627474 	rsbvc	r7, r2, #1946157056	; 0x74000000
    20bc:	65720030 	ldrbvs	r0, [r2, #-48]!	; 0x30
    20c0:	726f7473 	rsbvc	r7, pc, #1929379840	; 0x73000000
    20c4:	6d6d5f65 	stclvs	15, cr5, [sp, #-404]!	; 0xfffffe6c
    20c8:	74735f75 	ldrbtvc	r5, [r3], #-3957	; 0xf75
    20cc:	00657461 	rsbeq	r7, r5, r1, ror #8
    20d0:	65766173 	ldrbvs	r6, [r6, #-371]!	; 0x173
    20d4:	756d6d5f 	strbvc	r6, [sp, #-3423]!	; 0xd5f
    20d8:	6174735f 	cmnvs	r4, pc, asr r3
    20dc:	2e006574 	cfrshl64cs	mvdx0, mvdx4, r6
    20e0:	2f2e2e2f 	svccs	0x002e2e2f
    20e4:	5f6d656d 	svcpl	0x006d656d
    20e8:	5f756d6d 	svcpl	0x00756d6d
    20ec:	632e6370 	teqvs	lr, #-1073741823	; 0xc0000001
    20f0:	74657300 	strbtvc	r7, [r5], #-768	; 0x300
    20f4:	706f635f 	rsbvc	r6, pc, pc, asr r3
    20f8:	645f6f72 	ldrbvs	r6, [pc], #3954	; 2100 <mem_power_init+0x758>
    20fc:	75616665 	strbvc	r6, [r1, #-1637]!	; 0x665
    2100:	6400746c 	strvs	r7, [r0], #-1132	; 0x46c
    2104:	62617369 	rsbvs	r7, r1, #-1543503871	; 0xa4000001
    2108:	635f656c 	cmpvs	pc, #452984832	; 0x1b000000
    210c:	65686361 	strbvs	r6, [r8, #-865]!	; 0x361
    2110:	766e695f 	undefined instruction 0x766e695f
    2114:	64696c61 	strbtvs	r6, [r9], #-3169	; 0xc61
    2118:	00657461 	rsbeq	r7, r5, r1, ror #8
    211c:	65725f5f 	ldrbvs	r5, [r2, #-3935]!	; 0xf5f
    2120:	726f7473 	rsbvc	r7, pc, #1929379840	; 0x73000000
    2124:	72705f65 	rsbsvc	r5, r0, #404	; 0x194
    2128:	7365636f 	cmnvc	r5, #-1140850687	; 0xbc000001
    212c:	5f726f73 	svcpl	0x00726f73
    2130:	74617473 	strbtvc	r7, [r1], #-1139	; 0x473
    2134:	74630065 	strbtvc	r0, [r3], #-101	; 0x65
    2138:	2e007478 	mcrcs	4, 0, r7, cr0, cr8, {3}
    213c:	2f2e2e2f 	svccs	0x002e2e2f
    2140:	5f6d656d 	svcpl	0x006d656d
    2144:	2e757063 	cdpcs	0, 7, cr7, cr5, cr3, {3}
    2148:	656d0063 	strbvs	r0, [sp, #-99]!	; 0x63
    214c:	65725f6d 	ldrbvs	r5, [r2, #-3949]!	; 0xf6d
    2150:	726f7473 	rsbvc	r7, pc, #1929379840	; 0x73000000
    2154:	72705f65 	rsbsvc	r5, r0, #404	; 0x194
    2158:	7365636f 	cmnvc	r5, #-1140850687	; 0xbc000001
    215c:	5f726f73 	svcpl	0x00726f73
    2160:	74617473 	strbtvc	r7, [r1], #-1139	; 0x473
    2164:	5f5f0065 	svcpl	0x005f0065
    2168:	65766173 	ldrbvs	r6, [r6, #-371]!	; 0x173
    216c:	6f72705f 	svcvs	0x0072705f
    2170:	73736563 	cmnvc	r3, #415236096	; 0x18c00000
    2174:	735f726f 	cmpvc	pc, #-268435450	; 0xf0000006
    2178:	65746174 	ldrbvs	r6, [r4, #-372]!	; 0x174
    217c:	66656400 	strbtvs	r6, [r5], -r0, lsl #8
    2180:	746c7561 	strbtvc	r7, [ip], #-1377	; 0x561
    2184:	706f635f 	rsbvc	r6, pc, pc, asr r3
    2188:	765f6f72 	usub16vc	r6, pc, r2
    218c:	65756c61 	ldrbvs	r6, [r5, #-3169]!	; 0xc61
	...

Disassembly of section .comment:

00000000 <.comment>:
   0:	3a434347 	bcc	10d0d24 <__bss_end+0x10cca9c>
   4:	2e342820 	cdpcs	8, 3, cr2, cr4, cr0, {1}
   8:	5f342e34 	svcpl	0x00342e34
   c:	302e3930 	eorcc	r3, lr, r0, lsr r9
  10:	30322e36 	eorscc	r2, r2, r6, lsr lr
  14:	20293031 	eorcs	r3, r9, r1, lsr r0
  18:	2e342e34 	mrccs	14, 1, r2, cr4, cr4, {1}
  1c:	Address 0x0000001c is out of bounds.


Disassembly of section .ARM.attributes:

00000000 <.ARM.attributes>:
   0:	00002a41 	andeq	r2, r0, r1, asr #20
   4:	61656100 	cmnvs	r5, r0, lsl #2
   8:	01006962 	tsteq	r0, r2, ror #18
   c:	00000020 	andeq	r0, r0, r0, lsr #32
  10:	412d3705 	teqmi	sp, r5, lsl #14
  14:	070a0600 	streq	r0, [sl, -r0, lsl #12]
  18:	09010841 	stmdbeq	r1, {r0, r6, fp}
  1c:	14041202 	strne	r1, [r4], #-514	; 0x202
  20:	17011501 	strne	r1, [r1, -r1, lsl #10]
  24:	1a011803 	bne	46038 <__bss_end+0x41db0>
  28:	Address 0x00000028 is out of bounds.


Disassembly of section .debug_ranges:

00000000 <.debug_ranges>:
   0:	00000468 	andeq	r0, r0, r8, ror #8
   4:	00000478 	andeq	r0, r0, r8, ror r4
   8:	0000047c 	andeq	r0, r0, ip, ror r4
   c:	00000484 	andeq	r0, r0, r4, lsl #9
	...
  18:	00000468 	andeq	r0, r0, r8, ror #8
  1c:	00000478 	andeq	r0, r0, r8, ror r4
  20:	0000047c 	andeq	r0, r0, ip, ror r4
  24:	00000484 	andeq	r0, r0, r4, lsl #9
	...
  30:	0000050c 	andeq	r0, r0, ip, lsl #10
  34:	0000051c 	andeq	r0, r0, ip, lsl r5
  38:	00000520 	andeq	r0, r0, r0, lsr #10
  3c:	0000052c 	andeq	r0, r0, ip, lsr #10
	...
  48:	0000050c 	andeq	r0, r0, ip, lsl #10
  4c:	0000051c 	andeq	r0, r0, ip, lsl r5
  50:	00000520 	andeq	r0, r0, r0, lsr #10
  54:	0000052c 	andeq	r0, r0, ip, lsr #10
	...
  60:	00000554 	andeq	r0, r0, r4, asr r5
  64:	00000558 	andeq	r0, r0, r8, asr r5
  68:	00000588 	andeq	r0, r0, r8, lsl #11
  6c:	000005ac 	andeq	r0, r0, ip, lsr #11
  70:	0000055c 	andeq	r0, r0, ip, asr r5
  74:	00000578 	andeq	r0, r0, r8, ror r5
	...
  80:	00000554 	andeq	r0, r0, r4, asr r5
  84:	00000558 	andeq	r0, r0, r8, asr r5
  88:	00000588 	andeq	r0, r0, r8, lsl #11
  8c:	000005ac 	andeq	r0, r0, ip, lsr #11
  90:	0000055c 	andeq	r0, r0, ip, asr r5
  94:	00000578 	andeq	r0, r0, r8, ror r5
	...
  a0:	000005c0 	andeq	r0, r0, r0, asr #11
  a4:	000005c4 	andeq	r0, r0, r4, asr #11
  a8:	000005f4 	strdeq	r0, [r0], -r4
  ac:	0000061c 	andeq	r0, r0, ip, lsl r6
  b0:	000005c8 	andeq	r0, r0, r8, asr #11
  b4:	000005e4 	andeq	r0, r0, r4, ror #11
	...
  c0:	000005c0 	andeq	r0, r0, r0, asr #11
  c4:	000005c4 	andeq	r0, r0, r4, asr #11
  c8:	000005f4 	strdeq	r0, [r0], -r4
  cc:	0000061c 	andeq	r0, r0, ip, lsl r6
  d0:	000005c8 	andeq	r0, r0, r8, asr #11
  d4:	000005e4 	andeq	r0, r0, r4, ror #11
	...
  e0:	000001c0 	andeq	r0, r0, r0, asr #3
  e4:	000001c8 	andeq	r0, r0, r8, asr #3
  e8:	000001d4 	ldrdeq	r0, [r0], -r4
  ec:	000001e0 	andeq	r0, r0, r0, ror #3
  f0:	000001cc 	andeq	r0, r0, ip, asr #3
  f4:	000001d0 	ldrdeq	r0, [r0], -r0
	...
 100:	000001c0 	andeq	r0, r0, r0, asr #3
 104:	000001c8 	andeq	r0, r0, r8, asr #3
 108:	000001d4 	ldrdeq	r0, [r0], -r4
 10c:	000001e0 	andeq	r0, r0, r0, ror #3
 110:	000001cc 	andeq	r0, r0, ip, asr #3
 114:	000001d0 	ldrdeq	r0, [r0], -r0
	...
 120:	0000022c 	andeq	r0, r0, ip, lsr #4
 124:	00000234 	andeq	r0, r0, r4, lsr r2
 128:	00000240 	andeq	r0, r0, r0, asr #4
 12c:	0000024c 	andeq	r0, r0, ip, asr #4
 130:	00000238 	andeq	r0, r0, r8, lsr r2
 134:	0000023c 	andeq	r0, r0, ip, lsr r2
	...
 140:	0000022c 	andeq	r0, r0, ip, lsr #4
 144:	00000234 	andeq	r0, r0, r4, lsr r2
 148:	00000240 	andeq	r0, r0, r0, asr #4
 14c:	0000024c 	andeq	r0, r0, ip, asr #4
 150:	00000238 	andeq	r0, r0, r8, lsr r2
 154:	0000023c 	andeq	r0, r0, ip, lsr r2
	...
 160:	000002a0 	andeq	r0, r0, r0, lsr #5
 164:	000002a4 	andeq	r0, r0, r4, lsr #5
 168:	000002a8 	andeq	r0, r0, r8, lsr #5
 16c:	00000320 	andeq	r0, r0, r0, lsr #6
	...
 178:	000002a0 	andeq	r0, r0, r0, lsr #5
 17c:	000002a4 	andeq	r0, r0, r4, lsr #5
 180:	000002a8 	andeq	r0, r0, r8, lsr #5
 184:	00000320 	andeq	r0, r0, r0, lsr #6
	...
 190:	000002b4 	undefined instruction 0x000002b4
 194:	000002c8 	andeq	r0, r0, r8, asr #5
 198:	000002d8 	ldrdeq	r0, [r0], -r8
 19c:	0000032c 	andeq	r0, r0, ip, lsr #6
	...
 1a8:	000002b4 	undefined instruction 0x000002b4
 1ac:	000002c8 	andeq	r0, r0, r8, asr #5
 1b0:	000002d8 	ldrdeq	r0, [r0], -r8
 1b4:	0000032c 	andeq	r0, r0, ip, lsr #6
	...
 1c0:	000006dc 	ldrdeq	r0, [r0], -ip
 1c4:	000006e0 	andeq	r0, r0, r0, ror #13
 1c8:	000006e4 	andeq	r0, r0, r4, ror #13
 1cc:	000006ec 	andeq	r0, r0, ip, ror #13
	...
 1d8:	000006dc 	ldrdeq	r0, [r0], -ip
 1dc:	000006e0 	andeq	r0, r0, r0, ror #13
 1e0:	000006e4 	andeq	r0, r0, r4, ror #13
 1e4:	000006ec 	andeq	r0, r0, ip, ror #13
	...
 1f0:	000006e0 	andeq	r0, r0, r0, ror #13
 1f4:	000006e4 	andeq	r0, r0, r4, ror #13
 1f8:	000006ec 	andeq	r0, r0, ip, ror #13
 1fc:	00000714 	andeq	r0, r0, r4, lsl r7
	...
 208:	000006e0 	andeq	r0, r0, r0, ror #13
 20c:	000006e4 	andeq	r0, r0, r4, ror #13
 210:	000006ec 	andeq	r0, r0, ip, ror #13
 214:	00000714 	andeq	r0, r0, r4, lsl r7
	...
 220:	00000774 	andeq	r0, r0, r4, ror r7
 224:	00000788 	andeq	r0, r0, r8, lsl #15
 228:	00000794 	muleq	r0, r4, r7
 22c:	000007e8 	andeq	r0, r0, r8, ror #15
	...
 238:	00000774 	andeq	r0, r0, r4, ror r7
 23c:	00000788 	andeq	r0, r0, r8, lsl #15
 240:	00000794 	muleq	r0, r4, r7
 244:	000007e8 	andeq	r0, r0, r8, ror #15
	...
 250:	00000204 	andeq	r0, r0, r4, lsl #4
 254:	00000224 	andeq	r0, r0, r4, lsr #4
 258:	00000240 	andeq	r0, r0, r0, asr #4
 25c:	00000260 	andeq	r0, r0, r0, ror #4
	...
 268:	00000204 	andeq	r0, r0, r4, lsl #4
 26c:	00000224 	andeq	r0, r0, r4, lsr #4
 270:	00000240 	andeq	r0, r0, r0, asr #4
 274:	00000260 	andeq	r0, r0, r0, ror #4
	...
